ARM GAS  /tmp/ccmRIULt.s 			page 1


   1              		.syntax unified
   2              		.cpu cortex-m4
   3              		.fpu softvfp
   4              		.eabi_attribute 20, 1
   5              		.eabi_attribute 21, 1
   6              		.eabi_attribute 23, 3
   7              		.eabi_attribute 24, 1
   8              		.eabi_attribute 25, 1
   9              		.eabi_attribute 26, 1
  10              		.eabi_attribute 30, 2
  11              		.eabi_attribute 34, 1
  12              		.eabi_attribute 18, 4
  13              		.thumb
  14              		.file	"chcore_v7m.c"
  15              		.text
  16              	.Ltext0:
  17              		.cfi_sections	.debug_frame
  18              		.section	.text._port_switch_from_isr,"ax",%progbits
  19              		.align	2
  20              		.p2align 4,,15
  21              		.global	_port_switch_from_isr
  22              		.thumb
  23              		.thumb_func
  24              		.type	_port_switch_from_isr, %function
  25              	_port_switch_from_isr:
  26              	.LFB6:
  27              		.file 1 "../../../os/ports/GCC/ARMCMx/chcore_v7m.c"
  28              		.loc 1 200 0
  29              		.cfi_startproc
  30              		@ Naked Function: prologue and epilogue provided by programmer.
  31              		@ args = 0, pretend = 0, frame = 0
  32              		@ frame_needed = 0, uses_anonymous_args = 0
  33              		.loc 1 202 0
  34 0000 FFF7FEFF 		bl	dbg_check_lock
  35              		.loc 1 203 0
  36 0004 FFF7FEFF 		bl	chSchDoReschedule
  37              		.loc 1 204 0
  38 0008 FFF7FEFF 		bl	dbg_check_unlock
  39              		.loc 1 205 0
  40              	@ 205 "../../../os/ports/GCC/ARMCMx/chcore_v7m.c" 1
  41              		_port_exit_from_isr:
  42              	@ 0 "" 2
  43              		.loc 1 207 0
  44              	@ 207 "../../../os/ports/GCC/ARMCMx/chcore_v7m.c" 1
  45 000c 00DF     		svc     #0
  46              	@ 0 "" 2
  47              		.loc 1 214 0
  48              		.thumb
  49              		.cfi_endproc
  50              	.LFE6:
  51              		.size	_port_switch_from_isr, .-_port_switch_from_isr
  52 000e 00BF     		.section	.text.SVCallVector,"ax",%progbits
  53              		.align	2
  54              		.p2align 4,,15
  55              		.global	SVCallVector
  56              		.thumb
  57              		.thumb_func
ARM GAS  /tmp/ccmRIULt.s 			page 2


  58              		.type	SVCallVector, %function
  59              	SVCallVector:
  60              	.LFB1:
  61              		.loc 1 58 0
  62              		.cfi_startproc
  63              		@ args = 0, pretend = 0, frame = 0
  64              		@ frame_needed = 0, uses_anonymous_args = 0
  65 0000 00B5     		push	{lr}
  66              	.LCFI0:
  67              		.cfi_def_cfa_offset 4
  68              		.cfi_offset 14, -4
  69              		.loc 1 62 0
  70              	@ 62 "../../../os/ports/GCC/ARMCMx/chcore_v7m.c" 1
  71 0002 EFF30983 		mrs     r3, PSP
  72              	@ 0 "" 2
  73              	.LVL0:
  74              		.loc 1 66 0
  75              		.thumb
  76 0006 2033     		adds	r3, r3, #32
  77              	.LVL1:
  78              		.loc 1 73 0
  79              	@ 73 "../../../os/ports/GCC/ARMCMx/chcore_v7m.c" 1
  80 0008 83F30988 		msr     PSP, r3
  81              	@ 0 "" 2
  82              		.loc 1 74 0
  83              	@ 74 "../../../os/ports/GCC/ARMCMx/chcore_v7m.c" 1
  84 000c FFF7FEFF 		bl      _port_unlock
  85              	@ 0 "" 2
  86              	.LVL2:
  87              		.loc 1 75 0
  88              		.thumb
  89 0010 5DF804FB 		ldr	pc, [sp], #4
  90              		.cfi_endproc
  91              	.LFE1:
  92              		.size	SVCallVector, .-SVCallVector
  93 0014 AFF30080 		.section	.text._port_init,"ax",%progbits
  93      AFF30080 
  93      AFF30080 
  94              		.align	2
  95              		.p2align 4,,15
  96              		.global	_port_init
  97              		.thumb
  98              		.thumb_func
  99              		.type	_port_init, %function
 100              	_port_init:
 101              	.LFB2:
 102              		.loc 1 111 0
 103              		.cfi_startproc
 104              		@ args = 0, pretend = 0, frame = 0
 105              		@ frame_needed = 0, uses_anonymous_args = 0
 106 0000 08B5     		push	{r3, lr}
 107              	.LCFI1:
 108              		.cfi_def_cfa_offset 8
 109              		.cfi_offset 14, -4
 110              		.cfi_offset 3, -8
 111              		.loc 1 114 0
 112 0002 4FF46D43 		mov	r3, #60672
ARM GAS  /tmp/ccmRIULt.s 			page 3


 113 0006 CEF20003 		movt	r3, 57344
 114              		.loc 1 115 0
 115 000a 4FF44072 		mov	r2, #768
 116 000e C0F2FA52 		movt	r2, 1530
 117              		.loc 1 114 0
 118 0012 0021     		movs	r1, #0
 119 0014 9960     		str	r1, [r3, #8]
 120              		.loc 1 118 0
 121 0016 0720     		movs	r0, #7
 122 0018 1021     		movs	r1, #16
 123              		.loc 1 115 0
 124 001a DA60     		str	r2, [r3, #12]
 125              		.loc 1 118 0
 126 001c FFF7FEFF 		bl	nvicSetSystemHandlerPriority
 127              		.loc 1 120 0
 128 0020 0A20     		movs	r0, #10
 129 0022 4FF40071 		mov	r1, #512
 130 0026 FFF7FEFF 		bl	nvicSetSystemHandlerPriority
 131              		.loc 1 122 0
 132 002a 0B20     		movs	r0, #11
 133 002c 8021     		movs	r1, #128
 134              		.loc 1 124 0
 135 002e BDE80840 		pop	{r3, lr}
 136              		.loc 1 122 0
 137 0032 FFF7FEBF 		b	nvicSetSystemHandlerPriority
 138              		.cfi_endproc
 139              	.LFE2:
 140              		.size	_port_init, .-_port_init
 141 0036 00BFAFF3 		.section	.text._port_lock,"ax",%progbits
 141      0080AFF3 
 141      0080
 142              		.align	2
 143              		.p2align 4,,15
 144              		.global	_port_lock
 145              		.thumb
 146              		.thumb_func
 147              		.type	_port_lock, %function
 148              	_port_lock:
 149              	.LFB3:
 150              		.loc 1 127 0
 151              		.cfi_startproc
 152              		@ args = 0, pretend = 0, frame = 0
 153              		@ frame_needed = 0, uses_anonymous_args = 0
 154              		@ link register save eliminated.
 155              		.loc 1 128 0
 156 0000 2023     		movs	r3, #32
 157              	.LVL3:
 158              		.loc 1 129 0
 159              	@ 129 "../../../os/ports/GCC/ARMCMx/chcore_v7m.c" 1
 160 0002 83F31188 		msr     BASEPRI, r3
 161              	@ 0 "" 2
 162              	.LVL4:
 163              		.loc 1 130 0
 164              		.thumb
 165 0006 7047     		bx	lr
 166              		.cfi_endproc
 167              	.LFE3:
ARM GAS  /tmp/ccmRIULt.s 			page 4


 168              		.size	_port_lock, .-_port_lock
 169 0008 AFF30080 		.section	.text._port_unlock,"ax",%progbits
 169      AFF30080 
 170              		.align	2
 171              		.p2align 4,,15
 172              		.global	_port_unlock
 173              		.thumb
 174              		.thumb_func
 175              		.type	_port_unlock, %function
 176              	_port_unlock:
 177              	.LFB4:
 178              		.loc 1 132 0
 179              		.cfi_startproc
 180              		@ args = 0, pretend = 0, frame = 0
 181              		@ frame_needed = 0, uses_anonymous_args = 0
 182              		@ link register save eliminated.
 183              		.loc 1 133 0
 184 0000 0023     		movs	r3, #0
 185              	.LVL5:
 186              		.loc 1 134 0
 187              	@ 134 "../../../os/ports/GCC/ARMCMx/chcore_v7m.c" 1
 188 0002 83F31188 		msr     BASEPRI, r3
 189              	@ 0 "" 2
 190              	.LVL6:
 191              		.loc 1 135 0
 192              		.thumb
 193 0006 7047     		bx	lr
 194              		.cfi_endproc
 195              	.LFE4:
 196              		.size	_port_unlock, .-_port_unlock
 197 0008 AFF30080 		.section	.text._port_irq_epilogue,"ax",%progbits
 197      AFF30080 
 198              		.align	2
 199              		.p2align 4,,15
 200              		.global	_port_irq_epilogue
 201              		.thumb
 202              		.thumb_func
 203              		.type	_port_irq_epilogue, %function
 204              	_port_irq_epilogue:
 205              	.LFB5:
 206              		.loc 1 141 0
 207              		.cfi_startproc
 208              		@ args = 0, pretend = 0, frame = 0
 209              		@ frame_needed = 0, uses_anonymous_args = 0
 210 0000 00B5     		push	{lr}
 211              	.LCFI2:
 212              		.cfi_def_cfa_offset 4
 213              		.cfi_offset 14, -4
 214              		.loc 1 143 0
 215              	@ 143 "../../../os/ports/GCC/ARMCMx/chcore_v7m.c" 1
 216 0002 FFF7FEFF 		bl      _port_lock
 217              	@ 0 "" 2
 218              		.loc 1 144 0
 219              		.thumb
 220 0006 4FF46D40 		mov	r0, #60672
 221 000a CEF20000 		movt	r0, 57344
 222 000e 4368     		ldr	r3, [r0, #4]
ARM GAS  /tmp/ccmRIULt.s 			page 5


 223 0010 1B05     		lsls	r3, r3, #20
 224 0012 21D5     		bpl	.L7
 225              	.LBB2:
 226              		.loc 1 148 0
 227              	@ 148 "../../../os/ports/GCC/ARMCMx/chcore_v7m.c" 1
 228 0014 EFF30982 		mrs     r2, PSP
 229              	@ 0 "" 2
 230              	.LVL7:
 231              		.loc 1 152 0
 232              		.thumb
 233 0018 A2F12000 		sub	r0, r2, #32
 234              		.loc 1 153 0
 235              	@ 153 "../../../os/ports/GCC/ARMCMx/chcore_v7m.c" 1
 236 001c 80F30988 		msr     PSP, r0
 237              	@ 0 "" 2
 238              		.loc 1 158 0
 239              		.thumb
 240 0020 40F2000C 		movw	ip, #:lower16:rlist
 241 0024 C0F2000C 		movt	ip, #:upper16:rlist
 242              		.loc 1 154 0
 243 0028 4FF08070 		mov	r0, #16777216
 244              		.loc 1 158 0
 245 002c DCF80010 		ldr	r1, [ip, #0]
 246 0030 DCF81830 		ldr	r3, [ip, #24]
 247 0034 8968     		ldr	r1, [r1, #8]
 248 0036 9B68     		ldr	r3, [r3, #8]
 249              		.loc 1 154 0
 250 0038 42F8040C 		str	r0, [r2, #-4]
 251              		.loc 1 158 0
 252 003c 9942     		cmp	r1, r3
 253              		.loc 1 160 0
 254 003e 8BBF     		itete	hi
 255 0040 40F20003 		movwhi	r3, #:lower16:_port_switch_from_isr
 256              		.loc 1 169 0
 257 0044 40F20003 		movwls	r3, #:lower16:_port_exit_from_isr
 258              		.loc 1 160 0
 259 0048 C0F20003 		movthi	r3, #:upper16:_port_switch_from_isr
 260              		.loc 1 169 0
 261 004c C0F20003 		movtls	r3, #:upper16:_port_exit_from_isr
 262 0050 42F8083C 		str	r3, [r2, #-8]
 263 0054 5DF804FB 		ldr	pc, [sp], #4
 264              	.LVL8:
 265              	.L7:
 266              	.LBE2:
 267              		.loc 1 190 0
 268              	@ 190 "../../../os/ports/GCC/ARMCMx/chcore_v7m.c" 1
 269 0058 FFF7FEFF 		bl      _port_unlock
 270              	@ 0 "" 2
 271              		.thumb
 272 005c 5DF804FB 		ldr	pc, [sp], #4
 273              		.cfi_endproc
 274              	.LFE5:
 275              		.size	_port_irq_epilogue, .-_port_irq_epilogue
 276              		.section	.text.SysTickVector,"ax",%progbits
 277              		.align	2
 278              		.p2align 4,,15
 279              		.global	SysTickVector
ARM GAS  /tmp/ccmRIULt.s 			page 6


 280              		.thumb
 281              		.thumb_func
 282              		.type	SysTickVector, %function
 283              	SysTickVector:
 284              	.LFB0:
 285              		.loc 1 40 0
 286              		.cfi_startproc
 287              		@ args = 0, pretend = 0, frame = 0
 288              		@ frame_needed = 0, uses_anonymous_args = 0
 289 0000 08B5     		push	{r3, lr}
 290              	.LCFI3:
 291              		.cfi_def_cfa_offset 8
 292              		.cfi_offset 14, -4
 293              		.cfi_offset 3, -8
 294              		.loc 1 42 0
 295 0002 FFF7FEFF 		bl	dbg_check_enter_isr
 296              		.loc 1 44 0
 297              	@ 44 "../../../os/ports/GCC/ARMCMx/chcore_v7m.c" 1
 298 0006 FFF7FEFF 		bl      _port_lock
 299              	@ 0 "" 2
 300              		.thumb
 301 000a FFF7FEFF 		bl	dbg_check_lock_from_isr
 302              		.loc 1 45 0
 303 000e FFF7FEFF 		bl	chSysTimerHandlerI
 304              		.loc 1 46 0
 305 0012 FFF7FEFF 		bl	dbg_check_unlock_from_isr
 306              	@ 46 "../../../os/ports/GCC/ARMCMx/chcore_v7m.c" 1
 307 0016 FFF7FEFF 		bl      _port_unlock
 308              	@ 0 "" 2
 309              		.loc 1 48 0
 310              		.thumb
 311 001a FFF7FEFF 		bl	dbg_check_leave_isr
 312              		.loc 1 49 0
 313 001e BDE80840 		pop	{r3, lr}
 314              		.loc 1 48 0
 315 0022 FFF7FEBF 		b	_port_irq_epilogue
 316              		.cfi_endproc
 317              	.LFE0:
 318              		.size	SysTickVector, .-SysTickVector
 319 0026 00BFAFF3 		.section	.text._port_switch,"ax",%progbits
 319      0080AFF3 
 319      0080
 320              		.align	2
 321              		.p2align 4,,15
 322              		.global	_port_switch
 323              		.thumb
 324              		.thumb_func
 325              		.type	_port_switch, %function
 326              	_port_switch:
 327              	.LFB7:
 328              		.loc 1 229 0
 329              		.cfi_startproc
 330              		@ Naked Function: prologue and epilogue provided by programmer.
 331              		@ args = 0, pretend = 0, frame = 0
 332              		@ frame_needed = 0, uses_anonymous_args = 0
 333              	.LVL9:
 334              		.loc 1 231 0
ARM GAS  /tmp/ccmRIULt.s 			page 7


 335              	@ 231 "../../../os/ports/GCC/ARMCMx/chcore_v7m.c" 1
 336 0000 2DE9F04F 		push    {r4, r5, r6, r7, r8, r9, r10, r11, lr}
 337              	@ 0 "" 2
 338              		.loc 1 237 0
 339              	@ 237 "../../../os/ports/GCC/ARMCMx/chcore_v7m.c" 1
 340 0004 C1F80CD0 		str     sp, [r1, #12]                          
 341 0008 D0F80CD0 		ldr     sp, [r0, #12]
 342              	@ 0 "" 2
 343              		.loc 1 243 0
 344              	@ 243 "../../../os/ports/GCC/ARMCMx/chcore_v7m.c" 1
 345 000c BDE8F08F 		pop     {r4, r5, r6, r7, r8, r9, r10, r11, pc}
 346              	@ 0 "" 2
 347              		.loc 1 245 0
 348              		.thumb
 349              		.cfi_endproc
 350              	.LFE7:
 351              		.size	_port_switch, .-_port_switch
 352              		.section	.text._port_thread_start,"ax",%progbits
 353              		.align	2
 354              		.p2align 4,,15
 355              		.global	_port_thread_start
 356              		.thumb
 357              		.thumb_func
 358              		.type	_port_thread_start, %function
 359              	_port_thread_start:
 360              	.LFB8:
 361              		.loc 1 252 0
 362              		.cfi_startproc
 363              		@ args = 0, pretend = 0, frame = 0
 364              		@ frame_needed = 0, uses_anonymous_args = 0
 365 0000 08B5     		push	{r3, lr}
 366              	.LCFI4:
 367              		.cfi_def_cfa_offset 8
 368              		.cfi_offset 14, -4
 369              		.cfi_offset 3, -8
 370              		.loc 1 254 0
 371 0002 FFF7FEFF 		bl	dbg_check_unlock
 372              	@ 254 "../../../os/ports/GCC/ARMCMx/chcore_v7m.c" 1
 373 0006 FFF7FEFF 		bl      _port_unlock
 374              	@ 0 "" 2
 375              		.loc 1 255 0
 376              	@ 255 "../../../os/ports/GCC/ARMCMx/chcore_v7m.c" 1
 377 000a 2846     		mov     r0, r5                                 
 378 000c A047     		blx     r4                                     
 379 000e FFF7FEFF 		bl      chThdExit
 380              	@ 0 "" 2
 381              		.loc 1 258 0
 382              		.thumb
 383 0012 08BD     		pop	{r3, pc}
 384              		.cfi_endproc
 385              	.LFE8:
 386              		.size	_port_thread_start, .-_port_thread_start
 387 0014 AFF30080 		.text
 387      AFF30080 
 387      AFF30080 
 388              	.Letext0:
 389              		.file 2 "/home/prana/CodeSourcery/ARM_EABI/bin/../lib/gcc/arm-none-eabi/4.6.3/../../../../arm-none
ARM GAS  /tmp/ccmRIULt.s 			page 8


 390              		.file 3 "../../../os/ports/GCC/ARMCMx/chtypes.h"
 391              		.file 4 "../../../os/kernel/include/chlists.h"
 392              		.file 5 "../../../os/kernel/include/chthreads.h"
 393              		.file 6 "../../../os/ports/GCC/ARMCMx/chcore_v7m.h"
 394              		.file 7 "../../../os/ports/common/ARMCMx/nvic.h"
 395              		.file 8 "../../../os/kernel/include/chschd.h"
 396              		.file 9 "../../../os/kernel/include/chmtx.h"