ARM GAS  /tmp/ccXe99SB.s 			page 1


   1              		.syntax unified
   2              		.cpu cortex-m4
   3              		.fpu softvfp
   4              		.eabi_attribute 20, 1
   5              		.eabi_attribute 21, 1
   6              		.eabi_attribute 23, 3
   7              		.eabi_attribute 24, 1
   8              		.eabi_attribute 25, 1
   9              		.eabi_attribute 26, 1
  10              		.eabi_attribute 30, 2
  11              		.eabi_attribute 34, 1
  12              		.eabi_attribute 18, 4
  13              		.thumb
  14              		.file	"chevents.c"
  15              		.text
  16              	.Ltext0:
  17              		.cfi_sections	.debug_frame
  18              		.section	.text.chEvtRegisterMask,"ax",%progbits
  19              		.align	2
  20              		.p2align 4,,15
  21              		.global	chEvtRegisterMask
  22              		.thumb
  23              		.thumb_func
  24              		.type	chEvtRegisterMask, %function
  25              	chEvtRegisterMask:
  26              	.LFB0:
  27              		.file 1 "../../../os/kernel/src/chevents.c"
  28              		.loc 1 78 0
  29              		.cfi_startproc
  30              		@ args = 0, pretend = 0, frame = 0
  31              		@ frame_needed = 0, uses_anonymous_args = 0
  32              	.LVL0:
  33              		.loc 1 80 0
  34 0000 D0F10103 		rsbs	r3, r0, #1
  35 0004 38BF     		it	cc
  36 0006 0023     		movcc	r3, #0
  37 0008 0029     		cmp	r1, #0
  38 000a 08BF     		it	eq
  39 000c 43F00103 		orreq	r3, r3, #1
  40              		.loc 1 78 0
  41 0010 70B5     		push	{r4, r5, r6, lr}
  42              	.LCFI0:
  43              		.cfi_def_cfa_offset 16
  44              		.cfi_offset 14, -4
  45              		.cfi_offset 6, -8
  46              		.cfi_offset 5, -12
  47              		.cfi_offset 4, -16
  48              		.loc 1 80 0
  49 0012 0446     		mov	r4, r0
  50 0014 0D46     		mov	r5, r1
  51              		.loc 1 78 0
  52 0016 1646     		mov	r6, r2
  53              		.loc 1 80 0
  54 0018 2BB1     		cbz	r3, .L2
  55              		.loc 1 80 0 is_stmt 0 discriminator 1
  56 001a 40F20000 		movw	r0, #:lower16:.LC0
  57              	.LVL1:
ARM GAS  /tmp/ccXe99SB.s 			page 2


  58 001e C0F20000 		movt	r0, #:upper16:.LC0
  59 0022 FFF7FEFF 		bl	chDbgPanic
  60              	.LVL2:
  61              	.L2:
  62              		.loc 1 82 0 is_stmt 1
  63              	@ 82 "../../../os/kernel/src/chevents.c" 1
  64 0026 FFF7FEFF 		bl      _port_lock
  65              	@ 0 "" 2
  66              		.thumb
  67 002a FFF7FEFF 		bl	dbg_check_lock
  68              		.loc 1 85 0
  69 002e 40F2000C 		movw	ip, #:lower16:rlist
  70 0032 C0F2000C 		movt	ip, #:upper16:rlist
  71              		.loc 1 83 0
  72 0036 2268     		ldr	r2, [r4, #0]
  73              		.loc 1 85 0
  74 0038 DCF81810 		ldr	r1, [ip, #24]
  75              		.loc 1 83 0
  76 003c 2A60     		str	r2, [r5, #0]
  77              		.loc 1 87 0
  78 003e 0020     		movs	r0, #0
  79              		.loc 1 84 0
  80 0040 2560     		str	r5, [r4, #0]
  81              		.loc 1 85 0
  82 0042 6960     		str	r1, [r5, #4]
  83              		.loc 1 86 0
  84 0044 AE60     		str	r6, [r5, #8]
  85              		.loc 1 87 0
  86 0046 E860     		str	r0, [r5, #12]
  87              		.loc 1 88 0
  88 0048 FFF7FEFF 		bl	dbg_check_unlock
  89              	@ 88 "../../../os/kernel/src/chevents.c" 1
  90 004c FFF7FEFF 		bl      _port_unlock
  91              	@ 0 "" 2
  92              		.loc 1 89 0
  93              		.thumb
  94 0050 70BD     		pop	{r4, r5, r6, pc}
  95              		.cfi_endproc
  96              	.LFE0:
  97              		.size	chEvtRegisterMask, .-chEvtRegisterMask
  98 0052 00BFAFF3 		.section	.text.chEvtUnregister,"ax",%progbits
  98      0080AFF3 
  98      0080AFF3 
  98      0080
  99              		.align	2
 100              		.p2align 4,,15
 101              		.global	chEvtUnregister
 102              		.thumb
 103              		.thumb_func
 104              		.type	chEvtUnregister, %function
 105              	chEvtUnregister:
 106              	.LFB1:
 107              		.loc 1 104 0
 108              		.cfi_startproc
 109              		@ args = 0, pretend = 0, frame = 0
 110              		@ frame_needed = 0, uses_anonymous_args = 0
 111              	.LVL3:
ARM GAS  /tmp/ccXe99SB.s 			page 3


 112 0000 38B5     		push	{r3, r4, r5, lr}
 113              	.LCFI1:
 114              		.cfi_def_cfa_offset 16
 115              		.cfi_offset 14, -4
 116              		.cfi_offset 5, -8
 117              		.cfi_offset 4, -12
 118              		.cfi_offset 3, -16
 119              		.loc 1 107 0
 120 0002 D0F10103 		rsbs	r3, r0, #1
 121 0006 38BF     		it	cc
 122 0008 0023     		movcc	r3, #0
 123 000a 0029     		cmp	r1, #0
 124 000c 08BF     		it	eq
 125 000e 43F00103 		orreq	r3, r3, #1
 126 0012 0446     		mov	r4, r0
 127 0014 0D46     		mov	r5, r1
 128 0016 BBB9     		cbnz	r3, .L10
 129              	.LVL4:
 130              	.L5:
 131              		.loc 1 110 0
 132              	@ 110 "../../../os/kernel/src/chevents.c" 1
 133 0018 FFF7FEFF 		bl      _port_lock
 134              	@ 0 "" 2
 135              		.thumb
 136 001c FFF7FEFF 		bl	dbg_check_lock
 137              		.loc 1 111 0
 138 0020 2246     		mov	r2, r4
 139 0022 02E0     		b	.L6
 140              	.LVL5:
 141              	.L8:
 142              		.loc 1 112 0
 143 0024 9D42     		cmp	r5, r3
 144 0026 08D0     		beq	.L11
 145 0028 1A46     		mov	r2, r3
 146              	.LVL6:
 147              	.L6:
 148              		.loc 1 111 0 discriminator 1
 149 002a 1368     		ldr	r3, [r2, #0]
 150 002c A342     		cmp	r3, r4
 151 002e F9D1     		bne	.L8
 152              		.loc 1 118 0
 153 0030 FFF7FEFF 		bl	dbg_check_unlock
 154              	.LVL7:
 155              	@ 118 "../../../os/kernel/src/chevents.c" 1
 156 0034 FFF7FEFF 		bl      _port_unlock
 157              	@ 0 "" 2
 158              		.loc 1 119 0
 159              		.thumb
 160 0038 38BD     		pop	{r3, r4, r5, pc}
 161              	.LVL8:
 162              	.L11:
 163              		.loc 1 113 0
 164 003a 2868     		ldr	r0, [r5, #0]
 165 003c 1060     		str	r0, [r2, #0]
 166              		.loc 1 118 0
 167 003e FFF7FEFF 		bl	dbg_check_unlock
 168              	.LVL9:
ARM GAS  /tmp/ccXe99SB.s 			page 4


 169              	@ 118 "../../../os/kernel/src/chevents.c" 1
 170 0042 FFF7FEFF 		bl      _port_unlock
 171              	@ 0 "" 2
 172              		.loc 1 119 0
 173              		.thumb
 174 0046 38BD     		pop	{r3, r4, r5, pc}
 175              	.L10:
 176              		.loc 1 107 0 discriminator 1
 177 0048 40F20000 		movw	r0, #:lower16:.LC1
 178 004c C0F20000 		movt	r0, #:upper16:.LC1
 179 0050 FFF7FEFF 		bl	chDbgPanic
 180 0054 E0E7     		b	.L5
 181              		.cfi_endproc
 182              	.LFE1:
 183              		.size	chEvtUnregister, .-chEvtUnregister
 184 0056 00BFAFF3 		.section	.text.chEvtGetAndClearEvents,"ax",%progbits
 184      0080AFF3 
 184      0080
 185              		.align	2
 186              		.p2align 4,,15
 187              		.global	chEvtGetAndClearEvents
 188              		.thumb
 189              		.thumb_func
 190              		.type	chEvtGetAndClearEvents, %function
 191              	chEvtGetAndClearEvents:
 192              	.LFB2:
 193              		.loc 1 129 0
 194              		.cfi_startproc
 195              		@ args = 0, pretend = 0, frame = 0
 196              		@ frame_needed = 0, uses_anonymous_args = 0
 197              	.LVL10:
 198 0000 10B5     		push	{r4, lr}
 199              	.LCFI2:
 200              		.cfi_def_cfa_offset 8
 201              		.cfi_offset 14, -4
 202              		.cfi_offset 4, -8
 203              		.loc 1 129 0
 204 0002 0446     		mov	r4, r0
 205              		.loc 1 132 0
 206              	@ 132 "../../../os/kernel/src/chevents.c" 1
 207 0004 FFF7FEFF 		bl      _port_lock
 208              	@ 0 "" 2
 209              		.thumb
 210 0008 FFF7FEFF 		bl	dbg_check_lock
 211              	.LVL11:
 212              		.loc 1 134 0
 213 000c 40F20000 		movw	r0, #:lower16:rlist
 214 0010 C0F20000 		movt	r0, #:upper16:rlist
 215 0014 8269     		ldr	r2, [r0, #24]
 216 0016 D36B     		ldr	r3, [r2, #60]
 217              		.loc 1 135 0
 218 0018 23EA0401 		bic	r1, r3, r4
 219 001c D163     		str	r1, [r2, #60]
 220              		.loc 1 134 0
 221 001e 1C40     		ands	r4, r4, r3
 222              	.LVL12:
 223              		.loc 1 137 0
ARM GAS  /tmp/ccXe99SB.s 			page 5


 224 0020 FFF7FEFF 		bl	dbg_check_unlock
 225              	@ 137 "../../../os/kernel/src/chevents.c" 1
 226 0024 FFF7FEFF 		bl      _port_unlock
 227              	@ 0 "" 2
 228              		.loc 1 139 0
 229              		.thumb
 230 0028 2046     		mov	r0, r4
 231 002a 10BD     		pop	{r4, pc}
 232              		.cfi_endproc
 233              	.LFE2:
 234              		.size	chEvtGetAndClearEvents, .-chEvtGetAndClearEvents
 235 002c AFF30080 		.section	.text.chEvtAddEvents,"ax",%progbits
 236              		.align	2
 237              		.p2align 4,,15
 238              		.global	chEvtAddEvents
 239              		.thumb
 240              		.thumb_func
 241              		.type	chEvtAddEvents, %function
 242              	chEvtAddEvents:
 243              	.LFB3:
 244              		.loc 1 150 0
 245              		.cfi_startproc
 246              		@ args = 0, pretend = 0, frame = 0
 247              		@ frame_needed = 0, uses_anonymous_args = 0
 248              	.LVL13:
 249 0000 10B5     		push	{r4, lr}
 250              	.LCFI3:
 251              		.cfi_def_cfa_offset 8
 252              		.cfi_offset 14, -4
 253              		.cfi_offset 4, -8
 254              		.loc 1 150 0
 255 0002 0446     		mov	r4, r0
 256              		.loc 1 152 0
 257              	@ 152 "../../../os/kernel/src/chevents.c" 1
 258 0004 FFF7FEFF 		bl      _port_lock
 259              	@ 0 "" 2
 260              		.thumb
 261 0008 FFF7FEFF 		bl	dbg_check_lock
 262              	.LVL14:
 263              		.loc 1 154 0
 264 000c 40F20000 		movw	r0, #:lower16:rlist
 265 0010 C0F20000 		movt	r0, #:upper16:rlist
 266 0014 8369     		ldr	r3, [r0, #24]
 267 0016 DA6B     		ldr	r2, [r3, #60]
 268 0018 1443     		orrs	r4, r4, r2
 269              	.LVL15:
 270 001a DC63     		str	r4, [r3, #60]
 271              	.LVL16:
 272              		.loc 1 156 0
 273 001c FFF7FEFF 		bl	dbg_check_unlock
 274              	@ 156 "../../../os/kernel/src/chevents.c" 1
 275 0020 FFF7FEFF 		bl      _port_unlock
 276              	@ 0 "" 2
 277              		.loc 1 158 0
 278              		.thumb
 279 0024 2046     		mov	r0, r4
 280 0026 10BD     		pop	{r4, pc}
ARM GAS  /tmp/ccXe99SB.s 			page 6


 281              		.cfi_endproc
 282              	.LFE3:
 283              		.size	chEvtAddEvents, .-chEvtAddEvents
 284              		.section	.text.chEvtGetAndClearFlags,"ax",%progbits
 285              		.align	2
 286              		.p2align 4,,15
 287              		.global	chEvtGetAndClearFlags
 288              		.thumb
 289              		.thumb_func
 290              		.type	chEvtGetAndClearFlags, %function
 291              	chEvtGetAndClearFlags:
 292              	.LFB5:
 293              		.loc 1 202 0
 294              		.cfi_startproc
 295              		@ args = 0, pretend = 0, frame = 0
 296              		@ frame_needed = 0, uses_anonymous_args = 0
 297              	.LVL17:
 298 0000 38B5     		push	{r3, r4, r5, lr}
 299              	.LCFI4:
 300              		.cfi_def_cfa_offset 16
 301              		.cfi_offset 14, -4
 302              		.cfi_offset 5, -8
 303              		.cfi_offset 4, -12
 304              		.cfi_offset 3, -16
 305              		.loc 1 202 0
 306 0002 0446     		mov	r4, r0
 307              		.loc 1 205 0
 308              	@ 205 "../../../os/kernel/src/chevents.c" 1
 309 0004 FFF7FEFF 		bl      _port_lock
 310              	@ 0 "" 2
 311              		.thumb
 312 0008 FFF7FEFF 		bl	dbg_check_lock
 313              	.LVL18:
 314              		.loc 1 208 0
 315 000c 0023     		movs	r3, #0
 316              		.loc 1 207 0
 317 000e E568     		ldr	r5, [r4, #12]
 318              	.LVL19:
 319              		.loc 1 208 0
 320 0010 E360     		str	r3, [r4, #12]
 321              		.loc 1 210 0
 322 0012 FFF7FEFF 		bl	dbg_check_unlock
 323              	.LVL20:
 324              	@ 210 "../../../os/kernel/src/chevents.c" 1
 325 0016 FFF7FEFF 		bl      _port_unlock
 326              	@ 0 "" 2
 327              		.loc 1 212 0
 328              		.thumb
 329 001a 2846     		mov	r0, r5
 330 001c 38BD     		pop	{r3, r4, r5, pc}
 331              		.cfi_endproc
 332              	.LFE5:
 333              		.size	chEvtGetAndClearFlags, .-chEvtGetAndClearFlags
 334 001e 00BF     		.section	.text.chEvtSignalI,"ax",%progbits
 335              		.align	2
 336              		.p2align 4,,15
 337              		.global	chEvtSignalI
ARM GAS  /tmp/ccXe99SB.s 			page 7


 338              		.thumb
 339              		.thumb_func
 340              		.type	chEvtSignalI, %function
 341              	chEvtSignalI:
 342              	.LFB7:
 343              		.loc 1 244 0
 344              		.cfi_startproc
 345              		@ args = 0, pretend = 0, frame = 0
 346              		@ frame_needed = 0, uses_anonymous_args = 0
 347              	.LVL21:
 348 0000 38B5     		push	{r3, r4, r5, lr}
 349              	.LCFI5:
 350              		.cfi_def_cfa_offset 16
 351              		.cfi_offset 14, -4
 352              		.cfi_offset 5, -8
 353              		.cfi_offset 4, -12
 354              		.cfi_offset 3, -16
 355              		.loc 1 244 0
 356 0002 0446     		mov	r4, r0
 357 0004 0D46     		mov	r5, r1
 358              		.loc 1 246 0
 359 0006 FFF7FEFF 		bl	chDbgCheckClassI
 360              	.LVL22:
 361              		.loc 1 247 0
 362 000a BCB1     		cbz	r4, .L20
 363              	.L16:
 364              		.loc 1 249 0
 365 000c E26B     		ldr	r2, [r4, #60]
 366              		.loc 1 251 0
 367 000e 94F82030 		ldrb	r3, [r4, #32]	@ zero_extendqisi2
 368              		.loc 1 249 0
 369 0012 1543     		orrs	r5, r5, r2
 370              	.LVL23:
 371              		.loc 1 251 0
 372 0014 082B     		cmp	r3, #8
 373              		.loc 1 249 0
 374 0016 E563     		str	r5, [r4, #60]
 375              		.loc 1 251 0
 376 0018 0CD0     		beq	.L21
 377              		.loc 1 252 0
 378 001a 092B     		cmp	r3, #9
 379 001c 00D0     		beq	.L22
 380              	.L15:
 381 001e 38BD     		pop	{r3, r4, r5, pc}
 382              	.L22:
 383              		.loc 1 254 0
 384 0020 A06A     		ldr	r0, [r4, #40]
 385 0022 0540     		ands	r5, r5, r0
 386              		.loc 1 253 0
 387 0024 A842     		cmp	r0, r5
 388 0026 FAD1     		bne	.L15
 389              	.L18:
 390              	.LVL24:
 391              	.LBB4:
 392              	.LBB5:
 393              		.loc 1 255 0
 394 0028 2046     		mov	r0, r4
ARM GAS  /tmp/ccXe99SB.s 			page 8


 395 002a FFF7FEFF 		bl	chSchReadyI
 396 002e 0021     		movs	r1, #0
 397 0030 8162     		str	r1, [r0, #40]
 398 0032 38BD     		pop	{r3, r4, r5, pc}
 399              	.LVL25:
 400              	.L21:
 401              	.LBE5:
 402              	.LBE4:
 403              		.loc 1 252 0 discriminator 1
 404 0034 A36A     		ldr	r3, [r4, #40]
 405              		.loc 1 251 0 discriminator 1
 406 0036 1D42     		tst	r5, r3
 407 0038 F6D1     		bne	.L18
 408 003a 38BD     		pop	{r3, r4, r5, pc}
 409              	.LVL26:
 410              	.L20:
 411              		.loc 1 247 0 discriminator 1
 412 003c 40F20000 		movw	r0, #:lower16:.LC2
 413 0040 C0F20000 		movt	r0, #:upper16:.LC2
 414 0044 FFF7FEFF 		bl	chDbgPanic
 415 0048 E0E7     		b	.L16
 416              		.cfi_endproc
 417              	.LFE7:
 418              		.size	chEvtSignalI, .-chEvtSignalI
 419 004a 00BFAFF3 		.section	.text.chEvtSignal,"ax",%progbits
 419      0080
 420              		.align	2
 421              		.p2align 4,,15
 422              		.global	chEvtSignal
 423              		.thumb
 424              		.thumb_func
 425              		.type	chEvtSignal, %function
 426              	chEvtSignal:
 427              	.LFB6:
 428              		.loc 1 222 0
 429              		.cfi_startproc
 430              		@ args = 0, pretend = 0, frame = 0
 431              		@ frame_needed = 0, uses_anonymous_args = 0
 432              	.LVL27:
 433 0000 38B5     		push	{r3, r4, r5, lr}
 434              	.LCFI6:
 435              		.cfi_def_cfa_offset 16
 436              		.cfi_offset 14, -4
 437              		.cfi_offset 5, -8
 438              		.cfi_offset 4, -12
 439              		.cfi_offset 3, -16
 440              		.loc 1 224 0
 441 0002 0446     		mov	r4, r0
 442              		.loc 1 222 0
 443 0004 0D46     		mov	r5, r1
 444              		.loc 1 224 0
 445 0006 70B1     		cbz	r0, .L25
 446              	.LVL28:
 447              	.L24:
 448              		.loc 1 226 0
 449              	@ 226 "../../../os/kernel/src/chevents.c" 1
 450 0008 FFF7FEFF 		bl      _port_lock
ARM GAS  /tmp/ccXe99SB.s 			page 9


 451              	@ 0 "" 2
 452              		.thumb
 453 000c FFF7FEFF 		bl	dbg_check_lock
 454              		.loc 1 227 0
 455 0010 2046     		mov	r0, r4
 456 0012 2946     		mov	r1, r5
 457 0014 FFF7FEFF 		bl	chEvtSignalI
 458              		.loc 1 228 0
 459 0018 FFF7FEFF 		bl	chSchRescheduleS
 460              		.loc 1 229 0
 461 001c FFF7FEFF 		bl	dbg_check_unlock
 462              	@ 229 "../../../os/kernel/src/chevents.c" 1
 463 0020 FFF7FEFF 		bl      _port_unlock
 464              	@ 0 "" 2
 465              		.loc 1 230 0
 466              		.thumb
 467 0024 38BD     		pop	{r3, r4, r5, pc}
 468              	.L25:
 469              		.loc 1 224 0 discriminator 1
 470 0026 40F20000 		movw	r0, #:lower16:.LC3
 471 002a C0F20000 		movt	r0, #:upper16:.LC3
 472 002e FFF7FEFF 		bl	chDbgPanic
 473 0032 E9E7     		b	.L24
 474              		.cfi_endproc
 475              	.LFE6:
 476              		.size	chEvtSignal, .-chEvtSignal
 477 0034 AFF30080 		.section	.text.chEvtBroadcastFlagsI,"ax",%progbits
 477      AFF30080 
 477      AFF30080 
 478              		.align	2
 479              		.p2align 4,,15
 480              		.global	chEvtBroadcastFlagsI
 481              		.thumb
 482              		.thumb_func
 483              		.type	chEvtBroadcastFlagsI, %function
 484              	chEvtBroadcastFlagsI:
 485              	.LFB4:
 486              		.loc 1 177 0
 487              		.cfi_startproc
 488              		@ args = 0, pretend = 0, frame = 0
 489              		@ frame_needed = 0, uses_anonymous_args = 0
 490              	.LVL29:
 491 0000 70B5     		push	{r4, r5, r6, lr}
 492              	.LCFI7:
 493              		.cfi_def_cfa_offset 16
 494              		.cfi_offset 14, -4
 495              		.cfi_offset 6, -8
 496              		.cfi_offset 5, -12
 497              		.cfi_offset 4, -16
 498              		.loc 1 177 0
 499 0002 0546     		mov	r5, r0
 500 0004 0E46     		mov	r6, r1
 501              		.loc 1 180 0
 502 0006 FFF7FEFF 		bl	chDbgCheckClassI
 503              	.LVL30:
 504              		.loc 1 181 0
 505 000a 65B1     		cbz	r5, .L32
ARM GAS  /tmp/ccXe99SB.s 			page 10


 506              	.L27:
 507              		.loc 1 183 0
 508 000c 2C68     		ldr	r4, [r5, #0]
 509              	.LVL31:
 510              		.loc 1 184 0
 511 000e A542     		cmp	r5, r4
 512 0010 08D0     		beq	.L26
 513              	.LVL32:
 514              	.L30:
 515              		.loc 1 186 0
 516 0012 201D     		adds	r0, r4, #4
 517 0014 0BC8     		ldmia	r0, {r0, r1, r3}
 518              		.loc 1 185 0
 519 0016 3343     		orrs	r3, r3, r6
 520 0018 E360     		str	r3, [r4, #12]
 521              		.loc 1 186 0
 522 001a FFF7FEFF 		bl	chEvtSignalI
 523              		.loc 1 187 0
 524 001e 2468     		ldr	r4, [r4, #0]
 525              	.LVL33:
 526              		.loc 1 184 0
 527 0020 A542     		cmp	r5, r4
 528 0022 F6D1     		bne	.L30
 529              	.L26:
 530 0024 70BD     		pop	{r4, r5, r6, pc}
 531              	.LVL34:
 532              	.L32:
 533              		.loc 1 181 0 discriminator 1
 534 0026 40F20000 		movw	r0, #:lower16:.LC4
 535 002a C0F20000 		movt	r0, #:upper16:.LC4
 536 002e FFF7FEFF 		bl	chDbgPanic
 537 0032 EBE7     		b	.L27
 538              		.cfi_endproc
 539              	.LFE4:
 540              		.size	chEvtBroadcastFlagsI, .-chEvtBroadcastFlagsI
 541 0034 AFF30080 		.section	.text.chEvtBroadcastFlags,"ax",%progbits
 541      AFF30080 
 541      AFF30080 
 542              		.align	2
 543              		.p2align 4,,15
 544              		.global	chEvtBroadcastFlags
 545              		.thumb
 546              		.thumb_func
 547              		.type	chEvtBroadcastFlags, %function
 548              	chEvtBroadcastFlags:
 549              	.LFB8:
 550              		.loc 1 271 0
 551              		.cfi_startproc
 552              		@ args = 0, pretend = 0, frame = 0
 553              		@ frame_needed = 0, uses_anonymous_args = 0
 554              	.LVL35:
 555 0000 38B5     		push	{r3, r4, r5, lr}
 556              	.LCFI8:
 557              		.cfi_def_cfa_offset 16
 558              		.cfi_offset 14, -4
 559              		.cfi_offset 5, -8
 560              		.cfi_offset 4, -12
ARM GAS  /tmp/ccXe99SB.s 			page 11


 561              		.cfi_offset 3, -16
 562              		.loc 1 271 0
 563 0002 0546     		mov	r5, r0
 564 0004 0C46     		mov	r4, r1
 565              		.loc 1 273 0
 566              	@ 273 "../../../os/kernel/src/chevents.c" 1
 567 0006 FFF7FEFF 		bl      _port_lock
 568              	@ 0 "" 2
 569              		.thumb
 570 000a FFF7FEFF 		bl	dbg_check_lock
 571              	.LVL36:
 572              		.loc 1 274 0
 573 000e 2846     		mov	r0, r5
 574 0010 2146     		mov	r1, r4
 575 0012 FFF7FEFF 		bl	chEvtBroadcastFlagsI
 576              		.loc 1 275 0
 577 0016 FFF7FEFF 		bl	chSchRescheduleS
 578              		.loc 1 276 0
 579 001a FFF7FEFF 		bl	dbg_check_unlock
 580              	@ 276 "../../../os/kernel/src/chevents.c" 1
 581 001e FFF7FEFF 		bl      _port_unlock
 582              	@ 0 "" 2
 583              		.loc 1 277 0
 584              		.thumb
 585 0022 38BD     		pop	{r3, r4, r5, pc}
 586              		.cfi_endproc
 587              	.LFE8:
 588              		.size	chEvtBroadcastFlags, .-chEvtBroadcastFlags
 589 0024 AFF30080 		.section	.text.chEvtGetAndClearFlagsI,"ax",%progbits
 589      AFF30080 
 589      AFF30080 
 590              		.align	2
 591              		.p2align 4,,15
 592              		.global	chEvtGetAndClearFlagsI
 593              		.thumb
 594              		.thumb_func
 595              		.type	chEvtGetAndClearFlagsI, %function
 596              	chEvtGetAndClearFlagsI:
 597              	.LFB9:
 598              		.loc 1 290 0
 599              		.cfi_startproc
 600              		@ args = 0, pretend = 0, frame = 0
 601              		@ frame_needed = 0, uses_anonymous_args = 0
 602              		@ link register save eliminated.
 603              	.LVL37:
 604              		.loc 1 290 0
 605 0000 0346     		mov	r3, r0
 606              		.loc 1 294 0
 607 0002 0022     		movs	r2, #0
 608              		.loc 1 293 0
 609 0004 C068     		ldr	r0, [r0, #12]
 610              	.LVL38:
 611              		.loc 1 294 0
 612 0006 DA60     		str	r2, [r3, #12]
 613              		.loc 1 297 0
 614 0008 7047     		bx	lr
 615              		.cfi_endproc
ARM GAS  /tmp/ccXe99SB.s 			page 12


 616              	.LFE9:
 617              		.size	chEvtGetAndClearFlagsI, .-chEvtGetAndClearFlagsI
 618 000a 00BFAFF3 		.section	.text.chEvtDispatch,"ax",%progbits
 618      0080
 619              		.align	2
 620              		.p2align 4,,15
 621              		.global	chEvtDispatch
 622              		.thumb
 623              		.thumb_func
 624              		.type	chEvtDispatch, %function
 625              	chEvtDispatch:
 626              	.LFB10:
 627              		.loc 1 308 0
 628              		.cfi_startproc
 629              		@ args = 0, pretend = 0, frame = 0
 630              		@ frame_needed = 0, uses_anonymous_args = 0
 631              	.LVL39:
 632 0000 2DE9F843 		push	{r3, r4, r5, r6, r7, r8, r9, lr}
 633              	.LCFI9:
 634              		.cfi_def_cfa_offset 32
 635              		.cfi_offset 14, -4
 636              		.cfi_offset 9, -8
 637              		.cfi_offset 8, -12
 638              		.cfi_offset 7, -16
 639              		.cfi_offset 6, -20
 640              		.cfi_offset 5, -24
 641              		.cfi_offset 4, -28
 642              		.cfi_offset 3, -32
 643              		.loc 1 311 0
 644 0004 0446     		mov	r4, r0
 645              		.loc 1 308 0
 646 0006 0E46     		mov	r6, r1
 647              		.loc 1 311 0
 648 0008 E8B1     		cbz	r0, .L42
 649              	.LVL40:
 650              	.L36:
 651              		.loc 1 314 0 discriminator 1
 652 000a 96B1     		cbz	r6, .L35
 653              		.loc 1 314 0 is_stmt 0
 654 000c 0027     		movs	r7, #0
 655 000e 3D46     		mov	r5, r7
 656              		.loc 1 315 0 is_stmt 1
 657 0010 4FF00109 		mov	r9, #1
 658              	.LVL41:
 659              	.L40:
 660 0014 09FA05F8 		lsl	r8, r9, r5
 661 0018 18EA060F 		tst	r8, r6
 662 001c 05D0     		beq	.L38
 663              		.loc 1 316 0
 664 001e E359     		ldr	r3, [r4, r7]
 665 0020 4BB1     		cbz	r3, .L43
 666              	.L39:
 667              		.loc 1 320 0
 668 0022 2846     		mov	r0, r5
 669              		.loc 1 319 0
 670 0024 26EA0806 		bic	r6, r6, r8
 671              	.LVL42:
ARM GAS  /tmp/ccXe99SB.s 			page 13


 672              		.loc 1 320 0
 673 0028 9847     		blx	r3
 674              	.L38:
 675              		.loc 1 322 0
 676 002a 0135     		adds	r5, r5, #1
 677              	.LVL43:
 678 002c 0437     		adds	r7, r7, #4
 679              		.loc 1 314 0
 680 002e 002E     		cmp	r6, #0
 681 0030 F0D1     		bne	.L40
 682              	.LVL44:
 683              	.L35:
 684 0032 BDE8F883 		pop	{r3, r4, r5, r6, r7, r8, r9, pc}
 685              	.L43:
 686              		.loc 1 316 0 discriminator 1
 687 0036 40F20000 		movw	r0, #:lower16:.LC6
 688 003a C0F20000 		movt	r0, #:upper16:.LC6
 689 003e FFF7FEFF 		bl	chDbgPanic
 690 0042 E359     		ldr	r3, [r4, r7]
 691 0044 EDE7     		b	.L39
 692              	.LVL45:
 693              	.L42:
 694              		.loc 1 311 0 discriminator 1
 695 0046 40F20000 		movw	r0, #:lower16:.LC5
 696 004a C0F20000 		movt	r0, #:upper16:.LC5
 697 004e FFF7FEFF 		bl	chDbgPanic
 698              	.LVL46:
 699 0052 DAE7     		b	.L36
 700              		.cfi_endproc
 701              	.LFE10:
 702              		.size	chEvtDispatch, .-chEvtDispatch
 703 0054 AFF30080 		.section	.text.chEvtWaitOne,"ax",%progbits
 703      AFF30080 
 703      AFF30080 
 704              		.align	2
 705              		.p2align 4,,15
 706              		.global	chEvtWaitOne
 707              		.thumb
 708              		.thumb_func
 709              		.type	chEvtWaitOne, %function
 710              	chEvtWaitOne:
 711              	.LFB11:
 712              		.loc 1 343 0
 713              		.cfi_startproc
 714              		@ args = 0, pretend = 0, frame = 0
 715              		@ frame_needed = 0, uses_anonymous_args = 0
 716              	.LVL47:
 717 0000 38B5     		push	{r3, r4, r5, lr}
 718              	.LCFI10:
 719              		.cfi_def_cfa_offset 16
 720              		.cfi_offset 14, -4
 721              		.cfi_offset 5, -8
 722              		.cfi_offset 4, -12
 723              		.cfi_offset 3, -16
 724              		.loc 1 344 0
 725 0002 40F20003 		movw	r3, #:lower16:rlist
 726 0006 C0F20003 		movt	r3, #:upper16:rlist
ARM GAS  /tmp/ccXe99SB.s 			page 14


 727              		.loc 1 343 0
 728 000a 0546     		mov	r5, r0
 729              		.loc 1 344 0
 730 000c 9C69     		ldr	r4, [r3, #24]
 731              	.LVL48:
 732              		.loc 1 347 0
 733              	@ 347 "../../../os/kernel/src/chevents.c" 1
 734 000e FFF7FEFF 		bl      _port_lock
 735              	@ 0 "" 2
 736              	.LVL49:
 737              		.thumb
 738 0012 FFF7FEFF 		bl	dbg_check_lock
 739              	.LVL50:
 740              		.loc 1 349 0
 741 0016 E36B     		ldr	r3, [r4, #60]
 742              	.LVL51:
 743 0018 15EA0302 		ands	r2, r5, r3
 744 001c 06D1     		bne	.L45
 745              		.loc 1 350 0
 746 001e A562     		str	r5, [r4, #40]
 747              		.loc 1 351 0
 748 0020 0820     		movs	r0, #8
 749 0022 FFF7FEFF 		bl	chSchGoSleepS
 750              	.LVL52:
 751              		.loc 1 352 0
 752 0026 E36B     		ldr	r3, [r4, #60]
 753 0028 05EA0302 		and	r2, r5, r3
 754              	.LVL53:
 755              	.L45:
 756              		.loc 1 354 0
 757 002c 5542     		negs	r5, r2
 758              	.LVL54:
 759 002e 1540     		ands	r5, r5, r2
 760              	.LVL55:
 761              		.loc 1 355 0
 762 0030 23EA0500 		bic	r0, r3, r5
 763 0034 E063     		str	r0, [r4, #60]
 764              		.loc 1 357 0
 765 0036 FFF7FEFF 		bl	dbg_check_unlock
 766              	@ 357 "../../../os/kernel/src/chevents.c" 1
 767 003a FFF7FEFF 		bl      _port_unlock
 768              	@ 0 "" 2
 769              		.loc 1 359 0
 770              		.thumb
 771 003e 2846     		mov	r0, r5
 772 0040 38BD     		pop	{r3, r4, r5, pc}
 773              		.cfi_endproc
 774              	.LFE11:
 775              		.size	chEvtWaitOne, .-chEvtWaitOne
 776 0042 00BFAFF3 		.section	.text.chEvtWaitAny,"ax",%progbits
 776      0080AFF3 
 776      0080AFF3 
 776      0080
 777              		.align	2
 778              		.p2align 4,,15
 779              		.global	chEvtWaitAny
 780              		.thumb
ARM GAS  /tmp/ccXe99SB.s 			page 15


 781              		.thumb_func
 782              		.type	chEvtWaitAny, %function
 783              	chEvtWaitAny:
 784              	.LFB12:
 785              		.loc 1 372 0
 786              		.cfi_startproc
 787              		@ args = 0, pretend = 0, frame = 0
 788              		@ frame_needed = 0, uses_anonymous_args = 0
 789              	.LVL56:
 790              		.loc 1 373 0
 791 0000 40F20003 		movw	r3, #:lower16:rlist
 792 0004 C0F20003 		movt	r3, #:upper16:rlist
 793              		.loc 1 372 0
 794 0008 70B5     		push	{r4, r5, r6, lr}
 795              	.LCFI11:
 796              		.cfi_def_cfa_offset 16
 797              		.cfi_offset 14, -4
 798              		.cfi_offset 6, -8
 799              		.cfi_offset 5, -12
 800              		.cfi_offset 4, -16
 801              		.loc 1 373 0
 802 000a 9C69     		ldr	r4, [r3, #24]
 803              	.LVL57:
 804              		.loc 1 372 0
 805 000c 0546     		mov	r5, r0
 806              		.loc 1 376 0
 807              	@ 376 "../../../os/kernel/src/chevents.c" 1
 808 000e FFF7FEFF 		bl      _port_lock
 809              	@ 0 "" 2
 810              	.LVL58:
 811              		.thumb
 812 0012 FFF7FEFF 		bl	dbg_check_lock
 813              	.LVL59:
 814              		.loc 1 378 0
 815 0016 E36B     		ldr	r3, [r4, #60]
 816              	.LVL60:
 817 0018 15EA0306 		ands	r6, r5, r3
 818 001c 06D1     		bne	.L47
 819              		.loc 1 379 0
 820 001e A562     		str	r5, [r4, #40]
 821              		.loc 1 380 0
 822 0020 0820     		movs	r0, #8
 823 0022 FFF7FEFF 		bl	chSchGoSleepS
 824              	.LVL61:
 825              		.loc 1 381 0
 826 0026 E36B     		ldr	r3, [r4, #60]
 827 0028 05EA0306 		and	r6, r5, r3
 828              	.LVL62:
 829              	.L47:
 830              		.loc 1 383 0
 831 002c 23EA0600 		bic	r0, r3, r6
 832 0030 E063     		str	r0, [r4, #60]
 833              		.loc 1 385 0
 834 0032 FFF7FEFF 		bl	dbg_check_unlock
 835              	@ 385 "../../../os/kernel/src/chevents.c" 1
 836 0036 FFF7FEFF 		bl      _port_unlock
 837              	@ 0 "" 2
ARM GAS  /tmp/ccXe99SB.s 			page 16


 838              		.loc 1 387 0
 839              		.thumb
 840 003a 3046     		mov	r0, r6
 841 003c 70BD     		pop	{r4, r5, r6, pc}
 842              		.cfi_endproc
 843              	.LFE12:
 844              		.size	chEvtWaitAny, .-chEvtWaitAny
 845 003e 00BF     		.section	.text.chEvtWaitAll,"ax",%progbits
 846              		.align	2
 847              		.p2align 4,,15
 848              		.global	chEvtWaitAll
 849              		.thumb
 850              		.thumb_func
 851              		.type	chEvtWaitAll, %function
 852              	chEvtWaitAll:
 853              	.LFB13:
 854              		.loc 1 400 0
 855              		.cfi_startproc
 856              		@ args = 0, pretend = 0, frame = 0
 857              		@ frame_needed = 0, uses_anonymous_args = 0
 858              	.LVL63:
 859 0000 38B5     		push	{r3, r4, r5, lr}
 860              	.LCFI12:
 861              		.cfi_def_cfa_offset 16
 862              		.cfi_offset 14, -4
 863              		.cfi_offset 5, -8
 864              		.cfi_offset 4, -12
 865              		.cfi_offset 3, -16
 866              		.loc 1 401 0
 867 0002 40F20003 		movw	r3, #:lower16:rlist
 868 0006 C0F20003 		movt	r3, #:upper16:rlist
 869              		.loc 1 400 0
 870 000a 0446     		mov	r4, r0
 871              		.loc 1 401 0
 872 000c 9D69     		ldr	r5, [r3, #24]
 873              	.LVL64:
 874              		.loc 1 403 0
 875              	@ 403 "../../../os/kernel/src/chevents.c" 1
 876 000e FFF7FEFF 		bl      _port_lock
 877              	@ 0 "" 2
 878              	.LVL65:
 879              		.thumb
 880 0012 FFF7FEFF 		bl	dbg_check_lock
 881              	.LVL66:
 882              		.loc 1 405 0
 883 0016 EB6B     		ldr	r3, [r5, #60]
 884 0018 04EA0302 		and	r2, r4, r3
 885 001c A242     		cmp	r2, r4
 886 001e 04D0     		beq	.L49
 887              		.loc 1 406 0
 888 0020 AC62     		str	r4, [r5, #40]
 889              		.loc 1 407 0
 890 0022 0920     		movs	r0, #9
 891 0024 FFF7FEFF 		bl	chSchGoSleepS
 892 0028 EB6B     		ldr	r3, [r5, #60]
 893              	.L49:
 894              		.loc 1 409 0
ARM GAS  /tmp/ccXe99SB.s 			page 17


 895 002a 23EA0400 		bic	r0, r3, r4
 896 002e E863     		str	r0, [r5, #60]
 897              		.loc 1 411 0
 898 0030 FFF7FEFF 		bl	dbg_check_unlock
 899              	@ 411 "../../../os/kernel/src/chevents.c" 1
 900 0034 FFF7FEFF 		bl      _port_unlock
 901              	@ 0 "" 2
 902              		.loc 1 413 0
 903              		.thumb
 904 0038 2046     		mov	r0, r4
 905 003a 38BD     		pop	{r3, r4, r5, pc}
 906              		.cfi_endproc
 907              	.LFE13:
 908              		.size	chEvtWaitAll, .-chEvtWaitAll
 909 003c AFF30080 		.section	.rodata.str1.4,"aMS",%progbits,1
 910              		.align	2
 911              	.LC0:
 912 0000 22636845 		.ascii	"\"chEvtRegisterMask\"()\000"
 912      76745265 
 912      67697374 
 912      65724D61 
 912      736B2228 
 913 0016 0000     		.space	2
 914              	.LC1:
 915 0018 22636845 		.ascii	"\"chEvtUnregister\"()\000"
 915      7674556E 
 915      72656769 
 915      73746572 
 915      22282900 
 916              	.LC2:
 917 002c 22636845 		.ascii	"\"chEvtSignalI\"()\000"
 917      76745369 
 917      676E616C 
 917      49222829 
 917      00
 918 003d 000000   		.space	3
 919              	.LC3:
 920 0040 22636845 		.ascii	"\"chEvtSignal\"()\000"
 920      76745369 
 920      676E616C 
 920      22282900 
 921              	.LC4:
 922 0050 22636845 		.ascii	"\"chEvtBroadcastMaskI\"()\000"
 922      76744272 
 922      6F616463 
 922      6173744D 
 922      61736B49 
 923              	.LC5:
 924 0068 22636845 		.ascii	"\"chEvtDispatch\"()\000"
 924      76744469 
 924      73706174 
 924      63682228 
 924      2900
 925 007a 0000     		.space	2
 926              	.LC6:
 927 007c 63684576 		.ascii	"chEvtDispatch(), #1\000"
 927      74446973 
ARM GAS  /tmp/ccXe99SB.s 			page 18


 927      70617463 
 927      6828292C 
 927      20233100 
 928              		.text
 929              	.Letext0:
 930              		.file 2 "/home/prana/CodeSourcery/ARM_EABI/bin/../lib/gcc/arm-none-eabi/4.6.3/../../../../arm-none
 931              		.file 3 "../../../os/ports/GCC/ARMCMx/chtypes.h"
 932              		.file 4 "../../../os/kernel/include/chlists.h"
 933              		.file 5 "../../../os/kernel/include/chthreads.h"
 934              		.file 6 "../../../os/ports/GCC/ARMCMx/chcore_v7m.h"
 935              		.file 7 "../../../os/kernel/include/chschd.h"
 936              		.file 8 "../../../os/kernel/include/chmtx.h"
 937              		.file 9 "../../../os/kernel/include/chevents.h"