ARM GAS  /tmp/ccdMF9sA.s 			page 1


   1              		.syntax unified
   2              		.cpu cortex-m4
   3              		.fpu softvfp
   4              		.eabi_attribute 20, 1
   5              		.eabi_attribute 21, 1
   6              		.eabi_attribute 23, 3
   7              		.eabi_attribute 24, 1
   8              		.eabi_attribute 25, 1
   9              		.eabi_attribute 26, 1
  10              		.eabi_attribute 30, 2
  11              		.eabi_attribute 34, 1
  12              		.eabi_attribute 18, 4
  13              		.thumb
  14              		.file	"chmboxes.c"
  15              		.text
  16              	.Ltext0:
  17              		.cfi_sections	.debug_frame
  18              		.section	.text.chMBInit,"ax",%progbits
  19              		.align	2
  20              		.p2align 4,,15
  21              		.global	chMBInit
  22              		.thumb
  23              		.thumb_func
  24              		.type	chMBInit, %function
  25              	chMBInit:
  26              	.LFB0:
  27              		.file 1 "../../../os/kernel/src/chmboxes.c"
  28              		.loc 1 65 0
  29              		.cfi_startproc
  30              		@ args = 0, pretend = 0, frame = 0
  31              		@ frame_needed = 0, uses_anonymous_args = 0
  32              	.LVL0:
  33              		.loc 1 67 0
  34 0000 D0F10103 		rsbs	r3, r0, #1
  35 0004 38BF     		it	cc
  36 0006 0023     		movcc	r3, #0
  37 0008 0029     		cmp	r1, #0
  38 000a 08BF     		it	eq
  39 000c 43F00103 		orreq	r3, r3, #1
  40              		.loc 1 65 0
  41 0010 70B5     		push	{r4, r5, r6, lr}
  42              	.LCFI0:
  43              		.cfi_def_cfa_offset 16
  44              		.cfi_offset 14, -4
  45              		.cfi_offset 6, -8
  46              		.cfi_offset 5, -12
  47              		.cfi_offset 4, -16
  48              		.loc 1 67 0
  49 0012 0446     		mov	r4, r0
  50 0014 0D46     		mov	r5, r1
  51              		.loc 1 65 0
  52 0016 1646     		mov	r6, r2
  53              		.loc 1 67 0
  54 0018 9BB9     		cbnz	r3, .L2
  55              		.loc 1 67 0 is_stmt 0 discriminator 2
  56 001a 002A     		cmp	r2, #0
  57 001c 11DD     		ble	.L2
ARM GAS  /tmp/ccdMF9sA.s 			page 2


  58              	.LVL1:
  59              	.L3:
  60              		.loc 1 70 0 is_stmt 1
  61 001e 05EB8602 		add	r2, r5, r6, lsl #2
  62              		.loc 1 71 0
  63 0022 04F11C00 		add	r0, r4, #28
  64 0026 3146     		mov	r1, r6
  65              		.loc 1 69 0
  66 0028 E560     		str	r5, [r4, #12]
  67 002a A560     		str	r5, [r4, #8]
  68 002c 2560     		str	r5, [r4, #0]
  69              		.loc 1 70 0
  70 002e 6260     		str	r2, [r4, #4]
  71              		.loc 1 71 0
  72 0030 FFF7FEFF 		bl	chSemInit
  73              		.loc 1 72 0
  74 0034 04F11000 		add	r0, r4, #16
  75 0038 0021     		movs	r1, #0
  76              		.loc 1 73 0
  77 003a BDE87040 		pop	{r4, r5, r6, lr}
  78              		.loc 1 72 0
  79 003e FFF7FEBF 		b	chSemInit
  80              	.L2:
  81              		.loc 1 67 0 discriminator 1
  82 0042 40F20000 		movw	r0, #:lower16:.LC0
  83 0046 C0F20000 		movt	r0, #:upper16:.LC0
  84 004a FFF7FEFF 		bl	chDbgPanic
  85 004e E6E7     		b	.L3
  86              		.cfi_endproc
  87              	.LFE0:
  88              		.size	chMBInit, .-chMBInit
  89              		.section	.text.chMBReset,"ax",%progbits
  90              		.align	2
  91              		.p2align 4,,15
  92              		.global	chMBReset
  93              		.thumb
  94              		.thumb_func
  95              		.type	chMBReset, %function
  96              	chMBReset:
  97              	.LFB1:
  98              		.loc 1 84 0
  99              		.cfi_startproc
 100              		@ args = 0, pretend = 0, frame = 0
 101              		@ frame_needed = 0, uses_anonymous_args = 0
 102              	.LVL2:
 103 0000 10B5     		push	{r4, lr}
 104              	.LCFI1:
 105              		.cfi_def_cfa_offset 8
 106              		.cfi_offset 14, -4
 107              		.cfi_offset 4, -8
 108              		.loc 1 86 0
 109 0002 0446     		mov	r4, r0
 110 0004 C8B1     		cbz	r0, .L7
 111              	.LVL3:
 112              	.L6:
 113              		.loc 1 88 0
 114              	@ 88 "../../../os/kernel/src/chmboxes.c" 1
ARM GAS  /tmp/ccdMF9sA.s 			page 3


 115 0006 FFF7FEFF 		bl      _port_lock
 116              	@ 0 "" 2
 117              		.thumb
 118 000a FFF7FEFF 		bl	dbg_check_lock
 119              		.loc 1 89 0
 120 000e 2368     		ldr	r3, [r4, #0]
 121              		.loc 1 90 0
 122 0010 6068     		ldr	r0, [r4, #4]
 123              		.loc 1 89 0
 124 0012 E360     		str	r3, [r4, #12]
 125              		.loc 1 90 0
 126 0014 C11A     		subs	r1, r0, r3
 127              		.loc 1 89 0
 128 0016 A360     		str	r3, [r4, #8]
 129              		.loc 1 90 0
 130 0018 04F11C00 		add	r0, r4, #28
 131 001c 8910     		asrs	r1, r1, #2
 132 001e FFF7FEFF 		bl	chSemResetI
 133              		.loc 1 91 0
 134 0022 04F11000 		add	r0, r4, #16
 135 0026 0021     		movs	r1, #0
 136 0028 FFF7FEFF 		bl	chSemResetI
 137              		.loc 1 92 0
 138 002c FFF7FEFF 		bl	chSchRescheduleS
 139              		.loc 1 93 0
 140 0030 FFF7FEFF 		bl	dbg_check_unlock
 141              	@ 93 "../../../os/kernel/src/chmboxes.c" 1
 142 0034 FFF7FEFF 		bl      _port_unlock
 143              	@ 0 "" 2
 144              		.loc 1 94 0
 145              		.thumb
 146 0038 10BD     		pop	{r4, pc}
 147              	.L7:
 148              		.loc 1 86 0 discriminator 1
 149 003a 40F20000 		movw	r0, #:lower16:.LC1
 150 003e C0F20000 		movt	r0, #:upper16:.LC1
 151 0042 FFF7FEFF 		bl	chDbgPanic
 152 0046 DEE7     		b	.L6
 153              		.cfi_endproc
 154              	.LFE1:
 155              		.size	chMBReset, .-chMBReset
 156 0048 AFF30080 		.section	.text.chMBPostS,"ax",%progbits
 156      AFF30080 
 157              		.align	2
 158              		.p2align 4,,15
 159              		.global	chMBPostS
 160              		.thumb
 161              		.thumb_func
 162              		.type	chMBPostS, %function
 163              	chMBPostS:
 164              	.LFB3:
 165              		.loc 1 143 0
 166              		.cfi_startproc
 167              		@ args = 0, pretend = 0, frame = 0
 168              		@ frame_needed = 0, uses_anonymous_args = 0
 169              	.LVL4:
 170 0000 70B5     		push	{r4, r5, r6, lr}
ARM GAS  /tmp/ccdMF9sA.s 			page 4


 171              	.LCFI2:
 172              		.cfi_def_cfa_offset 16
 173              		.cfi_offset 14, -4
 174              		.cfi_offset 6, -8
 175              		.cfi_offset 5, -12
 176              		.cfi_offset 4, -16
 177              		.loc 1 143 0
 178 0002 0446     		mov	r4, r0
 179 0004 0D46     		mov	r5, r1
 180 0006 1646     		mov	r6, r2
 181              		.loc 1 146 0
 182 0008 FFF7FEFF 		bl	chDbgCheckClassS
 183              	.LVL5:
 184              		.loc 1 147 0
 185 000c C4B1     		cbz	r4, .L12
 186              	.L9:
 187              		.loc 1 149 0
 188 000e 3146     		mov	r1, r6
 189 0010 04F11C00 		add	r0, r4, #28
 190 0014 FFF7FEFF 		bl	chSemWaitTimeoutS
 191              	.LVL6:
 192              		.loc 1 150 0
 193 0018 0646     		mov	r6, r0
 194              	.LVL7:
 195 001a 78B9     		cbnz	r0, .L10
 196              		.loc 1 151 0
 197 001c A368     		ldr	r3, [r4, #8]
 198              		.loc 1 152 0
 199 001e 6268     		ldr	r2, [r4, #4]
 200              		.loc 1 151 0
 201 0020 43F8045B 		str	r5, [r3], #4
 202              		.loc 1 152 0
 203 0024 9342     		cmp	r3, r2
 204              		.loc 1 151 0
 205 0026 A360     		str	r3, [r4, #8]
 206              		.loc 1 153 0
 207 0028 28BF     		it	cs
 208 002a 2368     		ldrcs	r3, [r4, #0]
 209              		.loc 1 154 0
 210 002c 04F11000 		add	r0, r4, #16
 211              	.LVL8:
 212              		.loc 1 153 0
 213 0030 28BF     		it	cs
 214 0032 A360     		strcs	r3, [r4, #8]
 215              		.loc 1 154 0
 216 0034 FFF7FEFF 		bl	chSemSignalI
 217              		.loc 1 155 0
 218 0038 FFF7FEFF 		bl	chSchRescheduleS
 219              	.L10:
 220              		.loc 1 158 0
 221 003c 3046     		mov	r0, r6
 222 003e 70BD     		pop	{r4, r5, r6, pc}
 223              	.LVL9:
 224              	.L12:
 225              		.loc 1 147 0 discriminator 1
 226 0040 40F20000 		movw	r0, #:lower16:.LC2
 227 0044 C0F20000 		movt	r0, #:upper16:.LC2
ARM GAS  /tmp/ccdMF9sA.s 			page 5


 228 0048 FFF7FEFF 		bl	chDbgPanic
 229 004c DFE7     		b	.L9
 230              		.cfi_endproc
 231              	.LFE3:
 232              		.size	chMBPostS, .-chMBPostS
 233 004e 00BF     		.section	.text.chMBPost,"ax",%progbits
 234              		.align	2
 235              		.p2align 4,,15
 236              		.global	chMBPost
 237              		.thumb
 238              		.thumb_func
 239              		.type	chMBPost, %function
 240              	chMBPost:
 241              	.LFB2:
 242              		.loc 1 115 0
 243              		.cfi_startproc
 244              		@ args = 0, pretend = 0, frame = 0
 245              		@ frame_needed = 0, uses_anonymous_args = 0
 246              	.LVL10:
 247 0000 70B5     		push	{r4, r5, r6, lr}
 248              	.LCFI3:
 249              		.cfi_def_cfa_offset 16
 250              		.cfi_offset 14, -4
 251              		.cfi_offset 6, -8
 252              		.cfi_offset 5, -12
 253              		.cfi_offset 4, -16
 254              		.loc 1 115 0
 255 0002 0646     		mov	r6, r0
 256 0004 0D46     		mov	r5, r1
 257 0006 1446     		mov	r4, r2
 258              		.loc 1 118 0
 259              	@ 118 "../../../os/kernel/src/chmboxes.c" 1
 260 0008 FFF7FEFF 		bl      _port_lock
 261              	@ 0 "" 2
 262              		.thumb
 263 000c FFF7FEFF 		bl	dbg_check_lock
 264              	.LVL11:
 265              		.loc 1 119 0
 266 0010 2246     		mov	r2, r4
 267 0012 2946     		mov	r1, r5
 268 0014 3046     		mov	r0, r6
 269 0016 FFF7FEFF 		bl	chMBPostS
 270 001a 0446     		mov	r4, r0
 271              	.LVL12:
 272              		.loc 1 120 0
 273 001c FFF7FEFF 		bl	dbg_check_unlock
 274              	.LVL13:
 275              	@ 120 "../../../os/kernel/src/chmboxes.c" 1
 276 0020 FFF7FEFF 		bl      _port_unlock
 277              	@ 0 "" 2
 278              		.loc 1 122 0
 279              		.thumb
 280 0024 2046     		mov	r0, r4
 281 0026 70BD     		pop	{r4, r5, r6, pc}
 282              		.cfi_endproc
 283              	.LFE2:
 284              		.size	chMBPost, .-chMBPost
ARM GAS  /tmp/ccdMF9sA.s 			page 6


 285 0028 AFF30080 		.section	.text.chMBPostI,"ax",%progbits
 285      AFF30080 
 286              		.align	2
 287              		.p2align 4,,15
 288              		.global	chMBPostI
 289              		.thumb
 290              		.thumb_func
 291              		.type	chMBPostI, %function
 292              	chMBPostI:
 293              	.LFB4:
 294              		.loc 1 174 0
 295              		.cfi_startproc
 296              		@ args = 0, pretend = 0, frame = 0
 297              		@ frame_needed = 0, uses_anonymous_args = 0
 298              	.LVL14:
 299 0000 38B5     		push	{r3, r4, r5, lr}
 300              	.LCFI4:
 301              		.cfi_def_cfa_offset 16
 302              		.cfi_offset 14, -4
 303              		.cfi_offset 5, -8
 304              		.cfi_offset 4, -12
 305              		.cfi_offset 3, -16
 306              		.loc 1 174 0
 307 0002 0446     		mov	r4, r0
 308 0004 0D46     		mov	r5, r1
 309              		.loc 1 176 0
 310 0006 FFF7FEFF 		bl	chDbgCheckClassI
 311              	.LVL15:
 312              		.loc 1 177 0
 313 000a A4B1     		cbz	r4, .L19
 314              	.L15:
 315              		.loc 1 179 0
 316 000c 636A     		ldr	r3, [r4, #36]
 317 000e 002B     		cmp	r3, #0
 318 0010 18DD     		ble	.L18
 319              		.loc 1 182 0
 320 0012 A268     		ldr	r2, [r4, #8]
 321              		.loc 1 183 0
 322 0014 6168     		ldr	r1, [r4, #4]
 323              		.loc 1 181 0
 324 0016 013B     		subs	r3, r3, #1
 325 0018 6362     		str	r3, [r4, #36]
 326              		.loc 1 182 0
 327 001a 42F8045B 		str	r5, [r2], #4
 328              		.loc 1 183 0
 329 001e 8A42     		cmp	r2, r1
 330              		.loc 1 184 0
 331 0020 28BF     		it	cs
 332 0022 2368     		ldrcs	r3, [r4, #0]
 333              		.loc 1 182 0
 334 0024 A260     		str	r2, [r4, #8]
 335              		.loc 1 185 0
 336 0026 04F11000 		add	r0, r4, #16
 337              		.loc 1 184 0
 338 002a 28BF     		it	cs
 339 002c A360     		strcs	r3, [r4, #8]
 340              		.loc 1 185 0
ARM GAS  /tmp/ccdMF9sA.s 			page 7


 341 002e FFF7FEFF 		bl	chSemSignalI
 342              		.loc 1 186 0
 343 0032 0020     		movs	r0, #0
 344 0034 38BD     		pop	{r3, r4, r5, pc}
 345              	.L19:
 346              		.loc 1 177 0 discriminator 1
 347 0036 40F20000 		movw	r0, #:lower16:.LC3
 348 003a C0F20000 		movt	r0, #:upper16:.LC3
 349 003e FFF7FEFF 		bl	chDbgPanic
 350 0042 E3E7     		b	.L15
 351              	.L18:
 352              		.loc 1 180 0
 353 0044 4FF0FF30 		mov	r0, #-1
 354              		.loc 1 187 0
 355 0048 38BD     		pop	{r3, r4, r5, pc}
 356              		.cfi_endproc
 357              	.LFE4:
 358              		.size	chMBPostI, .-chMBPostI
 359 004a 00BFAFF3 		.section	.text.chMBPostAheadS,"ax",%progbits
 359      0080
 360              		.align	2
 361              		.p2align 4,,15
 362              		.global	chMBPostAheadS
 363              		.thumb
 364              		.thumb_func
 365              		.type	chMBPostAheadS, %function
 366              	chMBPostAheadS:
 367              	.LFB6:
 368              		.loc 1 236 0
 369              		.cfi_startproc
 370              		@ args = 0, pretend = 0, frame = 0
 371              		@ frame_needed = 0, uses_anonymous_args = 0
 372              	.LVL16:
 373 0000 70B5     		push	{r4, r5, r6, lr}
 374              	.LCFI5:
 375              		.cfi_def_cfa_offset 16
 376              		.cfi_offset 14, -4
 377              		.cfi_offset 6, -8
 378              		.cfi_offset 5, -12
 379              		.cfi_offset 4, -16
 380              		.loc 1 236 0
 381 0002 0446     		mov	r4, r0
 382 0004 0D46     		mov	r5, r1
 383 0006 1646     		mov	r6, r2
 384              		.loc 1 239 0
 385 0008 FFF7FEFF 		bl	chDbgCheckClassS
 386              	.LVL17:
 387              		.loc 1 240 0
 388 000c CCB1     		cbz	r4, .L24
 389              	.L21:
 390              		.loc 1 242 0
 391 000e 3146     		mov	r1, r6
 392 0010 04F11C00 		add	r0, r4, #28
 393 0014 FFF7FEFF 		bl	chSemWaitTimeoutS
 394              	.LVL18:
 395              		.loc 1 243 0
 396 0018 0646     		mov	r6, r0
ARM GAS  /tmp/ccdMF9sA.s 			page 8


 397              	.LVL19:
 398 001a 60B9     		cbnz	r0, .L22
 399              		.loc 1 244 0
 400 001c E368     		ldr	r3, [r4, #12]
 401 001e 2268     		ldr	r2, [r4, #0]
 402 0020 043B     		subs	r3, r3, #4
 403 0022 9342     		cmp	r3, r2
 404 0024 E360     		str	r3, [r4, #12]
 405 0026 08D3     		bcc	.L25
 406              	.LVL20:
 407              	.L23:
 408              		.loc 1 247 0
 409 0028 04F11000 		add	r0, r4, #16
 410              		.loc 1 246 0
 411 002c 1D60     		str	r5, [r3, #0]
 412              		.loc 1 247 0
 413 002e FFF7FEFF 		bl	chSemSignalI
 414              		.loc 1 248 0
 415 0032 FFF7FEFF 		bl	chSchRescheduleS
 416              	.L22:
 417              		.loc 1 251 0
 418 0036 3046     		mov	r0, r6
 419 0038 70BD     		pop	{r4, r5, r6, pc}
 420              	.L25:
 421              		.loc 1 245 0
 422 003a 6068     		ldr	r0, [r4, #4]
 423 003c 031F     		subs	r3, r0, #4
 424 003e E360     		str	r3, [r4, #12]
 425 0040 F2E7     		b	.L23
 426              	.LVL21:
 427              	.L24:
 428              		.loc 1 240 0 discriminator 1
 429 0042 40F20000 		movw	r0, #:lower16:.LC4
 430 0046 C0F20000 		movt	r0, #:upper16:.LC4
 431 004a FFF7FEFF 		bl	chDbgPanic
 432 004e DEE7     		b	.L21
 433              		.cfi_endproc
 434              	.LFE6:
 435              		.size	chMBPostAheadS, .-chMBPostAheadS
 436              		.section	.text.chMBPostAhead,"ax",%progbits
 437              		.align	2
 438              		.p2align 4,,15
 439              		.global	chMBPostAhead
 440              		.thumb
 441              		.thumb_func
 442              		.type	chMBPostAhead, %function
 443              	chMBPostAhead:
 444              	.LFB5:
 445              		.loc 1 208 0
 446              		.cfi_startproc
 447              		@ args = 0, pretend = 0, frame = 0
 448              		@ frame_needed = 0, uses_anonymous_args = 0
 449              	.LVL22:
 450 0000 70B5     		push	{r4, r5, r6, lr}
 451              	.LCFI6:
 452              		.cfi_def_cfa_offset 16
 453              		.cfi_offset 14, -4
ARM GAS  /tmp/ccdMF9sA.s 			page 9


 454              		.cfi_offset 6, -8
 455              		.cfi_offset 5, -12
 456              		.cfi_offset 4, -16
 457              		.loc 1 208 0
 458 0002 0646     		mov	r6, r0
 459 0004 0D46     		mov	r5, r1
 460 0006 1446     		mov	r4, r2
 461              		.loc 1 211 0
 462              	@ 211 "../../../os/kernel/src/chmboxes.c" 1
 463 0008 FFF7FEFF 		bl      _port_lock
 464              	@ 0 "" 2
 465              		.thumb
 466 000c FFF7FEFF 		bl	dbg_check_lock
 467              	.LVL23:
 468              		.loc 1 212 0
 469 0010 2246     		mov	r2, r4
 470 0012 2946     		mov	r1, r5
 471 0014 3046     		mov	r0, r6
 472 0016 FFF7FEFF 		bl	chMBPostAheadS
 473 001a 0446     		mov	r4, r0
 474              	.LVL24:
 475              		.loc 1 213 0
 476 001c FFF7FEFF 		bl	dbg_check_unlock
 477              	.LVL25:
 478              	@ 213 "../../../os/kernel/src/chmboxes.c" 1
 479 0020 FFF7FEFF 		bl      _port_unlock
 480              	@ 0 "" 2
 481              		.loc 1 215 0
 482              		.thumb
 483 0024 2046     		mov	r0, r4
 484 0026 70BD     		pop	{r4, r5, r6, pc}
 485              		.cfi_endproc
 486              	.LFE5:
 487              		.size	chMBPostAhead, .-chMBPostAhead
 488 0028 AFF30080 		.section	.text.chMBPostAheadI,"ax",%progbits
 488      AFF30080 
 489              		.align	2
 490              		.p2align 4,,15
 491              		.global	chMBPostAheadI
 492              		.thumb
 493              		.thumb_func
 494              		.type	chMBPostAheadI, %function
 495              	chMBPostAheadI:
 496              	.LFB7:
 497              		.loc 1 267 0
 498              		.cfi_startproc
 499              		@ args = 0, pretend = 0, frame = 0
 500              		@ frame_needed = 0, uses_anonymous_args = 0
 501              	.LVL26:
 502 0000 38B5     		push	{r3, r4, r5, lr}
 503              	.LCFI7:
 504              		.cfi_def_cfa_offset 16
 505              		.cfi_offset 14, -4
 506              		.cfi_offset 5, -8
 507              		.cfi_offset 4, -12
 508              		.cfi_offset 3, -16
 509              		.loc 1 267 0
ARM GAS  /tmp/ccdMF9sA.s 			page 10


 510 0002 0446     		mov	r4, r0
 511 0004 0D46     		mov	r5, r1
 512              		.loc 1 269 0
 513 0006 FFF7FEFF 		bl	chDbgCheckClassI
 514              	.LVL27:
 515              		.loc 1 270 0
 516 000a A4B1     		cbz	r4, .L32
 517              	.L28:
 518              		.loc 1 272 0
 519 000c 636A     		ldr	r3, [r4, #36]
 520 000e 002B     		cmp	r3, #0
 521 0010 18DD     		ble	.L31
 522              		.loc 1 275 0
 523 0012 E268     		ldr	r2, [r4, #12]
 524 0014 2168     		ldr	r1, [r4, #0]
 525 0016 043A     		subs	r2, r2, #4
 526              		.loc 1 274 0
 527 0018 013B     		subs	r3, r3, #1
 528              		.loc 1 275 0
 529 001a 8A42     		cmp	r2, r1
 530              		.loc 1 274 0
 531 001c 6362     		str	r3, [r4, #36]
 532              		.loc 1 275 0
 533 001e E260     		str	r2, [r4, #12]
 534 0020 02D2     		bcs	.L30
 535              		.loc 1 276 0
 536 0022 6068     		ldr	r0, [r4, #4]
 537 0024 021F     		subs	r2, r0, #4
 538 0026 E260     		str	r2, [r4, #12]
 539              	.L30:
 540              		.loc 1 278 0
 541 0028 04F11000 		add	r0, r4, #16
 542              		.loc 1 277 0
 543 002c 1560     		str	r5, [r2, #0]
 544              		.loc 1 278 0
 545 002e FFF7FEFF 		bl	chSemSignalI
 546              		.loc 1 279 0
 547 0032 0020     		movs	r0, #0
 548 0034 38BD     		pop	{r3, r4, r5, pc}
 549              	.L32:
 550              		.loc 1 270 0 discriminator 1
 551 0036 40F20000 		movw	r0, #:lower16:.LC5
 552 003a C0F20000 		movt	r0, #:upper16:.LC5
 553 003e FFF7FEFF 		bl	chDbgPanic
 554 0042 E3E7     		b	.L28
 555              	.L31:
 556              		.loc 1 273 0
 557 0044 4FF0FF30 		mov	r0, #-1
 558              		.loc 1 280 0
 559 0048 38BD     		pop	{r3, r4, r5, pc}
 560              		.cfi_endproc
 561              	.LFE7:
 562              		.size	chMBPostAheadI, .-chMBPostAheadI
 563 004a 00BFAFF3 		.section	.text.chMBFetchS,"ax",%progbits
 563      0080
 564              		.align	2
 565              		.p2align 4,,15
ARM GAS  /tmp/ccdMF9sA.s 			page 11


 566              		.global	chMBFetchS
 567              		.thumb
 568              		.thumb_func
 569              		.type	chMBFetchS, %function
 570              	chMBFetchS:
 571              	.LFB9:
 572              		.loc 1 329 0
 573              		.cfi_startproc
 574              		@ args = 0, pretend = 0, frame = 0
 575              		@ frame_needed = 0, uses_anonymous_args = 0
 576              	.LVL28:
 577 0000 70B5     		push	{r4, r5, r6, lr}
 578              	.LCFI8:
 579              		.cfi_def_cfa_offset 16
 580              		.cfi_offset 14, -4
 581              		.cfi_offset 6, -8
 582              		.cfi_offset 5, -12
 583              		.cfi_offset 4, -16
 584              		.loc 1 329 0
 585 0002 0446     		mov	r4, r0
 586 0004 0D46     		mov	r5, r1
 587 0006 1646     		mov	r6, r2
 588              		.loc 1 332 0
 589 0008 FFF7FEFF 		bl	chDbgCheckClassS
 590              	.LVL29:
 591              		.loc 1 333 0
 592 000c D4F10103 		rsbs	r3, r4, #1
 593 0010 38BF     		it	cc
 594 0012 0023     		movcc	r3, #0
 595 0014 002D     		cmp	r5, #0
 596 0016 08BF     		it	eq
 597 0018 43F00103 		orreq	r3, r3, #1
 598 001c C3B9     		cbnz	r3, .L37
 599              	.L34:
 600              		.loc 1 335 0
 601 001e 3146     		mov	r1, r6
 602 0020 04F11000 		add	r0, r4, #16
 603 0024 FFF7FEFF 		bl	chSemWaitTimeoutS
 604              	.LVL30:
 605              		.loc 1 336 0
 606 0028 0646     		mov	r6, r0
 607              	.LVL31:
 608 002a 78B9     		cbnz	r0, .L35
 609              		.loc 1 337 0
 610 002c E068     		ldr	r0, [r4, #12]
 611              	.LVL32:
 612              		.loc 1 338 0
 613 002e 6268     		ldr	r2, [r4, #4]
 614              		.loc 1 337 0
 615 0030 50F8041B 		ldr	r1, [r0], #4
 616              		.loc 1 338 0
 617 0034 9042     		cmp	r0, r2
 618              		.loc 1 337 0
 619 0036 2960     		str	r1, [r5, #0]
 620 0038 E060     		str	r0, [r4, #12]
 621              		.loc 1 339 0
 622 003a 24BF     		itt	cs
ARM GAS  /tmp/ccdMF9sA.s 			page 12


 623 003c 2068     		ldrcs	r0, [r4, #0]
 624 003e E060     		strcs	r0, [r4, #12]
 625              		.loc 1 340 0
 626 0040 04F11C00 		add	r0, r4, #28
 627 0044 FFF7FEFF 		bl	chSemSignalI
 628              		.loc 1 341 0
 629 0048 FFF7FEFF 		bl	chSchRescheduleS
 630              	.L35:
 631              		.loc 1 344 0
 632 004c 3046     		mov	r0, r6
 633 004e 70BD     		pop	{r4, r5, r6, pc}
 634              	.LVL33:
 635              	.L37:
 636              		.loc 1 333 0 discriminator 1
 637 0050 40F20000 		movw	r0, #:lower16:.LC6
 638 0054 C0F20000 		movt	r0, #:upper16:.LC6
 639 0058 FFF7FEFF 		bl	chDbgPanic
 640 005c DFE7     		b	.L34
 641              		.cfi_endproc
 642              	.LFE9:
 643              		.size	chMBFetchS, .-chMBFetchS
 644 005e 00BF     		.section	.text.chMBFetch,"ax",%progbits
 645              		.align	2
 646              		.p2align 4,,15
 647              		.global	chMBFetch
 648              		.thumb
 649              		.thumb_func
 650              		.type	chMBFetch, %function
 651              	chMBFetch:
 652              	.LFB8:
 653              		.loc 1 301 0
 654              		.cfi_startproc
 655              		@ args = 0, pretend = 0, frame = 0
 656              		@ frame_needed = 0, uses_anonymous_args = 0
 657              	.LVL34:
 658 0000 70B5     		push	{r4, r5, r6, lr}
 659              	.LCFI9:
 660              		.cfi_def_cfa_offset 16
 661              		.cfi_offset 14, -4
 662              		.cfi_offset 6, -8
 663              		.cfi_offset 5, -12
 664              		.cfi_offset 4, -16
 665              		.loc 1 301 0
 666 0002 0646     		mov	r6, r0
 667 0004 0D46     		mov	r5, r1
 668 0006 1446     		mov	r4, r2
 669              		.loc 1 304 0
 670              	@ 304 "../../../os/kernel/src/chmboxes.c" 1
 671 0008 FFF7FEFF 		bl      _port_lock
 672              	@ 0 "" 2
 673              		.thumb
 674 000c FFF7FEFF 		bl	dbg_check_lock
 675              	.LVL35:
 676              		.loc 1 305 0
 677 0010 2246     		mov	r2, r4
 678 0012 2946     		mov	r1, r5
 679 0014 3046     		mov	r0, r6
ARM GAS  /tmp/ccdMF9sA.s 			page 13


 680 0016 FFF7FEFF 		bl	chMBFetchS
 681 001a 0446     		mov	r4, r0
 682              	.LVL36:
 683              		.loc 1 306 0
 684 001c FFF7FEFF 		bl	dbg_check_unlock
 685              	.LVL37:
 686              	@ 306 "../../../os/kernel/src/chmboxes.c" 1
 687 0020 FFF7FEFF 		bl      _port_unlock
 688              	@ 0 "" 2
 689              		.loc 1 308 0
 690              		.thumb
 691 0024 2046     		mov	r0, r4
 692 0026 70BD     		pop	{r4, r5, r6, pc}
 693              		.cfi_endproc
 694              	.LFE8:
 695              		.size	chMBFetch, .-chMBFetch
 696 0028 AFF30080 		.section	.text.chMBFetchI,"ax",%progbits
 696      AFF30080 
 697              		.align	2
 698              		.p2align 4,,15
 699              		.global	chMBFetchI
 700              		.thumb
 701              		.thumb_func
 702              		.type	chMBFetchI, %function
 703              	chMBFetchI:
 704              	.LFB10:
 705              		.loc 1 360 0
 706              		.cfi_startproc
 707              		@ args = 0, pretend = 0, frame = 0
 708              		@ frame_needed = 0, uses_anonymous_args = 0
 709              	.LVL38:
 710 0000 38B5     		push	{r3, r4, r5, lr}
 711              	.LCFI10:
 712              		.cfi_def_cfa_offset 16
 713              		.cfi_offset 14, -4
 714              		.cfi_offset 5, -8
 715              		.cfi_offset 4, -12
 716              		.cfi_offset 3, -16
 717              		.loc 1 360 0
 718 0002 0446     		mov	r4, r0
 719 0004 0D46     		mov	r5, r1
 720              		.loc 1 362 0
 721 0006 FFF7FEFF 		bl	chDbgCheckClassI
 722              	.LVL39:
 723              		.loc 1 363 0
 724 000a D4F10103 		rsbs	r3, r4, #1
 725 000e 38BF     		it	cc
 726 0010 0023     		movcc	r3, #0
 727 0012 002D     		cmp	r5, #0
 728 0014 08BF     		it	eq
 729 0016 43F00103 		orreq	r3, r3, #1
 730 001a ABB9     		cbnz	r3, .L44
 731              	.L40:
 732              		.loc 1 365 0
 733 001c A369     		ldr	r3, [r4, #24]
 734 001e 002B     		cmp	r3, #0
 735 0020 19DD     		ble	.L43
ARM GAS  /tmp/ccdMF9sA.s 			page 14


 736              		.loc 1 368 0
 737 0022 E268     		ldr	r2, [r4, #12]
 738              		.loc 1 369 0
 739 0024 6168     		ldr	r1, [r4, #4]
 740              		.loc 1 367 0
 741 0026 013B     		subs	r3, r3, #1
 742 0028 A361     		str	r3, [r4, #24]
 743              		.loc 1 368 0
 744 002a 52F8040B 		ldr	r0, [r2], #4
 745              		.loc 1 369 0
 746 002e 8A42     		cmp	r2, r1
 747              		.loc 1 368 0
 748 0030 2860     		str	r0, [r5, #0]
 749              		.loc 1 370 0
 750 0032 28BF     		it	cs
 751 0034 2068     		ldrcs	r0, [r4, #0]
 752              		.loc 1 368 0
 753 0036 E260     		str	r2, [r4, #12]
 754              		.loc 1 370 0
 755 0038 28BF     		it	cs
 756 003a E060     		strcs	r0, [r4, #12]
 757              		.loc 1 371 0
 758 003c 04F11C00 		add	r0, r4, #28
 759 0040 FFF7FEFF 		bl	chSemSignalI
 760              		.loc 1 372 0
 761 0044 0020     		movs	r0, #0
 762 0046 38BD     		pop	{r3, r4, r5, pc}
 763              	.L44:
 764              		.loc 1 363 0 discriminator 1
 765 0048 40F20000 		movw	r0, #:lower16:.LC7
 766 004c C0F20000 		movt	r0, #:upper16:.LC7
 767 0050 FFF7FEFF 		bl	chDbgPanic
 768 0054 E2E7     		b	.L40
 769              	.L43:
 770              		.loc 1 366 0
 771 0056 4FF0FF30 		mov	r0, #-1
 772              		.loc 1 373 0
 773 005a 38BD     		pop	{r3, r4, r5, pc}
 774              		.cfi_endproc
 775              	.LFE10:
 776              		.size	chMBFetchI, .-chMBFetchI
 777 005c AFF30080 		.section	.rodata.str1.4,"aMS",%progbits,1
 778              		.align	2
 779              	.LC0:
 780 0000 2263684D 		.ascii	"\"chMBInit\"()\000"
 780      42496E69 
 780      74222829 
 780      00
 781 000d 000000   		.space	3
 782              	.LC1:
 783 0010 2263684D 		.ascii	"\"chMBReset\"()\000"
 783      42526573 
 783      65742228 
 783      2900
 784 001e 0000     		.space	2
 785              	.LC2:
 786 0020 2263684D 		.ascii	"\"chMBPostS\"()\000"
ARM GAS  /tmp/ccdMF9sA.s 			page 15


 786      42506F73 
 786      74532228 
 786      2900
 787 002e 0000     		.space	2
 788              	.LC3:
 789 0030 2263684D 		.ascii	"\"chMBPostI\"()\000"
 789      42506F73 
 789      74492228 
 789      2900
 790 003e 0000     		.space	2
 791              	.LC4:
 792 0040 2263684D 		.ascii	"\"chMBPostAheadS\"()\000"
 792      42506F73 
 792      74416865 
 792      61645322 
 792      282900
 793 0053 00       		.space	1
 794              	.LC5:
 795 0054 2263684D 		.ascii	"\"chMBPostAheadI\"()\000"
 795      42506F73 
 795      74416865 
 795      61644922 
 795      282900
 796 0067 00       		.space	1
 797              	.LC6:
 798 0068 2263684D 		.ascii	"\"chMBFetchS\"()\000"
 798      42466574 
 798      63685322 
 798      282900
 799 0077 00       		.space	1
 800              	.LC7:
 801 0078 2263684D 		.ascii	"\"chMBFetchI\"()\000"
 801      42466574 
 801      63684922 
 801      282900
 802 0087 00       		.text
 803              	.Letext0:
 804              		.file 2 "/home/prana/CodeSourcery/ARM_EABI/bin/../lib/gcc/arm-none-eabi/4.6.3/../../../../arm-none
 805              		.file 3 "../../../os/ports/GCC/ARMCMx/chtypes.h"
 806              		.file 4 "../../../os/kernel/include/chlists.h"
 807              		.file 5 "../../../os/kernel/include/chthreads.h"
 808              		.file 6 "../../../os/ports/GCC/ARMCMx/chcore_v7m.h"
 809              		.file 7 "../../../os/kernel/include/chsem.h"
 810              		.file 8 "../../../os/kernel/include/chmtx.h"
 811              		.file 9 "../../../os/kernel/include/chmboxes.h"