ARM GAS  /tmp/ccdMF9sA.s 			page 1


   1              		.syntax unified
   2              		.cpu cortex-m4
   3              		.fpu softvfp
   4              		.eabi_attribute 20, 1
   5              		.eabi_attribute 21, 1
   6              		.eabi_attribute 23, 3
   7              		.eabi_attribute 24, 1
   8              		.eabi_attribute 25, 1
   9              		.eabi_attribute 26, 1
  10              		.eabi_attribute 30, 2
  11              		.eabi_attribute 34, 1
  12              		.eabi_attribute 18, 4
  13              		.thumb
  14              		.file	"chmboxes.c"
  15              		.text
  16              	.Ltext0:
  17              		.cfi_sections	.debug_frame
  18              		.section	.text.chMBInit,"ax",%progbits
  19              		.align	2
  20              		.p2align 4,,15
  21              		.global	chMBInit
  22              		.thumb
  23              		.thumb_func
  24              		.type	chMBInit, %function
  25              	chMBInit:
  26              	.LFB0:
  27              		.file 1 "../../../os/kernel/src/chmboxes.c"
  28              		.loc 1 65 0
  29              		.cfi_startproc
  30              		@ args = 0, pretend = 0, frame = 0
  31              		@ frame_needed = 0, uses_anonymous_args = 0
  32              	.LVL0:
  33              		.loc 1 67 0
  34 0000 D0F10103 		rsbs	r3, r0, #1
  35 0004 38BF     		it	cc
  36 0006 0023     		movcc	r3, #0
  37 0008 0029     		cmp	r1, #0
  38 000a 08BF     		it	eq
  39 000c 43F00103 		orreq	r3, r3, #1
  40              		.loc 1 65 0
  41 0010 70B5     		push	{r4, r5, r6, lr}
  42              	.LCFI0:
  43              		.cfi_def_cfa_offset 16
  44              		.cfi_offset 14, -4
  45              		.cfi_offset 6, -8
  46              		.cfi_offset 5, -12
  47              		.cfi_offset 4, -16
  48              		.loc 1 67 0
  49 0012 0446     		mov	r4, r0
  50 0014 0D46     		mov	r5, r1
  51              		.loc 1 65 0
  52 0016 1646     		mov	r6, r2
  53              		.loc 1 67 0
  54 0018 9BB9     		cbnz	r3, .L2
  55              		.loc 1 67 0 is_stmt 0 discriminator 2
  56 001a 002A     		cmp	r2, #0
  57 001c 11DD     		ble	.L2
ARM GAS  /tmp/ccdMF9sA.s 			page 2


  58              	.LVL1:
  59              	.L3:
  60              		.loc 1 70 0 is_stmt 1
  61 001e 05EB8602 		add	r2, r5, r6, lsl #2
  62              		.loc 1 71 0
  63 0022 04F11C00 		add	r0, r4, #28
  64 0026 3146     		mov	r1, r6
  65              		.loc 1 69 0
  66 0028 E560     		str	r5, [r4, #12]
  67 002a A560     		str	r5, [r4, #8]
  68 002c 2560     		str	r5, [r4, #0]
  69              		.loc 1 70 0
  70 002e 6260     		str	r2, [r4, #4]
  71              		.loc 1 71 0
  72 0030 FFF7FEFF 		bl	chSemInit
  73              		.loc 1 72 0
  74 0034 04F11000 		add	r0, r4, #16
  75 0038 0021     		movs	r1, #0
  76              		.loc 1 73 0
  77 003a BDE87040 		pop	{r4, r5, r6, lr}
  78              		.loc 1 72 0
  79 003e FFF7FEBF 		b	chSemInit
  80              	.L2:
  81              		.loc 1 67 0 discriminator 1
  82 0042 40F20000 		movw	r0, #:lower16:.LC0
  83 0046 C0F20000 		movt	r0, #:upper16:.LC0
  84 004a FFF7FEFF 		bl	chDbgPanic
  85 004e E6E7     		b	.L3
  86              		.cfi_endproc
  87              	.LFE0:
  88              		.size	chMBInit, .-chMBInit
  89              		.section	.text.chMBReset,"ax",%progbits
  90              		.align	2
  91              		.p2align 4,,15
  92              		.global	chMBReset
  93              		.thumb
  94              		.thumb_func
  95              		.type	chMBReset, %function
  96              	chMBReset:
  97              	.LFB1:
  98              		.loc 1 84 0
  99              		.cfi_startproc
 100              		@ args = 0, pretend = 0, frame = 0
 101              		@ frame_needed = 0, uses_anonymous_args = 0
 102              	.LVL2:
 103 0000 10B5     		push	{r4, lr}
 104              	.LCFI1:
 105              		.cfi_def_cfa_offset 8
 106              		.cfi_offset 14, -4
 107              		.cfi_offset 4, -8
 108              		.loc 1 86 0
 109 0002 0446     		mov	r4, r0
 110 0004 C8B1     		cbz	r0, .L7
 111              	.LVL3:
 112              	.L6:
 113              		.loc 1 88 0
 114              	@ 88 "../../../os/kernel/src/chmboxes.c" 1
ARM GAS  /tmp/ccdMF9sA.s 			page 3


 115 0006 FFF7FEFF 		bl      _port_lock
 116              	@ 0 "" 2
 117              		.thumb
 118 000a FFF7FEFF 		bl	dbg_check_lock
 119              		.loc 1 89 0
 120 000e 2368     		ldr	r3, [r4, #0]
 121              		.loc 1 90 0
 122 0010 6068     		ldr	r0, [r4, #4]
 123              		.loc 1 89 0
 124 0012 E360     		str	r3, [r4, #12]
 125              		.loc 1 90 0
 126 0014 C11A     		subs	r1, r0, r3
 127              		.loc 1 89 0
 128 0016 A360     		str	r3, [r4, #8]
 129              		.loc 1 90 0
 130 0018 04F11C00 		add	r0, r4, #28
 131 001c 8910     		asrs	r1, r1, #2
 132 001e FFF7FEFF 		bl	chSemResetI
 133              		.loc 1 91 0
 134 0022 04F11000 		add	r0, r4, #16
 135 0026 0021     		movs	r1, #0
 136 0028 FFF7FEFF 		bl	chSemResetI
 137              		.loc 1 92 0
 138 002c FFF7FEFF 		bl	chSchRescheduleS
 139              		.loc 1 93 0
 140 0030 FFF7FEFF 		bl	dbg_check_unlock
 141              	@ 93 "../../../os/kernel/src/chmboxes.c" 1
 142 0034 FFF7FEFF 		bl      _port_unlock
 143              	@ 0 "" 2
 144              		.loc 1 94 0
 145              		.thumb
 146 0038 10BD     		pop	{r4, pc}
 147              	.L7:
 148              		.loc 1 86 0 discriminator 1
 149 003a 40F20000 		movw	r0, #:lower16:.LC1
 150 003e C0F20000 		movt	r0, #:upper16:.LC1
 151 0042 FFF7FEFF 		bl	chDbgPanic
 152 0046 DEE7     		b	.L6
 153              		.cfi_endproc
 154              	.LFE1:
 155              		.size	chMBReset, .-chMBReset
 156 0048 AFF30080 		.section	.text.chMBPostS,"ax",%progbits
 156      AFF30080 
 157              		.align	2
 158              		.p2align 4,,15
 159              		.global	chMBPostS
 160              		.thumb
 161              		.thumb_func
 162              		.type	chMBPostS, %function
 163              	chMBPostS:
 164              	.LFB3:
 165              		.loc 1 143 0
 166              		.cfi_startproc
 167              		@ args = 0, pretend = 0, frame = 0
 168              		@ frame_needed = 0, uses_anonymous_args = 0
 169              	.LVL4:
 170 0000 70B5     		push	{r4, r5, r6, lr}
ARM GAS  /tmp/ccdMF9sA.s 			page 4


 171              	.LCFI2:
 172              		.cfi_def_cfa_offset 16
 173              		.cfi_offset 14, -4
 174              		.cfi_offset 6, -8
 175              		.cfi_offset 5, -12
 176              		.cfi_offset 4, -16
 177              		.loc 1 143 0
 178 0002 0446     		mov	r4, r0
 179 0004 0D46     		mov	r5, r1
 180 0006 1646     		mov	r6, r2
 181              		.loc 1 146 0
 182 0008 FFF7FEFF 		bl	chDbgCheckClassS
 183              	.LVL5:
 184              		.loc 1 147 0
 185 000c C4B1     		cbz	r4, .L12
 186              	.L9:
 187              		.loc 1 149 0
 188 000e 3146     		mov	r1, r6
 189 0010 04F11C00 		add	r0, r4, #28
 190 0014 FFF7FEFF 		bl	chSemWaitTimeoutS
 191              	.LVL6:
 192              		.loc 1 150 0
 193 0018 0646     		mov	r6, r0
 194              	.LVL7:
 195 001a 78B9     		cbnz	r0, .L10
 196              		.loc 1 151 0
 197 001c A368     		ldr	r3, [r4, #8]
 198              		.loc 1 152 0
 199 001e 6268     		ldr	r2, [r4, #4]
 200              		.loc 1 151 0
 201 0020 43F8045B 		str	r5, [r3], #4
 202              		.loc 1 152 0
 203 0024 9342     		cmp	r3, r2
 204              		.loc 1 151 0
 205 0026 A360     		str	r3, [r4, #8]
 206              		.loc 1 153 0
 207 0028 28BF     		it	cs
 208 002a 2368     		ldrcs	r3, [r4, #0]
 209              		.loc 1 154 0
 210 002c 04F11000 		add	r0, r4, #16
 211              	.LVL8:
 212              		.loc 1 153 0
 213 0030 28BF     		it	cs
 214 0032 A360     		strcs	r3, [r4, #8]
 215              		.loc 1 154 0
 216 0034 FFF7FEFF 		bl	chSemSignalI
 217              		.loc 1 155 0
 218 0038 FFF7FEFF 		bl	chSchRescheduleS
 219              	.L10:
 220              		.loc 1 158 0
 221 003c 3046     		mov	r0, r6
 222 003e 70BD     		pop	{r4, r5, r6, pc}
 223              	.LVL9:
 224              	.L12:
 225              		.loc 1 147 0 discriminator 1
 226 0040 40F20000 		movw	r0, #:lower16:.LC2
 227 0044 C0F20000 		movt	r0, #:upper16:.LC2
ARM GAS  /tmp/ccdMF9sA.s 			page 5


 228 0048 FFF7FEFF 		bl	chDbgPanic
 229 004c DFE7     		b	.L9
 230              		.cfi_endproc
 231              	.LFE3:
 232              		.size	chMBPostS, .-chMBPostS
 233 004e 00BF     		.section	.text.chMBPost,"ax",%progbits
 234              		.align	2
 235              		.p2align 4,,15
 236              		.global	chMBPost
 237              		.thumb
 238              		.thumb_func
 239              		.type	chMBPost, %function
 240              	chMBPost:
 241              	.LFB2:
 242              		.loc 1 115 0
 243              		.cfi_startproc
 244              		@ args = 0, pretend = 0, frame = 0
 245              		@ frame_needed = 0, uses_anonymous_args = 0
 246              	.LVL10:
 247 0000 70B5     		push	{r4, r5, r6, lr}
 248              	.LCFI3:
 249              		.cfi_def_cfa_offset 16
 250              		.cfi_offset 14, -4
 251              		.cfi_offset 6, -8
 252              		.cfi_offset 5, -12
 253              		.cfi_offset 4, -16
 254              		.loc 1 115 0
 255 0002 0646     		mov	r6, r0
 256 0004 0D46     		mov	r5, r1
 257 0006 1446     		mov	r4, r2
 258              		.loc 1 118 0
 259              	@ 118 "../../../os/kernel/src/chmboxes.c" 1
 260 0008 FFF7FEFF 		bl      _port_lock
 261              	@ 0 "" 2
 262              		.thumb
 263 000c FFF7FEFF 		bl	dbg_check_lock
 264              	.LVL11:
 265              		.loc 1 119 0
 266 0010 2246     		mov	r2, r4
 267 0012 2946     		mov	r1, r5
 268 0014 3046     		mov	r0, r6
 269 0016 FFF7FEFF 		bl	chMBPostS
 270 001a 0446     		mov	r4, r0
 271              	.LVL12:
 272              		.loc 1 120 0
 273 001c FFF7FEFF 		bl	dbg_check_unlock
 274              	.LVL13:
 275              	@ 120 "../../../os/kernel/src/chmboxes.c" 1
 276 0020 FFF7FEFF 		bl      _port_unlock
 277              	@ 0 "" 2
 278              		.loc 1 122 0
 279              		.thumb
 280 0024 2046     		mov	r0, r4
 281 0026 70BD     		pop	{r4, r5, r6, pc}
 282              		.cfi_endproc
 283              	.LFE2:
 284              		.size	chMBPost, .-chMBPost
ARM GAS  /tmp/ccdMF9sA.s 			page 6


 285 0028 AFF30080 		.section	.text.chMBPostI,"ax",%progbits
 285      AFF30080 
 286              		.align	2
 287              		.p2align 4,,15
 288              		.global	chMBPostI
 289              		.thumb
 290              		.thumb_func
 291              		.type	chMBPostI, %function
 292              	chMBPostI:
 293              	.LFB4:
 294              		.loc 1 174 0
 295              		.cfi_startproc
 296              		@ args = 0, pretend = 0, frame = 0
 297              		@ frame_needed = 0, uses_anonymous_args = 0
 298              	.LVL14:
 299 0000 38B5     		push	{r3, r4, r5, lr}
 300              	.LCFI4:
 301              		.cfi_def_cfa_offset 16
 302              		.cfi_offset 14, -4
 303              		.cfi_offset 5, -8
 304              		.cfi_offset 4, -12
 305              		.cfi_offset 3, -16
 306              		.loc 1 174 0
 307 0002 0446     		mov	r4, r0
 308 0004 0D46     		mov	r5, r1
 309              		.loc 1 176 0
 310 0006 FFF7FEFF 		bl	chDbgCheckClassI
 311              	.LVL15:
 312              		.loc 1 177 0
 313 000a A4B1     		cbz	r4, .L19
 314              	.L15:
 315              		.loc 1 179 0
 316 000c 636A     		ldr	r3, [r4, #36]
 317 000e 002B     		cmp	r3, #0
 318 0010 18DD     		ble	.L18
 319              		.loc 1 182 0
 320 0012 A268     		ldr	r2, [r4, #8]
 321              		.loc 1 183 0
 322 0014 6168     		ldr	r1, [r4, #4]
 323              		.loc 1 181 0
 324 0016 013B     		subs	r3, r3, #1
 325 0018 6362     		str	r3, [r4, #36]
 326              		.loc 1 182 0
 327 001a 42F8045B 		str	r5, [r2], #4
 328              		.loc 1 183 0
 329 001e 8A42     		cmp	r2, r1
 330              		.loc 1 184 0
 331 0020 28BF     		it	cs
 332 0022 2368     		ldrcs	r3, [r4, #0]
 333              		.loc 1 182 0
 334 0024 A260     		str	r2, [r4, #8]
 335              		.loc 1 185 0
 336 0026 04F11000 		add	r0, r4, #16
 337              		.loc 1 184 0
 338 002a 28BF     		it	cs
 339 002c A360     		strcs	r3, [r4, #8]
 340              		.loc 1 185 0
ARM GAS  /tmp/ccdMF9sA.s 			page 7


 341 002e FFF7FEFF 		bl	chSemSignalI
 342              		.loc 1 186 0
 343 0032 0020     		movs	r0, #0
 344 0034 38BD     		pop	{r3, r4, r5, pc}
 345              	.L19:
 346              		.loc 1 177 0 discriminator 1
 347 0036 40F20000 		movw	r0, #:lower16:.LC3
 348 003a C0F20000 		movt	r0, #:upper16:.LC3
 349 003e FFF7FEFF 		bl	chDbgPanic
 350 0042 E3E7     		b	.L15
 351              	.L18:
 352              		.loc 1 180 0
 353 0044 4FF0FF30 		mov	r0, #-1
 354              		.loc 1 187 0
 355 0048 38BD     		pop	{r3, r4, r5, pc}
 356              		.cfi_endproc
 357              	.LFE4:
 358              		.size	chMBPostI, .-chMBPostI
 359 004a 00BFAFF3 		.section	.text.chMBPostAheadS,"ax",%progbits
 359      0080
 360              		.align	2
 361              		.p2align 4,,15
 362              		.global	chMBPostAheadS
 363              		.thumb
 364              		.thumb_func
 365              		.type	chMBPostAheadS, %function
 366              	chMBPostAheadS:
 367              	.LFB6:
 368              		.loc 1 236 0
 369              		.cfi_startproc
 370              		@ args = 0, pretend = 0, frame = 0
 371              		@ frame_needed = 0, uses_anonymous_args = 0
 372              	.LVL16:
 373 0000 70B5     		push	{r4, r5, r6, lr}
 374              	.LCFI5:
 375              		.cfi_def_cfa_offset 16
 376              		.cfi_offset 14, -4
 377              		.cfi_offset 6, -8
 378              		.cfi_offset 5, -12
 379              		.cfi_offset 4, -16
 380              		.loc 1 236 0
 381 0002 0446     		mov	r4, r0
 382 0004 0D46     		mov	r5, r1
 383 0006 1646     		mov	r6, r2
 384              		.loc 1 239 0
 385 0008 FFF7FEFF 		bl	chDbgCheckClassS
 386              	.LVL17:
 387              		.loc 1 240 0
 388 000c CCB1     		cbz	r4, .L24
 389              	.L21:
 390              		.loc 1 242 0
 391 000e 3146     		mov	r1, r6
 392 0010 04F11C00 		add	r0, r4, #28
 393 0014 FFF7FEFF 		bl	chSemWaitTimeoutS
 394              	.LVL18:
 395              		.loc 1 243 0
 396 0018 0646     		mov	r6, r0
ARM GAS  /tmp/ccdMF9sA.s 			page 8


 397              	.LVL19:
 398 001a 60B9     		cbnz	r0, .L22
 399              		.loc 1 244 0
 400 001c E368     		ldr	r3, [r4, #12]
 401 001e 2268     		ldr	r2, [r4, #0]
 402 0020 043B     		subs	r3, r3, #4
 403 0022 9342     		cmp	r3, r2
 404 0024 E360     		str	r3, [r4, #12]
 405 0026 08D3     		bcc	.L25
 406              	.LVL20:
 407              	.L23:
 408              		.loc 1 247 0
 409 0028 04F11000 		add	r0, r4, #16
 410              		.loc 1 246 0
 411 002c 1D60     		str	r5, [r3, #0]
 412              		.loc 1 247 0
 413 002e FFF7FEFF 		bl	chSemSignalI
 414              		.loc 1 248 0
 415 0032 FFF7FEFF 		bl	chSchRescheduleS
 416              	.L22:
 417              		.loc 1 251 0
 418 0036 3046     		mov	r0, r6
 419 0038 70BD     		pop	{r4, r5, r6, pc}
 420              	.L25:
 421              		.loc 1 245 0
 422 003a 6068     		ldr	r0, [r4, #4]
 423 003c 031F     		subs	r3, r0, #4
 424 003e E360     		str	r3, [r4, #12]
 425 0040 F2E7     		b	.L23
 426              	.LVL21:
 427              	.L24:
 428              		.loc 1 240 0 discriminator 1
 429 0042 40F20000 		movw	r0, #:lower16:.LC4
 430 0046 C0F20000 		movt	r0, #:upper16:.LC4
 431 004a FFF7FEFF 		bl	chDbgPanic
 432 004e DEE7     		b	.L21
 433              		.cfi_endproc
 434              	.LFE6:
 435              		.size	chMBPostAheadS, .-chMBPostAheadS
 436              		.section	.text.chMBPostAhead,"ax",%progbits
 437              		.align	2
 438              		.p2align 4,,15
 439              		.global	chMBPostAhead
 440              		.thumb
 441              		.thumb_func
 442              		.type	chMBPostAhead, %function
 443              	chMBPostAhead:
 444              	.LFB5:
 445              		.loc 1 208 0
 446              		.cfi_startproc
 447              		@ args = 0, pretend = 0, frame = 0
 448              		@ frame_needed = 0, uses_anonymous_args = 0
 449              	.LVL22:
 450 0000 70B5     		push	{r4, r5, r6, lr}
 451              	.LCFI6:
 452              		.cfi_def_cfa_offset 16
 453              		.cfi_offset 14, -4
ARM GAS  /tmp/ccdMF9sA.s 			page 9


 454              		.cfi_offset 6, -8
 455              		.cfi_offset 5, -12
 456              		.cfi_offset 4, -16
 457              		.loc 1 208 0
 458 0002 0646     		mov	r6, r0
 459 0004 0D46     		mov	r5, r1
 460 0006 1446     		mov	r4, r2
 461              		.loc 1 211 0
 462              	@ 211 "../../../os/kernel/src/chmboxes.c" 1
 463 0008 FFF7FEFF 		bl      _port_lock
 464              	@ 0 "" 2
 465              		.thumb
 466 000c FFF7FEFF 		bl	dbg_check_lock
 467              	.LVL23:
 468              		.loc 1 212 0
 469 0010 2246     		mov	r2, r4
 470 0012 2946     		mov	r1, r5
 471 0014 3046     		mov	r0, r6
 472 0016 FFF7FEFF 		bl	chMBPostAheadS
 473 001a 0446     		mov	r4, r0
 474              	.LVL24:
 475              		.loc 1 213 0
 476 001c FFF7FEFF 		bl	dbg_check_unlock
 477              	.LVL25:
 478              	@ 213 "../../../os/kernel/src/chmboxes.c" 1
 479 0020 FFF7FEFF 		bl      _port_unlock
 480              	@ 0 "" 2
 481              		.loc 1 215 0
 482              		.thumb
 483 0024 2046     		mov	r0, r4
 484 0026 70BD     		pop	{r4, r5, r6, pc}
 485              		.cfi_endproc
 486              	.LFE5:
 487              		.size	chMBPostAhead, .-chMBPostAhead
 488 0028 AFF30080 		.section	.text.chMBPostAheadI,"ax",%progbits
 488      AFF30080 
 489              		.align	2
 490              		.p2align 4,,15
 491              		.global	chMBPostAheadI
 492              		.thumb
 493              		.thumb_func
 494              		.type	chMBPostAheadI, %function
 495              	chMBPostAheadI:
 496              	.LFB7:
 497              		.loc 1 267 0
 498              		.cfi_startproc
 499              		@ args = 0, pretend = 0, frame = 0
 500              		@ frame_needed = 0, uses_anonymous_args = 0
 501              	.LVL26:
 502 0000 38B5     		push	{r3, r4, r5, lr}
 503              	.LCFI7:
 504              		.cfi_def_cfa_offset 16
 505              		.cfi_offset 14, -4
 506              		.cfi_offset 5, -8
 507              		.cfi_offset 4, -12
 508              		.cfi_offset 3, -16
 509              		.loc 1 267 0
ARM GAS  /tmp/ccdMF9sA.s 			page 10


 510 0002 0446     		mov	r4, r0
 511 0004 0D46     		mov	r5, r1
 512              		.loc 1 269 0
 513 0006 FFF7FEFF 		bl	chDbgCheckClassI
 514              	.LVL27:
 515              		.loc 1 270 0
 516 000a A4B1     		cbz	r4, .L32
 517              	.L28:
 518              		.loc 1 272 0
 519 000c 636A     		ldr	r3, [r4, #36]
 520 000e 002B     		cmp	r3, #0
 521 0010 18DD     		ble	.L31
 522              		.loc 1 275 0
 523 0012 E268     		ldr	r2, [r4, #12]
 524 0014 2168     		ldr	r1, [r4, #0]
 525 0016 043A     		subs	r2, r2, #4
 526              		.loc 1 274 0
 527 0018 013B     		subs	r3, r3, #1
 528              		.loc 1 275 0
 529 001a 8A42     		cmp	r2, r1
 530              		.loc 1 274 0
 531 001c 6362     		str	r3, [r4, #36]
 532              		.loc 1 275 0
 533 001e E260     		str	r2, [r4, #12]
 534 0020 02D2     		bcs	.L30
 535              		.loc 1 276 0
 536 0022 6068     		ldr	r0, [r4, #4]
 537 0024 021F     		subs	r2, r0, #4
 538 0026 E260     		str	r2, [r4, #12]
 539              	.L30:
 540              		.loc 1 278 0
 541 0028 04F11000 		add	r0, r4, #16
 542              		.loc 1 277 0
 543 002c 1560     		str	r5, [r2, #0]
 544              		.loc 1 278 0
 545 002e FFF7FEFF 		bl	chSemSignalI
 546              		.loc 1 279 0
 547 0032 0020     		movs	r0, #0
 548 0034 38BD     		pop	{r3, r4, r5, pc}
 549              	.L32:
 550              		.loc 1 270 0 discriminator 1
 551 0036 40F20000 		movw	r0, #:lower16:.LC5
 552 003a C0F20000 		movt	r0, #:upper16:.LC5
 553 003e FFF7FEFF 		bl	chDbgPanic
 554 0042 E3E7     		b	.L28
 555              	.L31:
 556              		.loc 1 273 0
 557 0044 4FF0FF30 		mov	r0, #-1
 558              		.loc 1 280 0
 559 0048 38BD     		pop	{r3, r4, r5, pc}
 560              		.cfi_endproc
 561              	.LFE7:
 562              		.size	chMBPostAheadI, .-chMBPostAheadI
 563 004a 00BFAFF3 		.section	.text.chMBFetchS,"ax",%progbits
 563      0080
 564              		.align	2
 565              		.p2align 4,,15
ARM GAS  /tmp/ccdMF9sA.s 			page 11


 566              		.global	chMBFetchS
 567              		.thumb
 568              		.thumb_func
 569              		.type	chMBFetchS, %function
 570              	chMBFetchS:
 571              	.LFB9:
 572              		.loc 1 329 0
 573              		.cfi_startproc
 574              		@ args = 0, pretend = 0, frame = 0
 575              		@ frame_needed = 0, uses_anonymous_args = 0
 576              	.LVL28:
 577 0000 70B5     		push	{r4, r5, r6, lr}
 578              	.LCFI8:
 579              		.cfi_def_cfa_offset 16
 580              		.cfi_offset 14, -4
 581              		.cfi_offset 6, -8
 582              		.cfi_offset 5, -12
 583              		.cfi_offset 4, -16
 584              		.loc 1 329 0
 585 0002 0446     		mov	r4, r0
 586 0004 0D46     		mov	r5, r1
 587 0006 1646     		mov	r6, r2
 588              		.loc 1 332 0
 589 0008 FFF7FEFF 		bl	chDbgCheckClassS
 590              	.LVL29:
 591              		.loc 1 333 0
 592 000c D4F10103 		rsbs	r3, r4, #1
 593 0010 38BF     		it	cc
 594 0012 0023     		movcc	r3, #0
 595 0014 002D     		cmp	r5, #0
 596 0016 08BF     		it	eq
 597 0018 43F00103 		orreq	r3, r3, #1
 598 001c C3B9     		cbnz	r3, .L37
 599              	.L34:
 600              		.loc 1 335 0
 601 001e 3146     		mov	r1, r6
 602 0020 04F11000 		add	r0, r4, #16
 603 0024 FFF7FEFF 		bl	chSemWaitTimeoutS
 604              	.LVL30:
 605              		.loc 1 336 0
 606 0028 0646     		mov	r6, r0
 607              	.LVL31:
 608 002a 78B9     		cbnz	r0, .L35
 609              		.loc 1 337 0
 610 002c E068     		ldr	r0, [r4, #12]
 611              	.LVL32:
 612              		.loc 1 338 0
 613 002e 6268     		ldr	r2, [r4, #4]
 614              		.loc 1 337 0
 615 0030 50F8041B 		ldr	r1, [r0], #4
 616              		.loc 1 338 0
 617 0034 9042     		cmp	r0, r2
 618              		.loc 1 337 0
 619 0036 2960     		str	r1, [r5, #0]
 620 0038 E060     		str	r0, [r4, #12]
 621              		.loc 1 339 0
 622 003a 24BF     		itt	cs
ARM GAS  /tmp/ccdMF9sA.s 			page 12


 623 003c 2068     		ldrcs	r0, [r4, #0]
 624 003e E060     		strcs	r0, [r4, #12]
 625              		.loc 1 340 0
 626 0040 04F11C00 		add	r0, r4, #28
 627 0044 FFF7FEFF 		bl	chSemSignalI
 628              		.loc 1 341 0
 629 0048 FFF7FEFF 		bl	chSchRescheduleS
 630              	.L35:
 631              		.loc 1 344 0
 632 004c 3046     		mov	r0, r6
 633 004e 70BD     		pop	{r4, r5, r6, pc}
 634              	.LVL33:
 635              	.L37:
 636              		.loc 1 333 0 discriminator 1
 637 0050 40F20000 		movw	r0, #:lower16:.LC6
 638 0054 C0F20000 		movt	r0, #:upper16:.LC6
 639 0058 FFF7FEFF 		bl	chDbgPanic
 640 005c DFE7     		b	.L34
 641              		.cfi_endproc
 642              	.LFE9:
 643              		.size	chMBFetchS, .-chMBFetchS
 644 005e 00BF     		.section	.text.chMBFetch,"ax",%progbits
 645              		.align	2
 646              		.p2align 4,,15
 647              		.global	chMBFetch
 648              		.thumb
 649              		.thumb_func
 650              		.type	chMBFetch, %function
 651              	chMBFetch:
 652              	.LFB8:
 653              		.loc 1 301 0
 654              		.cfi_startproc
 655              		@ args = 0, pretend = 0, frame = 0
 656              		@ frame_needed = 0, uses_anonymous_args = 0
 657              	.LVL34:
 658 0000 70B5     		push	{r4, r5, r6, lr}
 659              	.LCFI9:
 660              		.cfi_def_cfa_offset 16
 661              		.cfi_offset 14, -4
 662              		.cfi_offset 6, -8
 663              		.cfi_offset 5, -12
 664              		.cfi_offset 4, -16
 665              		.loc 1 301 0
 666 0002 0646     		mov	r6, r0
 667 0004 0D46     		mov	r5, r1
 668 0006 1446     		mov	r4, r2
 669              		.loc 1 304 0
 670              	@ 304 "../../../os/kernel/src/chmboxes.c" 1
 671 0008 FFF7FEFF 		bl      _port_lock
 672              	@ 0 "" 2
 673              		.thumb
 674 000c FFF7FEFF 		bl	dbg_check_lock
 675              	.LVL35:
 676              		.loc 1 305 0
 677 0010 2246     		mov	r2, r4
 678 0012 2946     		mov	r1, r5
 679 0014 3046     		mov	r0, r6
ARM GAS  /tmp/ccdMF9sA.s 			page 13


 680 0016 FFF7FEFF 		bl	chMBFetchS
 681 001a 0446     		mov	r4, r0
 682              	.LVL36:
 683              		.loc 1 306 0
 684 001c FFF7FEFF 		bl	dbg_check_unlock
 685              	.LVL37:
 686              	@ 306 "../../../os/kernel/src/chmboxes.c" 1
 687 0020 FFF7FEFF 		bl      _port_unlock
 688              	@ 0 "" 2
 689              		.loc 1 308 0
 690              		.thumb
 691 0024 2046     		mov	r0, r4
 692 0026 70BD     		pop	{r4, r5, r6, pc}
 693              		.cfi_endproc
 694              	.LFE8:
 695              		.size	chMBFetch, .-chMBFetch
 696 0028 AFF30080 		.section	.text.chMBFetchI,"ax",%progbits
 696      AFF30080 
 697              		.align	2
 698              		.p2align 4,,15
 699              		.global	chMBFetchI
 700              		.thumb
 701              		.thumb_func
 702              		.type	chMBFetchI, %function
 703              	chMBFetchI:
 704              	.LFB10:
 705              		.loc 1 360 0
 706              		.cfi_startproc
 707              		@ args = 0, pretend = 0, frame = 0
 708              		@ frame_needed = 0, uses_anonymous_args = 0
 709              	.LVL38:
 710 0000 38B5     		push	{r3, r4, r5, lr}
 711              	.LCFI10:
 712              		.cfi_def_cfa_offset 16
 713              		.cfi_offset 14, -4
 714              		.cfi_offset 5, -8
 715              		.cfi_offset 4, -12
 716              		.cfi_offset 3, -16
 717              		.loc 1 360 0
 718 0002 0446     		mov	r4, r0
 719 0004 0D46     		mov	r5, r1
 720              		.loc 1 362 0
 721 0006 FFF7FEFF 		bl	chDbgCheckClassI
 722              	.LVL39:
 723              		.loc 1 363 0
 724 000a D4F10103 		rsbs	r3, r4, #1
 725 000e 38BF     		it	cc
 726 0010 0023     		movcc	r3, #0
 727 0012 002D     		cmp	r5, #0
 728 0014 08BF     		it	eq
 729 0016 43F00103 		orreq	r3, r3, #1
 730 001a ABB9     		cbnz	r3, .L44
 731              	.L40:
 732              		.loc 1 365 0
 733 001c A369     		ldr	r3, [r4, #24]
 734 001e 002B     		cmp	r3, #0
 735 0020 19DD     		ble	.L43
ARM GAS  /tmp/ccdMF9sA.s 			page 14


 736              		.loc 1 368 0
 737 0022 E268     		ldr	r2, [r4, #12]
 738              		.loc 1 369 0
 739 0024 6168     		ldr	r1, [r4, #4]
 740              		.loc 1 367 0
 741 0026 013B     		subs	r3, r3, #1
 742 0028 A361     		str	r3, [r4, #24]
 743              		.loc 1 368 0
 744 002a 52F8040B 		ldr	r0, [r2], #4
 745              		.loc 1 369 0
 746 002e 8A42     		cmp	r2, r1
 747              		.loc 1 368 0
 748 0030 2860     		str	r0, [r5, #0]
 749              		.loc 1 370 0
 750 0032 28BF     		it	cs
 751 0034 2068     		ldrcs	r0, [r4, #0]
 752              		.loc 1 368 0
 753 0036 E260     		str	r2, [r4, #12]
 754              		.loc 1 370 0
 755 0038 28BF     		it	cs
 756 003a E060     		strcs	r0, [r4, #12]
 757              		.loc 1 371 0
 758 003c 04F11C00 		add	r0, r4, #28
 759 0040 FFF7FEFF 		bl	chSemSignalI
 760              		.loc 1 372 0
 761 0044 0020     		movs	r0, #0
 762 0046 38BD     		pop	{r3, r4, r5, pc}
 763              	.L44:
 764              		.loc 1 363 0 discriminator 1
 765 0048 40F20000 		movw	r0, #:lower16:.LC7
 766 004c C0F20000 		movt	r0, #:upper16:.LC7
 767 0050 FFF7FEFF 		bl	chDbgPanic
 768 0054 E2E7     		b	.L40
 769              	.L43:
 770              		.loc 1 366 0
 771 0056 4FF0FF30 		mov	r0, #-1
 772              		.loc 1 373 0
 773 005a 38BD     		pop	{r3, r4, r5, pc}
 774              		.cfi_endproc
 775              	.LFE10:
 776              		.size	chMBFetchI, .-chMBFetchI
 777 005c AFF30080 		.section	.rodata.str1.4,"aMS",%progbits,1
 778              		.align	2
 779              	.LC0:
 780 0000 2263684D 		.ascii	"\"chMBInit\"()\000"
 780      42496E69 
 780      74222829 
 780      00
 781 000d 000000   		.space	3
 782              	.LC1:
 783 0010 2263684D 		.ascii	"\"chMBReset\"()\000"
 783      42526573 
 783      65742228 
 783      2900
 784 001e 0000     		.space	2
 785              	.LC2:
 786 0020 2263684D 		.ascii	"\"chMBPostS\"()\000"
ARM GAS  /tmp/ccdMF9sA.s 			page 15


 786      42506F73 
 786      74532228 
 786      2900
 787 002e 0000     		.space	2
 788              	.LC3:
 789 0030 2263684D 		.ascii	"\"chMBPostI\"()\000"
 789      42506F73 
 789      74492228 
 789      2900
 790 003e 0000     		.space	2
 791              	.LC4:
 792 0040 2263684D 		.ascii	"\"chMBPostAheadS\"()\000"
 792      42506F73 
 792      74416865 
 792      61645322 
 792      282900
 793 0053 00       		.space	1
 794              	.LC5:
 795 0054 2263684D 		.ascii	"\"chMBPostAheadI\"()\000"
 795      42506F73 
 795      74416865 
 795      61644922 
 795      282900
 796 0067 00       		.space	1
 797              	.LC6:
 798 0068 2263684D 		.ascii	"\"chMBFetchS\"()\000"
 798      42466574 
 798      63685322 
 798      282900
 799 0077 00       		.space	1
 800              	.LC7:
 801 0078 2263684D 		.ascii	"\"chMBFetchI\"()\000"
 801      42466574 
 801      63684922 
 801      282900
 802 0087 00       		.text
 803              	.Letext0:
 804              		.file 2 "/home/prana/CodeSourcery/ARM_EABI/bin/../lib/gcc/arm-none-eabi/4.6.3/../../../../arm-none
 805              		.file 3 "../../../os/ports/GCC/ARMCMx/chtypes.h"
 806              		.file 4 "../../../os/kernel/include/chlists.h"
 807              		.file 5 "../../../os/kernel/include/chthreads.h"
 808              		.file 6 "../../../os/ports/GCC/ARMCMx/chcore_v7m.h"
 809              		.file 7 "../../../os/kernel/include/chsem.h"
 810              		.file 8 "../../../os/kernel/include/chmtx.h"
 811              		.file 9 "../../../os/kernel/include/chmboxes.h"
 812              		.section	.debug_info,"",%progbits
 813              	.Ldebug_info0:
 814 0000 AC070000 		.4byte	0x7ac
 815 0004 0200     		.2byte	0x2
 816 0006 00000000 		.4byte	.Ldebug_abbrev0
 817 000a 04       		.byte	0x4
 818 000b 01       		.uleb128 0x1
 819 000c 93020000 		.4byte	.LASF76
 820 0010 01       		.byte	0x1
 821 0011 56020000 		.4byte	.LASF77
 822 0015 20010000 		.4byte	.LASF78
 823 0019 00000000 		.4byte	0
ARM GAS  /tmp/ccdMF9sA.s 			page 16


 824 001d 00000000 		.4byte	0
 825 0021 00000000 		.4byte	.Ldebug_ranges0+0
 826 0025 00000000 		.4byte	.Ldebug_line0
 827 0029 02       		.uleb128 0x2
 828 002a 04       		.byte	0x4
 829 002b 05       		.byte	0x5
 830 002c 696E7400 		.ascii	"int\000"
 831 0030 03       		.uleb128 0x3
 832 0031 04       		.byte	0x4
 833 0032 07       		.byte	0x7
 834 0033 DE000000 		.4byte	.LASF0
 835 0037 03       		.uleb128 0x3
 836 0038 01       		.byte	0x1
 837 0039 06       		.byte	0x6
 838 003a 8E000000 		.4byte	.LASF1
 839 003e 04       		.uleb128 0x4
 840 003f 06030000 		.4byte	.LASF5
 841 0043 02       		.byte	0x2
 842 0044 2A       		.byte	0x2a
 843 0045 49000000 		.4byte	0x49
 844 0049 03       		.uleb128 0x3
 845 004a 01       		.byte	0x1
 846 004b 08       		.byte	0x8
 847 004c 06020000 		.4byte	.LASF2
 848 0050 03       		.uleb128 0x3
 849 0051 02       		.byte	0x2
 850 0052 05       		.byte	0x5
 851 0053 25020000 		.4byte	.LASF3
 852 0057 03       		.uleb128 0x3
 853 0058 02       		.byte	0x2
 854 0059 07       		.byte	0x7
 855 005a 53010000 		.4byte	.LASF4
 856 005e 04       		.uleb128 0x4
 857 005f FE010000 		.4byte	.LASF6
 858 0063 02       		.byte	0x2
 859 0064 4F       		.byte	0x4f
 860 0065 69000000 		.4byte	0x69
 861 0069 03       		.uleb128 0x3
 862 006a 04       		.byte	0x4
 863 006b 05       		.byte	0x5
 864 006c A2000000 		.4byte	.LASF7
 865 0070 04       		.uleb128 0x4
 866 0071 8A020000 		.4byte	.LASF8
 867 0075 02       		.byte	0x2
 868 0076 50       		.byte	0x50
 869 0077 7B000000 		.4byte	0x7b
 870 007b 03       		.uleb128 0x3
 871 007c 04       		.byte	0x4
 872 007d 07       		.byte	0x7
 873 007e F4000000 		.4byte	.LASF9
 874 0082 03       		.uleb128 0x3
 875 0083 08       		.byte	0x8
 876 0084 05       		.byte	0x5
 877 0085 80000000 		.4byte	.LASF10
 878 0089 04       		.uleb128 0x4
 879 008a 0D000000 		.4byte	.LASF11
 880 008e 02       		.byte	0x2
ARM GAS  /tmp/ccdMF9sA.s 			page 17


 881 008f 78       		.byte	0x78
 882 0090 94000000 		.4byte	0x94
 883 0094 03       		.uleb128 0x3
 884 0095 08       		.byte	0x8
 885 0096 07       		.byte	0x7
 886 0097 41000000 		.4byte	.LASF12
 887 009b 04       		.uleb128 0x4
 888 009c 82010000 		.4byte	.LASF13
 889 00a0 03       		.byte	0x3
 890 00a1 28       		.byte	0x28
 891 00a2 3E000000 		.4byte	0x3e
 892 00a6 04       		.uleb128 0x4
 893 00a7 AB000000 		.4byte	.LASF14
 894 00ab 03       		.byte	0x3
 895 00ac 29       		.byte	0x29
 896 00ad 3E000000 		.4byte	0x3e
 897 00b1 04       		.uleb128 0x4
 898 00b2 F6010000 		.4byte	.LASF15
 899 00b6 03       		.byte	0x3
 900 00b7 2C       		.byte	0x2c
 901 00b8 70000000 		.4byte	0x70
 902 00bc 04       		.uleb128 0x4
 903 00bd 71010000 		.4byte	.LASF16
 904 00c1 03       		.byte	0x3
 905 00c2 2D       		.byte	0x2d
 906 00c3 5E000000 		.4byte	0x5e
 907 00c7 04       		.uleb128 0x4
 908 00c8 96010000 		.4byte	.LASF17
 909 00cc 03       		.byte	0x3
 910 00cd 2F       		.byte	0x2f
 911 00ce 70000000 		.4byte	0x70
 912 00d2 04       		.uleb128 0x4
 913 00d3 AB020000 		.4byte	.LASF18
 914 00d7 03       		.byte	0x3
 915 00d8 31       		.byte	0x31
 916 00d9 70000000 		.4byte	0x70
 917 00dd 04       		.uleb128 0x4
 918 00de CD000000 		.4byte	.LASF19
 919 00e2 03       		.byte	0x3
 920 00e3 32       		.byte	0x32
 921 00e4 5E000000 		.4byte	0x5e
 922 00e8 04       		.uleb128 0x4
 923 00e9 78020000 		.4byte	.LASF20
 924 00ed 04       		.byte	0x4
 925 00ee 23       		.byte	0x23
 926 00ef F3000000 		.4byte	0xf3
 927 00f3 05       		.uleb128 0x5
 928 00f4 78020000 		.4byte	.LASF20
 929 00f8 48       		.byte	0x48
 930 00f9 05       		.byte	0x5
 931 00fa 57       		.byte	0x57
 932 00fb FC010000 		.4byte	0x1fc
 933 00ff 06       		.uleb128 0x6
 934 0100 3E020000 		.4byte	.LASF21
 935 0104 05       		.byte	0x5
 936 0105 58       		.byte	0x58
 937 0106 21020000 		.4byte	0x221
ARM GAS  /tmp/ccdMF9sA.s 			page 18


 938 010a 02       		.byte	0x2
 939 010b 23       		.byte	0x23
 940 010c 00       		.uleb128 0
 941 010d 06       		.uleb128 0x6
 942 010e EF010000 		.4byte	.LASF22
 943 0112 05       		.byte	0x5
 944 0113 5A       		.byte	0x5a
 945 0114 21020000 		.4byte	0x221
 946 0118 02       		.byte	0x2
 947 0119 23       		.byte	0x23
 948 011a 04       		.uleb128 0x4
 949 011b 06       		.uleb128 0x6
 950 011c 79000000 		.4byte	.LASF23
 951 0120 05       		.byte	0x5
 952 0121 5C       		.byte	0x5c
 953 0122 B1000000 		.4byte	0xb1
 954 0126 02       		.byte	0x2
 955 0127 23       		.byte	0x23
 956 0128 08       		.uleb128 0x8
 957 0129 06       		.uleb128 0x6
 958 012a 24030000 		.4byte	.LASF24
 959 012e 05       		.byte	0x5
 960 012f 5D       		.byte	0x5d
 961 0130 FA020000 		.4byte	0x2fa
 962 0134 02       		.byte	0x2
 963 0135 23       		.byte	0x23
 964 0136 0C       		.uleb128 0xc
 965 0137 06       		.uleb128 0x6
 966 0138 B4000000 		.4byte	.LASF25
 967 013c 05       		.byte	0x5
 968 013d 5F       		.byte	0x5f
 969 013e 21020000 		.4byte	0x221
 970 0142 02       		.byte	0x2
 971 0143 23       		.byte	0x23
 972 0144 10       		.uleb128 0x10
 973 0145 06       		.uleb128 0x6
 974 0146 CB010000 		.4byte	.LASF26
 975 014a 05       		.byte	0x5
 976 014b 60       		.byte	0x60
 977 014c 21020000 		.4byte	0x221
 978 0150 02       		.byte	0x2
 979 0151 23       		.byte	0x23
 980 0152 14       		.uleb128 0x14
 981 0153 06       		.uleb128 0x6
 982 0154 15030000 		.4byte	.LASF27
 983 0158 05       		.byte	0x5
 984 0159 67       		.byte	0x67
 985 015a 41040000 		.4byte	0x441
 986 015e 02       		.byte	0x2
 987 015f 23       		.byte	0x23
 988 0160 18       		.uleb128 0x18
 989 0161 06       		.uleb128 0x6
 990 0162 D3000000 		.4byte	.LASF28
 991 0166 05       		.byte	0x5
 992 0167 6D       		.byte	0x6d
 993 0168 53040000 		.4byte	0x453
 994 016c 02       		.byte	0x2
ARM GAS  /tmp/ccdMF9sA.s 			page 19


 995 016d 23       		.byte	0x23
 996 016e 1C       		.uleb128 0x1c
 997 016f 06       		.uleb128 0x6
 998 0170 2F020000 		.4byte	.LASF29
 999 0174 05       		.byte	0x5
 1000 0175 72       		.byte	0x72
 1001 0176 A6000000 		.4byte	0xa6
 1002 017a 02       		.byte	0x2
 1003 017b 23       		.byte	0x23
 1004 017c 20       		.uleb128 0x20
 1005 017d 06       		.uleb128 0x6
 1006 017e 45020000 		.4byte	.LASF30
 1007 0182 05       		.byte	0x5
 1008 0183 76       		.byte	0x76
 1009 0184 9B000000 		.4byte	0x9b
 1010 0188 02       		.byte	0x2
 1011 0189 23       		.byte	0x23
 1012 018a 21       		.uleb128 0x21
 1013 018b 06       		.uleb128 0x6
 1014 018c C0020000 		.4byte	.LASF31
 1015 0190 05       		.byte	0x5
 1016 0191 88       		.byte	0x88
 1017 0192 1D030000 		.4byte	0x31d
 1018 0196 02       		.byte	0x2
 1019 0197 23       		.byte	0x23
 1020 0198 24       		.uleb128 0x24
 1021 0199 07       		.uleb128 0x7
 1022 019a 705F7500 		.ascii	"p_u\000"
 1023 019e 05       		.byte	0x5
 1024 019f AD       		.byte	0xad
 1025 01a0 0C040000 		.4byte	0x40c
 1026 01a4 02       		.byte	0x2
 1027 01a5 23       		.byte	0x23
 1028 01a6 28       		.uleb128 0x28
 1029 01a7 06       		.uleb128 0x6
 1030 01a8 2A030000 		.4byte	.LASF32
 1031 01ac 05       		.byte	0x5
 1032 01ad B2       		.byte	0xb2
 1033 01ae 49020000 		.4byte	0x249
 1034 01b2 02       		.byte	0x2
 1035 01b3 23       		.byte	0x23
 1036 01b4 2C       		.uleb128 0x2c
 1037 01b5 06       		.uleb128 0x6
 1038 01b6 DC020000 		.4byte	.LASF33
 1039 01ba 05       		.byte	0x5
 1040 01bb B8       		.byte	0xb8
 1041 01bc 27020000 		.4byte	0x227
 1042 01c0 02       		.byte	0x2
 1043 01c1 23       		.byte	0x23
 1044 01c2 30       		.uleb128 0x30
 1045 01c3 06       		.uleb128 0x6
 1046 01c4 00000000 		.4byte	.LASF34
 1047 01c8 05       		.byte	0x5
 1048 01c9 BC       		.byte	0xbc
 1049 01ca BC000000 		.4byte	0xbc
 1050 01ce 02       		.byte	0x2
 1051 01cf 23       		.byte	0x23
ARM GAS  /tmp/ccdMF9sA.s 			page 20


 1052 01d0 38       		.uleb128 0x38
 1053 01d1 06       		.uleb128 0x6
 1054 01d2 7F020000 		.4byte	.LASF35
 1055 01d6 05       		.byte	0x5
 1056 01d7 C2       		.byte	0xc2
 1057 01d8 C7000000 		.4byte	0xc7
 1058 01dc 02       		.byte	0x2
 1059 01dd 23       		.byte	0x23
 1060 01de 3C       		.uleb128 0x3c
 1061 01df 06       		.uleb128 0x6
 1062 01e0 1B020000 		.4byte	.LASF36
 1063 01e4 05       		.byte	0x5
 1064 01e5 C9       		.byte	0xc9
 1065 01e6 59040000 		.4byte	0x459
 1066 01ea 02       		.byte	0x2
 1067 01eb 23       		.byte	0x23
 1068 01ec 40       		.uleb128 0x40
 1069 01ed 06       		.uleb128 0x6
 1070 01ee B5020000 		.4byte	.LASF37
 1071 01f2 05       		.byte	0x5
 1072 01f3 CD       		.byte	0xcd
 1073 01f4 B1000000 		.4byte	0xb1
 1074 01f8 02       		.byte	0x2
 1075 01f9 23       		.byte	0x23
 1076 01fa 44       		.uleb128 0x44
 1077 01fb 00       		.byte	0
 1078 01fc 08       		.uleb128 0x8
 1079 01fd 08       		.byte	0x8
 1080 01fe 04       		.byte	0x4
 1081 01ff 5A       		.byte	0x5a
 1082 0200 21020000 		.4byte	0x221
 1083 0204 06       		.uleb128 0x6
 1084 0205 3E020000 		.4byte	.LASF21
 1085 0209 04       		.byte	0x4
 1086 020a 5B       		.byte	0x5b
 1087 020b 21020000 		.4byte	0x221
 1088 020f 02       		.byte	0x2
 1089 0210 23       		.byte	0x23
 1090 0211 00       		.uleb128 0
 1091 0212 06       		.uleb128 0x6
 1092 0213 EF010000 		.4byte	.LASF22
 1093 0217 04       		.byte	0x4
 1094 0218 5D       		.byte	0x5d
 1095 0219 21020000 		.4byte	0x221
 1096 021d 02       		.byte	0x2
 1097 021e 23       		.byte	0x23
 1098 021f 04       		.uleb128 0x4
 1099 0220 00       		.byte	0
 1100 0221 09       		.uleb128 0x9
 1101 0222 04       		.byte	0x4
 1102 0223 E8000000 		.4byte	0xe8
 1103 0227 04       		.uleb128 0x4
 1104 0228 D3010000 		.4byte	.LASF38
 1105 022c 04       		.byte	0x4
 1106 022d 5F       		.byte	0x5f
 1107 022e FC010000 		.4byte	0x1fc
 1108 0232 08       		.uleb128 0x8
ARM GAS  /tmp/ccdMF9sA.s 			page 21


 1109 0233 04       		.byte	0x4
 1110 0234 04       		.byte	0x4
 1111 0235 64       		.byte	0x64
 1112 0236 49020000 		.4byte	0x249
 1113 023a 06       		.uleb128 0x6
 1114 023b 3E020000 		.4byte	.LASF21
 1115 023f 04       		.byte	0x4
 1116 0240 66       		.byte	0x66
 1117 0241 21020000 		.4byte	0x221
 1118 0245 02       		.byte	0x2
 1119 0246 23       		.byte	0x23
 1120 0247 00       		.uleb128 0
 1121 0248 00       		.byte	0
 1122 0249 04       		.uleb128 0x4
 1123 024a 8A010000 		.4byte	.LASF39
 1124 024e 04       		.byte	0x4
 1125 024f 69       		.byte	0x69
 1126 0250 32020000 		.4byte	0x232
 1127 0254 04       		.uleb128 0x4
 1128 0255 C4000000 		.4byte	.LASF40
 1129 0259 06       		.byte	0x6
 1130 025a DE       		.byte	0xde
 1131 025b 5F020000 		.4byte	0x25f
 1132 025f 0A       		.uleb128 0xa
 1133 0260 04       		.byte	0x4
 1134 0261 04       		.uleb128 0x4
 1135 0262 AD010000 		.4byte	.LASF41
 1136 0266 06       		.byte	0x6
 1137 0267 E4       		.byte	0xe4
 1138 0268 89000000 		.4byte	0x89
 1139 026c 0B       		.uleb128 0xb
 1140 026d D5020000 		.4byte	.LASF42
 1141 0271 24       		.byte	0x24
 1142 0272 06       		.byte	0x6
 1143 0273 0501     		.2byte	0x105
 1144 0275 FA020000 		.4byte	0x2fa
 1145 0279 0C       		.uleb128 0xc
 1146 027a 723400   		.ascii	"r4\000"
 1147 027d 06       		.byte	0x6
 1148 027e 1801     		.2byte	0x118
 1149 0280 54020000 		.4byte	0x254
 1150 0284 02       		.byte	0x2
 1151 0285 23       		.byte	0x23
 1152 0286 00       		.uleb128 0
 1153 0287 0C       		.uleb128 0xc
 1154 0288 723500   		.ascii	"r5\000"
 1155 028b 06       		.byte	0x6
 1156 028c 1901     		.2byte	0x119
 1157 028e 54020000 		.4byte	0x254
 1158 0292 02       		.byte	0x2
 1159 0293 23       		.byte	0x23
 1160 0294 04       		.uleb128 0x4
 1161 0295 0C       		.uleb128 0xc
 1162 0296 723600   		.ascii	"r6\000"
 1163 0299 06       		.byte	0x6
 1164 029a 1A01     		.2byte	0x11a
 1165 029c 54020000 		.4byte	0x254
ARM GAS  /tmp/ccdMF9sA.s 			page 22


 1166 02a0 02       		.byte	0x2
 1167 02a1 23       		.byte	0x23
 1168 02a2 08       		.uleb128 0x8
 1169 02a3 0C       		.uleb128 0xc
 1170 02a4 723700   		.ascii	"r7\000"
 1171 02a7 06       		.byte	0x6
 1172 02a8 1B01     		.2byte	0x11b
 1173 02aa 54020000 		.4byte	0x254
 1174 02ae 02       		.byte	0x2
 1175 02af 23       		.byte	0x23
 1176 02b0 0C       		.uleb128 0xc
 1177 02b1 0C       		.uleb128 0xc
 1178 02b2 723800   		.ascii	"r8\000"
 1179 02b5 06       		.byte	0x6
 1180 02b6 1C01     		.2byte	0x11c
 1181 02b8 54020000 		.4byte	0x254
 1182 02bc 02       		.byte	0x2
 1183 02bd 23       		.byte	0x23
 1184 02be 10       		.uleb128 0x10
 1185 02bf 0C       		.uleb128 0xc
 1186 02c0 723900   		.ascii	"r9\000"
 1187 02c3 06       		.byte	0x6
 1188 02c4 1D01     		.2byte	0x11d
 1189 02c6 54020000 		.4byte	0x254
 1190 02ca 02       		.byte	0x2
 1191 02cb 23       		.byte	0x23
 1192 02cc 14       		.uleb128 0x14
 1193 02cd 0C       		.uleb128 0xc
 1194 02ce 72313000 		.ascii	"r10\000"
 1195 02d2 06       		.byte	0x6
 1196 02d3 1E01     		.2byte	0x11e
 1197 02d5 54020000 		.4byte	0x254
 1198 02d9 02       		.byte	0x2
 1199 02da 23       		.byte	0x23
 1200 02db 18       		.uleb128 0x18
 1201 02dc 0C       		.uleb128 0xc
 1202 02dd 72313100 		.ascii	"r11\000"
 1203 02e1 06       		.byte	0x6
 1204 02e2 1F01     		.2byte	0x11f
 1205 02e4 54020000 		.4byte	0x254
 1206 02e8 02       		.byte	0x2
 1207 02e9 23       		.byte	0x23
 1208 02ea 1C       		.uleb128 0x1c
 1209 02eb 0C       		.uleb128 0xc
 1210 02ec 6C7200   		.ascii	"lr\000"
 1211 02ef 06       		.byte	0x6
 1212 02f0 2001     		.2byte	0x120
 1213 02f2 54020000 		.4byte	0x254
 1214 02f6 02       		.byte	0x2
 1215 02f7 23       		.byte	0x23
 1216 02f8 20       		.uleb128 0x20
 1217 02f9 00       		.byte	0
 1218 02fa 0B       		.uleb128 0xb
 1219 02fb 18010000 		.4byte	.LASF43
 1220 02ff 04       		.byte	0x4
 1221 0300 06       		.byte	0x6
 1222 0301 2A01     		.2byte	0x12a
ARM GAS  /tmp/ccdMF9sA.s 			page 23


 1223 0303 17030000 		.4byte	0x317
 1224 0307 0C       		.uleb128 0xc
 1225 0308 72313300 		.ascii	"r13\000"
 1226 030c 06       		.byte	0x6
 1227 030d 2B01     		.2byte	0x12b
 1228 030f 17030000 		.4byte	0x317
 1229 0313 02       		.byte	0x2
 1230 0314 23       		.byte	0x23
 1231 0315 00       		.uleb128 0
 1232 0316 00       		.byte	0
 1233 0317 09       		.uleb128 0x9
 1234 0318 04       		.byte	0x4
 1235 0319 6C020000 		.4byte	0x26c
 1236 031d 0D       		.uleb128 0xd
 1237 031e D2000000 		.4byte	0xd2
 1238 0322 05       		.uleb128 0x5
 1239 0323 F1020000 		.4byte	.LASF44
 1240 0327 0C       		.byte	0xc
 1241 0328 07       		.byte	0x7
 1242 0329 25       		.byte	0x25
 1243 032a 4B030000 		.4byte	0x34b
 1244 032e 06       		.uleb128 0x6
 1245 032f BC000000 		.4byte	.LASF45
 1246 0333 07       		.byte	0x7
 1247 0334 26       		.byte	0x26
 1248 0335 27020000 		.4byte	0x227
 1249 0339 02       		.byte	0x2
 1250 033a 23       		.byte	0x23
 1251 033b 00       		.uleb128 0
 1252 033c 06       		.uleb128 0x6
 1253 033d 12010000 		.4byte	.LASF46
 1254 0341 07       		.byte	0x7
 1255 0342 28       		.byte	0x28
 1256 0343 DD000000 		.4byte	0xdd
 1257 0347 02       		.byte	0x2
 1258 0348 23       		.byte	0x23
 1259 0349 08       		.uleb128 0x8
 1260 034a 00       		.byte	0
 1261 034b 04       		.uleb128 0x4
 1262 034c F1020000 		.4byte	.LASF44
 1263 0350 07       		.byte	0x7
 1264 0351 29       		.byte	0x29
 1265 0352 22030000 		.4byte	0x322
 1266 0356 05       		.uleb128 0x5
 1267 0357 A2010000 		.4byte	.LASF47
 1268 035b 10       		.byte	0x10
 1269 035c 08       		.byte	0x8
 1270 035d 25       		.byte	0x25
 1271 035e 8D030000 		.4byte	0x38d
 1272 0362 06       		.uleb128 0x6
 1273 0363 9A000000 		.4byte	.LASF48
 1274 0367 08       		.byte	0x8
 1275 0368 26       		.byte	0x26
 1276 0369 27020000 		.4byte	0x227
 1277 036d 02       		.byte	0x2
 1278 036e 23       		.byte	0x23
 1279 036f 00       		.uleb128 0
ARM GAS  /tmp/ccdMF9sA.s 			page 24


 1280 0370 06       		.uleb128 0x6
 1281 0371 1C030000 		.4byte	.LASF49
 1282 0375 08       		.byte	0x8
 1283 0376 28       		.byte	0x28
 1284 0377 21020000 		.4byte	0x221
 1285 037b 02       		.byte	0x2
 1286 037c 23       		.byte	0x23
 1287 037d 08       		.uleb128 0x8
 1288 037e 06       		.uleb128 0x6
 1289 037f A4020000 		.4byte	.LASF50
 1290 0383 08       		.byte	0x8
 1291 0384 2A       		.byte	0x2a
 1292 0385 8D030000 		.4byte	0x38d
 1293 0389 02       		.byte	0x2
 1294 038a 23       		.byte	0x23
 1295 038b 0C       		.uleb128 0xc
 1296 038c 00       		.byte	0
 1297 038d 09       		.uleb128 0x9
 1298 038e 04       		.byte	0x4
 1299 038f 56030000 		.4byte	0x356
 1300 0393 04       		.uleb128 0x4
 1301 0394 A2010000 		.4byte	.LASF47
 1302 0398 08       		.byte	0x8
 1303 0399 2C       		.byte	0x2c
 1304 039a 56030000 		.4byte	0x356
 1305 039e 08       		.uleb128 0x8
 1306 039f 28       		.byte	0x28
 1307 03a0 09       		.byte	0x9
 1308 03a1 2C       		.byte	0x2c
 1309 03a2 FB030000 		.4byte	0x3fb
 1310 03a6 06       		.uleb128 0x6
 1311 03a7 E0010000 		.4byte	.LASF51
 1312 03ab 09       		.byte	0x9
 1313 03ac 2D       		.byte	0x2d
 1314 03ad FB030000 		.4byte	0x3fb
 1315 03b1 02       		.byte	0x2
 1316 03b2 23       		.byte	0x23
 1317 03b3 00       		.uleb128 0
 1318 03b4 06       		.uleb128 0x6
 1319 03b5 14020000 		.4byte	.LASF52
 1320 03b9 09       		.byte	0x9
 1321 03ba 2F       		.byte	0x2f
 1322 03bb FB030000 		.4byte	0x3fb
 1323 03bf 02       		.byte	0x2
 1324 03c0 23       		.byte	0x23
 1325 03c1 04       		.uleb128 0x4
 1326 03c2 06       		.uleb128 0x6
 1327 03c3 70000000 		.4byte	.LASF53
 1328 03c7 09       		.byte	0x9
 1329 03c8 31       		.byte	0x31
 1330 03c9 FB030000 		.4byte	0x3fb
 1331 03cd 02       		.byte	0x2
 1332 03ce 23       		.byte	0x23
 1333 03cf 08       		.uleb128 0x8
 1334 03d0 06       		.uleb128 0x6
 1335 03d1 B8010000 		.4byte	.LASF54
 1336 03d5 09       		.byte	0x9
ARM GAS  /tmp/ccdMF9sA.s 			page 25


 1337 03d6 32       		.byte	0x32
 1338 03d7 FB030000 		.4byte	0x3fb
 1339 03db 02       		.byte	0x2
 1340 03dc 23       		.byte	0x23
 1341 03dd 0C       		.uleb128 0xc
 1342 03de 06       		.uleb128 0x6
 1343 03df FB020000 		.4byte	.LASF55
 1344 03e3 09       		.byte	0x9
 1345 03e4 33       		.byte	0x33
 1346 03e5 4B030000 		.4byte	0x34b
 1347 03e9 02       		.byte	0x2
 1348 03ea 23       		.byte	0x23
 1349 03eb 10       		.uleb128 0x10
 1350 03ec 06       		.uleb128 0x6
 1351 03ed 06010000 		.4byte	.LASF56
 1352 03f1 09       		.byte	0x9
 1353 03f2 35       		.byte	0x35
 1354 03f3 4B030000 		.4byte	0x34b
 1355 03f7 02       		.byte	0x2
 1356 03f8 23       		.byte	0x23
 1357 03f9 1C       		.uleb128 0x1c
 1358 03fa 00       		.byte	0
 1359 03fb 09       		.uleb128 0x9
 1360 03fc 04       		.byte	0x4
 1361 03fd BC000000 		.4byte	0xbc
 1362 0401 04       		.uleb128 0x4
 1363 0402 2A000000 		.4byte	.LASF57
 1364 0406 09       		.byte	0x9
 1365 0407 37       		.byte	0x37
 1366 0408 9E030000 		.4byte	0x39e
 1367 040c 0E       		.uleb128 0xe
 1368 040d 04       		.byte	0x4
 1369 040e 05       		.byte	0x5
 1370 040f 8F       		.byte	0x8f
 1371 0410 41040000 		.4byte	0x441
 1372 0414 0F       		.uleb128 0xf
 1373 0415 06000000 		.4byte	.LASF58
 1374 0419 05       		.byte	0x5
 1375 041a 96       		.byte	0x96
 1376 041b BC000000 		.4byte	0xbc
 1377 041f 0F       		.uleb128 0xf
 1378 0420 58000000 		.4byte	.LASF59
 1379 0424 05       		.byte	0x5
 1380 0425 9D       		.byte	0x9d
 1381 0426 BC000000 		.4byte	0xbc
 1382 042a 0F       		.uleb128 0xf
 1383 042b 0E030000 		.4byte	.LASF60
 1384 042f 05       		.byte	0x5
 1385 0430 A4       		.byte	0xa4
 1386 0431 5F020000 		.4byte	0x25f
 1387 0435 0F       		.uleb128 0xf
 1388 0436 37020000 		.4byte	.LASF61
 1389 043a 05       		.byte	0x5
 1390 043b AB       		.byte	0xab
 1391 043c C7000000 		.4byte	0xc7
 1392 0440 00       		.byte	0
 1393 0441 09       		.uleb128 0x9
ARM GAS  /tmp/ccdMF9sA.s 			page 26


 1394 0442 04       		.byte	0x4
 1395 0443 47040000 		.4byte	0x447
 1396 0447 10       		.uleb128 0x10
 1397 0448 4C040000 		.4byte	0x44c
 1398 044c 03       		.uleb128 0x3
 1399 044d 01       		.byte	0x1
 1400 044e 08       		.byte	0x8
 1401 044f 9F020000 		.4byte	.LASF62
 1402 0453 09       		.uleb128 0x9
 1403 0454 04       		.byte	0x4
 1404 0455 61020000 		.4byte	0x261
 1405 0459 09       		.uleb128 0x9
 1406 045a 04       		.byte	0x4
 1407 045b 93030000 		.4byte	0x393
 1408 045f 11       		.uleb128 0x11
 1409 0460 01       		.byte	0x1
 1410 0461 EB000000 		.4byte	.LASF63
 1411 0465 01       		.byte	0x1
 1412 0466 41       		.byte	0x41
 1413 0467 01       		.byte	0x1
 1414 0468 00000000 		.4byte	.LFB0
 1415 046c 50000000 		.4byte	.LFE0
 1416 0470 00000000 		.4byte	.LLST0
 1417 0474 A4040000 		.4byte	0x4a4
 1418 0478 12       		.uleb128 0x12
 1419 0479 6D627000 		.ascii	"mbp\000"
 1420 047d 01       		.byte	0x1
 1421 047e 41       		.byte	0x41
 1422 047f A4040000 		.4byte	0x4a4
 1423 0483 20000000 		.4byte	.LLST1
 1424 0487 12       		.uleb128 0x12
 1425 0488 62756600 		.ascii	"buf\000"
 1426 048c 01       		.byte	0x1
 1427 048d 41       		.byte	0x41
 1428 048e FB030000 		.4byte	0x3fb
 1429 0492 3E000000 		.4byte	.LLST2
 1430 0496 12       		.uleb128 0x12
 1431 0497 6E00     		.ascii	"n\000"
 1432 0499 01       		.byte	0x1
 1433 049a 41       		.byte	0x41
 1434 049b DD000000 		.4byte	0xdd
 1435 049f 5C000000 		.4byte	.LLST3
 1436 04a3 00       		.byte	0
 1437 04a4 09       		.uleb128 0x9
 1438 04a5 04       		.byte	0x4
 1439 04a6 01040000 		.4byte	0x401
 1440 04aa 11       		.uleb128 0x11
 1441 04ab 01       		.byte	0x1
 1442 04ac C1010000 		.4byte	.LASF64
 1443 04b0 01       		.byte	0x1
 1444 04b1 54       		.byte	0x54
 1445 04b2 01       		.byte	0x1
 1446 04b3 00000000 		.4byte	.LFB1
 1447 04b7 48000000 		.4byte	.LFE1
 1448 04bb 7A000000 		.4byte	.LLST4
 1449 04bf D3040000 		.4byte	0x4d3
 1450 04c3 12       		.uleb128 0x12
ARM GAS  /tmp/ccdMF9sA.s 			page 27


 1451 04c4 6D627000 		.ascii	"mbp\000"
 1452 04c8 01       		.byte	0x1
 1453 04c9 54       		.byte	0x54
 1454 04ca A4040000 		.4byte	0x4a4
 1455 04ce 9A000000 		.4byte	.LLST5
 1456 04d2 00       		.byte	0
 1457 04d3 13       		.uleb128 0x13
 1458 04d4 01       		.byte	0x1
 1459 04d5 20000000 		.4byte	.LASF66
 1460 04d9 01       		.byte	0x1
 1461 04da 8F       		.byte	0x8f
 1462 04db 01       		.byte	0x1
 1463 04dc BC000000 		.4byte	0xbc
 1464 04e0 00000000 		.4byte	.LFB3
 1465 04e4 4E000000 		.4byte	.LFE3
 1466 04e8 B8000000 		.4byte	.LLST6
 1467 04ec 2D050000 		.4byte	0x52d
 1468 04f0 12       		.uleb128 0x12
 1469 04f1 6D627000 		.ascii	"mbp\000"
 1470 04f5 01       		.byte	0x1
 1471 04f6 8F       		.byte	0x8f
 1472 04f7 A4040000 		.4byte	0x4a4
 1473 04fb D8000000 		.4byte	.LLST7
 1474 04ff 12       		.uleb128 0x12
 1475 0500 6D736700 		.ascii	"msg\000"
 1476 0504 01       		.byte	0x1
 1477 0505 8F       		.byte	0x8f
 1478 0506 BC000000 		.4byte	0xbc
 1479 050a F6000000 		.4byte	.LLST8
 1480 050e 14       		.uleb128 0x14
 1481 050f EA010000 		.4byte	.LASF65
 1482 0513 01       		.byte	0x1
 1483 0514 8F       		.byte	0x8f
 1484 0515 D2000000 		.4byte	0xd2
 1485 0519 14010000 		.4byte	.LLST9
 1486 051d 15       		.uleb128 0x15
 1487 051e 06000000 		.4byte	.LASF58
 1488 0522 01       		.byte	0x1
 1489 0523 90       		.byte	0x90
 1490 0524 BC000000 		.4byte	0xbc
 1491 0528 3D010000 		.4byte	.LLST10
 1492 052c 00       		.byte	0
 1493 052d 13       		.uleb128 0x13
 1494 052e 01       		.byte	0x1
 1495 052f 4D020000 		.4byte	.LASF67
 1496 0533 01       		.byte	0x1
 1497 0534 73       		.byte	0x73
 1498 0535 01       		.byte	0x1
 1499 0536 BC000000 		.4byte	0xbc
 1500 053a 00000000 		.4byte	.LFB2
 1501 053e 28000000 		.4byte	.LFE2
 1502 0542 5B010000 		.4byte	.LLST11
 1503 0546 87050000 		.4byte	0x587
 1504 054a 12       		.uleb128 0x12
 1505 054b 6D627000 		.ascii	"mbp\000"
 1506 054f 01       		.byte	0x1
 1507 0550 73       		.byte	0x73
ARM GAS  /tmp/ccdMF9sA.s 			page 28


 1508 0551 A4040000 		.4byte	0x4a4
 1509 0555 7B010000 		.4byte	.LLST12
 1510 0559 12       		.uleb128 0x12
 1511 055a 6D736700 		.ascii	"msg\000"
 1512 055e 01       		.byte	0x1
 1513 055f 73       		.byte	0x73
 1514 0560 BC000000 		.4byte	0xbc
 1515 0564 99010000 		.4byte	.LLST13
 1516 0568 14       		.uleb128 0x14
 1517 0569 EA010000 		.4byte	.LASF65
 1518 056d 01       		.byte	0x1
 1519 056e 73       		.byte	0x73
 1520 056f D2000000 		.4byte	0xd2
 1521 0573 B7010000 		.4byte	.LLST14
 1522 0577 15       		.uleb128 0x15
 1523 0578 06000000 		.4byte	.LASF58
 1524 057c 01       		.byte	0x1
 1525 057d 74       		.byte	0x74
 1526 057e BC000000 		.4byte	0xbc
 1527 0582 D5010000 		.4byte	.LLST15
 1528 0586 00       		.byte	0
 1529 0587 13       		.uleb128 0x13
 1530 0588 01       		.byte	0x1
 1531 0589 16000000 		.4byte	.LASF68
 1532 058d 01       		.byte	0x1
 1533 058e AE       		.byte	0xae
 1534 058f 01       		.byte	0x1
 1535 0590 BC000000 		.4byte	0xbc
 1536 0594 00000000 		.4byte	.LFB4
 1537 0598 4A000000 		.4byte	.LFE4
 1538 059c F3010000 		.4byte	.LLST16
 1539 05a0 C3050000 		.4byte	0x5c3
 1540 05a4 12       		.uleb128 0x12
 1541 05a5 6D627000 		.ascii	"mbp\000"
 1542 05a9 01       		.byte	0x1
 1543 05aa AE       		.byte	0xae
 1544 05ab A4040000 		.4byte	0x4a4
 1545 05af 13020000 		.4byte	.LLST17
 1546 05b3 12       		.uleb128 0x12
 1547 05b4 6D736700 		.ascii	"msg\000"
 1548 05b8 01       		.byte	0x1
 1549 05b9 AE       		.byte	0xae
 1550 05ba BC000000 		.4byte	0xbc
 1551 05be 31020000 		.4byte	.LLST18
 1552 05c2 00       		.byte	0
 1553 05c3 13       		.uleb128 0x13
 1554 05c4 01       		.byte	0x1
 1555 05c5 61000000 		.4byte	.LASF69
 1556 05c9 01       		.byte	0x1
 1557 05ca EC       		.byte	0xec
 1558 05cb 01       		.byte	0x1
 1559 05cc BC000000 		.4byte	0xbc
 1560 05d0 00000000 		.4byte	.LFB6
 1561 05d4 50000000 		.4byte	.LFE6
 1562 05d8 4F020000 		.4byte	.LLST19
 1563 05dc 1D060000 		.4byte	0x61d
 1564 05e0 12       		.uleb128 0x12
ARM GAS  /tmp/ccdMF9sA.s 			page 29


 1565 05e1 6D627000 		.ascii	"mbp\000"
 1566 05e5 01       		.byte	0x1
 1567 05e6 EC       		.byte	0xec
 1568 05e7 A4040000 		.4byte	0x4a4
 1569 05eb 6F020000 		.4byte	.LLST20
 1570 05ef 12       		.uleb128 0x12
 1571 05f0 6D736700 		.ascii	"msg\000"
 1572 05f4 01       		.byte	0x1
 1573 05f5 EC       		.byte	0xec
 1574 05f6 BC000000 		.4byte	0xbc
 1575 05fa 8D020000 		.4byte	.LLST21
 1576 05fe 14       		.uleb128 0x14
 1577 05ff EA010000 		.4byte	.LASF65
 1578 0603 01       		.byte	0x1
 1579 0604 EC       		.byte	0xec
 1580 0605 D2000000 		.4byte	0xd2
 1581 0609 AB020000 		.4byte	.LLST22
 1582 060d 15       		.uleb128 0x15
 1583 060e 06000000 		.4byte	.LASF58
 1584 0612 01       		.byte	0x1
 1585 0613 ED       		.byte	0xed
 1586 0614 BC000000 		.4byte	0xbc
 1587 0618 D4020000 		.4byte	.LLST23
 1588 061c 00       		.byte	0
 1589 061d 13       		.uleb128 0x13
 1590 061e 01       		.byte	0x1
 1591 061f C7020000 		.4byte	.LASF70
 1592 0623 01       		.byte	0x1
 1593 0624 D0       		.byte	0xd0
 1594 0625 01       		.byte	0x1
 1595 0626 BC000000 		.4byte	0xbc
 1596 062a 00000000 		.4byte	.LFB5
 1597 062e 28000000 		.4byte	.LFE5
 1598 0632 F2020000 		.4byte	.LLST24
 1599 0636 77060000 		.4byte	0x677
 1600 063a 12       		.uleb128 0x12
 1601 063b 6D627000 		.ascii	"mbp\000"
 1602 063f 01       		.byte	0x1
 1603 0640 D0       		.byte	0xd0
 1604 0641 A4040000 		.4byte	0x4a4
 1605 0645 12030000 		.4byte	.LLST25
 1606 0649 12       		.uleb128 0x12
 1607 064a 6D736700 		.ascii	"msg\000"
 1608 064e 01       		.byte	0x1
 1609 064f D0       		.byte	0xd0
 1610 0650 BC000000 		.4byte	0xbc
 1611 0654 30030000 		.4byte	.LLST26
 1612 0658 14       		.uleb128 0x14
 1613 0659 EA010000 		.4byte	.LASF65
 1614 065d 01       		.byte	0x1
 1615 065e D0       		.byte	0xd0
 1616 065f D2000000 		.4byte	0xd2
 1617 0663 4E030000 		.4byte	.LLST27
 1618 0667 15       		.uleb128 0x15
 1619 0668 06000000 		.4byte	.LASF58
 1620 066c 01       		.byte	0x1
 1621 066d D1       		.byte	0xd1
ARM GAS  /tmp/ccdMF9sA.s 			page 30


 1622 066e BC000000 		.4byte	0xbc
 1623 0672 6C030000 		.4byte	.LLST28
 1624 0676 00       		.byte	0
 1625 0677 16       		.uleb128 0x16
 1626 0678 01       		.byte	0x1
 1627 0679 32000000 		.4byte	.LASF71
 1628 067d 01       		.byte	0x1
 1629 067e 0B01     		.2byte	0x10b
 1630 0680 01       		.byte	0x1
 1631 0681 BC000000 		.4byte	0xbc
 1632 0685 00000000 		.4byte	.LFB7
 1633 0689 4A000000 		.4byte	.LFE7
 1634 068d 8A030000 		.4byte	.LLST29
 1635 0691 B6060000 		.4byte	0x6b6
 1636 0695 17       		.uleb128 0x17
 1637 0696 6D627000 		.ascii	"mbp\000"
 1638 069a 01       		.byte	0x1
 1639 069b 0B01     		.2byte	0x10b
 1640 069d A4040000 		.4byte	0x4a4
 1641 06a1 AA030000 		.4byte	.LLST30
 1642 06a5 17       		.uleb128 0x17
 1643 06a6 6D736700 		.ascii	"msg\000"
 1644 06aa 01       		.byte	0x1
 1645 06ab 0B01     		.2byte	0x10b
 1646 06ad BC000000 		.4byte	0xbc
 1647 06b1 C8030000 		.4byte	.LLST31
 1648 06b5 00       		.byte	0
 1649 06b6 16       		.uleb128 0x16
 1650 06b7 01       		.byte	0x1
 1651 06b8 77010000 		.4byte	.LASF72
 1652 06bc 01       		.byte	0x1
 1653 06bd 4901     		.2byte	0x149
 1654 06bf 01       		.byte	0x1
 1655 06c0 BC000000 		.4byte	0xbc
 1656 06c4 00000000 		.4byte	.LFB9
 1657 06c8 5E000000 		.4byte	.LFE9
 1658 06cc E6030000 		.4byte	.LLST32
 1659 06d0 15070000 		.4byte	0x715
 1660 06d4 17       		.uleb128 0x17
 1661 06d5 6D627000 		.ascii	"mbp\000"
 1662 06d9 01       		.byte	0x1
 1663 06da 4901     		.2byte	0x149
 1664 06dc A4040000 		.4byte	0x4a4
 1665 06e0 06040000 		.4byte	.LLST33
 1666 06e4 18       		.uleb128 0x18
 1667 06e5 A8010000 		.4byte	.LASF73
 1668 06e9 01       		.byte	0x1
 1669 06ea 4901     		.2byte	0x149
 1670 06ec FB030000 		.4byte	0x3fb
 1671 06f0 24040000 		.4byte	.LLST34
 1672 06f4 18       		.uleb128 0x18
 1673 06f5 EA010000 		.4byte	.LASF65
 1674 06f9 01       		.byte	0x1
 1675 06fa 4901     		.2byte	0x149
 1676 06fc D2000000 		.4byte	0xd2
 1677 0700 42040000 		.4byte	.LLST35
 1678 0704 19       		.uleb128 0x19
ARM GAS  /tmp/ccdMF9sA.s 			page 31


 1679 0705 06000000 		.4byte	.LASF58
 1680 0709 01       		.byte	0x1
 1681 070a 4A01     		.2byte	0x14a
 1682 070c BC000000 		.4byte	0xbc
 1683 0710 6B040000 		.4byte	.LLST36
 1684 0714 00       		.byte	0
 1685 0715 16       		.uleb128 0x16
 1686 0716 01       		.byte	0x1
 1687 0717 E7020000 		.4byte	.LASF74
 1688 071b 01       		.byte	0x1
 1689 071c 2D01     		.2byte	0x12d
 1690 071e 01       		.byte	0x1
 1691 071f BC000000 		.4byte	0xbc
 1692 0723 00000000 		.4byte	.LFB8
 1693 0727 28000000 		.4byte	.LFE8
 1694 072b 89040000 		.4byte	.LLST37
 1695 072f 74070000 		.4byte	0x774
 1696 0733 17       		.uleb128 0x17
 1697 0734 6D627000 		.ascii	"mbp\000"
 1698 0738 01       		.byte	0x1
 1699 0739 2D01     		.2byte	0x12d
 1700 073b A4040000 		.4byte	0x4a4
 1701 073f A9040000 		.4byte	.LLST38
 1702 0743 18       		.uleb128 0x18
 1703 0744 A8010000 		.4byte	.LASF73
 1704 0748 01       		.byte	0x1
 1705 0749 2D01     		.2byte	0x12d
 1706 074b FB030000 		.4byte	0x3fb
 1707 074f C7040000 		.4byte	.LLST39
 1708 0753 18       		.uleb128 0x18
 1709 0754 EA010000 		.4byte	.LASF65
 1710 0758 01       		.byte	0x1
 1711 0759 2D01     		.2byte	0x12d
 1712 075b D2000000 		.4byte	0xd2
 1713 075f E5040000 		.4byte	.LLST40
 1714 0763 19       		.uleb128 0x19
 1715 0764 06000000 		.4byte	.LASF58
 1716 0768 01       		.byte	0x1
 1717 0769 2E01     		.2byte	0x12e
 1718 076b BC000000 		.4byte	0xbc
 1719 076f 03050000 		.4byte	.LLST41
 1720 0773 00       		.byte	0
 1721 0774 1A       		.uleb128 0x1a
 1722 0775 01       		.byte	0x1
 1723 0776 66010000 		.4byte	.LASF75
 1724 077a 01       		.byte	0x1
 1725 077b 6801     		.2byte	0x168
 1726 077d 01       		.byte	0x1
 1727 077e BC000000 		.4byte	0xbc
 1728 0782 00000000 		.4byte	.LFB10
 1729 0786 5C000000 		.4byte	.LFE10
 1730 078a 21050000 		.4byte	.LLST42
 1731 078e 17       		.uleb128 0x17
 1732 078f 6D627000 		.ascii	"mbp\000"
 1733 0793 01       		.byte	0x1
 1734 0794 6801     		.2byte	0x168
 1735 0796 A4040000 		.4byte	0x4a4
ARM GAS  /tmp/ccdMF9sA.s 			page 32


 1736 079a 41050000 		.4byte	.LLST43
 1737 079e 18       		.uleb128 0x18
 1738 079f A8010000 		.4byte	.LASF73
 1739 07a3 01       		.byte	0x1
 1740 07a4 6801     		.2byte	0x168
 1741 07a6 FB030000 		.4byte	0x3fb
 1742 07aa 5F050000 		.4byte	.LLST44
 1743 07ae 00       		.byte	0
 1744 07af 00       		.byte	0
 1745              		.section	.debug_abbrev,"",%progbits
 1746              	.Ldebug_abbrev0:
 1747 0000 01       		.uleb128 0x1
 1748 0001 11       		.uleb128 0x11
 1749 0002 01       		.byte	0x1
 1750 0003 25       		.uleb128 0x25
 1751 0004 0E       		.uleb128 0xe
 1752 0005 13       		.uleb128 0x13
 1753 0006 0B       		.uleb128 0xb
 1754 0007 03       		.uleb128 0x3
 1755 0008 0E       		.uleb128 0xe
 1756 0009 1B       		.uleb128 0x1b
 1757 000a 0E       		.uleb128 0xe
 1758 000b 11       		.uleb128 0x11
 1759 000c 01       		.uleb128 0x1
 1760 000d 52       		.uleb128 0x52
 1761 000e 01       		.uleb128 0x1
 1762 000f 55       		.uleb128 0x55
 1763 0010 06       		.uleb128 0x6
 1764 0011 10       		.uleb128 0x10
 1765 0012 06       		.uleb128 0x6
 1766 0013 00       		.byte	0
 1767 0014 00       		.byte	0
 1768 0015 02       		.uleb128 0x2
 1769 0016 24       		.uleb128 0x24
 1770 0017 00       		.byte	0
 1771 0018 0B       		.uleb128 0xb
 1772 0019 0B       		.uleb128 0xb
 1773 001a 3E       		.uleb128 0x3e
 1774 001b 0B       		.uleb128 0xb
 1775 001c 03       		.uleb128 0x3
 1776 001d 08       		.uleb128 0x8
 1777 001e 00       		.byte	0
 1778 001f 00       		.byte	0
 1779 0020 03       		.uleb128 0x3
 1780 0021 24       		.uleb128 0x24
 1781 0022 00       		.byte	0
 1782 0023 0B       		.uleb128 0xb
 1783 0024 0B       		.uleb128 0xb
 1784 0025 3E       		.uleb128 0x3e
 1785 0026 0B       		.uleb128 0xb
 1786 0027 03       		.uleb128 0x3
 1787 0028 0E       		.uleb128 0xe
 1788 0029 00       		.byte	0
 1789 002a 00       		.byte	0
 1790 002b 04       		.uleb128 0x4
 1791 002c 16       		.uleb128 0x16
 1792 002d 00       		.byte	0
ARM GAS  /tmp/ccdMF9sA.s 			page 33


 1793 002e 03       		.uleb128 0x3
 1794 002f 0E       		.uleb128 0xe
 1795 0030 3A       		.uleb128 0x3a
 1796 0031 0B       		.uleb128 0xb
 1797 0032 3B       		.uleb128 0x3b
 1798 0033 0B       		.uleb128 0xb
 1799 0034 49       		.uleb128 0x49
 1800 0035 13       		.uleb128 0x13
 1801 0036 00       		.byte	0
 1802 0037 00       		.byte	0
 1803 0038 05       		.uleb128 0x5
 1804 0039 13       		.uleb128 0x13
 1805 003a 01       		.byte	0x1
 1806 003b 03       		.uleb128 0x3
 1807 003c 0E       		.uleb128 0xe
 1808 003d 0B       		.uleb128 0xb
 1809 003e 0B       		.uleb128 0xb
 1810 003f 3A       		.uleb128 0x3a
 1811 0040 0B       		.uleb128 0xb
 1812 0041 3B       		.uleb128 0x3b
 1813 0042 0B       		.uleb128 0xb
 1814 0043 01       		.uleb128 0x1
 1815 0044 13       		.uleb128 0x13
 1816 0045 00       		.byte	0
 1817 0046 00       		.byte	0
 1818 0047 06       		.uleb128 0x6
 1819 0048 0D       		.uleb128 0xd
 1820 0049 00       		.byte	0
 1821 004a 03       		.uleb128 0x3
 1822 004b 0E       		.uleb128 0xe
 1823 004c 3A       		.uleb128 0x3a
 1824 004d 0B       		.uleb128 0xb
 1825 004e 3B       		.uleb128 0x3b
 1826 004f 0B       		.uleb128 0xb
 1827 0050 49       		.uleb128 0x49
 1828 0051 13       		.uleb128 0x13
 1829 0052 38       		.uleb128 0x38
 1830 0053 0A       		.uleb128 0xa
 1831 0054 00       		.byte	0
 1832 0055 00       		.byte	0
 1833 0056 07       		.uleb128 0x7
 1834 0057 0D       		.uleb128 0xd
 1835 0058 00       		.byte	0
 1836 0059 03       		.uleb128 0x3
 1837 005a 08       		.uleb128 0x8
 1838 005b 3A       		.uleb128 0x3a
 1839 005c 0B       		.uleb128 0xb
 1840 005d 3B       		.uleb128 0x3b
 1841 005e 0B       		.uleb128 0xb
 1842 005f 49       		.uleb128 0x49
 1843 0060 13       		.uleb128 0x13
 1844 0061 38       		.uleb128 0x38
 1845 0062 0A       		.uleb128 0xa
 1846 0063 00       		.byte	0
 1847 0064 00       		.byte	0
 1848 0065 08       		.uleb128 0x8
 1849 0066 13       		.uleb128 0x13
ARM GAS  /tmp/ccdMF9sA.s 			page 34


 1850 0067 01       		.byte	0x1
 1851 0068 0B       		.uleb128 0xb
 1852 0069 0B       		.uleb128 0xb
 1853 006a 3A       		.uleb128 0x3a
 1854 006b 0B       		.uleb128 0xb
 1855 006c 3B       		.uleb128 0x3b
 1856 006d 0B       		.uleb128 0xb
 1857 006e 01       		.uleb128 0x1
 1858 006f 13       		.uleb128 0x13
 1859 0070 00       		.byte	0
 1860 0071 00       		.byte	0
 1861 0072 09       		.uleb128 0x9
 1862 0073 0F       		.uleb128 0xf
 1863 0074 00       		.byte	0
 1864 0075 0B       		.uleb128 0xb
 1865 0076 0B       		.uleb128 0xb
 1866 0077 49       		.uleb128 0x49
 1867 0078 13       		.uleb128 0x13
 1868 0079 00       		.byte	0
 1869 007a 00       		.byte	0
 1870 007b 0A       		.uleb128 0xa
 1871 007c 0F       		.uleb128 0xf
 1872 007d 00       		.byte	0
 1873 007e 0B       		.uleb128 0xb
 1874 007f 0B       		.uleb128 0xb
 1875 0080 00       		.byte	0
 1876 0081 00       		.byte	0
 1877 0082 0B       		.uleb128 0xb
 1878 0083 13       		.uleb128 0x13
 1879 0084 01       		.byte	0x1
 1880 0085 03       		.uleb128 0x3
 1881 0086 0E       		.uleb128 0xe
 1882 0087 0B       		.uleb128 0xb
 1883 0088 0B       		.uleb128 0xb
 1884 0089 3A       		.uleb128 0x3a
 1885 008a 0B       		.uleb128 0xb
 1886 008b 3B       		.uleb128 0x3b
 1887 008c 05       		.uleb128 0x5
 1888 008d 01       		.uleb128 0x1
 1889 008e 13       		.uleb128 0x13
 1890 008f 00       		.byte	0
 1891 0090 00       		.byte	0
 1892 0091 0C       		.uleb128 0xc
 1893 0092 0D       		.uleb128 0xd
 1894 0093 00       		.byte	0
 1895 0094 03       		.uleb128 0x3
 1896 0095 08       		.uleb128 0x8
 1897 0096 3A       		.uleb128 0x3a
 1898 0097 0B       		.uleb128 0xb
 1899 0098 3B       		.uleb128 0x3b
 1900 0099 05       		.uleb128 0x5
 1901 009a 49       		.uleb128 0x49
 1902 009b 13       		.uleb128 0x13
 1903 009c 38       		.uleb128 0x38
 1904 009d 0A       		.uleb128 0xa
 1905 009e 00       		.byte	0
 1906 009f 00       		.byte	0
ARM GAS  /tmp/ccdMF9sA.s 			page 35


 1907 00a0 0D       		.uleb128 0xd
 1908 00a1 35       		.uleb128 0x35
 1909 00a2 00       		.byte	0
 1910 00a3 49       		.uleb128 0x49
 1911 00a4 13       		.uleb128 0x13
 1912 00a5 00       		.byte	0
 1913 00a6 00       		.byte	0
 1914 00a7 0E       		.uleb128 0xe
 1915 00a8 17       		.uleb128 0x17
 1916 00a9 01       		.byte	0x1
 1917 00aa 0B       		.uleb128 0xb
 1918 00ab 0B       		.uleb128 0xb
 1919 00ac 3A       		.uleb128 0x3a
 1920 00ad 0B       		.uleb128 0xb
 1921 00ae 3B       		.uleb128 0x3b
 1922 00af 0B       		.uleb128 0xb
 1923 00b0 01       		.uleb128 0x1
 1924 00b1 13       		.uleb128 0x13
 1925 00b2 00       		.byte	0
 1926 00b3 00       		.byte	0
 1927 00b4 0F       		.uleb128 0xf
 1928 00b5 0D       		.uleb128 0xd
 1929 00b6 00       		.byte	0
 1930 00b7 03       		.uleb128 0x3
 1931 00b8 0E       		.uleb128 0xe
 1932 00b9 3A       		.uleb128 0x3a
 1933 00ba 0B       		.uleb128 0xb
 1934 00bb 3B       		.uleb128 0x3b
 1935 00bc 0B       		.uleb128 0xb
 1936 00bd 49       		.uleb128 0x49
 1937 00be 13       		.uleb128 0x13
 1938 00bf 00       		.byte	0
 1939 00c0 00       		.byte	0
 1940 00c1 10       		.uleb128 0x10
 1941 00c2 26       		.uleb128 0x26
 1942 00c3 00       		.byte	0
 1943 00c4 49       		.uleb128 0x49
 1944 00c5 13       		.uleb128 0x13
 1945 00c6 00       		.byte	0
 1946 00c7 00       		.byte	0
 1947 00c8 11       		.uleb128 0x11
 1948 00c9 2E       		.uleb128 0x2e
 1949 00ca 01       		.byte	0x1
 1950 00cb 3F       		.uleb128 0x3f
 1951 00cc 0C       		.uleb128 0xc
 1952 00cd 03       		.uleb128 0x3
 1953 00ce 0E       		.uleb128 0xe
 1954 00cf 3A       		.uleb128 0x3a
 1955 00d0 0B       		.uleb128 0xb
 1956 00d1 3B       		.uleb128 0x3b
 1957 00d2 0B       		.uleb128 0xb
 1958 00d3 27       		.uleb128 0x27
 1959 00d4 0C       		.uleb128 0xc
 1960 00d5 11       		.uleb128 0x11
 1961 00d6 01       		.uleb128 0x1
 1962 00d7 12       		.uleb128 0x12
 1963 00d8 01       		.uleb128 0x1
ARM GAS  /tmp/ccdMF9sA.s 			page 36


 1964 00d9 40       		.uleb128 0x40
 1965 00da 06       		.uleb128 0x6
 1966 00db 01       		.uleb128 0x1
 1967 00dc 13       		.uleb128 0x13
 1968 00dd 00       		.byte	0
 1969 00de 00       		.byte	0
 1970 00df 12       		.uleb128 0x12
 1971 00e0 05       		.uleb128 0x5
 1972 00e1 00       		.byte	0
 1973 00e2 03       		.uleb128 0x3
 1974 00e3 08       		.uleb128 0x8
 1975 00e4 3A       		.uleb128 0x3a
 1976 00e5 0B       		.uleb128 0xb
 1977 00e6 3B       		.uleb128 0x3b
 1978 00e7 0B       		.uleb128 0xb
 1979 00e8 49       		.uleb128 0x49
 1980 00e9 13       		.uleb128 0x13
 1981 00ea 02       		.uleb128 0x2
 1982 00eb 06       		.uleb128 0x6
 1983 00ec 00       		.byte	0
 1984 00ed 00       		.byte	0
 1985 00ee 13       		.uleb128 0x13
 1986 00ef 2E       		.uleb128 0x2e
 1987 00f0 01       		.byte	0x1
 1988 00f1 3F       		.uleb128 0x3f
 1989 00f2 0C       		.uleb128 0xc
 1990 00f3 03       		.uleb128 0x3
 1991 00f4 0E       		.uleb128 0xe
 1992 00f5 3A       		.uleb128 0x3a
 1993 00f6 0B       		.uleb128 0xb
 1994 00f7 3B       		.uleb128 0x3b
 1995 00f8 0B       		.uleb128 0xb
 1996 00f9 27       		.uleb128 0x27
 1997 00fa 0C       		.uleb128 0xc
 1998 00fb 49       		.uleb128 0x49
 1999 00fc 13       		.uleb128 0x13
 2000 00fd 11       		.uleb128 0x11
 2001 00fe 01       		.uleb128 0x1
 2002 00ff 12       		.uleb128 0x12
 2003 0100 01       		.uleb128 0x1
 2004 0101 40       		.uleb128 0x40
 2005 0102 06       		.uleb128 0x6
 2006 0103 01       		.uleb128 0x1
 2007 0104 13       		.uleb128 0x13
 2008 0105 00       		.byte	0
 2009 0106 00       		.byte	0
 2010 0107 14       		.uleb128 0x14
 2011 0108 05       		.uleb128 0x5
 2012 0109 00       		.byte	0
 2013 010a 03       		.uleb128 0x3
 2014 010b 0E       		.uleb128 0xe
 2015 010c 3A       		.uleb128 0x3a
 2016 010d 0B       		.uleb128 0xb
 2017 010e 3B       		.uleb128 0x3b
 2018 010f 0B       		.uleb128 0xb
 2019 0110 49       		.uleb128 0x49
 2020 0111 13       		.uleb128 0x13
ARM GAS  /tmp/ccdMF9sA.s 			page 37


 2021 0112 02       		.uleb128 0x2
 2022 0113 06       		.uleb128 0x6
 2023 0114 00       		.byte	0
 2024 0115 00       		.byte	0
 2025 0116 15       		.uleb128 0x15
 2026 0117 34       		.uleb128 0x34
 2027 0118 00       		.byte	0
 2028 0119 03       		.uleb128 0x3
 2029 011a 0E       		.uleb128 0xe
 2030 011b 3A       		.uleb128 0x3a
 2031 011c 0B       		.uleb128 0xb
 2032 011d 3B       		.uleb128 0x3b
 2033 011e 0B       		.uleb128 0xb
 2034 011f 49       		.uleb128 0x49
 2035 0120 13       		.uleb128 0x13
 2036 0121 02       		.uleb128 0x2
 2037 0122 06       		.uleb128 0x6
 2038 0123 00       		.byte	0
 2039 0124 00       		.byte	0
 2040 0125 16       		.uleb128 0x16
 2041 0126 2E       		.uleb128 0x2e
 2042 0127 01       		.byte	0x1
 2043 0128 3F       		.uleb128 0x3f
 2044 0129 0C       		.uleb128 0xc
 2045 012a 03       		.uleb128 0x3
 2046 012b 0E       		.uleb128 0xe
 2047 012c 3A       		.uleb128 0x3a
 2048 012d 0B       		.uleb128 0xb
 2049 012e 3B       		.uleb128 0x3b
 2050 012f 05       		.uleb128 0x5
 2051 0130 27       		.uleb128 0x27
 2052 0131 0C       		.uleb128 0xc
 2053 0132 49       		.uleb128 0x49
 2054 0133 13       		.uleb128 0x13
 2055 0134 11       		.uleb128 0x11
 2056 0135 01       		.uleb128 0x1
 2057 0136 12       		.uleb128 0x12
 2058 0137 01       		.uleb128 0x1
 2059 0138 40       		.uleb128 0x40
 2060 0139 06       		.uleb128 0x6
 2061 013a 01       		.uleb128 0x1
 2062 013b 13       		.uleb128 0x13
 2063 013c 00       		.byte	0
 2064 013d 00       		.byte	0
 2065 013e 17       		.uleb128 0x17
 2066 013f 05       		.uleb128 0x5
 2067 0140 00       		.byte	0
 2068 0141 03       		.uleb128 0x3
 2069 0142 08       		.uleb128 0x8
 2070 0143 3A       		.uleb128 0x3a
 2071 0144 0B       		.uleb128 0xb
 2072 0145 3B       		.uleb128 0x3b
 2073 0146 05       		.uleb128 0x5
 2074 0147 49       		.uleb128 0x49
 2075 0148 13       		.uleb128 0x13
 2076 0149 02       		.uleb128 0x2
 2077 014a 06       		.uleb128 0x6
ARM GAS  /tmp/ccdMF9sA.s 			page 38


 2078 014b 00       		.byte	0
 2079 014c 00       		.byte	0
 2080 014d 18       		.uleb128 0x18
 2081 014e 05       		.uleb128 0x5
 2082 014f 00       		.byte	0
 2083 0150 03       		.uleb128 0x3
 2084 0151 0E       		.uleb128 0xe
 2085 0152 3A       		.uleb128 0x3a
 2086 0153 0B       		.uleb128 0xb
 2087 0154 3B       		.uleb128 0x3b
 2088 0155 05       		.uleb128 0x5
 2089 0156 49       		.uleb128 0x49
 2090 0157 13       		.uleb128 0x13
 2091 0158 02       		.uleb128 0x2
 2092 0159 06       		.uleb128 0x6
 2093 015a 00       		.byte	0
 2094 015b 00       		.byte	0
 2095 015c 19       		.uleb128 0x19
 2096 015d 34       		.uleb128 0x34
 2097 015e 00       		.byte	0
 2098 015f 03       		.uleb128 0x3
 2099 0160 0E       		.uleb128 0xe
 2100 0161 3A       		.uleb128 0x3a
 2101 0162 0B       		.uleb128 0xb
 2102 0163 3B       		.uleb128 0x3b
 2103 0164 05       		.uleb128 0x5
 2104 0165 49       		.uleb128 0x49
 2105 0166 13       		.uleb128 0x13
 2106 0167 02       		.uleb128 0x2
 2107 0168 06       		.uleb128 0x6
 2108 0169 00       		.byte	0
 2109 016a 00       		.byte	0
 2110 016b 1A       		.uleb128 0x1a
 2111 016c 2E       		.uleb128 0x2e
 2112 016d 01       		.byte	0x1
 2113 016e 3F       		.uleb128 0x3f
 2114 016f 0C       		.uleb128 0xc
 2115 0170 03       		.uleb128 0x3
 2116 0171 0E       		.uleb128 0xe
 2117 0172 3A       		.uleb128 0x3a
 2118 0173 0B       		.uleb128 0xb
 2119 0174 3B       		.uleb128 0x3b
 2120 0175 05       		.uleb128 0x5
 2121 0176 27       		.uleb128 0x27
 2122 0177 0C       		.uleb128 0xc
 2123 0178 49       		.uleb128 0x49
 2124 0179 13       		.uleb128 0x13
 2125 017a 11       		.uleb128 0x11
 2126 017b 01       		.uleb128 0x1
 2127 017c 12       		.uleb128 0x12
 2128 017d 01       		.uleb128 0x1
 2129 017e 40       		.uleb128 0x40
 2130 017f 06       		.uleb128 0x6
 2131 0180 00       		.byte	0
 2132 0181 00       		.byte	0
 2133 0182 00       		.byte	0
 2134              		.section	.debug_loc,"",%progbits
ARM GAS  /tmp/ccdMF9sA.s 			page 39


 2135              	.Ldebug_loc0:
 2136              	.LLST0:
 2137 0000 00000000 		.4byte	.LFB0
 2138 0004 12000000 		.4byte	.LCFI0
 2139 0008 0200     		.2byte	0x2
 2140 000a 7D       		.byte	0x7d
 2141 000b 00       		.sleb128 0
 2142 000c 12000000 		.4byte	.LCFI0
 2143 0010 50000000 		.4byte	.LFE0
 2144 0014 0200     		.2byte	0x2
 2145 0016 7D       		.byte	0x7d
 2146 0017 10       		.sleb128 16
 2147 0018 00000000 		.4byte	0
 2148 001c 00000000 		.4byte	0
 2149              	.LLST1:
 2150 0020 00000000 		.4byte	.LVL0
 2151 0024 1E000000 		.4byte	.LVL1
 2152 0028 0100     		.2byte	0x1
 2153 002a 50       		.byte	0x50
 2154 002b 1E000000 		.4byte	.LVL1
 2155 002f 50000000 		.4byte	.LFE0
 2156 0033 0100     		.2byte	0x1
 2157 0035 54       		.byte	0x54
 2158 0036 00000000 		.4byte	0
 2159 003a 00000000 		.4byte	0
 2160              	.LLST2:
 2161 003e 00000000 		.4byte	.LVL0
 2162 0042 1E000000 		.4byte	.LVL1
 2163 0046 0100     		.2byte	0x1
 2164 0048 51       		.byte	0x51
 2165 0049 1E000000 		.4byte	.LVL1
 2166 004d 50000000 		.4byte	.LFE0
 2167 0051 0100     		.2byte	0x1
 2168 0053 55       		.byte	0x55
 2169 0054 00000000 		.4byte	0
 2170 0058 00000000 		.4byte	0
 2171              	.LLST3:
 2172 005c 00000000 		.4byte	.LVL0
 2173 0060 1E000000 		.4byte	.LVL1
 2174 0064 0100     		.2byte	0x1
 2175 0066 52       		.byte	0x52
 2176 0067 1E000000 		.4byte	.LVL1
 2177 006b 50000000 		.4byte	.LFE0
 2178 006f 0100     		.2byte	0x1
 2179 0071 56       		.byte	0x56
 2180 0072 00000000 		.4byte	0
 2181 0076 00000000 		.4byte	0
 2182              	.LLST4:
 2183 007a 00000000 		.4byte	.LFB1
 2184 007e 02000000 		.4byte	.LCFI1
 2185 0082 0200     		.2byte	0x2
 2186 0084 7D       		.byte	0x7d
 2187 0085 00       		.sleb128 0
 2188 0086 02000000 		.4byte	.LCFI1
 2189 008a 48000000 		.4byte	.LFE1
 2190 008e 0200     		.2byte	0x2
 2191 0090 7D       		.byte	0x7d
ARM GAS  /tmp/ccdMF9sA.s 			page 40


 2192 0091 08       		.sleb128 8
 2193 0092 00000000 		.4byte	0
 2194 0096 00000000 		.4byte	0
 2195              	.LLST5:
 2196 009a 00000000 		.4byte	.LVL2
 2197 009e 06000000 		.4byte	.LVL3
 2198 00a2 0100     		.2byte	0x1
 2199 00a4 50       		.byte	0x50
 2200 00a5 06000000 		.4byte	.LVL3
 2201 00a9 48000000 		.4byte	.LFE1
 2202 00ad 0100     		.2byte	0x1
 2203 00af 54       		.byte	0x54
 2204 00b0 00000000 		.4byte	0
 2205 00b4 00000000 		.4byte	0
 2206              	.LLST6:
 2207 00b8 00000000 		.4byte	.LFB3
 2208 00bc 02000000 		.4byte	.LCFI2
 2209 00c0 0200     		.2byte	0x2
 2210 00c2 7D       		.byte	0x7d
 2211 00c3 00       		.sleb128 0
 2212 00c4 02000000 		.4byte	.LCFI2
 2213 00c8 4E000000 		.4byte	.LFE3
 2214 00cc 0200     		.2byte	0x2
 2215 00ce 7D       		.byte	0x7d
 2216 00cf 10       		.sleb128 16
 2217 00d0 00000000 		.4byte	0
 2218 00d4 00000000 		.4byte	0
 2219              	.LLST7:
 2220 00d8 00000000 		.4byte	.LVL4
 2221 00dc 0B000000 		.4byte	.LVL5-1
 2222 00e0 0100     		.2byte	0x1
 2223 00e2 50       		.byte	0x50
 2224 00e3 0B000000 		.4byte	.LVL5-1
 2225 00e7 4E000000 		.4byte	.LFE3
 2226 00eb 0100     		.2byte	0x1
 2227 00ed 54       		.byte	0x54
 2228 00ee 00000000 		.4byte	0
 2229 00f2 00000000 		.4byte	0
 2230              	.LLST8:
 2231 00f6 00000000 		.4byte	.LVL4
 2232 00fa 0B000000 		.4byte	.LVL5-1
 2233 00fe 0100     		.2byte	0x1
 2234 0100 51       		.byte	0x51
 2235 0101 0B000000 		.4byte	.LVL5-1
 2236 0105 4E000000 		.4byte	.LFE3
 2237 0109 0100     		.2byte	0x1
 2238 010b 55       		.byte	0x55
 2239 010c 00000000 		.4byte	0
 2240 0110 00000000 		.4byte	0
 2241              	.LLST9:
 2242 0114 00000000 		.4byte	.LVL4
 2243 0118 0B000000 		.4byte	.LVL5-1
 2244 011c 0100     		.2byte	0x1
 2245 011e 52       		.byte	0x52
 2246 011f 0B000000 		.4byte	.LVL5-1
 2247 0123 1A000000 		.4byte	.LVL7
 2248 0127 0100     		.2byte	0x1
ARM GAS  /tmp/ccdMF9sA.s 			page 41


 2249 0129 56       		.byte	0x56
 2250 012a 40000000 		.4byte	.LVL9
 2251 012e 4E000000 		.4byte	.LFE3
 2252 0132 0100     		.2byte	0x1
 2253 0134 56       		.byte	0x56
 2254 0135 00000000 		.4byte	0
 2255 0139 00000000 		.4byte	0
 2256              	.LLST10:
 2257 013d 18000000 		.4byte	.LVL6
 2258 0141 30000000 		.4byte	.LVL8
 2259 0145 0100     		.2byte	0x1
 2260 0147 50       		.byte	0x50
 2261 0148 30000000 		.4byte	.LVL8
 2262 014c 40000000 		.4byte	.LVL9
 2263 0150 0100     		.2byte	0x1
 2264 0152 56       		.byte	0x56
 2265 0153 00000000 		.4byte	0
 2266 0157 00000000 		.4byte	0
 2267              	.LLST11:
 2268 015b 00000000 		.4byte	.LFB2
 2269 015f 02000000 		.4byte	.LCFI3
 2270 0163 0200     		.2byte	0x2
 2271 0165 7D       		.byte	0x7d
 2272 0166 00       		.sleb128 0
 2273 0167 02000000 		.4byte	.LCFI3
 2274 016b 28000000 		.4byte	.LFE2
 2275 016f 0200     		.2byte	0x2
 2276 0171 7D       		.byte	0x7d
 2277 0172 10       		.sleb128 16
 2278 0173 00000000 		.4byte	0
 2279 0177 00000000 		.4byte	0
 2280              	.LLST12:
 2281 017b 00000000 		.4byte	.LVL10
 2282 017f 0F000000 		.4byte	.LVL11-1
 2283 0183 0100     		.2byte	0x1
 2284 0185 50       		.byte	0x50
 2285 0186 0F000000 		.4byte	.LVL11-1
 2286 018a 28000000 		.4byte	.LFE2
 2287 018e 0100     		.2byte	0x1
 2288 0190 56       		.byte	0x56
 2289 0191 00000000 		.4byte	0
 2290 0195 00000000 		.4byte	0
 2291              	.LLST13:
 2292 0199 00000000 		.4byte	.LVL10
 2293 019d 0F000000 		.4byte	.LVL11-1
 2294 01a1 0100     		.2byte	0x1
 2295 01a3 51       		.byte	0x51
 2296 01a4 0F000000 		.4byte	.LVL11-1
 2297 01a8 28000000 		.4byte	.LFE2
 2298 01ac 0100     		.2byte	0x1
 2299 01ae 55       		.byte	0x55
 2300 01af 00000000 		.4byte	0
 2301 01b3 00000000 		.4byte	0
 2302              	.LLST14:
 2303 01b7 00000000 		.4byte	.LVL10
 2304 01bb 0F000000 		.4byte	.LVL11-1
 2305 01bf 0100     		.2byte	0x1
ARM GAS  /tmp/ccdMF9sA.s 			page 42


 2306 01c1 52       		.byte	0x52
 2307 01c2 0F000000 		.4byte	.LVL11-1
 2308 01c6 1C000000 		.4byte	.LVL12
 2309 01ca 0100     		.2byte	0x1
 2310 01cc 54       		.byte	0x54
 2311 01cd 00000000 		.4byte	0
 2312 01d1 00000000 		.4byte	0
 2313              	.LLST15:
 2314 01d5 1C000000 		.4byte	.LVL12
 2315 01d9 1F000000 		.4byte	.LVL13-1
 2316 01dd 0100     		.2byte	0x1
 2317 01df 50       		.byte	0x50
 2318 01e0 1F000000 		.4byte	.LVL13-1
 2319 01e4 28000000 		.4byte	.LFE2
 2320 01e8 0100     		.2byte	0x1
 2321 01ea 54       		.byte	0x54
 2322 01eb 00000000 		.4byte	0
 2323 01ef 00000000 		.4byte	0
 2324              	.LLST16:
 2325 01f3 00000000 		.4byte	.LFB4
 2326 01f7 02000000 		.4byte	.LCFI4
 2327 01fb 0200     		.2byte	0x2
 2328 01fd 7D       		.byte	0x7d
 2329 01fe 00       		.sleb128 0
 2330 01ff 02000000 		.4byte	.LCFI4
 2331 0203 4A000000 		.4byte	.LFE4
 2332 0207 0200     		.2byte	0x2
 2333 0209 7D       		.byte	0x7d
 2334 020a 10       		.sleb128 16
 2335 020b 00000000 		.4byte	0
 2336 020f 00000000 		.4byte	0
 2337              	.LLST17:
 2338 0213 00000000 		.4byte	.LVL14
 2339 0217 09000000 		.4byte	.LVL15-1
 2340 021b 0100     		.2byte	0x1
 2341 021d 50       		.byte	0x50
 2342 021e 09000000 		.4byte	.LVL15-1
 2343 0222 4A000000 		.4byte	.LFE4
 2344 0226 0100     		.2byte	0x1
 2345 0228 54       		.byte	0x54
 2346 0229 00000000 		.4byte	0
 2347 022d 00000000 		.4byte	0
 2348              	.LLST18:
 2349 0231 00000000 		.4byte	.LVL14
 2350 0235 09000000 		.4byte	.LVL15-1
 2351 0239 0100     		.2byte	0x1
 2352 023b 51       		.byte	0x51
 2353 023c 09000000 		.4byte	.LVL15-1
 2354 0240 4A000000 		.4byte	.LFE4
 2355 0244 0100     		.2byte	0x1
 2356 0246 55       		.byte	0x55
 2357 0247 00000000 		.4byte	0
 2358 024b 00000000 		.4byte	0
 2359              	.LLST19:
 2360 024f 00000000 		.4byte	.LFB6
 2361 0253 02000000 		.4byte	.LCFI5
 2362 0257 0200     		.2byte	0x2
ARM GAS  /tmp/ccdMF9sA.s 			page 43


 2363 0259 7D       		.byte	0x7d
 2364 025a 00       		.sleb128 0
 2365 025b 02000000 		.4byte	.LCFI5
 2366 025f 50000000 		.4byte	.LFE6
 2367 0263 0200     		.2byte	0x2
 2368 0265 7D       		.byte	0x7d
 2369 0266 10       		.sleb128 16
 2370 0267 00000000 		.4byte	0
 2371 026b 00000000 		.4byte	0
 2372              	.LLST20:
 2373 026f 00000000 		.4byte	.LVL16
 2374 0273 0B000000 		.4byte	.LVL17-1
 2375 0277 0100     		.2byte	0x1
 2376 0279 50       		.byte	0x50
 2377 027a 0B000000 		.4byte	.LVL17-1
 2378 027e 50000000 		.4byte	.LFE6
 2379 0282 0100     		.2byte	0x1
 2380 0284 54       		.byte	0x54
 2381 0285 00000000 		.4byte	0
 2382 0289 00000000 		.4byte	0
 2383              	.LLST21:
 2384 028d 00000000 		.4byte	.LVL16
 2385 0291 0B000000 		.4byte	.LVL17-1
 2386 0295 0100     		.2byte	0x1
 2387 0297 51       		.byte	0x51
 2388 0298 0B000000 		.4byte	.LVL17-1
 2389 029c 50000000 		.4byte	.LFE6
 2390 02a0 0100     		.2byte	0x1
 2391 02a2 55       		.byte	0x55
 2392 02a3 00000000 		.4byte	0
 2393 02a7 00000000 		.4byte	0
 2394              	.LLST22:
 2395 02ab 00000000 		.4byte	.LVL16
 2396 02af 0B000000 		.4byte	.LVL17-1
 2397 02b3 0100     		.2byte	0x1
 2398 02b5 52       		.byte	0x52
 2399 02b6 0B000000 		.4byte	.LVL17-1
 2400 02ba 1A000000 		.4byte	.LVL19
 2401 02be 0100     		.2byte	0x1
 2402 02c0 56       		.byte	0x56
 2403 02c1 42000000 		.4byte	.LVL21
 2404 02c5 50000000 		.4byte	.LFE6
 2405 02c9 0100     		.2byte	0x1
 2406 02cb 56       		.byte	0x56
 2407 02cc 00000000 		.4byte	0
 2408 02d0 00000000 		.4byte	0
 2409              	.LLST23:
 2410 02d4 18000000 		.4byte	.LVL18
 2411 02d8 28000000 		.4byte	.LVL20
 2412 02dc 0100     		.2byte	0x1
 2413 02de 50       		.byte	0x50
 2414 02df 28000000 		.4byte	.LVL20
 2415 02e3 42000000 		.4byte	.LVL21
 2416 02e7 0100     		.2byte	0x1
 2417 02e9 56       		.byte	0x56
 2418 02ea 00000000 		.4byte	0
 2419 02ee 00000000 		.4byte	0
ARM GAS  /tmp/ccdMF9sA.s 			page 44


 2420              	.LLST24:
 2421 02f2 00000000 		.4byte	.LFB5
 2422 02f6 02000000 		.4byte	.LCFI6
 2423 02fa 0200     		.2byte	0x2
 2424 02fc 7D       		.byte	0x7d
 2425 02fd 00       		.sleb128 0
 2426 02fe 02000000 		.4byte	.LCFI6
 2427 0302 28000000 		.4byte	.LFE5
 2428 0306 0200     		.2byte	0x2
 2429 0308 7D       		.byte	0x7d
 2430 0309 10       		.sleb128 16
 2431 030a 00000000 		.4byte	0
 2432 030e 00000000 		.4byte	0
 2433              	.LLST25:
 2434 0312 00000000 		.4byte	.LVL22
 2435 0316 0F000000 		.4byte	.LVL23-1
 2436 031a 0100     		.2byte	0x1
 2437 031c 50       		.byte	0x50
 2438 031d 0F000000 		.4byte	.LVL23-1
 2439 0321 28000000 		.4byte	.LFE5
 2440 0325 0100     		.2byte	0x1
 2441 0327 56       		.byte	0x56
 2442 0328 00000000 		.4byte	0
 2443 032c 00000000 		.4byte	0
 2444              	.LLST26:
 2445 0330 00000000 		.4byte	.LVL22
 2446 0334 0F000000 		.4byte	.LVL23-1
 2447 0338 0100     		.2byte	0x1
 2448 033a 51       		.byte	0x51
 2449 033b 0F000000 		.4byte	.LVL23-1
 2450 033f 28000000 		.4byte	.LFE5
 2451 0343 0100     		.2byte	0x1
 2452 0345 55       		.byte	0x55
 2453 0346 00000000 		.4byte	0
 2454 034a 00000000 		.4byte	0
 2455              	.LLST27:
 2456 034e 00000000 		.4byte	.LVL22
 2457 0352 0F000000 		.4byte	.LVL23-1
 2458 0356 0100     		.2byte	0x1
 2459 0358 52       		.byte	0x52
 2460 0359 0F000000 		.4byte	.LVL23-1
 2461 035d 1C000000 		.4byte	.LVL24
 2462 0361 0100     		.2byte	0x1
 2463 0363 54       		.byte	0x54
 2464 0364 00000000 		.4byte	0
 2465 0368 00000000 		.4byte	0
 2466              	.LLST28:
 2467 036c 1C000000 		.4byte	.LVL24
 2468 0370 1F000000 		.4byte	.LVL25-1
 2469 0374 0100     		.2byte	0x1
 2470 0376 50       		.byte	0x50
 2471 0377 1F000000 		.4byte	.LVL25-1
 2472 037b 28000000 		.4byte	.LFE5
 2473 037f 0100     		.2byte	0x1
 2474 0381 54       		.byte	0x54
 2475 0382 00000000 		.4byte	0
 2476 0386 00000000 		.4byte	0
ARM GAS  /tmp/ccdMF9sA.s 			page 45


 2477              	.LLST29:
 2478 038a 00000000 		.4byte	.LFB7
 2479 038e 02000000 		.4byte	.LCFI7
 2480 0392 0200     		.2byte	0x2
 2481 0394 7D       		.byte	0x7d
 2482 0395 00       		.sleb128 0
 2483 0396 02000000 		.4byte	.LCFI7
 2484 039a 4A000000 		.4byte	.LFE7
 2485 039e 0200     		.2byte	0x2
 2486 03a0 7D       		.byte	0x7d
 2487 03a1 10       		.sleb128 16
 2488 03a2 00000000 		.4byte	0
 2489 03a6 00000000 		.4byte	0
 2490              	.LLST30:
 2491 03aa 00000000 		.4byte	.LVL26
 2492 03ae 09000000 		.4byte	.LVL27-1
 2493 03b2 0100     		.2byte	0x1
 2494 03b4 50       		.byte	0x50
 2495 03b5 09000000 		.4byte	.LVL27-1
 2496 03b9 4A000000 		.4byte	.LFE7
 2497 03bd 0100     		.2byte	0x1
 2498 03bf 54       		.byte	0x54
 2499 03c0 00000000 		.4byte	0
 2500 03c4 00000000 		.4byte	0
 2501              	.LLST31:
 2502 03c8 00000000 		.4byte	.LVL26
 2503 03cc 09000000 		.4byte	.LVL27-1
 2504 03d0 0100     		.2byte	0x1
 2505 03d2 51       		.byte	0x51
 2506 03d3 09000000 		.4byte	.LVL27-1
 2507 03d7 4A000000 		.4byte	.LFE7
 2508 03db 0100     		.2byte	0x1
 2509 03dd 55       		.byte	0x55
 2510 03de 00000000 		.4byte	0
 2511 03e2 00000000 		.4byte	0
 2512              	.LLST32:
 2513 03e6 00000000 		.4byte	.LFB9
 2514 03ea 02000000 		.4byte	.LCFI8
 2515 03ee 0200     		.2byte	0x2
 2516 03f0 7D       		.byte	0x7d
 2517 03f1 00       		.sleb128 0
 2518 03f2 02000000 		.4byte	.LCFI8
 2519 03f6 5E000000 		.4byte	.LFE9
 2520 03fa 0200     		.2byte	0x2
 2521 03fc 7D       		.byte	0x7d
 2522 03fd 10       		.sleb128 16
 2523 03fe 00000000 		.4byte	0
 2524 0402 00000000 		.4byte	0
 2525              	.LLST33:
 2526 0406 00000000 		.4byte	.LVL28
 2527 040a 0B000000 		.4byte	.LVL29-1
 2528 040e 0100     		.2byte	0x1
 2529 0410 50       		.byte	0x50
 2530 0411 0B000000 		.4byte	.LVL29-1
 2531 0415 5E000000 		.4byte	.LFE9
 2532 0419 0100     		.2byte	0x1
 2533 041b 54       		.byte	0x54
ARM GAS  /tmp/ccdMF9sA.s 			page 46


 2534 041c 00000000 		.4byte	0
 2535 0420 00000000 		.4byte	0
 2536              	.LLST34:
 2537 0424 00000000 		.4byte	.LVL28
 2538 0428 0B000000 		.4byte	.LVL29-1
 2539 042c 0100     		.2byte	0x1
 2540 042e 51       		.byte	0x51
 2541 042f 0B000000 		.4byte	.LVL29-1
 2542 0433 5E000000 		.4byte	.LFE9
 2543 0437 0100     		.2byte	0x1
 2544 0439 55       		.byte	0x55
 2545 043a 00000000 		.4byte	0
 2546 043e 00000000 		.4byte	0
 2547              	.LLST35:
 2548 0442 00000000 		.4byte	.LVL28
 2549 0446 0B000000 		.4byte	.LVL29-1
 2550 044a 0100     		.2byte	0x1
 2551 044c 52       		.byte	0x52
 2552 044d 0B000000 		.4byte	.LVL29-1
 2553 0451 2A000000 		.4byte	.LVL31
 2554 0455 0100     		.2byte	0x1
 2555 0457 56       		.byte	0x56
 2556 0458 50000000 		.4byte	.LVL33
 2557 045c 5E000000 		.4byte	.LFE9
 2558 0460 0100     		.2byte	0x1
 2559 0462 56       		.byte	0x56
 2560 0463 00000000 		.4byte	0
 2561 0467 00000000 		.4byte	0
 2562              	.LLST36:
 2563 046b 28000000 		.4byte	.LVL30
 2564 046f 2E000000 		.4byte	.LVL32
 2565 0473 0100     		.2byte	0x1
 2566 0475 50       		.byte	0x50
 2567 0476 2E000000 		.4byte	.LVL32
 2568 047a 50000000 		.4byte	.LVL33
 2569 047e 0100     		.2byte	0x1
 2570 0480 56       		.byte	0x56
 2571 0481 00000000 		.4byte	0
 2572 0485 00000000 		.4byte	0
 2573              	.LLST37:
 2574 0489 00000000 		.4byte	.LFB8
 2575 048d 02000000 		.4byte	.LCFI9
 2576 0491 0200     		.2byte	0x2
 2577 0493 7D       		.byte	0x7d
 2578 0494 00       		.sleb128 0
 2579 0495 02000000 		.4byte	.LCFI9
 2580 0499 28000000 		.4byte	.LFE8
 2581 049d 0200     		.2byte	0x2
 2582 049f 7D       		.byte	0x7d
 2583 04a0 10       		.sleb128 16
 2584 04a1 00000000 		.4byte	0
 2585 04a5 00000000 		.4byte	0
 2586              	.LLST38:
 2587 04a9 00000000 		.4byte	.LVL34
 2588 04ad 0F000000 		.4byte	.LVL35-1
 2589 04b1 0100     		.2byte	0x1
 2590 04b3 50       		.byte	0x50
ARM GAS  /tmp/ccdMF9sA.s 			page 47


 2591 04b4 0F000000 		.4byte	.LVL35-1
 2592 04b8 28000000 		.4byte	.LFE8
 2593 04bc 0100     		.2byte	0x1
 2594 04be 56       		.byte	0x56
 2595 04bf 00000000 		.4byte	0
 2596 04c3 00000000 		.4byte	0
 2597              	.LLST39:
 2598 04c7 00000000 		.4byte	.LVL34
 2599 04cb 0F000000 		.4byte	.LVL35-1
 2600 04cf 0100     		.2byte	0x1
 2601 04d1 51       		.byte	0x51
 2602 04d2 0F000000 		.4byte	.LVL35-1
 2603 04d6 28000000 		.4byte	.LFE8
 2604 04da 0100     		.2byte	0x1
 2605 04dc 55       		.byte	0x55
 2606 04dd 00000000 		.4byte	0
 2607 04e1 00000000 		.4byte	0
 2608              	.LLST40:
 2609 04e5 00000000 		.4byte	.LVL34
 2610 04e9 0F000000 		.4byte	.LVL35-1
 2611 04ed 0100     		.2byte	0x1
 2612 04ef 52       		.byte	0x52
 2613 04f0 0F000000 		.4byte	.LVL35-1
 2614 04f4 1C000000 		.4byte	.LVL36
 2615 04f8 0100     		.2byte	0x1
 2616 04fa 54       		.byte	0x54
 2617 04fb 00000000 		.4byte	0
 2618 04ff 00000000 		.4byte	0
 2619              	.LLST41:
 2620 0503 1C000000 		.4byte	.LVL36
 2621 0507 1F000000 		.4byte	.LVL37-1
 2622 050b 0100     		.2byte	0x1
 2623 050d 50       		.byte	0x50
 2624 050e 1F000000 		.4byte	.LVL37-1
 2625 0512 28000000 		.4byte	.LFE8
 2626 0516 0100     		.2byte	0x1
 2627 0518 54       		.byte	0x54
 2628 0519 00000000 		.4byte	0
 2629 051d 00000000 		.4byte	0
 2630              	.LLST42:
 2631 0521 00000000 		.4byte	.LFB10
 2632 0525 02000000 		.4byte	.LCFI10
 2633 0529 0200     		.2byte	0x2
 2634 052b 7D       		.byte	0x7d
 2635 052c 00       		.sleb128 0
 2636 052d 02000000 		.4byte	.LCFI10
 2637 0531 5C000000 		.4byte	.LFE10
 2638 0535 0200     		.2byte	0x2
 2639 0537 7D       		.byte	0x7d
 2640 0538 10       		.sleb128 16
 2641 0539 00000000 		.4byte	0
 2642 053d 00000000 		.4byte	0
 2643              	.LLST43:
 2644 0541 00000000 		.4byte	.LVL38
 2645 0545 09000000 		.4byte	.LVL39-1
 2646 0549 0100     		.2byte	0x1
 2647 054b 50       		.byte	0x50
ARM GAS  /tmp/ccdMF9sA.s 			page 48


 2648 054c 09000000 		.4byte	.LVL39-1
 2649 0550 5C000000 		.4byte	.LFE10
 2650 0554 0100     		.2byte	0x1
 2651 0556 54       		.byte	0x54
 2652 0557 00000000 		.4byte	0
 2653 055b 00000000 		.4byte	0
 2654              	.LLST44:
 2655 055f 00000000 		.4byte	.LVL38
 2656 0563 09000000 		.4byte	.LVL39-1
 2657 0567 0100     		.2byte	0x1
 2658 0569 51       		.byte	0x51
 2659 056a 09000000 		.4byte	.LVL39-1
 2660 056e 5C000000 		.4byte	.LFE10
 2661 0572 0100     		.2byte	0x1
 2662 0574 55       		.byte	0x55
 2663 0575 00000000 		.4byte	0
 2664 0579 00000000 		.4byte	0
 2665              		.section	.debug_aranges,"",%progbits
 2666 0000 6C000000 		.4byte	0x6c
 2667 0004 0200     		.2byte	0x2
 2668 0006 00000000 		.4byte	.Ldebug_info0
 2669 000a 04       		.byte	0x4
 2670 000b 00       		.byte	0
 2671 000c 0000     		.2byte	0
 2672 000e 0000     		.2byte	0
 2673 0010 00000000 		.4byte	.LFB0
 2674 0014 50000000 		.4byte	.LFE0-.LFB0
 2675 0018 00000000 		.4byte	.LFB1
 2676 001c 48000000 		.4byte	.LFE1-.LFB1
 2677 0020 00000000 		.4byte	.LFB3
 2678 0024 4E000000 		.4byte	.LFE3-.LFB3
 2679 0028 00000000 		.4byte	.LFB2
 2680 002c 28000000 		.4byte	.LFE2-.LFB2
 2681 0030 00000000 		.4byte	.LFB4
 2682 0034 4A000000 		.4byte	.LFE4-.LFB4
 2683 0038 00000000 		.4byte	.LFB6
 2684 003c 50000000 		.4byte	.LFE6-.LFB6
 2685 0040 00000000 		.4byte	.LFB5
 2686 0044 28000000 		.4byte	.LFE5-.LFB5
 2687 0048 00000000 		.4byte	.LFB7
 2688 004c 4A000000 		.4byte	.LFE7-.LFB7
 2689 0050 00000000 		.4byte	.LFB9
 2690 0054 5E000000 		.4byte	.LFE9-.LFB9
 2691 0058 00000000 		.4byte	.LFB8
 2692 005c 28000000 		.4byte	.LFE8-.LFB8
 2693 0060 00000000 		.4byte	.LFB10
 2694 0064 5C000000 		.4byte	.LFE10-.LFB10
 2695 0068 00000000 		.4byte	0
 2696 006c 00000000 		.4byte	0
 2697              		.section	.debug_ranges,"",%progbits
 2698              	.Ldebug_ranges0:
 2699 0000 00000000 		.4byte	.LFB0
 2700 0004 50000000 		.4byte	.LFE0
 2701 0008 00000000 		.4byte	.LFB1
 2702 000c 48000000 		.4byte	.LFE1
 2703 0010 00000000 		.4byte	.LFB3
 2704 0014 4E000000 		.4byte	.LFE3
ARM GAS  /tmp/ccdMF9sA.s 			page 49


 2705 0018 00000000 		.4byte	.LFB2
 2706 001c 28000000 		.4byte	.LFE2
 2707 0020 00000000 		.4byte	.LFB4
 2708 0024 4A000000 		.4byte	.LFE4
 2709 0028 00000000 		.4byte	.LFB6
 2710 002c 50000000 		.4byte	.LFE6
 2711 0030 00000000 		.4byte	.LFB5
 2712 0034 28000000 		.4byte	.LFE5
 2713 0038 00000000 		.4byte	.LFB7
 2714 003c 4A000000 		.4byte	.LFE7
 2715 0040 00000000 		.4byte	.LFB9
 2716 0044 5E000000 		.4byte	.LFE9
 2717 0048 00000000 		.4byte	.LFB8
 2718 004c 28000000 		.4byte	.LFE8
 2719 0050 00000000 		.4byte	.LFB10
 2720 0054 5C000000 		.4byte	.LFE10
 2721 0058 00000000 		.4byte	0
 2722 005c 00000000 		.4byte	0
 2723              		.section	.debug_line,"",%progbits
 2724              	.Ldebug_line0:
 2725 0000 B7020000 		.section	.debug_str,"MS",%progbits,1
 2725      02004001 
 2725      00000201 
 2725      FB0E0D00 
 2725      01010101 
 2726              	.LASF34:
 2727 0000 705F6D73 		.ascii	"p_msg\000"
 2727      6700
 2728              	.LASF58:
 2729 0006 7264796D 		.ascii	"rdymsg\000"
 2729      736700
 2730              	.LASF11:
 2731 000d 75696E74 		.ascii	"uint64_t\000"
 2731      36345F74 
 2731      00
 2732              	.LASF68:
 2733 0016 63684D42 		.ascii	"chMBPostI\000"
 2733      506F7374 
 2733      4900
 2734              	.LASF66:
 2735 0020 63684D42 		.ascii	"chMBPostS\000"
 2735      506F7374 
 2735      5300
 2736              	.LASF57:
 2737 002a 4D61696C 		.ascii	"Mailbox\000"
 2737      626F7800 
 2738              	.LASF71:
 2739 0032 63684D42 		.ascii	"chMBPostAheadI\000"
 2739      506F7374 
 2739      41686561 
 2739      644900
 2740              	.LASF12:
 2741 0041 6C6F6E67 		.ascii	"long long unsigned int\000"
 2741      206C6F6E 
 2741      6720756E 
 2741      7369676E 
 2741      65642069 
ARM GAS  /tmp/ccdMF9sA.s 			page 50


 2742              	.LASF59:
 2743 0058 65786974 		.ascii	"exitcode\000"
 2743      636F6465 
 2743      00
 2744              	.LASF69:
 2745 0061 63684D42 		.ascii	"chMBPostAheadS\000"
 2745      506F7374 
 2745      41686561 
 2745      645300
 2746              	.LASF53:
 2747 0070 6D625F77 		.ascii	"mb_wrptr\000"
 2747      72707472 
 2747      00
 2748              	.LASF23:
 2749 0079 705F7072 		.ascii	"p_prio\000"
 2749      696F00
 2750              	.LASF10:
 2751 0080 6C6F6E67 		.ascii	"long long int\000"
 2751      206C6F6E 
 2751      6720696E 
 2751      7400
 2752              	.LASF1:
 2753 008e 7369676E 		.ascii	"signed char\000"
 2753      65642063 
 2753      68617200 
 2754              	.LASF48:
 2755 009a 6D5F7175 		.ascii	"m_queue\000"
 2755      65756500 
 2756              	.LASF7:
 2757 00a2 6C6F6E67 		.ascii	"long int\000"
 2757      20696E74 
 2757      00
 2758              	.LASF14:
 2759 00ab 74737461 		.ascii	"tstate_t\000"
 2759      74655F74 
 2759      00
 2760              	.LASF25:
 2761 00b4 705F6E65 		.ascii	"p_newer\000"
 2761      77657200 
 2762              	.LASF45:
 2763 00bc 735F7175 		.ascii	"s_queue\000"
 2763      65756500 
 2764              	.LASF40:
 2765 00c4 72656761 		.ascii	"regarm_t\000"
 2765      726D5F74 
 2765      00
 2766              	.LASF19:
 2767 00cd 636E745F 		.ascii	"cnt_t\000"
 2767      7400
 2768              	.LASF28:
 2769 00d3 705F7374 		.ascii	"p_stklimit\000"
 2769      6B6C696D 
 2769      697400
 2770              	.LASF0:
 2771 00de 756E7369 		.ascii	"unsigned int\000"
 2771      676E6564 
 2771      20696E74 
ARM GAS  /tmp/ccdMF9sA.s 			page 51


 2771      00
 2772              	.LASF63:
 2773 00eb 63684D42 		.ascii	"chMBInit\000"
 2773      496E6974 
 2773      00
 2774              	.LASF9:
 2775 00f4 6C6F6E67 		.ascii	"long unsigned int\000"
 2775      20756E73 
 2775      69676E65 
 2775      6420696E 
 2775      7400
 2776              	.LASF56:
 2777 0106 6D625F65 		.ascii	"mb_emptysem\000"
 2777      6D707479 
 2777      73656D00 
 2778              	.LASF46:
 2779 0112 735F636E 		.ascii	"s_cnt\000"
 2779      7400
 2780              	.LASF43:
 2781 0118 636F6E74 		.ascii	"context\000"
 2781      65787400 
 2782              	.LASF78:
 2783 0120 2F686F6D 		.ascii	"/home/prana/workspace/eth/ch/testhal/STM32F4xx/RTC\000"
 2783      652F7072 
 2783      616E612F 
 2783      776F726B 
 2783      73706163 
 2784              	.LASF4:
 2785 0153 73686F72 		.ascii	"short unsigned int\000"
 2785      7420756E 
 2785      7369676E 
 2785      65642069 
 2785      6E7400
 2786              	.LASF75:
 2787 0166 63684D42 		.ascii	"chMBFetchI\000"
 2787      46657463 
 2787      684900
 2788              	.LASF16:
 2789 0171 6D73675F 		.ascii	"msg_t\000"
 2789      7400
 2790              	.LASF72:
 2791 0177 63684D42 		.ascii	"chMBFetchS\000"
 2791      46657463 
 2791      685300
 2792              	.LASF13:
 2793 0182 746D6F64 		.ascii	"tmode_t\000"
 2793      655F7400 
 2794              	.LASF39:
 2795 018a 54687265 		.ascii	"ThreadsList\000"
 2795      6164734C 
 2795      69737400 
 2796              	.LASF17:
 2797 0196 6576656E 		.ascii	"eventmask_t\000"
 2797      746D6173 
 2797      6B5F7400 
 2798              	.LASF47:
 2799 01a2 4D757465 		.ascii	"Mutex\000"
ARM GAS  /tmp/ccdMF9sA.s 			page 52


 2799      7800
 2800              	.LASF73:
 2801 01a8 6D736770 		.ascii	"msgp\000"
 2801      00
 2802              	.LASF41:
 2803 01ad 73746B61 		.ascii	"stkalign_t\000"
 2803      6C69676E 
 2803      5F7400
 2804              	.LASF54:
 2805 01b8 6D625F72 		.ascii	"mb_rdptr\000"
 2805      64707472 
 2805      00
 2806              	.LASF64:
 2807 01c1 63684D42 		.ascii	"chMBReset\000"
 2807      52657365 
 2807      7400
 2808              	.LASF26:
 2809 01cb 705F6F6C 		.ascii	"p_older\000"
 2809      64657200 
 2810              	.LASF38:
 2811 01d3 54687265 		.ascii	"ThreadsQueue\000"
 2811      61647351 
 2811      75657565 
 2811      00
 2812              	.LASF51:
 2813 01e0 6D625F62 		.ascii	"mb_buffer\000"
 2813      75666665 
 2813      7200
 2814              	.LASF65:
 2815 01ea 74696D65 		.ascii	"time\000"
 2815      00
 2816              	.LASF22:
 2817 01ef 705F7072 		.ascii	"p_prev\000"
 2817      657600
 2818              	.LASF15:
 2819 01f6 74707269 		.ascii	"tprio_t\000"
 2819      6F5F7400 
 2820              	.LASF6:
 2821 01fe 696E7433 		.ascii	"int32_t\000"
 2821      325F7400 
 2822              	.LASF2:
 2823 0206 756E7369 		.ascii	"unsigned char\000"
 2823      676E6564 
 2823      20636861 
 2823      7200
 2824              	.LASF52:
 2825 0214 6D625F74 		.ascii	"mb_top\000"
 2825      6F7000
 2826              	.LASF36:
 2827 021b 705F6D74 		.ascii	"p_mtxlist\000"
 2827      786C6973 
 2827      7400
 2828              	.LASF3:
 2829 0225 73686F72 		.ascii	"short int\000"
 2829      7420696E 
 2829      7400
 2830              	.LASF29:
ARM GAS  /tmp/ccdMF9sA.s 			page 53


 2831 022f 705F7374 		.ascii	"p_state\000"
 2831      61746500 
 2832              	.LASF61:
 2833 0237 65776D61 		.ascii	"ewmask\000"
 2833      736B00
 2834              	.LASF21:
 2835 023e 705F6E65 		.ascii	"p_next\000"
 2835      787400
 2836              	.LASF30:
 2837 0245 705F666C 		.ascii	"p_flags\000"
 2837      61677300 
 2838              	.LASF67:
 2839 024d 63684D42 		.ascii	"chMBPost\000"
 2839      506F7374 
 2839      00
 2840              	.LASF77:
 2841 0256 2E2E2F2E 		.ascii	"../../../os/kernel/src/chmboxes.c\000"
 2841      2E2F2E2E 
 2841      2F6F732F 
 2841      6B65726E 
 2841      656C2F73 
 2842              	.LASF20:
 2843 0278 54687265 		.ascii	"Thread\000"
 2843      616400
 2844              	.LASF35:
 2845 027f 705F6570 		.ascii	"p_epending\000"
 2845      656E6469 
 2845      6E6700
 2846              	.LASF8:
 2847 028a 75696E74 		.ascii	"uint32_t\000"
 2847      33325F74 
 2847      00
 2848              	.LASF76:
 2849 0293 474E5520 		.ascii	"GNU C 4.6.3\000"
 2849      4320342E 
 2849      362E3300 
 2850              	.LASF62:
 2851 029f 63686172 		.ascii	"char\000"
 2851      00
 2852              	.LASF50:
 2853 02a4 6D5F6E65 		.ascii	"m_next\000"
 2853      787400
 2854              	.LASF18:
 2855 02ab 73797374 		.ascii	"systime_t\000"
 2855      696D655F 
 2855      7400
 2856              	.LASF37:
 2857 02b5 705F7265 		.ascii	"p_realprio\000"
 2857      616C7072 
 2857      696F00
 2858              	.LASF31:
 2859 02c0 705F7469 		.ascii	"p_time\000"
 2859      6D6500
 2860              	.LASF70:
 2861 02c7 63684D42 		.ascii	"chMBPostAhead\000"
 2861      506F7374 
 2861      41686561 
ARM GAS  /tmp/ccdMF9sA.s 			page 54


 2861      6400
 2862              	.LASF42:
 2863 02d5 696E7463 		.ascii	"intctx\000"
 2863      747800
 2864              	.LASF33:
 2865 02dc 705F6D73 		.ascii	"p_msgqueue\000"
 2865      67717565 
 2865      756500
 2866              	.LASF74:
 2867 02e7 63684D42 		.ascii	"chMBFetch\000"
 2867      46657463 
 2867      6800
 2868              	.LASF44:
 2869 02f1 53656D61 		.ascii	"Semaphore\000"
 2869      70686F72 
 2869      6500
 2870              	.LASF55:
 2871 02fb 6D625F66 		.ascii	"mb_fullsem\000"
 2871      756C6C73 
 2871      656D00
 2872              	.LASF5:
 2873 0306 75696E74 		.ascii	"uint8_t\000"
 2873      385F7400 
 2874              	.LASF60:
 2875 030e 77746F62 		.ascii	"wtobjp\000"
 2875      6A7000
 2876              	.LASF27:
 2877 0315 705F6E61 		.ascii	"p_name\000"
 2877      6D6500
 2878              	.LASF49:
 2879 031c 6D5F6F77 		.ascii	"m_owner\000"
 2879      6E657200 
 2880              	.LASF24:
 2881 0324 705F6374 		.ascii	"p_ctx\000"
 2881      7800
 2882              	.LASF32:
 2883 032a 705F7761 		.ascii	"p_waiting\000"
 2883      6974696E 
 2883      6700
 2884              		.ident	"GCC: (Sourcery CodeBench Lite 2012.03-56) 4.6.3"
ARM GAS  /tmp/ccdMF9sA.s 			page 55


DEFINED SYMBOLS
                            *ABS*:00000000 chmboxes.c
     /tmp/ccdMF9sA.s:19     .text.chMBInit:00000000 $t
     /tmp/ccdMF9sA.s:25     .text.chMBInit:00000000 chMBInit
     /tmp/ccdMF9sA.s:779    .rodata.str1.4:00000000 .LC0
     /tmp/ccdMF9sA.s:90     .text.chMBReset:00000000 $t
     /tmp/ccdMF9sA.s:96     .text.chMBReset:00000000 chMBReset
     /tmp/ccdMF9sA.s:782    .rodata.str1.4:00000010 .LC1
     /tmp/ccdMF9sA.s:157    .text.chMBPostS:00000000 $t
     /tmp/ccdMF9sA.s:163    .text.chMBPostS:00000000 chMBPostS
     /tmp/ccdMF9sA.s:785    .rodata.str1.4:00000020 .LC2
     /tmp/ccdMF9sA.s:234    .text.chMBPost:00000000 $t
     /tmp/ccdMF9sA.s:240    .text.chMBPost:00000000 chMBPost
     /tmp/ccdMF9sA.s:286    .text.chMBPostI:00000000 $t
     /tmp/ccdMF9sA.s:292    .text.chMBPostI:00000000 chMBPostI
     /tmp/ccdMF9sA.s:788    .rodata.str1.4:00000030 .LC3
     /tmp/ccdMF9sA.s:360    .text.chMBPostAheadS:00000000 $t
     /tmp/ccdMF9sA.s:366    .text.chMBPostAheadS:00000000 chMBPostAheadS
     /tmp/ccdMF9sA.s:791    .rodata.str1.4:00000040 .LC4
     /tmp/ccdMF9sA.s:437    .text.chMBPostAhead:00000000 $t
     /tmp/ccdMF9sA.s:443    .text.chMBPostAhead:00000000 chMBPostAhead
     /tmp/ccdMF9sA.s:489    .text.chMBPostAheadI:00000000 $t
     /tmp/ccdMF9sA.s:495    .text.chMBPostAheadI:00000000 chMBPostAheadI
     /tmp/ccdMF9sA.s:794    .rodata.str1.4:00000054 .LC5
     /tmp/ccdMF9sA.s:564    .text.chMBFetchS:00000000 $t
     /tmp/ccdMF9sA.s:570    .text.chMBFetchS:00000000 chMBFetchS
     /tmp/ccdMF9sA.s:797    .rodata.str1.4:00000068 .LC6
     /tmp/ccdMF9sA.s:645    .text.chMBFetch:00000000 $t
     /tmp/ccdMF9sA.s:651    .text.chMBFetch:00000000 chMBFetch
     /tmp/ccdMF9sA.s:697    .text.chMBFetchI:00000000 $t
     /tmp/ccdMF9sA.s:703    .text.chMBFetchI:00000000 chMBFetchI
     /tmp/ccdMF9sA.s:800    .rodata.str1.4:00000078 .LC7
     /tmp/ccdMF9sA.s:778    .rodata.str1.4:00000000 $d
                     .debug_frame:00000010 $d

UNDEFINED SYMBOLS
chSemInit
chDbgPanic
_port_lock
dbg_check_lock
chSemResetI
chSchRescheduleS
dbg_check_unlock
_port_unlock
chDbgCheckClassS
chSemWaitTimeoutS
chSemSignalI
chDbgCheckClassI
