ARM GAS  /tmp/cc7wzMYA.s 			page 1


   1              		.syntax unified
   2              		.cpu cortex-m4
   3              		.fpu softvfp
   4              		.eabi_attribute 20, 1
   5              		.eabi_attribute 21, 1
   6              		.eabi_attribute 23, 3
   7              		.eabi_attribute 24, 1
   8              		.eabi_attribute 25, 1
   9              		.eabi_attribute 26, 1
  10              		.eabi_attribute 30, 2
  11              		.eabi_attribute 34, 1
  12              		.eabi_attribute 18, 4
  13              		.thumb
  14              		.file	"chmempools.c"
  15              		.text
  16              	.Ltext0:
  17              		.cfi_sections	.debug_frame
  18              		.section	.text.chPoolInit,"ax",%progbits
  19              		.align	2
  20              		.p2align 4,,15
  21              		.global	chPoolInit
  22              		.thumb
  23              		.thumb_func
  24              		.type	chPoolInit, %function
  25              	chPoolInit:
  26              	.LFB0:
  27              		.file 1 "../../../os/kernel/src/chmempools.c"
  28              		.loc 1 57 0
  29              		.cfi_startproc
  30              		@ args = 0, pretend = 0, frame = 0
  31              		@ frame_needed = 0, uses_anonymous_args = 0
  32              	.LVL0:
  33              		.loc 1 59 0
  34 0000 D0F10103 		rsbs	r3, r0, #1
  35 0004 38BF     		it	cc
  36 0006 0023     		movcc	r3, #0
  37 0008 0329     		cmp	r1, #3
  38 000a 98BF     		it	ls
  39 000c 43F00103 		orrls	r3, r3, #1
  40              		.loc 1 57 0
  41 0010 70B5     		push	{r4, r5, r6, lr}
  42              	.LCFI0:
  43              		.cfi_def_cfa_offset 16
  44              		.cfi_offset 14, -4
  45              		.cfi_offset 6, -8
  46              		.cfi_offset 5, -12
  47              		.cfi_offset 4, -16
  48              		.loc 1 59 0
  49 0012 0446     		mov	r4, r0
  50              		.loc 1 57 0
  51 0014 0D46     		mov	r5, r1
  52 0016 1646     		mov	r6, r2
  53              		.loc 1 59 0
  54 0018 2BB1     		cbz	r3, .L2
  55              		.loc 1 59 0 is_stmt 0 discriminator 1
  56 001a 40F20000 		movw	r0, #:lower16:.LC0
  57              	.LVL1:
ARM GAS  /tmp/cc7wzMYA.s 			page 2


  58 001e C0F20000 		movt	r0, #:upper16:.LC0
  59 0022 FFF7FEFF 		bl	chDbgPanic
  60              	.LVL2:
  61              	.L2:
  62              		.loc 1 61 0 is_stmt 1
  63 0026 0023     		movs	r3, #0
  64              		.loc 1 63 0
  65 0028 84E86800 		stmia	r4, {r3, r5, r6}
  66              		.loc 1 64 0
  67 002c 70BD     		pop	{r4, r5, r6, pc}
  68              		.cfi_endproc
  69              	.LFE0:
  70              		.size	chPoolInit, .-chPoolInit
  71 002e 00BF     		.section	.text.chPoolAllocI,"ax",%progbits
  72              		.align	2
  73              		.p2align 4,,15
  74              		.global	chPoolAllocI
  75              		.thumb
  76              		.thumb_func
  77              		.type	chPoolAllocI, %function
  78              	chPoolAllocI:
  79              	.LFB2:
  80              		.loc 1 100 0
  81              		.cfi_startproc
  82              		@ args = 0, pretend = 0, frame = 0
  83              		@ frame_needed = 0, uses_anonymous_args = 0
  84              	.LVL3:
  85 0000 10B5     		push	{r4, lr}
  86              	.LCFI1:
  87              		.cfi_def_cfa_offset 8
  88              		.cfi_offset 14, -4
  89              		.cfi_offset 4, -8
  90              		.loc 1 100 0
  91 0002 0446     		mov	r4, r0
  92              		.loc 1 103 0
  93 0004 FFF7FEFF 		bl	chDbgCheckClassI
  94              	.LVL4:
  95              		.loc 1 104 0
  96 0008 4CB1     		cbz	r4, .L8
  97              	.L5:
  98              		.loc 1 106 0
  99 000a 2068     		ldr	r0, [r4, #0]
 100              	.LVL5:
 101 000c 10B1     		cbz	r0, .L6
 102              		.loc 1 107 0
 103 000e 0368     		ldr	r3, [r0, #0]
 104 0010 2360     		str	r3, [r4, #0]
 105 0012 10BD     		pop	{r4, pc}
 106              	.L6:
 107              		.loc 1 108 0
 108 0014 A368     		ldr	r3, [r4, #8]
 109 0016 0BB1     		cbz	r3, .L7
 110              		.loc 1 109 0
 111 0018 6068     		ldr	r0, [r4, #4]
 112 001a 9847     		blx	r3
 113              	.LVL6:
 114              	.L7:
ARM GAS  /tmp/cc7wzMYA.s 			page 3


 115              		.loc 1 111 0
 116 001c 10BD     		pop	{r4, pc}
 117              	.LVL7:
 118              	.L8:
 119              		.loc 1 104 0 discriminator 1
 120 001e 40F20000 		movw	r0, #:lower16:.LC1
 121 0022 C0F20000 		movt	r0, #:upper16:.LC1
 122 0026 FFF7FEFF 		bl	chDbgPanic
 123 002a EEE7     		b	.L5
 124              		.cfi_endproc
 125              	.LFE2:
 126              		.size	chPoolAllocI, .-chPoolAllocI
 127 002c AFF30080 		.section	.text.chPoolAlloc,"ax",%progbits
 128              		.align	2
 129              		.p2align 4,,15
 130              		.global	chPoolAlloc
 131              		.thumb
 132              		.thumb_func
 133              		.type	chPoolAlloc, %function
 134              	chPoolAlloc:
 135              	.LFB3:
 136              		.loc 1 123 0
 137              		.cfi_startproc
 138              		@ args = 0, pretend = 0, frame = 0
 139              		@ frame_needed = 0, uses_anonymous_args = 0
 140              	.LVL8:
 141 0000 10B5     		push	{r4, lr}
 142              	.LCFI2:
 143              		.cfi_def_cfa_offset 8
 144              		.cfi_offset 14, -4
 145              		.cfi_offset 4, -8
 146              		.loc 1 123 0
 147 0002 0446     		mov	r4, r0
 148              		.loc 1 126 0
 149              	@ 126 "../../../os/kernel/src/chmempools.c" 1
 150 0004 FFF7FEFF 		bl      _port_lock
 151              	@ 0 "" 2
 152              		.thumb
 153 0008 FFF7FEFF 		bl	dbg_check_lock
 154              	.LVL9:
 155              		.loc 1 127 0
 156 000c 2046     		mov	r0, r4
 157 000e FFF7FEFF 		bl	chPoolAllocI
 158 0012 0446     		mov	r4, r0
 159              	.LVL10:
 160              		.loc 1 128 0
 161 0014 FFF7FEFF 		bl	dbg_check_unlock
 162              	.LVL11:
 163              	@ 128 "../../../os/kernel/src/chmempools.c" 1
 164 0018 FFF7FEFF 		bl      _port_unlock
 165              	@ 0 "" 2
 166              		.loc 1 130 0
 167              		.thumb
 168 001c 2046     		mov	r0, r4
 169 001e 10BD     		pop	{r4, pc}
 170              		.cfi_endproc
 171              	.LFE3:
ARM GAS  /tmp/cc7wzMYA.s 			page 4


 172              		.size	chPoolAlloc, .-chPoolAlloc
 173              		.section	.text.chPoolFreeI,"ax",%progbits
 174              		.align	2
 175              		.p2align 4,,15
 176              		.global	chPoolFreeI
 177              		.thumb
 178              		.thumb_func
 179              		.type	chPoolFreeI, %function
 180              	chPoolFreeI:
 181              	.LFB4:
 182              		.loc 1 144 0
 183              		.cfi_startproc
 184              		@ args = 0, pretend = 0, frame = 0
 185              		@ frame_needed = 0, uses_anonymous_args = 0
 186              	.LVL12:
 187 0000 38B5     		push	{r3, r4, r5, lr}
 188              	.LCFI3:
 189              		.cfi_def_cfa_offset 16
 190              		.cfi_offset 14, -4
 191              		.cfi_offset 5, -8
 192              		.cfi_offset 4, -12
 193              		.cfi_offset 3, -16
 194              		.loc 1 144 0
 195 0002 0446     		mov	r4, r0
 196 0004 0D46     		mov	r5, r1
 197              	.LVL13:
 198              		.loc 1 147 0
 199 0006 FFF7FEFF 		bl	chDbgCheckClassI
 200              	.LVL14:
 201              		.loc 1 148 0
 202 000a D4F10103 		rsbs	r3, r4, #1
 203 000e 38BF     		it	cc
 204 0010 0023     		movcc	r3, #0
 205 0012 002D     		cmp	r5, #0
 206 0014 08BF     		it	eq
 207 0016 43F00103 		orreq	r3, r3, #1
 208 001a 2BB1     		cbz	r3, .L11
 209              		.loc 1 148 0 is_stmt 0 discriminator 1
 210 001c 40F20000 		movw	r0, #:lower16:.LC2
 211 0020 C0F20000 		movt	r0, #:upper16:.LC2
 212 0024 FFF7FEFF 		bl	chDbgPanic
 213              	.L11:
 214              		.loc 1 150 0 is_stmt 1
 215 0028 2068     		ldr	r0, [r4, #0]
 216 002a 2860     		str	r0, [r5, #0]
 217              		.loc 1 151 0
 218 002c 2560     		str	r5, [r4, #0]
 219              		.loc 1 152 0
 220 002e 38BD     		pop	{r3, r4, r5, pc}
 221              		.cfi_endproc
 222              	.LFE4:
 223              		.size	chPoolFreeI, .-chPoolFreeI
 224              		.section	.text.chPoolFree,"ax",%progbits
 225              		.align	2
 226              		.p2align 4,,15
 227              		.global	chPoolFree
 228              		.thumb
ARM GAS  /tmp/cc7wzMYA.s 			page 5


 229              		.thumb_func
 230              		.type	chPoolFree, %function
 231              	chPoolFree:
 232              	.LFB5:
 233              		.loc 1 166 0
 234              		.cfi_startproc
 235              		@ args = 0, pretend = 0, frame = 0
 236              		@ frame_needed = 0, uses_anonymous_args = 0
 237              	.LVL15:
 238 0000 38B5     		push	{r3, r4, r5, lr}
 239              	.LCFI4:
 240              		.cfi_def_cfa_offset 16
 241              		.cfi_offset 14, -4
 242              		.cfi_offset 5, -8
 243              		.cfi_offset 4, -12
 244              		.cfi_offset 3, -16
 245              		.loc 1 166 0
 246 0002 0546     		mov	r5, r0
 247 0004 0C46     		mov	r4, r1
 248              		.loc 1 168 0
 249              	@ 168 "../../../os/kernel/src/chmempools.c" 1
 250 0006 FFF7FEFF 		bl      _port_lock
 251              	@ 0 "" 2
 252              		.thumb
 253 000a FFF7FEFF 		bl	dbg_check_lock
 254              	.LVL16:
 255              		.loc 1 169 0
 256 000e 2846     		mov	r0, r5
 257 0010 2146     		mov	r1, r4
 258 0012 FFF7FEFF 		bl	chPoolFreeI
 259              		.loc 1 170 0
 260 0016 FFF7FEFF 		bl	dbg_check_unlock
 261              	@ 170 "../../../os/kernel/src/chmempools.c" 1
 262 001a FFF7FEFF 		bl      _port_unlock
 263              	@ 0 "" 2
 264              		.loc 1 171 0
 265              		.thumb
 266 001e 38BD     		pop	{r3, r4, r5, pc}
 267              		.cfi_endproc
 268              	.LFE5:
 269              		.size	chPoolFree, .-chPoolFree
 270              		.section	.text.chPoolLoadArray,"ax",%progbits
 271              		.align	2
 272              		.p2align 4,,15
 273              		.global	chPoolLoadArray
 274              		.thumb
 275              		.thumb_func
 276              		.type	chPoolLoadArray, %function
 277              	chPoolLoadArray:
 278              	.LFB1:
 279              		.loc 1 79 0
 280              		.cfi_startproc
 281              		@ args = 0, pretend = 0, frame = 0
 282              		@ frame_needed = 0, uses_anonymous_args = 0
 283              	.LVL17:
 284 0000 F8B5     		push	{r3, r4, r5, r6, r7, lr}
 285              	.LCFI5:
ARM GAS  /tmp/cc7wzMYA.s 			page 6


 286              		.cfi_def_cfa_offset 24
 287              		.cfi_offset 14, -4
 288              		.cfi_offset 7, -8
 289              		.cfi_offset 6, -12
 290              		.cfi_offset 5, -16
 291              		.cfi_offset 4, -20
 292              		.cfi_offset 3, -24
 293              		.loc 1 81 0
 294 0002 D0F10103 		rsbs	r3, r0, #1
 295 0006 38BF     		it	cc
 296 0008 0023     		movcc	r3, #0
 297 000a 002A     		cmp	r2, #0
 298 000c 08BF     		it	eq
 299 000e 43F00103 		orreq	r3, r3, #1
 300 0012 0446     		mov	r4, r0
 301 0014 1646     		mov	r6, r2
 302              		.loc 1 79 0
 303 0016 0D46     		mov	r5, r1
 304              		.loc 1 81 0
 305 0018 1BBB     		cbnz	r3, .L25
 306              	.LVL18:
 307              	.L23:
 308              		.loc 1 84 0
 309 001a 2046     		mov	r0, r4
 310 001c 2946     		mov	r1, r5
 311 001e 771E     		subs	r7, r6, #1
 312 0020 FFF7FEFF 		bl	chPoolFree
 313              		.loc 1 85 0
 314 0024 6068     		ldr	r0, [r4, #4]
 315              		.loc 1 83 0
 316 0026 3E46     		mov	r6, r7
 317              	.LVL19:
 318              		.loc 1 85 0
 319 0028 2D18     		adds	r5, r5, r0
 320              	.LVL20:
 321 002a 07F00107 		and	r7, r7, #1
 322              	.LVL21:
 323              		.loc 1 83 0
 324 002e 0EB3     		cbz	r6, .L26
 325 0030 3FB1     		cbz	r7, .L17
 326              		.loc 1 84 0
 327 0032 2946     		mov	r1, r5
 328 0034 2046     		mov	r0, r4
 329 0036 FFF7FEFF 		bl	chPoolFree
 330              		.loc 1 85 0
 331 003a 6368     		ldr	r3, [r4, #4]
 332              		.loc 1 83 0
 333 003c 013E     		subs	r6, r6, #1
 334              	.LVL22:
 335              		.loc 1 85 0
 336 003e 1D44     		add	r5, r5, r3
 337              	.LVL23:
 338              		.loc 1 83 0
 339 0040 19D0     		beq	.L27
 340              	.L17:
 341              		.loc 1 84 0
 342 0042 2946     		mov	r1, r5
ARM GAS  /tmp/cc7wzMYA.s 			page 7


 343 0044 2046     		mov	r0, r4
 344 0046 FFF7FEFF 		bl	chPoolFree
 345              		.loc 1 85 0
 346 004a 6268     		ldr	r2, [r4, #4]
 347 004c AD18     		adds	r5, r5, r2
 348              		.loc 1 84 0
 349 004e 2946     		mov	r1, r5
 350 0050 2046     		mov	r0, r4
 351 0052 FFF7FEFF 		bl	chPoolFree
 352              		.loc 1 86 0
 353 0056 013E     		subs	r6, r6, #1
 354              		.loc 1 85 0
 355 0058 6168     		ldr	r1, [r4, #4]
 356              		.loc 1 83 0
 357 005a 013E     		subs	r6, r6, #1
 358              		.loc 1 85 0
 359 005c 0D44     		add	r5, r5, r1
 360              		.loc 1 83 0
 361 005e F0D1     		bne	.L17
 362              	.L13:
 363 0060 F8BD     		pop	{r3, r4, r5, r6, r7, pc}
 364              	.LVL24:
 365              	.L25:
 366              		.loc 1 81 0 discriminator 1
 367 0062 40F20000 		movw	r0, #:lower16:.LC3
 368 0066 C0F20000 		movt	r0, #:upper16:.LC3
 369 006a FFF7FEFF 		bl	chDbgPanic
 370              	.LVL25:
 371              		.loc 1 83 0 discriminator 1
 372 006e 002E     		cmp	r6, #0
 373 0070 D3D1     		bne	.L23
 374 0072 F5E7     		b	.L13
 375              	.LVL26:
 376              	.L26:
 377 0074 F8BD     		pop	{r3, r4, r5, r6, r7, pc}
 378              	.LVL27:
 379              	.L27:
 380 0076 F8BD     		pop	{r3, r4, r5, r6, r7, pc}
 381              		.cfi_endproc
 382              	.LFE1:
 383              		.size	chPoolLoadArray, .-chPoolLoadArray
 384 0078 AFF30080 		.section	.rodata.str1.4,"aMS",%progbits,1
 384      AFF30080 
 385              		.align	2
 386              	.LC0:
 387 0000 22636850 		.ascii	"\"chPoolInit\"()\000"
 387      6F6F6C49 
 387      6E697422 
 387      282900
 388 000f 00       		.space	1
 389              	.LC1:
 390 0010 22636850 		.ascii	"\"chPoolAllocI\"()\000"
 390      6F6F6C41 
 390      6C6C6F63 
 390      49222829 
 390      00
 391 0021 000000   		.space	3
ARM GAS  /tmp/cc7wzMYA.s 			page 8


 392              	.LC2:
 393 0024 22636850 		.ascii	"\"chPoolFreeI\"()\000"
 393      6F6F6C46 
 393      72656549 
 393      22282900 
 394              	.LC3:
 395 0034 22636850 		.ascii	"\"chPoolLoadArray\"()\000"
 395      6F6F6C4C 
 395      6F616441 
 395      72726179 
 395      22282900 
 396              		.text
 397              	.Letext0:
 398              		.file 2 "/home/prana/CodeSourcery/ARM_EABI/bin/../lib/gcc/arm-none-eabi/4.6.3/include/stddef.h"
 399              		.file 3 "/home/prana/CodeSourcery/ARM_EABI/bin/../lib/gcc/arm-none-eabi/4.6.3/../../../../arm-none
 400              		.file 4 "../../../os/kernel/include/chmemcore.h"
 401              		.file 5 "../../../os/kernel/include/chmempools.h"