ARM GAS  /tmp/ccBaZ36z.s 			page 1


   1              		.syntax unified
   2              		.cpu cortex-m4
   3              		.fpu softvfp
   4              		.eabi_attribute 20, 1
   5              		.eabi_attribute 21, 1
   6              		.eabi_attribute 23, 3
   7              		.eabi_attribute 24, 1
   8              		.eabi_attribute 25, 1
   9              		.eabi_attribute 26, 1
  10              		.eabi_attribute 30, 2
  11              		.eabi_attribute 34, 1
  12              		.eabi_attribute 18, 4
  13              		.thumb
  14              		.file	"chmemcore.c"
  15              		.text
  16              	.Ltext0:
  17              		.cfi_sections	.debug_frame
  18              		.section	.text._core_init,"ax",%progbits
  19              		.align	2
  20              		.p2align 4,,15
  21              		.global	_core_init
  22              		.thumb
  23              		.thumb_func
  24              		.type	_core_init, %function
  25              	_core_init:
  26              	.LFB0:
  27              		.file 1 "../../../os/kernel/src/chmemcore.c"
  28              		.loc 1 59 0
  29              		.cfi_startproc
  30              		@ args = 0, pretend = 0, frame = 0
  31              		@ frame_needed = 0, uses_anonymous_args = 0
  32              		@ link register save eliminated.
  33              		.loc 1 63 0
  34 0000 0949     		ldr	r1, .L2
  35 0002 40F20002 		movw	r2, #:lower16:.LANCHOR0
  36              		.loc 1 64 0
  37 0006 40F20003 		movw	r3, #:lower16:.LANCHOR1
  38 000a 40F2000C 		movw	ip, #:lower16:__heap_end__
  39              		.loc 1 63 0
  40 000e C0F20002 		movt	r2, #:upper16:.LANCHOR0
  41              		.loc 1 64 0
  42 0012 C0F20003 		movt	r3, #:upper16:.LANCHOR1
  43 0016 C0F2000C 		movt	ip, #:upper16:__heap_end__
  44              		.loc 1 63 0
  45 001a 21F00700 		bic	r0, r1, #7
  46              		.loc 1 64 0
  47 001e 2CF00701 		bic	r1, ip, #7
  48              		.loc 1 63 0
  49 0022 1060     		str	r0, [r2, #0]
  50              		.loc 1 64 0
  51 0024 1960     		str	r1, [r3, #0]
  52              		.loc 1 70 0
  53 0026 7047     		bx	lr
  54              	.L3:
  55              		.align	2
  56              	.L2:
  57 0028 07000000 		.word	__heap_base__+7
ARM GAS  /tmp/ccBaZ36z.s 			page 2


  58              		.cfi_endproc
  59              	.LFE0:
  60              		.size	_core_init, .-_core_init
  61 002c AFF30080 		.section	.text.chCoreAllocI,"ax",%progbits
  62              		.align	2
  63              		.p2align 4,,15
  64              		.global	chCoreAllocI
  65              		.thumb
  66              		.thumb_func
  67              		.type	chCoreAllocI, %function
  68              	chCoreAllocI:
  69              	.LFB2:
  70              		.loc 1 105 0
  71              		.cfi_startproc
  72              		@ args = 0, pretend = 0, frame = 0
  73              		@ frame_needed = 0, uses_anonymous_args = 0
  74              	.LVL0:
  75 0000 10B5     		push	{r4, lr}
  76              	.LCFI0:
  77              		.cfi_def_cfa_offset 8
  78              		.cfi_offset 14, -4
  79              		.cfi_offset 4, -8
  80              		.loc 1 105 0
  81 0002 0446     		mov	r4, r0
  82              		.loc 1 108 0
  83 0004 FFF7FEFF 		bl	chDbgCheckClassI
  84              	.LVL1:
  85              		.loc 1 111 0
  86 0008 40F20003 		movw	r3, #:lower16:.LANCHOR0
  87 000c 40F2000C 		movw	ip, #:lower16:.LANCHOR1
  88 0010 C0F20003 		movt	r3, #:upper16:.LANCHOR0
  89 0014 C0F2000C 		movt	ip, #:upper16:.LANCHOR1
  90 0018 1A68     		ldr	r2, [r3, #0]
  91 001a DCF80010 		ldr	r1, [ip, #0]
  92              		.loc 1 110 0
  93 001e E01D     		adds	r0, r4, #7
  94 0020 20F00700 		bic	r0, r0, #7
  95              	.LVL2:
  96              		.loc 1 111 0
  97 0024 891A     		subs	r1, r1, r2
  98 0026 8842     		cmp	r0, r1
  99              	.LVL3:
 100              		.loc 1 114 0
 101 0028 9ABF     		itte	ls
 102 002a 1018     		addls	r0, r2, r0
 103              	.LVL4:
 104 002c 1860     		strls	r0, [r3, #0]
 105              		.loc 1 112 0
 106 002e 0022     		movhi	r2, #0
 107              		.loc 1 116 0
 108 0030 1046     		mov	r0, r2
 109 0032 10BD     		pop	{r4, pc}
 110              		.cfi_endproc
 111              	.LFE2:
 112              		.size	chCoreAllocI, .-chCoreAllocI
 113 0034 AFF30080 		.section	.text.chCoreAlloc,"ax",%progbits
 113      AFF30080 
ARM GAS  /tmp/ccBaZ36z.s 			page 3


 113      AFF30080 
 114              		.align	2
 115              		.p2align 4,,15
 116              		.global	chCoreAlloc
 117              		.thumb
 118              		.thumb_func
 119              		.type	chCoreAlloc, %function
 120              	chCoreAlloc:
 121              	.LFB1:
 122              		.loc 1 84 0
 123              		.cfi_startproc
 124              		@ args = 0, pretend = 0, frame = 0
 125              		@ frame_needed = 0, uses_anonymous_args = 0
 126              	.LVL5:
 127 0000 10B5     		push	{r4, lr}
 128              	.LCFI1:
 129              		.cfi_def_cfa_offset 8
 130              		.cfi_offset 14, -4
 131              		.cfi_offset 4, -8
 132              		.loc 1 84 0
 133 0002 0446     		mov	r4, r0
 134              		.loc 1 87 0
 135              	@ 87 "../../../os/kernel/src/chmemcore.c" 1
 136 0004 FFF7FEFF 		bl      _port_lock
 137              	@ 0 "" 2
 138              		.thumb
 139 0008 FFF7FEFF 		bl	dbg_check_lock
 140              	.LVL6:
 141              		.loc 1 88 0
 142 000c 2046     		mov	r0, r4
 143 000e FFF7FEFF 		bl	chCoreAllocI
 144 0012 0446     		mov	r4, r0
 145              	.LVL7:
 146              		.loc 1 89 0
 147 0014 FFF7FEFF 		bl	dbg_check_unlock
 148              	.LVL8:
 149              	@ 89 "../../../os/kernel/src/chmemcore.c" 1
 150 0018 FFF7FEFF 		bl      _port_unlock
 151              	@ 0 "" 2
 152              		.loc 1 91 0
 153              		.thumb
 154 001c 2046     		mov	r0, r4
 155 001e 10BD     		pop	{r4, pc}
 156              		.cfi_endproc
 157              	.LFE1:
 158              		.size	chCoreAlloc, .-chCoreAlloc
 159              		.section	.text.chCoreStatus,"ax",%progbits
 160              		.align	2
 161              		.p2align 4,,15
 162              		.global	chCoreStatus
 163              		.thumb
 164              		.thumb_func
 165              		.type	chCoreStatus, %function
 166              	chCoreStatus:
 167              	.LFB3:
 168              		.loc 1 125 0
 169              		.cfi_startproc
ARM GAS  /tmp/ccBaZ36z.s 			page 4


 170              		@ args = 0, pretend = 0, frame = 0
 171              		@ frame_needed = 0, uses_anonymous_args = 0
 172              		@ link register save eliminated.
 173              		.loc 1 127 0
 174 0000 40F20002 		movw	r2, #:lower16:.LANCHOR1
 175 0004 40F20001 		movw	r1, #:lower16:.LANCHOR0
 176 0008 C0F20002 		movt	r2, #:upper16:.LANCHOR1
 177 000c C0F20001 		movt	r1, #:upper16:.LANCHOR0
 178 0010 1068     		ldr	r0, [r2, #0]
 179 0012 0B68     		ldr	r3, [r1, #0]
 180              		.loc 1 128 0
 181 0014 C01A     		subs	r0, r0, r3
 182 0016 7047     		bx	lr
 183              		.cfi_endproc
 184              	.LFE3:
 185              		.size	chCoreStatus, .-chCoreStatus
 186 0018 AFF30080 		.section	.bss.endmem,"aw",%nobits
 186      AFF30080 
 187              		.align	2
 188              		.set	.LANCHOR1,. + 0
 189              		.type	endmem, %object
 190              		.size	endmem, 4
 191              	endmem:
 192 0000 00000000 		.space	4
 193              		.section	.bss.nextmem,"aw",%nobits
 194              		.align	2
 195              		.set	.LANCHOR0,. + 0
 196              		.type	nextmem, %object
 197              		.size	nextmem, 4
 198              	nextmem:
 199 0000 00000000 		.space	4
 200              		.text
 201              	.Letext0:
 202              		.file 2 "/home/prana/CodeSourcery/ARM_EABI/bin/../lib/gcc/arm-none-eabi/4.6.3/include/stddef.h"
 203              		.file 3 "/home/prana/CodeSourcery/ARM_EABI/bin/../lib/gcc/arm-none-eabi/4.6.3/../../../../arm-none