ARM GAS  /tmp/ccsznUXB.s 			page 1


   1              		.syntax unified
   2              		.cpu cortex-m4
   3              		.fpu softvfp
   4              		.eabi_attribute 20, 1
   5              		.eabi_attribute 21, 1
   6              		.eabi_attribute 23, 3
   7              		.eabi_attribute 24, 1
   8              		.eabi_attribute 25, 1
   9              		.eabi_attribute 26, 1
  10              		.eabi_attribute 30, 2
  11              		.eabi_attribute 34, 1
  12              		.eabi_attribute 18, 4
  13              		.thumb
  14              		.file	"chmsg.c"
  15              		.text
  16              	.Ltext0:
  17              		.cfi_sections	.debug_frame
  18              		.section	.text.chMsgSend,"ax",%progbits
  19              		.align	2
  20              		.p2align 4,,15
  21              		.global	chMsgSend
  22              		.thumb
  23              		.thumb_func
  24              		.type	chMsgSend, %function
  25              	chMsgSend:
  26              	.LFB0:
  27              		.file 1 "../../../os/kernel/src/chmsg.c"
  28              		.loc 1 68 0
  29              		.cfi_startproc
  30              		@ args = 0, pretend = 0, frame = 0
  31              		@ frame_needed = 0, uses_anonymous_args = 0
  32              	.LVL0:
  33              		.loc 1 69 0
  34 0000 40F20003 		movw	r3, #:lower16:rlist
  35 0004 C0F20003 		movt	r3, #:upper16:rlist
  36              		.loc 1 68 0
  37 0008 70B5     		push	{r4, r5, r6, lr}
  38              	.LCFI0:
  39              		.cfi_def_cfa_offset 16
  40              		.cfi_offset 14, -4
  41              		.cfi_offset 6, -8
  42              		.cfi_offset 5, -12
  43              		.cfi_offset 4, -16
  44              		.loc 1 71 0
  45 000a 0546     		mov	r5, r0
  46              		.loc 1 68 0
  47 000c 0E46     		mov	r6, r1
  48              		.loc 1 69 0
  49 000e 9C69     		ldr	r4, [r3, #24]
  50              	.LVL1:
  51              		.loc 1 71 0
  52 0010 E0B1     		cbz	r0, .L5
  53              	.LVL2:
  54              	.L2:
  55              		.loc 1 73 0
  56              	@ 73 "../../../os/kernel/src/chmsg.c" 1
  57 0012 FFF7FEFF 		bl      _port_lock
ARM GAS  /tmp/ccsznUXB.s 			page 2


  58              	@ 0 "" 2
  59              		.thumb
  60 0016 FFF7FEFF 		bl	dbg_check_lock
  61              		.loc 1 75 0
  62 001a 05F13001 		add	r1, r5, #48
  63              		.loc 1 76 0
  64 001e 2046     		mov	r0, r4
  65              		.loc 1 74 0
  66 0020 A663     		str	r6, [r4, #56]
  67              		.loc 1 75 0
  68 0022 A162     		str	r1, [r4, #40]
  69              		.loc 1 76 0
  70 0024 FFF7FEFF 		bl	queue_insert
  71              		.loc 1 77 0
  72 0028 95F82000 		ldrb	r0, [r5, #32]	@ zero_extendqisi2
  73 002c 0C28     		cmp	r0, #12
  74 002e 09D0     		beq	.L6
  75              	.L3:
  76              		.loc 1 79 0
  77 0030 0A20     		movs	r0, #10
  78 0032 FFF7FEFF 		bl	chSchGoSleepS
  79              		.loc 1 80 0
  80 0036 A46A     		ldr	r4, [r4, #40]
  81              	.LVL3:
  82              		.loc 1 81 0
  83 0038 FFF7FEFF 		bl	dbg_check_unlock
  84              	@ 81 "../../../os/kernel/src/chmsg.c" 1
  85 003c FFF7FEFF 		bl      _port_unlock
  86              	@ 0 "" 2
  87              		.loc 1 83 0
  88              		.thumb
  89 0040 2046     		mov	r0, r4
  90 0042 70BD     		pop	{r4, r5, r6, pc}
  91              	.LVL4:
  92              	.L6:
  93              		.loc 1 78 0
  94 0044 2846     		mov	r0, r5
  95 0046 FFF7FEFF 		bl	chSchReadyI
  96 004a F1E7     		b	.L3
  97              	.L5:
  98              		.loc 1 71 0 discriminator 1
  99 004c 40F20000 		movw	r0, #:lower16:.LC0
 100 0050 C0F20000 		movt	r0, #:upper16:.LC0
 101 0054 FFF7FEFF 		bl	chDbgPanic
 102 0058 DBE7     		b	.L2
 103              		.cfi_endproc
 104              	.LFE0:
 105              		.size	chMsgSend, .-chMsgSend
 106 005a 00BFAFF3 		.section	.text.chMsgWait,"ax",%progbits
 106      0080
 107              		.align	2
 108              		.p2align 4,,15
 109              		.global	chMsgWait
 110              		.thumb
 111              		.thumb_func
 112              		.type	chMsgWait, %function
 113              	chMsgWait:
ARM GAS  /tmp/ccsznUXB.s 			page 3


 114              	.LFB1:
 115              		.loc 1 99 0
 116              		.cfi_startproc
 117              		@ args = 0, pretend = 0, frame = 0
 118              		@ frame_needed = 0, uses_anonymous_args = 0
 119 0000 10B5     		push	{r4, lr}
 120              	.LCFI1:
 121              		.cfi_def_cfa_offset 8
 122              		.cfi_offset 14, -4
 123              		.cfi_offset 4, -8
 124              		.loc 1 102 0
 125              	@ 102 "../../../os/kernel/src/chmsg.c" 1
 126 0002 FFF7FEFF 		bl      _port_lock
 127              	@ 0 "" 2
 128              		.loc 1 103 0
 129              		.thumb
 130 0006 40F20004 		movw	r4, #:lower16:rlist
 131 000a C0F20004 		movt	r4, #:upper16:rlist
 132              		.loc 1 102 0
 133 000e FFF7FEFF 		bl	dbg_check_lock
 134              		.loc 1 103 0
 135 0012 A069     		ldr	r0, [r4, #24]
 136 0014 036B     		ldr	r3, [r0, #48]
 137 0016 3030     		adds	r0, r0, #48
 138 0018 8342     		cmp	r3, r0
 139 001a 0BD0     		beq	.L9
 140              	.L8:
 141              		.loc 1 105 0
 142 001c FFF7FEFF 		bl	fifo_remove
 143              		.loc 1 106 0
 144 0020 0B21     		movs	r1, #11
 145 0022 80F82010 		strb	r1, [r0, #32]
 146              		.loc 1 105 0
 147 0026 0446     		mov	r4, r0
 148              	.LVL5:
 149              		.loc 1 107 0
 150 0028 FFF7FEFF 		bl	dbg_check_unlock
 151              	.LVL6:
 152              	@ 107 "../../../os/kernel/src/chmsg.c" 1
 153 002c FFF7FEFF 		bl      _port_unlock
 154              	@ 0 "" 2
 155              		.loc 1 109 0
 156              		.thumb
 157 0030 2046     		mov	r0, r4
 158 0032 10BD     		pop	{r4, pc}
 159              	.LVL7:
 160              	.L9:
 161              		.loc 1 104 0
 162 0034 0C20     		movs	r0, #12
 163 0036 FFF7FEFF 		bl	chSchGoSleepS
 164 003a A069     		ldr	r0, [r4, #24]
 165 003c 3030     		adds	r0, r0, #48
 166 003e EDE7     		b	.L8
 167              		.cfi_endproc
 168              	.LFE1:
 169              		.size	chMsgWait, .-chMsgWait
 170              		.section	.text.chMsgRelease,"ax",%progbits
ARM GAS  /tmp/ccsznUXB.s 			page 4


 171              		.align	2
 172              		.p2align 4,,15
 173              		.global	chMsgRelease
 174              		.thumb
 175              		.thumb_func
 176              		.type	chMsgRelease, %function
 177              	chMsgRelease:
 178              	.LFB2:
 179              		.loc 1 121 0
 180              		.cfi_startproc
 181              		@ args = 0, pretend = 0, frame = 0
 182              		@ frame_needed = 0, uses_anonymous_args = 0
 183              	.LVL8:
 184 0000 38B5     		push	{r3, r4, r5, lr}
 185              	.LCFI2:
 186              		.cfi_def_cfa_offset 16
 187              		.cfi_offset 14, -4
 188              		.cfi_offset 5, -8
 189              		.cfi_offset 4, -12
 190              		.cfi_offset 3, -16
 191              		.loc 1 121 0
 192 0002 0446     		mov	r4, r0
 193 0004 0D46     		mov	r5, r1
 194              		.loc 1 123 0
 195              	@ 123 "../../../os/kernel/src/chmsg.c" 1
 196 0006 FFF7FEFF 		bl      _port_lock
 197              	@ 0 "" 2
 198              		.thumb
 199 000a FFF7FEFF 		bl	dbg_check_lock
 200              	.LVL9:
 201              		.loc 1 124 0
 202 000e 94F82030 		ldrb	r3, [r4, #32]	@ zero_extendqisi2
 203 0012 0B2B     		cmp	r3, #11
 204 0014 05D0     		beq	.L11
 205              		.loc 1 124 0 is_stmt 0 discriminator 1
 206 0016 40F20000 		movw	r0, #:lower16:.LC1
 207 001a C0F20000 		movt	r0, #:upper16:.LC1
 208 001e FFF7FEFF 		bl	chDbgPanic
 209              	.L11:
 210              		.loc 1 126 0 is_stmt 1
 211 0022 2046     		mov	r0, r4
 212 0024 2946     		mov	r1, r5
 213 0026 FFF7FEFF 		bl	chSchWakeupS
 214              		.loc 1 127 0
 215 002a FFF7FEFF 		bl	dbg_check_unlock
 216              	@ 127 "../../../os/kernel/src/chmsg.c" 1
 217 002e FFF7FEFF 		bl      _port_unlock
 218              	@ 0 "" 2
 219              		.loc 1 128 0
 220              		.thumb
 221 0032 38BD     		pop	{r3, r4, r5, pc}
 222              		.cfi_endproc
 223              	.LFE2:
 224              		.size	chMsgRelease, .-chMsgRelease
 225 0034 AFF30080 		.section	.rodata.str1.4,"aMS",%progbits,1
 225      AFF30080 
 225      AFF30080 
ARM GAS  /tmp/ccsznUXB.s 			page 5


 226              		.align	2
 227              	.LC0:
 228 0000 2263684D 		.ascii	"\"chMsgSend\"()\000"
 228      73675365 
 228      6E642228 
 228      2900
 229 000e 0000     		.space	2
 230              	.LC1:
 231 0010 63684D73 		.ascii	"chMsgRelease(), #1\000"
 231      6752656C 
 231      65617365 
 231      28292C20 
 231      233100
 232 0023 00       		.text
 233              	.Letext0:
 234              		.file 2 "/home/prana/CodeSourcery/ARM_EABI/bin/../lib/gcc/arm-none-eabi/4.6.3/../../../../arm-none
 235              		.file 3 "../../../os/ports/GCC/ARMCMx/chtypes.h"
 236              		.file 4 "../../../os/kernel/include/chlists.h"
 237              		.file 5 "../../../os/kernel/include/chthreads.h"
 238              		.file 6 "../../../os/ports/GCC/ARMCMx/chcore_v7m.h"
 239              		.file 7 "../../../os/kernel/include/chschd.h"
 240              		.file 8 "../../../os/kernel/include/chmtx.h"