ARM GAS  /tmp/ccI3GbdC.s 			page 1


   1              		.syntax unified
   2              		.cpu cortex-m4
   3              		.fpu softvfp
   4              		.eabi_attribute 20, 1
   5              		.eabi_attribute 21, 1
   6              		.eabi_attribute 23, 3
   7              		.eabi_attribute 24, 1
   8              		.eabi_attribute 25, 1
   9              		.eabi_attribute 26, 1
  10              		.eabi_attribute 30, 2
  11              		.eabi_attribute 34, 1
  12              		.eabi_attribute 18, 4
  13              		.thumb
  14              		.file	"chmtx.c"
  15              		.text
  16              	.Ltext0:
  17              		.cfi_sections	.debug_frame
  18              		.section	.text.chMtxInit,"ax",%progbits
  19              		.align	2
  20              		.p2align 4,,15
  21              		.global	chMtxInit
  22              		.thumb
  23              		.thumb_func
  24              		.type	chMtxInit, %function
  25              	chMtxInit:
  26              	.LFB0:
  27              		.file 1 "../../../os/kernel/src/chmtx.c"
  28              		.loc 1 79 0
  29              		.cfi_startproc
  30              		@ args = 0, pretend = 0, frame = 0
  31              		@ frame_needed = 0, uses_anonymous_args = 0
  32              	.LVL0:
  33 0000 10B5     		push	{r4, lr}
  34              	.LCFI0:
  35              		.cfi_def_cfa_offset 8
  36              		.cfi_offset 14, -4
  37              		.cfi_offset 4, -8
  38              		.loc 1 81 0
  39 0002 0446     		mov	r4, r0
  40 0004 20B1     		cbz	r0, .L4
  41              		.loc 1 84 0
  42 0006 0023     		movs	r3, #0
  43              		.loc 1 83 0
  44 0008 6460     		str	r4, [r4, #4]
  45 000a 2460     		str	r4, [r4, #0]
  46              		.loc 1 84 0
  47 000c A360     		str	r3, [r4, #8]
  48              		.loc 1 85 0
  49 000e 10BD     		pop	{r4, pc}
  50              	.L4:
  51              		.loc 1 81 0 discriminator 1
  52 0010 40F20000 		movw	r0, #:lower16:.LC0
  53              	.LVL1:
  54 0014 C0F20000 		movt	r0, #:upper16:.LC0
  55 0018 FFF7FEFF 		bl	chDbgPanic
  56              		.loc 1 84 0 discriminator 1
  57 001c 0023     		movs	r3, #0
ARM GAS  /tmp/ccI3GbdC.s 			page 2


  58              		.loc 1 83 0 discriminator 1
  59 001e 6460     		str	r4, [r4, #4]
  60 0020 2460     		str	r4, [r4, #0]
  61              		.loc 1 84 0 discriminator 1
  62 0022 A360     		str	r3, [r4, #8]
  63              		.loc 1 85 0 discriminator 1
  64 0024 10BD     		pop	{r4, pc}
  65              		.cfi_endproc
  66              	.LFE0:
  67              		.size	chMtxInit, .-chMtxInit
  68 0026 00BFAFF3 		.section	.text.chMtxLockS,"ax",%progbits
  68      0080AFF3 
  68      0080
  69              		.align	2
  70              		.p2align 4,,15
  71              		.global	chMtxLockS
  72              		.thumb
  73              		.thumb_func
  74              		.type	chMtxLockS, %function
  75              	chMtxLockS:
  76              	.LFB2:
  77              		.loc 1 114 0
  78              		.cfi_startproc
  79              		@ args = 0, pretend = 0, frame = 0
  80              		@ frame_needed = 0, uses_anonymous_args = 0
  81              	.LVL2:
  82              		.loc 1 115 0
  83 0000 40F20003 		movw	r3, #:lower16:rlist
  84 0004 C0F20003 		movt	r3, #:upper16:rlist
  85              		.loc 1 114 0
  86 0008 70B5     		push	{r4, r5, r6, lr}
  87              	.LCFI1:
  88              		.cfi_def_cfa_offset 16
  89              		.cfi_offset 14, -4
  90              		.cfi_offset 6, -8
  91              		.cfi_offset 5, -12
  92              		.cfi_offset 4, -16
  93              		.loc 1 114 0
  94 000a 0546     		mov	r5, r0
  95              		.loc 1 115 0
  96 000c 9E69     		ldr	r6, [r3, #24]
  97              	.LVL3:
  98              		.loc 1 117 0
  99 000e FFF7FEFF 		bl	chDbgCheckClassS
 100              	.LVL4:
 101              		.loc 1 118 0
 102 0012 002D     		cmp	r5, #0
 103 0014 43D0     		beq	.L16
 104              	.L6:
 105              		.loc 1 121 0
 106 0016 AC68     		ldr	r4, [r5, #8]
 107 0018 002C     		cmp	r4, #0
 108 001a 3BD0     		beq	.L7
 109              	.LVL5:
 110              	.LBB2:
 111              		.loc 1 128 0 discriminator 1
 112 001c B368     		ldr	r3, [r6, #8]
ARM GAS  /tmp/ccI3GbdC.s 			page 3


 113 001e A268     		ldr	r2, [r4, #8]
 114 0020 9342     		cmp	r3, r2
 115 0022 0CD9     		bls	.L8
 116              	.LVL6:
 117              	.L14:
 118              		.loc 1 132 0
 119 0024 94F82020 		ldrb	r2, [r4, #32]	@ zero_extendqisi2
 120              		.loc 1 130 0
 121 0028 A360     		str	r3, [r4, #8]
 122              		.loc 1 132 0
 123 002a 002A     		cmp	r2, #0
 124 002c 23D1     		bne	.L17
 125              		.loc 1 157 0
 126 002e 0123     		movs	r3, #1
 127 0030 84F82030 		strb	r3, [r4, #32]
 128              		.loc 1 160 0
 129 0034 2046     		mov	r0, r4
 130 0036 FFF7FEFF 		bl	dequeue
 131 003a FFF7FEFF 		bl	chSchReadyI
 132              	.L8:
 133              		.loc 1 166 0
 134 003e 3046     		mov	r0, r6
 135 0040 2946     		mov	r1, r5
 136 0042 FFF7FEFF 		bl	prio_insert
 137              		.loc 1 168 0
 138 0046 0420     		movs	r0, #4
 139              		.loc 1 167 0
 140 0048 B562     		str	r5, [r6, #40]
 141              		.loc 1 168 0
 142 004a FFF7FEFF 		bl	chSchGoSleepS
 143              		.loc 1 171 0
 144 004e AA68     		ldr	r2, [r5, #8]
 145 0050 B242     		cmp	r2, r6
 146 0052 05D0     		beq	.L12
 147              		.loc 1 171 0 is_stmt 0 discriminator 1
 148 0054 40F20000 		movw	r0, #:lower16:.LC2
 149 0058 C0F20000 		movt	r0, #:upper16:.LC2
 150 005c FFF7FEFF 		bl	chDbgPanic
 151              	.L12:
 152              		.loc 1 172 0 is_stmt 1
 153 0060 306C     		ldr	r0, [r6, #64]
 154 0062 A842     		cmp	r0, r5
 155 0064 1AD0     		beq	.L5
 156              		.loc 1 172 0 is_stmt 0 discriminator 1
 157 0066 40F20000 		movw	r0, #:lower16:.LC3
 158 006a C0F20000 		movt	r0, #:upper16:.LC3
 159              	.LBE2:
 160              		.loc 1 180 0 is_stmt 1 discriminator 1
 161 006e BDE87040 		pop	{r4, r5, r6, lr}
 162              	.LBB3:
 163              		.loc 1 172 0 discriminator 1
 164 0072 FFF7FEBF 		b	chDbgPanic
 165              	.L17:
 166              		.loc 1 132 0
 167 0076 042A     		cmp	r2, #4
 168 0078 E1D1     		bne	.L8
 169              		.loc 1 135 0
ARM GAS  /tmp/ccI3GbdC.s 			page 4


 170 007a 2046     		mov	r0, r4
 171 007c FFF7FEFF 		bl	dequeue
 172 0080 A16A     		ldr	r1, [r4, #40]
 173 0082 FFF7FEFF 		bl	prio_insert
 174              		.loc 1 136 0
 175 0086 A16A     		ldr	r1, [r4, #40]
 176              		.loc 1 128 0
 177 0088 B368     		ldr	r3, [r6, #8]
 178              		.loc 1 136 0
 179 008a 8C68     		ldr	r4, [r1, #8]
 180              	.LVL7:
 181              		.loc 1 128 0
 182 008c A068     		ldr	r0, [r4, #8]
 183 008e 9842     		cmp	r0, r3
 184 0090 C8D3     		bcc	.L14
 185 0092 D4E7     		b	.L8
 186              	.LVL8:
 187              	.L7:
 188              	.LBE3:
 189              		.loc 1 177 0
 190 0094 316C     		ldr	r1, [r6, #64]
 191              		.loc 1 176 0
 192 0096 AE60     		str	r6, [r5, #8]
 193              		.loc 1 177 0
 194 0098 E960     		str	r1, [r5, #12]
 195              		.loc 1 178 0
 196 009a 3564     		str	r5, [r6, #64]
 197              	.L5:
 198 009c 70BD     		pop	{r4, r5, r6, pc}
 199              	.L16:
 200              		.loc 1 118 0 discriminator 1
 201 009e 40F20000 		movw	r0, #:lower16:.LC1
 202 00a2 C0F20000 		movt	r0, #:upper16:.LC1
 203 00a6 FFF7FEFF 		bl	chDbgPanic
 204 00aa B4E7     		b	.L6
 205              		.cfi_endproc
 206              	.LFE2:
 207              		.size	chMtxLockS, .-chMtxLockS
 208 00ac AFF30080 		.section	.text.chMtxLock,"ax",%progbits
 209              		.align	2
 210              		.p2align 4,,15
 211              		.global	chMtxLock
 212              		.thumb
 213              		.thumb_func
 214              		.type	chMtxLock, %function
 215              	chMtxLock:
 216              	.LFB1:
 217              		.loc 1 96 0
 218              		.cfi_startproc
 219              		@ args = 0, pretend = 0, frame = 0
 220              		@ frame_needed = 0, uses_anonymous_args = 0
 221              	.LVL9:
 222 0000 10B5     		push	{r4, lr}
 223              	.LCFI2:
 224              		.cfi_def_cfa_offset 8
 225              		.cfi_offset 14, -4
 226              		.cfi_offset 4, -8
ARM GAS  /tmp/ccI3GbdC.s 			page 5


 227              		.loc 1 96 0
 228 0002 0446     		mov	r4, r0
 229              		.loc 1 98 0
 230              	@ 98 "../../../os/kernel/src/chmtx.c" 1
 231 0004 FFF7FEFF 		bl      _port_lock
 232              	@ 0 "" 2
 233              		.thumb
 234 0008 FFF7FEFF 		bl	dbg_check_lock
 235              	.LVL10:
 236              		.loc 1 100 0
 237 000c 2046     		mov	r0, r4
 238 000e FFF7FEFF 		bl	chMtxLockS
 239              		.loc 1 102 0
 240 0012 FFF7FEFF 		bl	dbg_check_unlock
 241              	@ 102 "../../../os/kernel/src/chmtx.c" 1
 242 0016 FFF7FEFF 		bl      _port_unlock
 243              	@ 0 "" 2
 244              		.loc 1 103 0
 245              		.thumb
 246 001a 10BD     		pop	{r4, pc}
 247              		.cfi_endproc
 248              	.LFE1:
 249              		.size	chMtxLock, .-chMtxLock
 250 001c AFF30080 		.section	.text.chMtxTryLockS,"ax",%progbits
 251              		.align	2
 252              		.p2align 4,,15
 253              		.global	chMtxTryLockS
 254              		.thumb
 255              		.thumb_func
 256              		.type	chMtxTryLockS, %function
 257              	chMtxTryLockS:
 258              	.LFB4:
 259              		.loc 1 227 0
 260              		.cfi_startproc
 261              		@ args = 0, pretend = 0, frame = 0
 262              		@ frame_needed = 0, uses_anonymous_args = 0
 263              	.LVL11:
 264 0000 10B5     		push	{r4, lr}
 265              	.LCFI3:
 266              		.cfi_def_cfa_offset 8
 267              		.cfi_offset 14, -4
 268              		.cfi_offset 4, -8
 269              		.loc 1 227 0
 270 0002 0446     		mov	r4, r0
 271              		.loc 1 229 0
 272 0004 FFF7FEFF 		bl	chDbgCheckClassS
 273              	.LVL12:
 274              		.loc 1 230 0
 275 0008 7CB1     		cbz	r4, .L23
 276              	.L20:
 277              		.loc 1 232 0
 278 000a A368     		ldr	r3, [r4, #8]
 279 000c 0BB1     		cbz	r3, .L24
 280              		.loc 1 233 0
 281 000e 0020     		movs	r0, #0
 282              		.loc 1 238 0
 283 0010 10BD     		pop	{r4, pc}
ARM GAS  /tmp/ccI3GbdC.s 			page 6


 284              	.L24:
 285              		.loc 1 234 0
 286 0012 40F2000C 		movw	ip, #:lower16:rlist
 287 0016 C0F2000C 		movt	ip, #:upper16:rlist
 288              		.loc 1 237 0
 289 001a 0120     		movs	r0, #1
 290              		.loc 1 234 0
 291 001c DCF81810 		ldr	r1, [ip, #24]
 292              		.loc 1 235 0
 293 0020 0A6C     		ldr	r2, [r1, #64]
 294              		.loc 1 234 0
 295 0022 A160     		str	r1, [r4, #8]
 296              		.loc 1 235 0
 297 0024 E260     		str	r2, [r4, #12]
 298              		.loc 1 236 0
 299 0026 0C64     		str	r4, [r1, #64]
 300              		.loc 1 237 0
 301 0028 10BD     		pop	{r4, pc}
 302              	.L23:
 303              		.loc 1 230 0 discriminator 1
 304 002a 40F20000 		movw	r0, #:lower16:.LC4
 305 002e C0F20000 		movt	r0, #:upper16:.LC4
 306 0032 FFF7FEFF 		bl	chDbgPanic
 307 0036 E8E7     		b	.L20
 308              		.cfi_endproc
 309              	.LFE4:
 310              		.size	chMtxTryLockS, .-chMtxTryLockS
 311 0038 AFF30080 		.section	.text.chMtxTryLock,"ax",%progbits
 311      AFF30080 
 312              		.align	2
 313              		.p2align 4,,15
 314              		.global	chMtxTryLock
 315              		.thumb
 316              		.thumb_func
 317              		.type	chMtxTryLock, %function
 318              	chMtxTryLock:
 319              	.LFB3:
 320              		.loc 1 199 0
 321              		.cfi_startproc
 322              		@ args = 0, pretend = 0, frame = 0
 323              		@ frame_needed = 0, uses_anonymous_args = 0
 324              	.LVL13:
 325 0000 10B5     		push	{r4, lr}
 326              	.LCFI4:
 327              		.cfi_def_cfa_offset 8
 328              		.cfi_offset 14, -4
 329              		.cfi_offset 4, -8
 330              		.loc 1 199 0
 331 0002 0446     		mov	r4, r0
 332              		.loc 1 202 0
 333              	@ 202 "../../../os/kernel/src/chmtx.c" 1
 334 0004 FFF7FEFF 		bl      _port_lock
 335              	@ 0 "" 2
 336              		.thumb
 337 0008 FFF7FEFF 		bl	dbg_check_lock
 338              	.LVL14:
 339              		.loc 1 204 0
ARM GAS  /tmp/ccI3GbdC.s 			page 7


 340 000c 2046     		mov	r0, r4
 341 000e FFF7FEFF 		bl	chMtxTryLockS
 342 0012 0446     		mov	r4, r0
 343              	.LVL15:
 344              		.loc 1 206 0
 345 0014 FFF7FEFF 		bl	dbg_check_unlock
 346              	.LVL16:
 347              	@ 206 "../../../os/kernel/src/chmtx.c" 1
 348 0018 FFF7FEFF 		bl      _port_unlock
 349              	@ 0 "" 2
 350              		.loc 1 208 0
 351              		.thumb
 352 001c 2046     		mov	r0, r4
 353 001e 10BD     		pop	{r4, pc}
 354              		.cfi_endproc
 355              	.LFE3:
 356              		.size	chMtxTryLock, .-chMtxTryLock
 357              		.section	.text.chMtxUnlock,"ax",%progbits
 358              		.align	2
 359              		.p2align 4,,15
 360              		.global	chMtxUnlock
 361              		.thumb
 362              		.thumb_func
 363              		.type	chMtxUnlock, %function
 364              	chMtxUnlock:
 365              	.LFB5:
 366              		.loc 1 250 0
 367              		.cfi_startproc
 368              		@ args = 0, pretend = 0, frame = 0
 369              		@ frame_needed = 0, uses_anonymous_args = 0
 370 0000 38B5     		push	{r3, r4, r5, lr}
 371              	.LCFI5:
 372              		.cfi_def_cfa_offset 16
 373              		.cfi_offset 14, -4
 374              		.cfi_offset 5, -8
 375              		.cfi_offset 4, -12
 376              		.cfi_offset 3, -16
 377              		.loc 1 251 0
 378 0002 40F20003 		movw	r3, #:lower16:rlist
 379 0006 C0F20003 		movt	r3, #:upper16:rlist
 380 000a 9D69     		ldr	r5, [r3, #24]
 381              	.LVL17:
 382              		.loc 1 254 0
 383              	@ 254 "../../../os/kernel/src/chmtx.c" 1
 384 000c FFF7FEFF 		bl      _port_lock
 385              	@ 0 "" 2
 386              	.LVL18:
 387              		.thumb
 388 0010 FFF7FEFF 		bl	dbg_check_lock
 389              	.LVL19:
 390              		.loc 1 255 0
 391 0014 2C6C     		ldr	r4, [r5, #64]
 392 0016 002C     		cmp	r4, #0
 393 0018 33D0     		beq	.L36
 394              	.L27:
 395              		.loc 1 258 0
 396 001a A068     		ldr	r0, [r4, #8]
ARM GAS  /tmp/ccI3GbdC.s 			page 8


 397 001c A842     		cmp	r0, r5
 398 001e 06D0     		beq	.L28
 399              		.loc 1 258 0 is_stmt 0 discriminator 1
 400 0020 40F20000 		movw	r0, #:lower16:.LC6
 401 0024 C0F20000 		movt	r0, #:upper16:.LC6
 402 0028 FFF7FEFF 		bl	chDbgPanic
 403 002c 2C6C     		ldr	r4, [r5, #64]
 404              	.L28:
 405              	.LVL20:
 406              		.loc 1 266 0 is_stmt 1
 407 002e 2268     		ldr	r2, [r4, #0]
 408              		.loc 1 264 0
 409 0030 E368     		ldr	r3, [r4, #12]
 410              		.loc 1 266 0
 411 0032 A242     		cmp	r2, r4
 412              		.loc 1 264 0
 413 0034 2B64     		str	r3, [r5, #64]
 414              		.loc 1 266 0
 415 0036 1CD0     		beq	.L29
 416              	.LBB4:
 417              		.loc 1 271 0
 418 0038 696C     		ldr	r1, [r5, #68]
 419              	.LVL21:
 420              		.loc 1 273 0
 421 003a 4BB1     		cbz	r3, .L30
 422              	.LVL22:
 423              	.L34:
 424              		.loc 1 277 0
 425 003c 1A68     		ldr	r2, [r3, #0]
 426 003e 9A42     		cmp	r2, r3
 427 0040 03D0     		beq	.L31
 428              		.loc 1 277 0 is_stmt 0 discriminator 1
 429 0042 9068     		ldr	r0, [r2, #8]
 430 0044 8142     		cmp	r1, r0
 431 0046 38BF     		it	cc
 432 0048 0146     		movcc	r1, r0
 433              	.LVL23:
 434              	.L31:
 435              		.loc 1 279 0 is_stmt 1
 436 004a DB68     		ldr	r3, [r3, #12]
 437              	.LVL24:
 438              		.loc 1 273 0
 439 004c 002B     		cmp	r3, #0
 440 004e F5D1     		bne	.L34
 441              	.L30:
 442              		.loc 1 283 0
 443 0050 A960     		str	r1, [r5, #8]
 444              		.loc 1 286 0
 445 0052 2046     		mov	r0, r4
 446 0054 FFF7FEFF 		bl	fifo_remove
 447              	.LVL25:
 448              		.loc 1 288 0
 449 0058 036C     		ldr	r3, [r0, #64]
 450              		.loc 1 287 0
 451 005a A060     		str	r0, [r4, #8]
 452              		.loc 1 288 0
 453 005c E360     		str	r3, [r4, #12]
ARM GAS  /tmp/ccI3GbdC.s 			page 9


 454              		.loc 1 290 0
 455 005e 0021     		movs	r1, #0
 456              		.loc 1 289 0
 457 0060 0464     		str	r4, [r0, #64]
 458              		.loc 1 290 0
 459 0062 FFF7FEFF 		bl	chSchWakeupS
 460              	.LVL26:
 461              	.LBE4:
 462              		.loc 1 294 0
 463 0066 FFF7FEFF 		bl	dbg_check_unlock
 464              	@ 294 "../../../os/kernel/src/chmtx.c" 1
 465 006a FFF7FEFF 		bl      _port_unlock
 466              	@ 0 "" 2
 467              		.loc 1 296 0
 468              		.thumb
 469 006e 2046     		mov	r0, r4
 470 0070 38BD     		pop	{r3, r4, r5, pc}
 471              	.L29:
 472              		.loc 1 293 0
 473 0072 0021     		movs	r1, #0
 474 0074 A160     		str	r1, [r4, #8]
 475              		.loc 1 294 0
 476 0076 FFF7FEFF 		bl	dbg_check_unlock
 477              	@ 294 "../../../os/kernel/src/chmtx.c" 1
 478 007a FFF7FEFF 		bl      _port_unlock
 479              	@ 0 "" 2
 480              		.loc 1 296 0
 481              		.thumb
 482 007e 2046     		mov	r0, r4
 483 0080 38BD     		pop	{r3, r4, r5, pc}
 484              	.LVL27:
 485              	.L36:
 486              		.loc 1 255 0 discriminator 1
 487 0082 40F20000 		movw	r0, #:lower16:.LC5
 488 0086 C0F20000 		movt	r0, #:upper16:.LC5
 489 008a FFF7FEFF 		bl	chDbgPanic
 490 008e 2C6C     		ldr	r4, [r5, #64]
 491 0090 C3E7     		b	.L27
 492              		.cfi_endproc
 493              	.LFE5:
 494              		.size	chMtxUnlock, .-chMtxUnlock
 495 0092 00BFAFF3 		.section	.text.chMtxUnlockS,"ax",%progbits
 495      0080AFF3 
 495      0080AFF3 
 495      0080
 496              		.align	2
 497              		.p2align 4,,15
 498              		.global	chMtxUnlockS
 499              		.thumb
 500              		.thumb_func
 501              		.type	chMtxUnlockS, %function
 502              	chMtxUnlockS:
 503              	.LFB6:
 504              		.loc 1 310 0
 505              		.cfi_startproc
 506              		@ args = 0, pretend = 0, frame = 0
 507              		@ frame_needed = 0, uses_anonymous_args = 0
ARM GAS  /tmp/ccI3GbdC.s 			page 10


 508 0000 38B5     		push	{r3, r4, r5, lr}
 509              	.LCFI6:
 510              		.cfi_def_cfa_offset 16
 511              		.cfi_offset 14, -4
 512              		.cfi_offset 5, -8
 513              		.cfi_offset 4, -12
 514              		.cfi_offset 3, -16
 515              		.loc 1 311 0
 516 0002 40F20003 		movw	r3, #:lower16:rlist
 517 0006 C0F20003 		movt	r3, #:upper16:rlist
 518 000a 9D69     		ldr	r5, [r3, #24]
 519              	.LVL28:
 520              		.loc 1 314 0
 521 000c FFF7FEFF 		bl	chDbgCheckClassS
 522              	.LVL29:
 523              		.loc 1 315 0
 524 0010 2C6C     		ldr	r4, [r5, #64]
 525 0012 002C     		cmp	r4, #0
 526 0014 2AD0     		beq	.L47
 527              	.L38:
 528              		.loc 1 318 0
 529 0016 A068     		ldr	r0, [r4, #8]
 530 0018 A842     		cmp	r0, r5
 531 001a 06D0     		beq	.L39
 532              		.loc 1 318 0 is_stmt 0 discriminator 1
 533 001c 40F20000 		movw	r0, #:lower16:.LC8
 534 0020 C0F20000 		movt	r0, #:upper16:.LC8
 535 0024 FFF7FEFF 		bl	chDbgPanic
 536 0028 2C6C     		ldr	r4, [r5, #64]
 537              	.L39:
 538              	.LVL30:
 539              		.loc 1 327 0 is_stmt 1
 540 002a 2268     		ldr	r2, [r4, #0]
 541              		.loc 1 325 0
 542 002c E368     		ldr	r3, [r4, #12]
 543              		.loc 1 327 0
 544 002e A242     		cmp	r2, r4
 545              		.loc 1 325 0
 546 0030 2B64     		str	r3, [r5, #64]
 547              		.loc 1 327 0
 548 0032 17D0     		beq	.L40
 549              	.LBB5:
 550              		.loc 1 332 0
 551 0034 696C     		ldr	r1, [r5, #68]
 552              	.LVL31:
 553              		.loc 1 334 0
 554 0036 4BB1     		cbz	r3, .L41
 555              	.LVL32:
 556              	.L45:
 557              		.loc 1 338 0
 558 0038 1A68     		ldr	r2, [r3, #0]
 559 003a 9A42     		cmp	r2, r3
 560 003c 03D0     		beq	.L42
 561              		.loc 1 338 0 is_stmt 0 discriminator 1
 562 003e 9068     		ldr	r0, [r2, #8]
 563 0040 8142     		cmp	r1, r0
 564 0042 38BF     		it	cc
ARM GAS  /tmp/ccI3GbdC.s 			page 11


 565 0044 0146     		movcc	r1, r0
 566              	.LVL33:
 567              	.L42:
 568              		.loc 1 340 0 is_stmt 1
 569 0046 DB68     		ldr	r3, [r3, #12]
 570              	.LVL34:
 571              		.loc 1 334 0
 572 0048 002B     		cmp	r3, #0
 573 004a F5D1     		bne	.L45
 574              	.L41:
 575              		.loc 1 342 0
 576 004c A960     		str	r1, [r5, #8]
 577              		.loc 1 345 0
 578 004e 2046     		mov	r0, r4
 579 0050 FFF7FEFF 		bl	fifo_remove
 580              	.LVL35:
 581              		.loc 1 347 0
 582 0054 016C     		ldr	r1, [r0, #64]
 583              		.loc 1 346 0
 584 0056 A060     		str	r0, [r4, #8]
 585              		.loc 1 347 0
 586 0058 E160     		str	r1, [r4, #12]
 587              		.loc 1 348 0
 588 005a 0464     		str	r4, [r0, #64]
 589              		.loc 1 349 0
 590 005c FFF7FEFF 		bl	chSchReadyI
 591              	.LVL36:
 592              	.LBE5:
 593              		.loc 1 354 0
 594 0060 2046     		mov	r0, r4
 595 0062 38BD     		pop	{r3, r4, r5, pc}
 596              	.L40:
 597              		.loc 1 352 0
 598 0064 0023     		movs	r3, #0
 599 0066 A360     		str	r3, [r4, #8]
 600              		.loc 1 354 0
 601 0068 2046     		mov	r0, r4
 602 006a 38BD     		pop	{r3, r4, r5, pc}
 603              	.LVL37:
 604              	.L47:
 605              		.loc 1 315 0 discriminator 1
 606 006c 40F20000 		movw	r0, #:lower16:.LC7
 607 0070 C0F20000 		movt	r0, #:upper16:.LC7
 608 0074 FFF7FEFF 		bl	chDbgPanic
 609 0078 2C6C     		ldr	r4, [r5, #64]
 610 007a CCE7     		b	.L38
 611              		.cfi_endproc
 612              	.LFE6:
 613              		.size	chMtxUnlockS, .-chMtxUnlockS
 614 007c AFF30080 		.section	.text.chMtxUnlockAll,"ax",%progbits
 615              		.align	2
 616              		.p2align 4,,15
 617              		.global	chMtxUnlockAll
 618              		.thumb
 619              		.thumb_func
 620              		.type	chMtxUnlockAll, %function
 621              	chMtxUnlockAll:
ARM GAS  /tmp/ccI3GbdC.s 			page 12


 622              	.LFB7:
 623              		.loc 1 367 0
 624              		.cfi_startproc
 625              		@ args = 0, pretend = 0, frame = 0
 626              		@ frame_needed = 0, uses_anonymous_args = 0
 627              		.loc 1 368 0
 628 0000 40F20003 		movw	r3, #:lower16:rlist
 629 0004 C0F20003 		movt	r3, #:upper16:rlist
 630              		.loc 1 367 0
 631 0008 70B5     		push	{r4, r5, r6, lr}
 632              	.LCFI7:
 633              		.cfi_def_cfa_offset 16
 634              		.cfi_offset 14, -4
 635              		.cfi_offset 6, -8
 636              		.cfi_offset 5, -12
 637              		.cfi_offset 4, -16
 638              		.loc 1 368 0
 639 000a 9C69     		ldr	r4, [r3, #24]
 640              	.LVL38:
 641              		.loc 1 370 0
 642              	@ 370 "../../../os/kernel/src/chmtx.c" 1
 643 000c FFF7FEFF 		bl      _port_lock
 644              	@ 0 "" 2
 645              	.LVL39:
 646              		.thumb
 647 0010 FFF7FEFF 		bl	dbg_check_lock
 648              	.LVL40:
 649              		.loc 1 371 0
 650 0014 256C     		ldr	r5, [r4, #64]
 651 0016 BDB1     		cbz	r5, .L49
 652              	.LBB6:
 653              		.loc 1 383 0
 654 0018 0026     		movs	r6, #0
 655              	.L53:
 656              	.LVL41:
 657              		.loc 1 375 0
 658 001a 2868     		ldr	r0, [r5, #0]
 659              		.loc 1 374 0
 660 001c EA68     		ldr	r2, [r5, #12]
 661              		.loc 1 375 0
 662 001e A842     		cmp	r0, r5
 663              		.loc 1 374 0
 664 0020 2264     		str	r2, [r4, #64]
 665              		.loc 1 383 0
 666 0022 08BF     		it	eq
 667 0024 AE60     		streq	r6, [r5, #8]
 668              		.loc 1 375 0
 669 0026 08D0     		beq	.L51
 670              	.LBB7:
 671              		.loc 1 376 0
 672 0028 2846     		mov	r0, r5
 673 002a FFF7FEFF 		bl	fifo_remove
 674              	.LVL42:
 675              		.loc 1 378 0
 676 002e 016C     		ldr	r1, [r0, #64]
 677              		.loc 1 377 0
 678 0030 A860     		str	r0, [r5, #8]
ARM GAS  /tmp/ccI3GbdC.s 			page 13


 679              		.loc 1 378 0
 680 0032 E960     		str	r1, [r5, #12]
 681              		.loc 1 379 0
 682 0034 0564     		str	r5, [r0, #64]
 683              		.loc 1 380 0
 684 0036 FFF7FEFF 		bl	chSchReadyI
 685              	.LVL43:
 686              	.L51:
 687              	.LBE7:
 688              	.LBE6:
 689              		.loc 1 384 0
 690 003a 256C     		ldr	r5, [r4, #64]
 691              	.LVL44:
 692 003c 002D     		cmp	r5, #0
 693 003e ECD1     		bne	.L53
 694              		.loc 1 385 0
 695 0040 636C     		ldr	r3, [r4, #68]
 696 0042 A360     		str	r3, [r4, #8]
 697              		.loc 1 386 0
 698 0044 FFF7FEFF 		bl	chSchRescheduleS
 699              	.L49:
 700              		.loc 1 388 0
 701 0048 FFF7FEFF 		bl	dbg_check_unlock
 702              	@ 388 "../../../os/kernel/src/chmtx.c" 1
 703 004c FFF7FEFF 		bl      _port_unlock
 704              	@ 0 "" 2
 705              		.loc 1 389 0
 706              		.thumb
 707 0050 70BD     		pop	{r4, r5, r6, pc}
 708              		.cfi_endproc
 709              	.LFE7:
 710              		.size	chMtxUnlockAll, .-chMtxUnlockAll
 711 0052 00BFAFF3 		.section	.rodata.str1.4,"aMS",%progbits,1
 711      0080AFF3 
 711      0080AFF3 
 711      0080
 712              		.align	2
 713              	.LC0:
 714 0000 2263684D 		.ascii	"\"chMtxInit\"()\000"
 714      7478496E 
 714      69742228 
 714      2900
 715 000e 0000     		.space	2
 716              	.LC1:
 717 0010 2263684D 		.ascii	"\"chMtxLockS\"()\000"
 717      74784C6F 
 717      636B5322 
 717      282900
 718 001f 00       		.space	1
 719              	.LC2:
 720 0020 63684D74 		.ascii	"chMtxLockS(), #1\000"
 720      784C6F63 
 720      6B532829 
 720      2C202331 
 720      00
 721 0031 000000   		.space	3
 722              	.LC3:
ARM GAS  /tmp/ccI3GbdC.s 			page 14


 723 0034 63684D74 		.ascii	"chMtxLockS(), #2\000"
 723      784C6F63 
 723      6B532829 
 723      2C202332 
 723      00
 724 0045 000000   		.space	3
 725              	.LC4:
 726 0048 2263684D 		.ascii	"\"chMtxTryLockS\"()\000"
 726      74785472 
 726      794C6F63 
 726      6B532228 
 726      2900
 727 005a 0000     		.space	2
 728              	.LC5:
 729 005c 63684D74 		.ascii	"chMtxUnlock(), #1\000"
 729      78556E6C 
 729      6F636B28 
 729      292C2023 
 729      3100
 730 006e 0000     		.space	2
 731              	.LC6:
 732 0070 63684D74 		.ascii	"chMtxUnlock(), #2\000"
 732      78556E6C 
 732      6F636B28 
 732      292C2023 
 732      3200
 733 0082 0000     		.space	2
 734              	.LC7:
 735 0084 63684D74 		.ascii	"chMtxUnlockS(), #1\000"
 735      78556E6C 
 735      6F636B53 
 735      28292C20 
 735      233100
 736 0097 00       		.space	1
 737              	.LC8:
 738 0098 63684D74 		.ascii	"chMtxUnlockS(), #2\000"
 738      78556E6C 
 738      6F636B53 
 738      28292C20 
 738      233200
 739 00ab 00       		.text
 740              	.Letext0:
 741              		.file 2 "/home/prana/CodeSourcery/ARM_EABI/bin/../lib/gcc/arm-none-eabi/4.6.3/../../../../arm-none
 742              		.file 3 "../../../os/ports/GCC/ARMCMx/chtypes.h"
 743              		.file 4 "../../../os/kernel/include/chlists.h"
 744              		.file 5 "../../../os/kernel/include/chthreads.h"
 745              		.file 6 "../../../os/ports/GCC/ARMCMx/chcore_v7m.h"
 746              		.file 7 "../../../os/kernel/include/chschd.h"
 747              		.file 8 "../../../os/kernel/include/chmtx.h"