ARM GAS  /tmp/ccLeFfAM.s 			page 1


   1              		.syntax unified
   2              		.cpu cortex-m4
   3              		.fpu softvfp
   4              		.eabi_attribute 20, 1
   5              		.eabi_attribute 21, 1
   6              		.eabi_attribute 23, 3
   7              		.eabi_attribute 24, 1
   8              		.eabi_attribute 25, 1
   9              		.eabi_attribute 26, 1
  10              		.eabi_attribute 30, 2
  11              		.eabi_attribute 34, 1
  12              		.eabi_attribute 18, 4
  13              		.thumb
  14              		.file	"chprintf.c"
  15              		.text
  16              	.Ltext0:
  17              		.cfi_sections	.debug_frame
  18              		.section	.text.chprintf,"ax",%progbits
  19              		.align	2
  20              		.p2align 4,,15
  21              		.global	chprintf
  22              		.thumb
  23              		.thumb_func
  24              		.type	chprintf, %function
  25              	chprintf:
  26              	.LFB2:
  27              		.file 1 "../../../os/various/chprintf.c"
  28              		.loc 1 112 0
  29              		.cfi_startproc
  30              		@ args = 4, pretend = 12, frame = 40
  31              		@ frame_needed = 0, uses_anonymous_args = 1
  32              	.LVL0:
  33 0000 0EB4     		push	{r1, r2, r3}
  34              	.LCFI0:
  35              		.cfi_def_cfa_offset 12
  36              		.cfi_offset 3, -4
  37              		.cfi_offset 2, -8
  38              		.cfi_offset 1, -12
  39 0002 2DE9F04F 		push	{r4, r5, r6, r7, r8, r9, sl, fp, lr}
  40              	.LCFI1:
  41              		.cfi_def_cfa_offset 48
  42              		.cfi_offset 14, -16
  43              		.cfi_offset 11, -20
  44              		.cfi_offset 10, -24
  45              		.cfi_offset 9, -28
  46              		.cfi_offset 8, -32
  47              		.cfi_offset 7, -36
  48              		.cfi_offset 6, -40
  49              		.cfi_offset 5, -44
  50              		.cfi_offset 4, -48
  51 0006 8AB0     		sub	sp, sp, #40
  52              	.LCFI2:
  53              		.cfi_def_cfa_offset 88
  54              		.loc 1 238 0
  55 0008 0DF11905 		add	r5, sp, #25
  56              		.loc 1 112 0
  57 000c 13A9     		add	r1, sp, #76
ARM GAS  /tmp/ccLeFfAM.s 			page 2


  58              		.loc 1 238 0
  59 000e 0195     		str	r5, [sp, #4]
  60              		.loc 1 112 0
  61 0010 0546     		mov	r5, r0
  62              		.loc 1 238 0
  63 0012 0198     		ldr	r0, [sp, #4]
  64              	.LVL1:
  65              		.loc 1 112 0
  66 0014 51F8044B 		ldr	r4, [r1], #4
  67              		.loc 1 136 0
  68 0018 0DF1180B 		add	fp, sp, #24
  69              	.LBB12:
  70              	.LBB13:
  71              	.LBB14:
  72              		.loc 1 57 0
  73 001c 4CF6CD46 		movw	r6, #52429
  74              	.LBE14:
  75              	.LBE13:
  76              	.LBE12:
  77              		.loc 1 191 0
  78 0020 40F20002 		movw	r2, #:lower16:.LC0
  79              		.loc 1 238 0
  80 0024 CBEB0003 		rsb	r3, fp, r0
  81              	.LBB27:
  82              	.LBB21:
  83              	.LBB15:
  84              		.loc 1 57 0
  85 0028 CCF6CC46 		movt	r6, 52428
  86              	.LBE15:
  87              	.LBE21:
  88              	.LBE27:
  89              		.loc 1 191 0
  90 002c C0F20002 		movt	r2, #:upper16:.LC0
  91              		.loc 1 125 0
  92 0030 0991     		str	r1, [sp, #36]
  93              		.loc 1 238 0
  94 0032 0593     		str	r3, [sp, #20]
  95              	.LBB28:
  96              	.LBB22:
  97              	.LBB16:
  98              		.loc 1 57 0
  99 0034 0496     		str	r6, [sp, #16]
 100              	.LBE16:
 101              	.LBE22:
 102              	.LBE28:
 103              		.loc 1 191 0
 104 0036 0392     		str	r2, [sp, #12]
 105              	.LVL2:
 106              	.L99:
 107              		.loc 1 127 0
 108 0038 2178     		ldrb	r1, [r4, #0]	@ zero_extendqisi2
 109              	.LVL3:
 110              		.loc 1 128 0
 111 003a 51B1     		cbz	r1, .L100
 112              	.LVL4:
 113              	.L116:
 114              		.loc 1 127 0
ARM GAS  /tmp/ccLeFfAM.s 			page 3


 115 003c 661C     		adds	r6, r4, #1
 116              		.loc 1 132 0
 117 003e 2529     		cmp	r1, #37
 118 0040 0CD0     		beq	.L4
 119              		.loc 1 133 0
 120 0042 2A68     		ldr	r2, [r5, #0]
 121 0044 2846     		mov	r0, r5
 122 0046 9468     		ldr	r4, [r2, #8]
 123 0048 A047     		blx	r4
 124              		.loc 1 127 0
 125 004a 3446     		mov	r4, r6
 126              	.LVL5:
 127 004c 2178     		ldrb	r1, [r4, #0]	@ zero_extendqisi2
 128              	.LVL6:
 129              		.loc 1 128 0
 130 004e 0029     		cmp	r1, #0
 131 0050 F4D1     		bne	.L116
 132              	.LVL7:
 133              	.L100:
 134              		.loc 1 263 0
 135 0052 0AB0     		add	sp, sp, #40
 136 0054 BDE8F04F 		pop	{r4, r5, r6, r7, r8, r9, sl, fp, lr}
 137 0058 03B0     		add	sp, sp, #12
 138 005a 7047     		bx	lr
 139              	.L4:
 140              	.LVL8:
 141              		.loc 1 139 0
 142 005c 6378     		ldrb	r3, [r4, #1]	@ zero_extendqisi2
 143 005e 2D2B     		cmp	r3, #45
 144 0060 00F00082 		beq	.L117
 145              		.loc 1 138 0
 146 0064 0021     		movs	r1, #0
 147 0066 0291     		str	r1, [sp, #8]
 148              	.LVL9:
 149              	.L6:
 150              		.loc 1 144 0
 151 0068 2E2B     		cmp	r3, #46
 152              		.loc 1 143 0
 153 006a 14BF     		ite	ne
 154 006c 4FF02008 		movne	r8, #32
 155              		.loc 1 145 0
 156 0070 7378     		ldrbeq	r3, [r6, #1]	@ zero_extendqisi2
 157 0072 0998     		ldr	r0, [sp, #36]
 158              		.loc 1 146 0
 159 0074 04BF     		itt	eq
 160 0076 4FF03008 		moveq	r8, #48
 161              		.loc 1 145 0
 162 007a 0136     		addeq	r6, r6, #1
 163              	.LVL10:
 164              		.loc 1 112 0
 165 007c 3446     		mov	r4, r6
 166              		.loc 1 148 0
 167 007e 4FF0000A 		mov	sl, #0
 168 0082 07E0     		b	.L10
 169              	.LVL11:
 170              	.L118:
 171              		.loc 1 154 0
ARM GAS  /tmp/ccLeFfAM.s 			page 4


 172 0084 0278     		ldrb	r2, [r0, #0]	@ zero_extendqisi2
 173              	.LVL12:
 174 0086 0430     		adds	r0, r0, #4
 175              	.LVL13:
 176              	.L8:
 177              		.loc 1 157 0
 178 0088 0AEB8A03 		add	r3, sl, sl, lsl #2
 179 008c 02EB430A 		add	sl, r2, r3, lsl #1
 180              	.LVL14:
 181 0090 16F8013F 		ldrb	r3, [r6, #1]!	@ zero_extendqisi2
 182              	.LVL15:
 183              	.L10:
 184              		.loc 1 151 0
 185 0094 A3F13009 		sub	r9, r3, #48
 186 0098 5FFA89F2 		uxtb	r2, r9
 187              		.loc 1 150 0
 188 009c 0134     		adds	r4, r4, #1
 189              	.LVL16:
 190              		.loc 1 151 0
 191 009e 092A     		cmp	r2, #9
 192 00a0 F2D9     		bls	.L8
 193              		.loc 1 153 0
 194 00a2 2A2B     		cmp	r3, #42
 195 00a4 EED0     		beq	.L118
 196              		.loc 1 160 0
 197 00a6 0021     		movs	r1, #0
 198 00a8 2E2B     		cmp	r3, #46
 199              		.loc 1 158 0
 200 00aa 0990     		str	r0, [sp, #36]
 201              	.LVL17:
 202              		.loc 1 160 0
 203 00ac 54D0     		beq	.L14
 204              	.LVL18:
 205              		.loc 1 174 0
 206 00ae A3F16C00 		sub	r0, r3, #108
 207 00b2 4642     		rsbs	r6, r0, #0
 208 00b4 46EB0002 		adc	r2, r6, r0
 209 00b8 4C2B     		cmp	r3, #76
 210 00ba 08BF     		it	eq
 211 00bc 42F00102 		orreq	r2, r2, #1
 212 00c0 002A     		cmp	r2, #0
 213 00c2 5ED0     		beq	.L15
 214              	.LVL19:
 215              	.L119:
 216              		.loc 1 176 0
 217 00c4 2278     		ldrb	r2, [r4, #0]	@ zero_extendqisi2
 218 00c6 002A     		cmp	r2, #0
 219 00c8 00F0D181 		beq	.L51
 220              	.LVL20:
 221              		.loc 1 177 0
 222 00cc 1346     		mov	r3, r2
 223 00ce 0134     		adds	r4, r4, #1
 224              	.LVL21:
 225              		.loc 1 175 0
 226 00d0 0122     		movs	r2, #1
 227              	.LVL22:
 228              	.L16:
ARM GAS  /tmp/ccLeFfAM.s 			page 5


 229              		.loc 1 183 0
 230 00d2 A3F1440C 		sub	ip, r3, #68
 231 00d6 BCF1340F 		cmp	ip, #52
 232 00da 00F2BD81 		bhi	.L17
 233 00de DFE81CF0 		tbh	[pc, ip, lsl #1]
 234              	.L24:
 235 00e2 7B01     		.2byte	(.L18-.L24)/2
 236 00e4 BB01     		.2byte	(.L17-.L24)/2
 237 00e6 BB01     		.2byte	(.L17-.L24)/2
 238 00e8 BB01     		.2byte	(.L17-.L24)/2
 239 00ea BB01     		.2byte	(.L17-.L24)/2
 240 00ec BB01     		.2byte	(.L17-.L24)/2
 241 00ee BB01     		.2byte	(.L17-.L24)/2
 242 00f0 BB01     		.2byte	(.L17-.L24)/2
 243 00f2 BB01     		.2byte	(.L17-.L24)/2
 244 00f4 BB01     		.2byte	(.L17-.L24)/2
 245 00f6 BB01     		.2byte	(.L17-.L24)/2
 246 00f8 7901     		.2byte	(.L19-.L24)/2
 247 00fa BB01     		.2byte	(.L17-.L24)/2
 248 00fc BB01     		.2byte	(.L17-.L24)/2
 249 00fe BB01     		.2byte	(.L17-.L24)/2
 250 0100 BB01     		.2byte	(.L17-.L24)/2
 251 0102 BB01     		.2byte	(.L17-.L24)/2
 252 0104 7101     		.2byte	(.L52-.L24)/2
 253 0106 BB01     		.2byte	(.L17-.L24)/2
 254 0108 BB01     		.2byte	(.L17-.L24)/2
 255 010a 3201     		.2byte	(.L21-.L24)/2
 256 010c BB01     		.2byte	(.L17-.L24)/2
 257 010e BB01     		.2byte	(.L17-.L24)/2
 258 0110 BB01     		.2byte	(.L17-.L24)/2
 259 0112 BB01     		.2byte	(.L17-.L24)/2
 260 0114 BB01     		.2byte	(.L17-.L24)/2
 261 0116 BB01     		.2byte	(.L17-.L24)/2
 262 0118 BB01     		.2byte	(.L17-.L24)/2
 263 011a BB01     		.2byte	(.L17-.L24)/2
 264 011c BB01     		.2byte	(.L17-.L24)/2
 265 011e BB01     		.2byte	(.L17-.L24)/2
 266 0120 E500     		.2byte	(.L22-.L24)/2
 267 0122 7B01     		.2byte	(.L18-.L24)/2
 268 0124 BB01     		.2byte	(.L17-.L24)/2
 269 0126 BB01     		.2byte	(.L17-.L24)/2
 270 0128 BB01     		.2byte	(.L17-.L24)/2
 271 012a BB01     		.2byte	(.L17-.L24)/2
 272 012c BB01     		.2byte	(.L17-.L24)/2
 273 012e BB01     		.2byte	(.L17-.L24)/2
 274 0130 BB01     		.2byte	(.L17-.L24)/2
 275 0132 BB01     		.2byte	(.L17-.L24)/2
 276 0134 BB01     		.2byte	(.L17-.L24)/2
 277 0136 BB01     		.2byte	(.L17-.L24)/2
 278 0138 7901     		.2byte	(.L19-.L24)/2
 279 013a BB01     		.2byte	(.L17-.L24)/2
 280 013c BB01     		.2byte	(.L17-.L24)/2
 281 013e BB01     		.2byte	(.L17-.L24)/2
 282 0140 5900     		.2byte	(.L23-.L24)/2
 283 0142 BB01     		.2byte	(.L17-.L24)/2
 284 0144 7101     		.2byte	(.L52-.L24)/2
 285 0146 BB01     		.2byte	(.L17-.L24)/2
ARM GAS  /tmp/ccLeFfAM.s 			page 6


 286 0148 BB01     		.2byte	(.L17-.L24)/2
 287 014a 3201     		.2byte	(.L21-.L24)/2
 288              	.LVL23:
 289              	.L13:
 290              		.loc 1 166 0
 291 014c 0278     		ldrb	r2, [r0, #0]	@ zero_extendqisi2
 292              	.LVL24:
 293 014e 0430     		adds	r0, r0, #4
 294              	.LVL25:
 295              	.L12:
 296              		.loc 1 169 0
 297 0150 01EB810C 		add	ip, r1, r1, lsl #2
 298              	.LVL26:
 299              		.loc 1 170 0
 300 0154 02EB4C01 		add	r1, r2, ip, lsl #1
 301              	.LVL27:
 302              	.L14:
 303              		.loc 1 162 0
 304 0158 14F8013B 		ldrb	r3, [r4], #1	@ zero_extendqisi2
 305              	.LVL28:
 306              		.loc 1 163 0
 307 015c A3F13006 		sub	r6, r3, #48
 308 0160 F2B2     		uxtb	r2, r6
 309 0162 092A     		cmp	r2, #9
 310 0164 F4D9     		bls	.L12
 311              		.loc 1 165 0
 312 0166 2A2B     		cmp	r3, #42
 313 0168 F0D0     		beq	.L13
 314 016a 0990     		str	r0, [sp, #36]
 315              		.loc 1 174 0
 316 016c A3F16C00 		sub	r0, r3, #108
 317 0170 4642     		rsbs	r6, r0, #0
 318 0172 46EB0002 		adc	r2, r6, r0
 319 0176 4C2B     		cmp	r3, #76
 320 0178 08BF     		it	eq
 321 017a 42F00102 		orreq	r2, r2, #1
 322 017e 002A     		cmp	r2, #0
 323 0180 A0D1     		bne	.L119
 324              	.LVL29:
 325              	.L15:
 326              		.loc 1 180 0
 327 0182 A3F14109 		sub	r9, r3, #65
 328 0186 5FFA89F2 		uxtb	r2, r9
 329 018a 192A     		cmp	r2, #25
 330 018c 8CBF     		ite	hi
 331 018e 0022     		movhi	r2, #0
 332 0190 0122     		movls	r2, #1
 333              	.LVL30:
 334 0192 9EE7     		b	.L16
 335              	.LVL31:
 336              	.L23:
 337              		.loc 1 190 0
 338 0194 0998     		ldr	r0, [sp, #36]
 339              		.loc 1 191 0
 340 0196 039A     		ldr	r2, [sp, #12]
 341              	.LVL32:
 342              		.loc 1 190 0
ARM GAS  /tmp/ccLeFfAM.s 			page 7


 343 0198 071D     		adds	r7, r0, #4
 344 019a 0997     		str	r7, [sp, #36]
 345 019c 0768     		ldr	r7, [r0, #0]
 346              	.LVL33:
 347              		.loc 1 191 0
 348 019e 002F     		cmp	r7, #0
 349 01a0 08BF     		it	eq
 350 01a2 1746     		moveq	r7, r2
 351              	.LVL34:
 352              		.loc 1 193 0
 353 01a4 47F6FF78 		movw	r8, #32767
 354              		.loc 1 194 0
 355 01a8 3E78     		ldrb	r6, [r7, #0]	@ zero_extendqisi2
 356              		.loc 1 193 0
 357 01aa 0029     		cmp	r1, #0
 358 01ac 08BF     		it	eq
 359 01ae 4146     		moveq	r1, r8
 360              	.LVL35:
 361              		.loc 1 194 0
 362 01b0 B146     		mov	r9, r6
 363              		.loc 1 189 0
 364 01b2 4FF02008 		mov	r8, #32
 365              		.loc 1 194 0
 366 01b6 002E     		cmp	r6, #0
 367 01b8 00F08380 		beq	.L25
 368              		.loc 1 112 0
 369 01bc 7918     		adds	r1, r7, r1
 370 01be FA43     		mvns	r2, r7
 371              		.loc 1 194 0
 372 01c0 7E78     		ldrb	r6, [r7, #1]	@ zero_extendqisi2
 373 01c2 8B18     		adds	r3, r1, r2
 374              	.LVL36:
 375 01c4 07F10109 		add	r9, r7, #1
 376 01c8 03F00100 		and	r0, r3, #1
 377 01cc 4B46     		mov	r3, r9
 378 01ce A6B1     		cbz	r6, .L104
 379 01d0 8945     		cmp	r9, r1
 380 01d2 12D0     		beq	.L104
 381 01d4 28B1     		cbz	r0, .L29
 382 01d6 13F8016F 		ldrb	r6, [r3, #1]!	@ zero_extendqisi2
 383 01da 09F10109 		add	r9, r9, #1
 384              	.LVL37:
 385 01de 56B9     		cbnz	r6, .L91
 386 01e0 0BE0     		b	.L104
 387              	.L29:
 388              		.loc 1 194 0 is_stmt 0 discriminator 1
 389 01e2 5878     		ldrb	r0, [r3, #1]	@ zero_extendqisi2
 390 01e4 09F10109 		add	r9, r9, #1
 391 01e8 0133     		adds	r3, r3, #1
 392 01ea 30B1     		cbz	r0, .L104
 393              		.loc 1 194 0 discriminator 2
 394 01ec 5E78     		ldrb	r6, [r3, #1]	@ zero_extendqisi2
 395 01ee 09F10109 		add	r9, r9, #1
 396 01f2 0133     		adds	r3, r3, #1
 397 01f4 0EB1     		cbz	r6, .L104
 398              	.L91:
 399              		.loc 1 194 0
ARM GAS  /tmp/ccLeFfAM.s 			page 8


 400 01f6 8945     		cmp	r9, r1
 401 01f8 F3D1     		bne	.L29
 402              	.L104:
 403 01fa C7EB0909 		rsb	r9, r7, r9
 404              		.loc 1 244 0 is_stmt 1
 405 01fe 029A     		ldr	r2, [sp, #8]
 406              		.loc 1 242 0
 407 0200 C9EB0A01 		rsb	r1, r9, sl
 408              		.loc 1 189 0
 409 0204 4FF02008 		mov	r8, #32
 410              	.LVL38:
 411              		.loc 1 242 0
 412 0208 21EAE17A 		bic	sl, r1, r1, asr #31
 413              	.LVL39:
 414              		.loc 1 244 0
 415 020c 002A     		cmp	r2, #0
 416 020e 5FD0     		beq	.L120
 417              	.LVL40:
 418              	.L42:
 419              		.loc 1 255 0 discriminator 1
 420 0210 B9F1000F 		cmp	r9, #0
 421 0214 22DD     		ble	.L45
 422              		.loc 1 256 0
 423 0216 3E46     		mov	r6, r7
 424 0218 2A68     		ldr	r2, [r5, #0]
 425 021a 16F8011B 		ldrb	r1, [r6], #1	@ zero_extendqisi2
 426 021e 9368     		ldr	r3, [r2, #8]
 427 0220 F843     		mvns	r0, r7
 428              		.loc 1 112 0
 429 0222 B944     		add	r9, r7, r9
 430              	.LVL41:
 431 0224 09EB0007 		add	r7, r9, r0
 432              	.LVL42:
 433              		.loc 1 256 0
 434 0228 2846     		mov	r0, r5
 435 022a 9847     		blx	r3
 436              		.loc 1 255 0
 437 022c 4E45     		cmp	r6, r9
 438 022e 07F00107 		and	r7, r7, #1
 439              	.LVL43:
 440 0232 13D0     		beq	.L45
 441 0234 1FB1     		cbz	r7, .L46
 442              	.LVL44:
 443              		.loc 1 256 0
 444 0236 2B68     		ldr	r3, [r5, #0]
 445 0238 16F8011B 		ldrb	r1, [r6], #1	@ zero_extendqisi2
 446 023c 09E0     		b	.L114
 447              	.L46:
 448 023e 2868     		ldr	r0, [r5, #0]
 449 0240 3746     		mov	r7, r6
 450 0242 8368     		ldr	r3, [r0, #8]
 451 0244 17F8011B 		ldrb	r1, [r7], #1	@ zero_extendqisi2
 452 0248 2846     		mov	r0, r5
 453 024a 9847     		blx	r3
 454 024c 2B68     		ldr	r3, [r5, #0]
 455 024e 7178     		ldrb	r1, [r6, #1]	@ zero_extendqisi2
 456 0250 7E1C     		adds	r6, r7, #1
ARM GAS  /tmp/ccLeFfAM.s 			page 9


 457              	.L114:
 458 0252 9B68     		ldr	r3, [r3, #8]
 459 0254 2846     		mov	r0, r5
 460 0256 9847     		blx	r3
 461              		.loc 1 255 0
 462 0258 4E45     		cmp	r6, r9
 463 025a F0D1     		bne	.L46
 464              	.L45:
 465              	.LVL45:
 466              		.loc 1 258 0 discriminator 1
 467 025c BAF1000F 		cmp	sl, #0
 468 0260 3FF4EAAE 		beq	.L99
 469              		.loc 1 259 0
 470 0264 2968     		ldr	r1, [r5, #0]
 471 0266 0AF1FF3E 		add	lr, sl, #-1
 472 026a 8A68     		ldr	r2, [r1, #8]
 473              		.loc 1 258 0
 474 026c 7646     		mov	r6, lr
 475              		.loc 1 259 0
 476 026e 2846     		mov	r0, r5
 477 0270 4146     		mov	r1, r8
 478 0272 0EF00107 		and	r7, lr, #1
 479 0276 9047     		blx	r2
 480              		.loc 1 258 0
 481 0278 002E     		cmp	r6, #0
 482 027a 3FF4DDAE 		beq	.L99
 483 027e 3FB1     		cbz	r7, .L58
 484              		.loc 1 259 0
 485 0280 2968     		ldr	r1, [r5, #0]
 486 0282 2846     		mov	r0, r5
 487 0284 8A68     		ldr	r2, [r1, #8]
 488 0286 4146     		mov	r1, r8
 489 0288 9047     		blx	r2
 490              	.LVL46:
 491              		.loc 1 258 0
 492 028a 013E     		subs	r6, r6, #1
 493 028c 3FF4D4AE 		beq	.L99
 494              	.L58:
 495              		.loc 1 259 0
 496 0290 2B68     		ldr	r3, [r5, #0]
 497 0292 4146     		mov	r1, r8
 498 0294 9A68     		ldr	r2, [r3, #8]
 499 0296 2846     		mov	r0, r5
 500 0298 9047     		blx	r2
 501 029a 2868     		ldr	r0, [r5, #0]
 502              		.loc 1 260 0
 503 029c 013E     		subs	r6, r6, #1
 504              		.loc 1 259 0
 505 029e 8368     		ldr	r3, [r0, #8]
 506 02a0 4146     		mov	r1, r8
 507 02a2 2846     		mov	r0, r5
 508 02a4 9847     		blx	r3
 509              		.loc 1 258 0
 510 02a6 013E     		subs	r6, r6, #1
 511 02a8 F2D1     		bne	.L58
 512 02aa C5E6     		b	.L99
 513              	.LVL47:
ARM GAS  /tmp/ccLeFfAM.s 			page 10


 514              	.L22:
 515              		.loc 1 186 0
 516 02ac 099B     		ldr	r3, [sp, #36]
 517              	.LVL48:
 518 02ae DDF81490 		ldr	r9, [sp, #20]
 519 02b2 1F68     		ldr	r7, [r3, #0]
 520 02b4 191D     		adds	r1, r3, #4
 521              	.LVL49:
 522 02b6 8DF81870 		strb	r7, [sp, #24]
 523              	.LVL50:
 524 02ba 0991     		str	r1, [sp, #36]
 525              		.loc 1 185 0
 526 02bc 4FF02008 		mov	r8, #32
 527              		.loc 1 137 0
 528 02c0 5F46     		mov	r7, fp
 529              	.LVL51:
 530              	.L25:
 531              		.loc 1 244 0
 532 02c2 029A     		ldr	r2, [sp, #8]
 533              		.loc 1 242 0
 534 02c4 C9EB0A01 		rsb	r1, r9, sl
 535              	.LVL52:
 536 02c8 21EAE17A 		bic	sl, r1, r1, asr #31
 537              	.LVL53:
 538              		.loc 1 244 0
 539 02cc 002A     		cmp	r2, #0
 540 02ce 9FD1     		bne	.L42
 541              	.LVL54:
 542              	.L120:
 543              		.loc 1 245 0
 544 02d0 CAF1000A 		rsb	sl, sl, #0
 545              	.LVL55:
 546              		.loc 1 246 0
 547 02d4 BAF1000F 		cmp	sl, #0
 548 02d8 9AD0     		beq	.L42
 549              		.loc 1 247 0
 550 02da A8F13003 		sub	r3, r8, #48
 551 02de D3F1000E 		rsbs	lr, r3, #0
 552 02e2 3878     		ldrb	r0, [r7, #0]	@ zero_extendqisi2
 553 02e4 4EEB0306 		adc	r6, lr, r3
 554 02e8 2D28     		cmp	r0, #45
 555 02ea 14BF     		ite	ne
 556 02ec 0026     		movne	r6, #0
 557 02ee 06F00106 		andeq	r6, r6, #1
 558 02f2 002E     		cmp	r6, #0
 559 02f4 40F0CB80 		bne	.L121
 560              	.L93:
 561              		.loc 1 252 0
 562 02f8 2E68     		ldr	r6, [r5, #0]
 563 02fa 6FEA0A0C 		mvn	ip, sl
 564 02fe B368     		ldr	r3, [r6, #8]
 565 0300 2846     		mov	r0, r5
 566 0302 4146     		mov	r1, r8
 567 0304 0CF00106 		and	r6, ip, #1
 568              	.LVL56:
 569 0308 9847     		blx	r3
 570              	.LVL57:
ARM GAS  /tmp/ccLeFfAM.s 			page 11


 571              		.loc 1 253 0
 572 030a 1AF1010A 		adds	sl, sl, #1
 573              	.LVL58:
 574 030e 3FF47FAF 		beq	.L42
 575 0312 46B1     		cbz	r6, .L59
 576              		.loc 1 252 0
 577 0314 2968     		ldr	r1, [r5, #0]
 578 0316 2846     		mov	r0, r5
 579 0318 8A68     		ldr	r2, [r1, #8]
 580 031a 4146     		mov	r1, r8
 581 031c 9047     		blx	r2
 582              	.LVL59:
 583              		.loc 1 253 0
 584 031e 1AF1010A 		adds	sl, sl, #1
 585              	.LVL60:
 586 0322 3FF475AF 		beq	.L42
 587              	.L59:
 588              		.loc 1 252 0 discriminator 1
 589 0326 2A68     		ldr	r2, [r5, #0]
 590 0328 4146     		mov	r1, r8
 591 032a 9368     		ldr	r3, [r2, #8]
 592 032c 2846     		mov	r0, r5
 593 032e 9847     		blx	r3
 594 0330 2868     		ldr	r0, [r5, #0]
 595              		.loc 1 253 0 discriminator 1
 596 0332 0AF1010A 		add	sl, sl, #1
 597              	.LVL61:
 598              		.loc 1 252 0 discriminator 1
 599 0336 8268     		ldr	r2, [r0, #8]
 600 0338 4146     		mov	r1, r8
 601 033a 2846     		mov	r0, r5
 602 033c 9047     		blx	r2
 603              	.LVL62:
 604              		.loc 1 253 0 discriminator 1
 605 033e 1AF1010A 		adds	sl, sl, #1
 606              	.LVL63:
 607 0342 F0D1     		bne	.L59
 608 0344 64E7     		b	.L42
 609              	.LVL64:
 610              	.L21:
 611              		.loc 1 183 0
 612 0346 1026     		movs	r6, #16
 613              	.LVL65:
 614              	.L20:
 615              		.loc 1 231 0
 616 0348 002A     		cmp	r2, #0
 617 034a 3ED0     		beq	.L36
 618              	.L123:
 619              		.loc 1 232 0
 620 034c 099F     		ldr	r7, [sp, #36]
 621 034e 3B1D     		adds	r3, r7, #4
 622 0350 3A68     		ldr	r2, [r7, #0]
 623              	.LVL66:
 624 0352 0993     		str	r3, [sp, #36]
 625              	.LVL67:
 626              	.L37:
 627              		.loc 1 234 0
ARM GAS  /tmp/ccLeFfAM.s 			page 12


 628 0354 0DF12200 		add	r0, sp, #34
 629 0358 1146     		mov	r1, r2
 630              	.LVL68:
 631              	.L39:
 632              	.LBB29:
 633              	.LBB30:
 634              	.LBB31:
 635              		.loc 1 57 0
 636 035a B2FBF6F9 		udiv	r9, r2, r6
 637 035e 06FB192C 		mls	ip, r6, r9, r2
 638              	.LVL69:
 639              		.loc 1 58 0
 640 0362 0CF13003 		add	r3, ip, #48
 641              	.LVL70:
 642              		.loc 1 59 0
 643 0366 392B     		cmp	r3, #57
 644              		.loc 1 60 0
 645 0368 C8BF     		it	gt
 646 036a 0CF13703 		addgt	r3, ip, #55
 647              	.LVL71:
 648              		.loc 1 63 0
 649 036e B1FBF6F1 		udiv	r1, r1, r6
 650              	.LVL72:
 651              		.loc 1 61 0
 652 0372 8446     		mov	ip, r0
 653              	.LVL73:
 654              		.loc 1 62 0
 655 0374 4A46     		mov	r2, r9
 656              	.LVL74:
 657              		.loc 1 61 0
 658 0376 00F80139 		strb	r3, [r0], #-1
 659              	.LVL75:
 660              		.loc 1 63 0
 661 037a 0029     		cmp	r1, #0
 662 037c EDD1     		bne	.L39
 663              		.loc 1 65 0
 664 037e 0DF12300 		add	r0, sp, #35
 665 0382 CCEB0009 		rsb	r9, ip, r0
 666              	.LVL76:
 667 0386 6FEA0B01 		mvn	r1, fp
 668              	.LVL77:
 669              		.loc 1 112 0
 670 038a 0BEB0900 		add	r0, fp, r9
 671 038e 4718     		adds	r7, r0, r1
 672 0390 FF07     		lsls	r7, r7, #31
 673              	.LBE31:
 674              	.LBE30:
 675              	.LBE29:
 676              		.loc 1 136 0
 677 0392 5946     		mov	r1, fp
 678 0394 0FD5     		bpl	.L41
 679              	.LVL78:
 680              	.LBB34:
 681              	.LBB33:
 682              	.LBB32:
 683              		.loc 1 67 0
 684 0396 8BF80030 		strb	r3, [fp, #0]
ARM GAS  /tmp/ccLeFfAM.s 			page 13


 685 039a 0DF11901 		add	r1, sp, #25
 686              	.LVL79:
 687              		.loc 1 68 0
 688 039e 1CF8013F 		ldrb	r3, [ip, #1]!	@ zero_extendqisi2
 689 03a2 08E0     		b	.L41
 690              	.LVL80:
 691              	.L122:
 692 03a4 9CF80160 		ldrb	r6, [ip, #1]	@ zero_extendqisi2
 693              	.LVL81:
 694 03a8 0CF10103 		add	r3, ip, #1
 695              		.loc 1 67 0
 696 03ac 4E70     		strb	r6, [r1, #1]
 697              		.loc 1 68 0
 698 03ae 5B78     		ldrb	r3, [r3, #1]	@ zero_extendqisi2
 699 03b0 0CF1020C 		add	ip, ip, #2
 700              		.loc 1 67 0
 701 03b4 511C     		adds	r1, r2, #1
 702              	.LVL82:
 703              	.L41:
 704 03b6 0A46     		mov	r2, r1
 705 03b8 02F8013B 		strb	r3, [r2], #1
 706              		.loc 1 68 0
 707 03bc 8242     		cmp	r2, r0
 708 03be F1D1     		bne	.L122
 709              	.LBE32:
 710              	.LBE33:
 711              	.LBE34:
 712              		.loc 1 137 0
 713 03c0 5F46     		mov	r7, fp
 714              		.loc 1 239 0
 715 03c2 7EE7     		b	.L25
 716              	.LVL83:
 717              	.L52:
 718              		.loc 1 183 0
 719 03c4 0A26     		movs	r6, #10
 720              	.LVL84:
 721              		.loc 1 231 0
 722 03c6 002A     		cmp	r2, #0
 723 03c8 C0D1     		bne	.L123
 724              	.L36:
 725              		.loc 1 234 0
 726 03ca 099A     		ldr	r2, [sp, #36]
 727              	.LVL85:
 728 03cc 101D     		adds	r0, r2, #4
 729 03ce 1268     		ldr	r2, [r2, #0]
 730              	.LVL86:
 731 03d0 0990     		str	r0, [sp, #36]
 732 03d2 BFE7     		b	.L37
 733              	.LVL87:
 734              	.L19:
 735 03d4 0826     		movs	r6, #8
 736 03d6 B7E7     		b	.L20
 737              	.LVL88:
 738              	.L18:
 739              		.loc 1 200 0
 740 03d8 099B     		ldr	r3, [sp, #36]
 741              	.LVL89:
ARM GAS  /tmp/ccLeFfAM.s 			page 14


 742              		.loc 1 199 0
 743 03da 002A     		cmp	r2, #0
 744 03dc 49D1     		bne	.L124
 745              		.loc 1 202 0
 746 03de 1A68     		ldr	r2, [r3, #0]
 747              	.LVL90:
 748 03e0 181D     		adds	r0, r3, #4
 749              		.loc 1 203 0
 750 03e2 002A     		cmp	r2, #0
 751              		.loc 1 202 0
 752 03e4 0990     		str	r0, [sp, #36]
 753              		.loc 1 136 0
 754 03e6 A8BF     		it	ge
 755 03e8 5F46     		movge	r7, fp
 756              		.loc 1 203 0
 757 03ea 49DB     		blt	.L125
 758              	.LVL91:
 759              	.L32:
 760              	.LBB35:
 761              	.LBB23:
 762              	.LBB17:
 763              		.loc 1 55 0
 764 03ec 07F10B09 		add	r9, r7, #11
 765              	.LVL92:
 766              	.LBE17:
 767              	.LBE23:
 768              	.LBE35:
 769              		.loc 1 112 0
 770 03f0 BC46     		mov	ip, r7
 771              	.LVL93:
 772 03f2 049F     		ldr	r7, [sp, #16]
 773              	.LVL94:
 774              	.LBB36:
 775              	.LBB24:
 776              	.LBB18:
 777 03f4 4946     		mov	r1, r9
 778              	.LBE18:
 779              	.LBE24:
 780              	.LBE36:
 781 03f6 1646     		mov	r6, r2
 782              	.LVL95:
 783              	.L33:
 784              	.LBB37:
 785              	.LBB25:
 786              	.LBB19:
 787              		.loc 1 57 0
 788 03f8 A7FB0203 		umull	r0, r3, r7, r2
 789 03fc DB08     		lsrs	r3, r3, #3
 790 03fe 03EB8300 		add	r0, r3, r3, lsl #2
 791 0402 A2EB4000 		sub	r0, r2, r0, lsl #1
 792              	.LVL96:
 793              		.loc 1 112 0
 794 0406 0139     		subs	r1, r1, #1
 795              	.LVL97:
 796              		.loc 1 63 0
 797 0408 A7FB0626 		umull	r2, r6, r7, r6
 798              	.LVL98:
ARM GAS  /tmp/ccLeFfAM.s 			page 15


 799              		.loc 1 58 0
 800 040c 3030     		adds	r0, r0, #48
 801              		.loc 1 63 0
 802 040e F608     		lsrs	r6, r6, #3
 803              		.loc 1 61 0
 804 0410 0870     		strb	r0, [r1, #0]
 805              		.loc 1 62 0
 806 0412 1A46     		mov	r2, r3
 807              	.LVL99:
 808              		.loc 1 63 0
 809 0414 F0D1     		bne	.L33
 810 0416 6746     		mov	r7, ip
 811              		.loc 1 65 0
 812 0418 C1EB0909 		rsb	r9, r1, r9
 813              	.LVL100:
 814 041c FA43     		mvns	r2, r7
 815              		.loc 1 112 0
 816 041e CC44     		add	ip, ip, r9
 817              	.LVL101:
 818 0420 0CEB0203 		add	r3, ip, r2
 819              	.LVL102:
 820 0424 DB07     		lsls	r3, r3, #31
 821              	.LBE19:
 822              	.LBE25:
 823              	.LBE37:
 824 0426 3A46     		mov	r2, r7
 825 0428 0BD5     		bpl	.L35
 826              	.LVL103:
 827              	.LBB38:
 828              	.LBB26:
 829              	.LBB20:
 830              		.loc 1 67 0
 831 042a 3A46     		mov	r2, r7
 832              	.LVL104:
 833 042c 02F8010B 		strb	r0, [r2], #1
 834              	.LVL105:
 835              		.loc 1 68 0
 836 0430 11F8010F 		ldrb	r0, [r1, #1]!	@ zero_extendqisi2
 837 0434 05E0     		b	.L35
 838              	.L126:
 839 0436 4E78     		ldrb	r6, [r1, #1]	@ zero_extendqisi2
 840              	.LVL106:
 841 0438 481C     		adds	r0, r1, #1
 842              		.loc 1 67 0
 843 043a 5670     		strb	r6, [r2, #1]
 844              		.loc 1 68 0
 845 043c 4078     		ldrb	r0, [r0, #1]	@ zero_extendqisi2
 846 043e 0231     		adds	r1, r1, #2
 847              		.loc 1 67 0
 848 0440 5A1C     		adds	r2, r3, #1
 849              	.LVL107:
 850              	.L35:
 851 0442 1346     		mov	r3, r2
 852 0444 03F8010B 		strb	r0, [r3], #1
 853              		.loc 1 68 0
 854 0448 6345     		cmp	r3, ip
 855 044a F4D1     		bne	.L126
ARM GAS  /tmp/ccLeFfAM.s 			page 16


 856              	.LVL108:
 857              		.loc 1 207 0
 858 044c 07EB0901 		add	r1, r7, r9
 859              		.loc 1 68 0
 860 0450 CBEB0109 		rsb	r9, fp, r1
 861              	.LBE20:
 862              	.LBE26:
 863              	.LBE38:
 864              		.loc 1 137 0
 865 0454 5F46     		mov	r7, fp
 866              	.LVL109:
 867              		.loc 1 208 0
 868 0456 34E7     		b	.L25
 869              	.LVL110:
 870              	.L17:
 871              		.loc 1 238 0
 872 0458 8DF81830 		strb	r3, [sp, #24]
 873              	.LVL111:
 874 045c DDF81490 		ldr	r9, [sp, #20]
 875              		.loc 1 137 0
 876 0460 5F46     		mov	r7, fp
 877 0462 2EE7     		b	.L25
 878              	.LVL112:
 879              	.L117:
 880              		.loc 1 141 0
 881 0464 0120     		movs	r0, #1
 882              		.loc 1 140 0
 883 0466 A61C     		adds	r6, r4, #2
 884              	.LVL113:
 885 0468 A378     		ldrb	r3, [r4, #2]	@ zero_extendqisi2
 886              		.loc 1 141 0
 887 046a 0290     		str	r0, [sp, #8]
 888 046c FCE5     		b	.L6
 889              	.LVL114:
 890              	.L51:
 891              		.loc 1 175 0
 892 046e 0122     		movs	r2, #1
 893 0470 2FE6     		b	.L16
 894              	.LVL115:
 895              	.L124:
 896              		.loc 1 200 0
 897 0472 1A68     		ldr	r2, [r3, #0]
 898              	.LVL116:
 899 0474 191D     		adds	r1, r3, #4
 900              	.LVL117:
 901              		.loc 1 203 0
 902 0476 002A     		cmp	r2, #0
 903              		.loc 1 200 0
 904 0478 0991     		str	r1, [sp, #36]
 905              		.loc 1 136 0
 906 047a A8BF     		it	ge
 907 047c 5F46     		movge	r7, fp
 908              		.loc 1 203 0
 909 047e B5DA     		bge	.L32
 910              	.LVL118:
 911              	.L125:
 912              		.loc 1 204 0
ARM GAS  /tmp/ccLeFfAM.s 			page 17


 913 0480 2D27     		movs	r7, #45
 914 0482 8DF81870 		strb	r7, [sp, #24]
 915              	.LVL119:
 916              		.loc 1 205 0
 917 0486 5242     		negs	r2, r2
 918              	.LVL120:
 919              		.loc 1 204 0
 920 0488 0DF11907 		add	r7, sp, #25
 921 048c AEE7     		b	.L32
 922              	.LVL121:
 923              	.L121:
 924              		.loc 1 248 0
 925 048e 2968     		ldr	r1, [r5, #0]
 926 0490 2846     		mov	r0, r5
 927 0492 8A68     		ldr	r2, [r1, #8]
 928 0494 2D21     		movs	r1, #45
 929 0496 9047     		blx	r2
 930 0498 0137     		adds	r7, r7, #1
 931              	.LVL122:
 932              		.loc 1 249 0
 933 049a 09F1FF39 		add	r9, r9, #-1
 934              	.LVL123:
 935 049e 2BE7     		b	.L93
 936              		.cfi_endproc
 937              	.LFE2:
 938              		.size	chprintf, .-chprintf
 939              		.section	.rodata.str1.4,"aMS",%progbits,1
 940              		.align	2
 941              	.LC0:
 942 0000 286E756C 		.ascii	"(null)\000"
 942      6C2900
 943 0007 00       		.text
 944              	.Letext0:
 945              		.file 2 "/home/prana/CodeSourcery/ARM_EABI/bin/../lib/gcc/arm-none-eabi/4.6.3/include/stdarg.h"
 946              		.file 3 "/home/prana/CodeSourcery/ARM_EABI/bin/../lib/gcc/arm-none-eabi/4.6.3/include/stddef.h"
 947              		.file 4 "/home/prana/CodeSourcery/ARM_EABI/bin/../lib/gcc/arm-none-eabi/4.6.3/../../../../arm-none
 948              		.file 5 "../../../os/ports/GCC/ARMCMx/chtypes.h"
 949              		.file 6 "<built-in>"
 950              		.file 7 "../../../os/kernel/include/chstreams.h"