ARM GAS  /tmp/ccaHx2Yz.s 			page 1


   1              		.syntax unified
   2              		.cpu cortex-m4
   3              		.fpu softvfp
   4              		.eabi_attribute 20, 1
   5              		.eabi_attribute 21, 1
   6              		.eabi_attribute 23, 3
   7              		.eabi_attribute 24, 1
   8              		.eabi_attribute 25, 1
   9              		.eabi_attribute 26, 1
  10              		.eabi_attribute 30, 2
  11              		.eabi_attribute 34, 1
  12              		.eabi_attribute 18, 4
  13              		.thumb
  14              		.file	"chqueues.c"
  15              		.text
  16              	.Ltext0:
  17              		.cfi_sections	.debug_frame
  18              		.section	.text.qwait,"ax",%progbits
  19              		.align	2
  20              		.p2align 4,,15
  21              		.thumb
  22              		.thumb_func
  23              		.type	qwait, %function
  24              	qwait:
  25              	.LFB0:
  26              		.file 1 "../../../os/kernel/src/chqueues.c"
  27              		.loc 1 63 0
  28              		.cfi_startproc
  29              		@ args = 0, pretend = 0, frame = 0
  30              		@ frame_needed = 0, uses_anonymous_args = 0
  31              	.LVL0:
  32 0000 10B5     		push	{r4, lr}
  33              	.LCFI0:
  34              		.cfi_def_cfa_offset 8
  35              		.cfi_offset 14, -4
  36              		.cfi_offset 4, -8
  37              		.loc 1 63 0
  38 0002 0346     		mov	r3, r0
  39              		.loc 1 65 0
  40 0004 0C46     		mov	r4, r1
  41 0006 81B1     		cbz	r1, .L2
  42              		.loc 1 67 0
  43 0008 40F2000C 		movw	ip, #:lower16:rlist
  44 000c C0F2000C 		movt	ip, #:upper16:rlist
  45              		.loc 1 68 0
  46 0010 0146     		mov	r1, r0
  47              	.LVL1:
  48              		.loc 1 67 0
  49 0012 DCF81820 		ldr	r2, [ip, #24]
  50              		.loc 1 68 0
  51 0016 1046     		mov	r0, r2
  52              	.LVL2:
  53              		.loc 1 67 0
  54 0018 9362     		str	r3, [r2, #40]
  55              		.loc 1 68 0
  56 001a FFF7FEFF 		bl	queue_insert
  57              	.LVL3:
ARM GAS  /tmp/ccaHx2Yz.s 			page 2


  58              		.loc 1 69 0
  59 001e 0D20     		movs	r0, #13
  60 0020 2146     		mov	r1, r4
  61              		.loc 1 70 0
  62 0022 BDE81040 		pop	{r4, lr}
  63              		.loc 1 69 0
  64 0026 FFF7FEBF 		b	chSchGoSleepTimeoutS
  65              	.LVL4:
  66              	.L2:
  67              		.loc 1 70 0
  68 002a 4FF0FF30 		mov	r0, #-1
  69              	.LVL5:
  70 002e 10BD     		pop	{r4, pc}
  71              		.cfi_endproc
  72              	.LFE0:
  73              		.size	qwait, .-qwait
  74              		.section	.text.chIQInit,"ax",%progbits
  75              		.align	2
  76              		.p2align 4,,15
  77              		.global	chIQInit
  78              		.thumb
  79              		.thumb_func
  80              		.type	chIQInit, %function
  81              	chIQInit:
  82              	.LFB1:
  83              		.loc 1 89 0
  84              		.cfi_startproc
  85              		@ args = 4, pretend = 0, frame = 0
  86              		@ frame_needed = 0, uses_anonymous_args = 0
  87              		@ link register save eliminated.
  88              	.LVL6:
  89 0000 10B4     		push	{r4}
  90              	.LCFI1:
  91              		.cfi_def_cfa_offset 4
  92              		.cfi_offset 4, -4
  93              		.loc 1 95 0
  94 0002 C361     		str	r3, [r0, #28]
  95              		.loc 1 96 0
  96 0004 019B     		ldr	r3, [sp, #4]
  97              	.LVL7:
  98              		.loc 1 91 0
  99 0006 4060     		str	r0, [r0, #4]
 100              		.loc 1 94 0
 101 0008 8A18     		adds	r2, r1, r2
 102              	.LVL8:
 103              		.loc 1 92 0
 104 000a 0024     		movs	r4, #0
 105              		.loc 1 91 0
 106 000c 0060     		str	r0, [r0, #0]
 107              		.loc 1 92 0
 108 000e 8460     		str	r4, [r0, #8]
 109              		.loc 1 93 0
 110 0010 4161     		str	r1, [r0, #20]
 111 0012 8161     		str	r1, [r0, #24]
 112 0014 C160     		str	r1, [r0, #12]
 113              		.loc 1 94 0
 114 0016 0261     		str	r2, [r0, #16]
ARM GAS  /tmp/ccaHx2Yz.s 			page 3


 115              		.loc 1 96 0
 116 0018 0362     		str	r3, [r0, #32]
 117              		.loc 1 97 0
 118 001a 10BC     		pop	{r4}
 119 001c 7047     		bx	lr
 120              		.cfi_endproc
 121              	.LFE1:
 122              		.size	chIQInit, .-chIQInit
 123 001e 00BF     		.section	.text.chIQResetI,"ax",%progbits
 124              		.align	2
 125              		.p2align 4,,15
 126              		.global	chIQResetI
 127              		.thumb
 128              		.thumb_func
 129              		.type	chIQResetI, %function
 130              	chIQResetI:
 131              	.LFB2:
 132              		.loc 1 110 0
 133              		.cfi_startproc
 134              		@ args = 0, pretend = 0, frame = 0
 135              		@ frame_needed = 0, uses_anonymous_args = 0
 136              	.LVL9:
 137 0000 38B5     		push	{r3, r4, r5, lr}
 138              	.LCFI2:
 139              		.cfi_def_cfa_offset 16
 140              		.cfi_offset 14, -4
 141              		.cfi_offset 5, -8
 142              		.cfi_offset 4, -12
 143              		.cfi_offset 3, -16
 144              		.loc 1 110 0
 145 0002 0446     		mov	r4, r0
 146              		.loc 1 112 0
 147 0004 FFF7FEFF 		bl	chDbgCheckClassI
 148              	.LVL10:
 149              		.loc 1 116 0
 150 0008 2268     		ldr	r2, [r4, #0]
 151              		.loc 1 114 0
 152 000a E068     		ldr	r0, [r4, #12]
 153              		.loc 1 115 0
 154 000c 0023     		movs	r3, #0
 155              		.loc 1 116 0
 156 000e A242     		cmp	r2, r4
 157              		.loc 1 114 0
 158 0010 6061     		str	r0, [r4, #20]
 159 0012 A061     		str	r0, [r4, #24]
 160              		.loc 1 115 0
 161 0014 A360     		str	r3, [r4, #8]
 162              		.loc 1 116 0
 163 0016 0AD0     		beq	.L5
 164              		.loc 1 117 0
 165 0018 6FF00105 		mvn	r5, #1
 166              	.L8:
 167 001c 2046     		mov	r0, r4
 168 001e FFF7FEFF 		bl	fifo_remove
 169 0022 FFF7FEFF 		bl	chSchReadyI
 170 0026 8562     		str	r5, [r0, #40]
 171              		.loc 1 116 0
ARM GAS  /tmp/ccaHx2Yz.s 			page 4


 172 0028 2168     		ldr	r1, [r4, #0]
 173 002a A142     		cmp	r1, r4
 174 002c F6D1     		bne	.L8
 175              	.L5:
 176 002e 38BD     		pop	{r3, r4, r5, pc}
 177              		.cfi_endproc
 178              	.LFE2:
 179              		.size	chIQResetI, .-chIQResetI
 180              		.section	.text.chIQPutI,"ax",%progbits
 181              		.align	2
 182              		.p2align 4,,15
 183              		.global	chIQPutI
 184              		.thumb
 185              		.thumb_func
 186              		.type	chIQPutI, %function
 187              	chIQPutI:
 188              	.LFB3:
 189              		.loc 1 133 0
 190              		.cfi_startproc
 191              		@ args = 0, pretend = 0, frame = 0
 192              		@ frame_needed = 0, uses_anonymous_args = 0
 193              	.LVL11:
 194 0000 38B5     		push	{r3, r4, r5, lr}
 195              	.LCFI3:
 196              		.cfi_def_cfa_offset 16
 197              		.cfi_offset 14, -4
 198              		.cfi_offset 5, -8
 199              		.cfi_offset 4, -12
 200              		.cfi_offset 3, -16
 201              		.loc 1 133 0
 202 0002 0446     		mov	r4, r0
 203 0004 0D46     		mov	r5, r1
 204              		.loc 1 135 0
 205 0006 FFF7FEFF 		bl	chDbgCheckClassI
 206              	.LVL12:
 207              		.loc 1 137 0
 208 000a A269     		ldr	r2, [r4, #24]
 209 000c 6369     		ldr	r3, [r4, #20]
 210 000e 9342     		cmp	r3, r2
 211 0010 A268     		ldr	r2, [r4, #8]
 212 0012 17D0     		beq	.L11
 213              	.L12:
 214              		.loc 1 140 0
 215 0014 511C     		adds	r1, r2, #1
 216 0016 A160     		str	r1, [r4, #8]
 217              		.loc 1 141 0
 218 0018 03F8015B 		strb	r5, [r3], #1
 219              		.loc 1 142 0
 220 001c 2069     		ldr	r0, [r4, #16]
 221              		.loc 1 141 0
 222 001e 6361     		str	r3, [r4, #20]
 223              		.loc 1 142 0
 224 0020 8342     		cmp	r3, r0
 225              		.loc 1 143 0
 226 0022 24BF     		itt	cs
 227 0024 E368     		ldrcs	r3, [r4, #12]
 228 0026 6361     		strcs	r3, [r4, #20]
ARM GAS  /tmp/ccaHx2Yz.s 			page 5


 229              		.loc 1 145 0
 230 0028 2368     		ldr	r3, [r4, #0]
 231 002a A342     		cmp	r3, r4
 232 002c 08D0     		beq	.L16
 233              		.loc 1 146 0
 234 002e 2046     		mov	r0, r4
 235 0030 FFF7FEFF 		bl	fifo_remove
 236 0034 FFF7FEFF 		bl	chSchReadyI
 237 0038 0022     		movs	r2, #0
 238 003a 8262     		str	r2, [r0, #40]
 239              		.loc 1 148 0
 240 003c 1046     		mov	r0, r2
 241 003e 38BD     		pop	{r3, r4, r5, pc}
 242              	.L16:
 243 0040 0020     		movs	r0, #0
 244              		.loc 1 149 0
 245 0042 38BD     		pop	{r3, r4, r5, pc}
 246              	.L11:
 247              		.loc 1 137 0 discriminator 1
 248 0044 002A     		cmp	r2, #0
 249 0046 E5D0     		beq	.L12
 250              		.loc 1 138 0
 251 0048 6FF00300 		mvn	r0, #3
 252 004c 38BD     		pop	{r3, r4, r5, pc}
 253              		.cfi_endproc
 254              	.LFE3:
 255              		.size	chIQPutI, .-chIQPutI
 256 004e 00BF     		.section	.text.chIQGetTimeout,"ax",%progbits
 257              		.align	2
 258              		.p2align 4,,15
 259              		.global	chIQGetTimeout
 260              		.thumb
 261              		.thumb_func
 262              		.type	chIQGetTimeout, %function
 263              	chIQGetTimeout:
 264              	.LFB4:
 265              		.loc 1 171 0
 266              		.cfi_startproc
 267              		@ args = 0, pretend = 0, frame = 0
 268              		@ frame_needed = 0, uses_anonymous_args = 0
 269              	.LVL13:
 270 0000 70B5     		push	{r4, r5, r6, lr}
 271              	.LCFI4:
 272              		.cfi_def_cfa_offset 16
 273              		.cfi_offset 14, -4
 274              		.cfi_offset 6, -8
 275              		.cfi_offset 5, -12
 276              		.cfi_offset 4, -16
 277              		.loc 1 171 0
 278 0002 0446     		mov	r4, r0
 279 0004 0D46     		mov	r5, r1
 280              		.loc 1 174 0
 281              	@ 174 "../../../os/kernel/src/chqueues.c" 1
 282 0006 FFF7FEFF 		bl      _port_lock
 283              	@ 0 "" 2
 284              		.thumb
 285 000a FFF7FEFF 		bl	dbg_check_lock
ARM GAS  /tmp/ccaHx2Yz.s 			page 6


 286              	.LVL14:
 287              		.loc 1 175 0
 288 000e E369     		ldr	r3, [r4, #28]
 289 0010 0BB1     		cbz	r3, .L23
 290              		.loc 1 176 0
 291 0012 2046     		mov	r0, r4
 292 0014 9847     		blx	r3
 293              	.L23:
 294              		.loc 1 178 0 discriminator 1
 295 0016 A368     		ldr	r3, [r4, #8]
 296 0018 5BB9     		cbnz	r3, .L25
 297              	.LBB2:
 298              		.loc 1 180 0
 299 001a 2046     		mov	r0, r4
 300 001c 2946     		mov	r1, r5
 301 001e FFF7FEFF 		bl	qwait
 302              	.LVL15:
 303 0022 061E     		subs	r6, r0, #0
 304 0024 F7DA     		bge	.L23
 305              	.LBE2:
 306              		.loc 1 191 0
 307 0026 FFF7FEFF 		bl	dbg_check_unlock
 308              	.LVL16:
 309              	@ 191 "../../../os/kernel/src/chqueues.c" 1
 310 002a FFF7FEFF 		bl      _port_unlock
 311              	@ 0 "" 2
 312              		.loc 1 193 0
 313              		.thumb
 314 002e 3046     		mov	r0, r6
 315 0030 70BD     		pop	{r4, r5, r6, pc}
 316              	.LVL17:
 317              	.L25:
 318              		.loc 1 187 0
 319 0032 A269     		ldr	r2, [r4, #24]
 320              		.loc 1 188 0
 321 0034 2169     		ldr	r1, [r4, #16]
 322              		.loc 1 186 0
 323 0036 013B     		subs	r3, r3, #1
 324 0038 A360     		str	r3, [r4, #8]
 325              		.loc 1 187 0
 326 003a 12F8016B 		ldrb	r6, [r2], #1	@ zero_extendqisi2
 327              	.LVL18:
 328              		.loc 1 188 0
 329 003e 8A42     		cmp	r2, r1
 330              		.loc 1 189 0
 331 0040 28BF     		it	cs
 332 0042 E368     		ldrcs	r3, [r4, #12]
 333              		.loc 1 187 0
 334 0044 A261     		str	r2, [r4, #24]
 335              		.loc 1 189 0
 336 0046 28BF     		it	cs
 337 0048 A361     		strcs	r3, [r4, #24]
 338              		.loc 1 191 0
 339 004a FFF7FEFF 		bl	dbg_check_unlock
 340              	@ 191 "../../../os/kernel/src/chqueues.c" 1
 341 004e FFF7FEFF 		bl      _port_unlock
 342              	@ 0 "" 2
ARM GAS  /tmp/ccaHx2Yz.s 			page 7


 343              		.loc 1 193 0
 344              		.thumb
 345 0052 3046     		mov	r0, r6
 346 0054 70BD     		pop	{r4, r5, r6, pc}
 347              		.cfi_endproc
 348              	.LFE4:
 349              		.size	chIQGetTimeout, .-chIQGetTimeout
 350 0056 00BFAFF3 		.section	.text.chIQReadTimeout,"ax",%progbits
 350      0080AFF3 
 350      0080
 351              		.align	2
 352              		.p2align 4,,15
 353              		.global	chIQReadTimeout
 354              		.thumb
 355              		.thumb_func
 356              		.type	chIQReadTimeout, %function
 357              	chIQReadTimeout:
 358              	.LFB5:
 359              		.loc 1 220 0
 360              		.cfi_startproc
 361              		@ args = 0, pretend = 0, frame = 0
 362              		@ frame_needed = 0, uses_anonymous_args = 0
 363              	.LVL19:
 364 0000 2DE9F843 		push	{r3, r4, r5, r6, r7, r8, r9, lr}
 365              	.LCFI5:
 366              		.cfi_def_cfa_offset 32
 367              		.cfi_offset 14, -4
 368              		.cfi_offset 9, -8
 369              		.cfi_offset 8, -12
 370              		.cfi_offset 7, -16
 371              		.cfi_offset 6, -20
 372              		.cfi_offset 5, -24
 373              		.cfi_offset 4, -28
 374              		.cfi_offset 3, -32
 375              		.loc 1 220 0
 376 0004 0446     		mov	r4, r0
 377              		.loc 1 224 0
 378 0006 9046     		mov	r8, r2
 379              		.loc 1 220 0
 380 0008 8946     		mov	r9, r1
 381 000a 1D46     		mov	r5, r3
 382              		.loc 1 221 0
 383 000c C769     		ldr	r7, [r0, #28]
 384              	.LVL20:
 385              		.loc 1 224 0
 386 000e 002A     		cmp	r2, #0
 387 0010 2FD0     		beq	.L36
 388              	.LVL21:
 389              	.L27:
 390              		.loc 1 226 0
 391              	@ 226 "../../../os/kernel/src/chqueues.c" 1
 392 0012 FFF7FEFF 		bl      _port_lock
 393              	@ 0 "" 2
 394              		.thumb
 395 0016 FFF7FEFF 		bl	dbg_check_lock
 396              		.loc 1 222 0
 397 001a 0026     		movs	r6, #0
ARM GAS  /tmp/ccaHx2Yz.s 			page 8


 398              	.LVL22:
 399              	.L33:
 400              		.loc 1 228 0
 401 001c 0FB1     		cbz	r7, .L34
 402              		.loc 1 229 0
 403 001e 2046     		mov	r0, r4
 404 0020 B847     		blx	r7
 405              	.L34:
 406              		.loc 1 231 0 discriminator 1
 407 0022 A368     		ldr	r3, [r4, #8]
 408 0024 63B9     		cbnz	r3, .L37
 409              		.loc 1 232 0
 410 0026 2046     		mov	r0, r4
 411 0028 2946     		mov	r1, r5
 412 002a FFF7FEFF 		bl	qwait
 413 002e 0028     		cmp	r0, #0
 414 0030 F7D0     		beq	.L34
 415              		.loc 1 233 0
 416 0032 FFF7FEFF 		bl	dbg_check_unlock
 417              	@ 233 "../../../os/kernel/src/chqueues.c" 1
 418 0036 FFF7FEFF 		bl      _port_unlock
 419              	@ 0 "" 2
 420              		.thumb
 421              	.L30:
 422              		.loc 1 250 0
 423 003a 3046     		mov	r0, r6
 424 003c BDE8F883 		pop	{r3, r4, r5, r6, r7, r8, r9, pc}
 425              	.L37:
 426              		.loc 1 239 0
 427 0040 A269     		ldr	r2, [r4, #24]
 428              		.loc 1 238 0
 429 0042 591E     		subs	r1, r3, #1
 430 0044 A160     		str	r1, [r4, #8]
 431              		.loc 1 239 0
 432 0046 12F8010B 		ldrb	r0, [r2], #1	@ zero_extendqisi2
 433 004a 09F80600 		strb	r0, [r9, r6]
 434              		.loc 1 240 0
 435 004e 2369     		ldr	r3, [r4, #16]
 436              		.loc 1 239 0
 437 0050 A261     		str	r2, [r4, #24]
 438              		.loc 1 240 0
 439 0052 9A42     		cmp	r2, r3
 440              		.loc 1 241 0
 441 0054 24BF     		itt	cs
 442 0056 E368     		ldrcs	r3, [r4, #12]
 443 0058 A361     		strcs	r3, [r4, #24]
 444              		.loc 1 243 0
 445 005a FFF7FEFF 		bl	dbg_check_unlock
 446              	@ 243 "../../../os/kernel/src/chqueues.c" 1
 447 005e FFF7FEFF 		bl      _port_unlock
 448              	@ 0 "" 2
 449              		.loc 1 244 0
 450              		.thumb
 451 0062 0136     		adds	r6, r6, #1
 452              	.LVL23:
 453              		.loc 1 245 0
 454 0064 4645     		cmp	r6, r8
ARM GAS  /tmp/ccaHx2Yz.s 			page 9


 455 0066 E8D0     		beq	.L30
 456              		.loc 1 248 0
 457              	@ 248 "../../../os/kernel/src/chqueues.c" 1
 458 0068 FFF7FEFF 		bl      _port_lock
 459              	@ 0 "" 2
 460              		.thumb
 461 006c FFF7FEFF 		bl	dbg_check_lock
 462              		.loc 1 249 0
 463 0070 D4E7     		b	.L33
 464              	.LVL24:
 465              	.L36:
 466              		.loc 1 224 0 discriminator 1
 467 0072 40F20000 		movw	r0, #:lower16:.LC0
 468 0076 C0F20000 		movt	r0, #:upper16:.LC0
 469 007a FFF7FEFF 		bl	chDbgPanic
 470 007e C8E7     		b	.L27
 471              		.cfi_endproc
 472              	.LFE5:
 473              		.size	chIQReadTimeout, .-chIQReadTimeout
 474              		.section	.text.chOQInit,"ax",%progbits
 475              		.align	2
 476              		.p2align 4,,15
 477              		.global	chOQInit
 478              		.thumb
 479              		.thumb_func
 480              		.type	chOQInit, %function
 481              	chOQInit:
 482              	.LFB6:
 483              		.loc 1 269 0
 484              		.cfi_startproc
 485              		@ args = 4, pretend = 0, frame = 0
 486              		@ frame_needed = 0, uses_anonymous_args = 0
 487              		@ link register save eliminated.
 488              	.LVL25:
 489 0000 10B4     		push	{r4}
 490              	.LCFI6:
 491              		.cfi_def_cfa_offset 4
 492              		.cfi_offset 4, -4
 493              		.loc 1 275 0
 494 0002 C361     		str	r3, [r0, #28]
 495              		.loc 1 276 0
 496 0004 019B     		ldr	r3, [sp, #4]
 497              	.LVL26:
 498              		.loc 1 271 0
 499 0006 4060     		str	r0, [r0, #4]
 500              		.loc 1 274 0
 501 0008 8C18     		adds	r4, r1, r2
 502              		.loc 1 271 0
 503 000a 0060     		str	r0, [r0, #0]
 504              		.loc 1 272 0
 505 000c 8260     		str	r2, [r0, #8]
 506              		.loc 1 273 0
 507 000e 4161     		str	r1, [r0, #20]
 508 0010 8161     		str	r1, [r0, #24]
 509 0012 C160     		str	r1, [r0, #12]
 510              		.loc 1 274 0
 511 0014 0461     		str	r4, [r0, #16]
ARM GAS  /tmp/ccaHx2Yz.s 			page 10


 512              		.loc 1 276 0
 513 0016 0362     		str	r3, [r0, #32]
 514              		.loc 1 277 0
 515 0018 10BC     		pop	{r4}
 516 001a 7047     		bx	lr
 517              		.cfi_endproc
 518              	.LFE6:
 519              		.size	chOQInit, .-chOQInit
 520 001c AFF30080 		.section	.text.chOQResetI,"ax",%progbits
 521              		.align	2
 522              		.p2align 4,,15
 523              		.global	chOQResetI
 524              		.thumb
 525              		.thumb_func
 526              		.type	chOQResetI, %function
 527              	chOQResetI:
 528              	.LFB7:
 529              		.loc 1 290 0
 530              		.cfi_startproc
 531              		@ args = 0, pretend = 0, frame = 0
 532              		@ frame_needed = 0, uses_anonymous_args = 0
 533              	.LVL27:
 534 0000 38B5     		push	{r3, r4, r5, lr}
 535              	.LCFI7:
 536              		.cfi_def_cfa_offset 16
 537              		.cfi_offset 14, -4
 538              		.cfi_offset 5, -8
 539              		.cfi_offset 4, -12
 540              		.cfi_offset 3, -16
 541              		.loc 1 290 0
 542 0002 0446     		mov	r4, r0
 543              		.loc 1 292 0
 544 0004 FFF7FEFF 		bl	chDbgCheckClassI
 545              	.LVL28:
 546              		.loc 1 294 0
 547 0008 E368     		ldr	r3, [r4, #12]
 548              		.loc 1 295 0
 549 000a 2069     		ldr	r0, [r4, #16]
 550              		.loc 1 296 0
 551 000c 2268     		ldr	r2, [r4, #0]
 552              		.loc 1 294 0
 553 000e 6361     		str	r3, [r4, #20]
 554              		.loc 1 295 0
 555 0010 C11A     		subs	r1, r0, r3
 556              		.loc 1 296 0
 557 0012 A242     		cmp	r2, r4
 558              		.loc 1 294 0
 559 0014 A361     		str	r3, [r4, #24]
 560              		.loc 1 295 0
 561 0016 A160     		str	r1, [r4, #8]
 562              		.loc 1 296 0
 563 0018 0AD0     		beq	.L39
 564              		.loc 1 297 0
 565 001a 6FF00105 		mvn	r5, #1
 566              	.L42:
 567 001e 2046     		mov	r0, r4
 568 0020 FFF7FEFF 		bl	fifo_remove
ARM GAS  /tmp/ccaHx2Yz.s 			page 11


 569 0024 FFF7FEFF 		bl	chSchReadyI
 570 0028 8562     		str	r5, [r0, #40]
 571              		.loc 1 296 0
 572 002a 2268     		ldr	r2, [r4, #0]
 573 002c 9442     		cmp	r4, r2
 574 002e F6D1     		bne	.L42
 575              	.L39:
 576 0030 38BD     		pop	{r3, r4, r5, pc}
 577              		.cfi_endproc
 578              	.LFE7:
 579              		.size	chOQResetI, .-chOQResetI
 580 0032 00BFAFF3 		.section	.text.chOQPutTimeout,"ax",%progbits
 580      0080AFF3 
 580      0080AFF3 
 580      0080
 581              		.align	2
 582              		.p2align 4,,15
 583              		.global	chOQPutTimeout
 584              		.thumb
 585              		.thumb_func
 586              		.type	chOQPutTimeout, %function
 587              	chOQPutTimeout:
 588              	.LFB8:
 589              		.loc 1 322 0
 590              		.cfi_startproc
 591              		@ args = 0, pretend = 0, frame = 0
 592              		@ frame_needed = 0, uses_anonymous_args = 0
 593              	.LVL29:
 594 0000 F8B5     		push	{r3, r4, r5, r6, r7, lr}
 595              	.LCFI8:
 596              		.cfi_def_cfa_offset 24
 597              		.cfi_offset 14, -4
 598              		.cfi_offset 7, -8
 599              		.cfi_offset 6, -12
 600              		.cfi_offset 5, -16
 601              		.cfi_offset 4, -20
 602              		.cfi_offset 3, -24
 603              		.loc 1 322 0
 604 0002 0446     		mov	r4, r0
 605 0004 0D46     		mov	r5, r1
 606 0006 1646     		mov	r6, r2
 607              		.loc 1 324 0
 608              	@ 324 "../../../os/kernel/src/chqueues.c" 1
 609 0008 FFF7FEFF 		bl      _port_lock
 610              	@ 0 "" 2
 611              		.thumb
 612 000c FFF7FEFF 		bl	dbg_check_lock
 613              	.LVL30:
 614              	.L45:
 615              		.loc 1 325 0 discriminator 1
 616 0010 A368     		ldr	r3, [r4, #8]
 617 0012 5BB9     		cbnz	r3, .L51
 618              	.LBB3:
 619              		.loc 1 328 0
 620 0014 2046     		mov	r0, r4
 621 0016 3146     		mov	r1, r6
 622 0018 FFF7FEFF 		bl	qwait
ARM GAS  /tmp/ccaHx2Yz.s 			page 12


 623              	.LVL31:
 624 001c 071E     		subs	r7, r0, #0
 625 001e F7DA     		bge	.L45
 626              		.loc 1 329 0
 627 0020 FFF7FEFF 		bl	dbg_check_unlock
 628              	.LVL32:
 629              	@ 329 "../../../os/kernel/src/chqueues.c" 1
 630 0024 FFF7FEFF 		bl      _port_unlock
 631              	@ 0 "" 2
 632              		.thumb
 633              	.LBE3:
 634              		.loc 1 344 0
 635 0028 3846     		mov	r0, r7
 636 002a F8BD     		pop	{r3, r4, r5, r6, r7, pc}
 637              	.LVL33:
 638              	.L51:
 639              		.loc 1 335 0
 640 002c 6269     		ldr	r2, [r4, #20]
 641              		.loc 1 334 0
 642 002e 581E     		subs	r0, r3, #1
 643 0030 A060     		str	r0, [r4, #8]
 644              		.loc 1 335 0
 645 0032 02F8015B 		strb	r5, [r2], #1
 646              		.loc 1 336 0
 647 0036 2369     		ldr	r3, [r4, #16]
 648              		.loc 1 335 0
 649 0038 6261     		str	r2, [r4, #20]
 650              		.loc 1 336 0
 651 003a 9A42     		cmp	r2, r3
 652              		.loc 1 337 0
 653 003c 24BF     		itt	cs
 654 003e E368     		ldrcs	r3, [r4, #12]
 655 0040 6361     		strcs	r3, [r4, #20]
 656              		.loc 1 339 0
 657 0042 E369     		ldr	r3, [r4, #28]
 658 0044 0BB1     		cbz	r3, .L49
 659              		.loc 1 340 0
 660 0046 2046     		mov	r0, r4
 661 0048 9847     		blx	r3
 662              	.L49:
 663              		.loc 1 342 0
 664 004a FFF7FEFF 		bl	dbg_check_unlock
 665              	@ 342 "../../../os/kernel/src/chqueues.c" 1
 666 004e FFF7FEFF 		bl      _port_unlock
 667              	@ 0 "" 2
 668              		.loc 1 343 0
 669              		.thumb
 670 0052 0027     		movs	r7, #0
 671              		.loc 1 344 0
 672 0054 3846     		mov	r0, r7
 673 0056 F8BD     		pop	{r3, r4, r5, r6, r7, pc}
 674              		.cfi_endproc
 675              	.LFE8:
 676              		.size	chOQPutTimeout, .-chOQPutTimeout
 677 0058 AFF30080 		.section	.text.chOQGetI,"ax",%progbits
 677      AFF30080 
 678              		.align	2
ARM GAS  /tmp/ccaHx2Yz.s 			page 13


 679              		.p2align 4,,15
 680              		.global	chOQGetI
 681              		.thumb
 682              		.thumb_func
 683              		.type	chOQGetI, %function
 684              	chOQGetI:
 685              	.LFB9:
 686              		.loc 1 356 0
 687              		.cfi_startproc
 688              		@ args = 0, pretend = 0, frame = 0
 689              		@ frame_needed = 0, uses_anonymous_args = 0
 690              	.LVL34:
 691 0000 38B5     		push	{r3, r4, r5, lr}
 692              	.LCFI9:
 693              		.cfi_def_cfa_offset 16
 694              		.cfi_offset 14, -4
 695              		.cfi_offset 5, -8
 696              		.cfi_offset 4, -12
 697              		.cfi_offset 3, -16
 698              		.loc 1 356 0
 699 0002 0546     		mov	r5, r0
 700              		.loc 1 359 0
 701 0004 FFF7FEFF 		bl	chDbgCheckClassI
 702              	.LVL35:
 703              		.loc 1 361 0
 704 0008 6A69     		ldr	r2, [r5, #20]
 705 000a AB69     		ldr	r3, [r5, #24]
 706 000c 9A42     		cmp	r2, r3
 707 000e AA68     		ldr	r2, [r5, #8]
 708 0010 15D0     		beq	.L53
 709              	.L54:
 710              		.loc 1 364 0
 711 0012 511C     		adds	r1, r2, #1
 712 0014 A960     		str	r1, [r5, #8]
 713              		.loc 1 365 0
 714 0016 13F8014B 		ldrb	r4, [r3], #1	@ zero_extendqisi2
 715              	.LVL36:
 716              		.loc 1 366 0
 717 001a 2869     		ldr	r0, [r5, #16]
 718              		.loc 1 365 0
 719 001c AB61     		str	r3, [r5, #24]
 720              		.loc 1 366 0
 721 001e 8342     		cmp	r3, r0
 722              		.loc 1 367 0
 723 0020 24BF     		itt	cs
 724 0022 EB68     		ldrcs	r3, [r5, #12]
 725 0024 AB61     		strcs	r3, [r5, #24]
 726              		.loc 1 369 0
 727 0026 2B68     		ldr	r3, [r5, #0]
 728 0028 AB42     		cmp	r3, r5
 729 002a 06D0     		beq	.L57
 730              		.loc 1 370 0
 731 002c 2846     		mov	r0, r5
 732 002e FFF7FEFF 		bl	fifo_remove
 733 0032 FFF7FEFF 		bl	chSchReadyI
 734 0036 0022     		movs	r2, #0
 735 0038 8262     		str	r2, [r0, #40]
ARM GAS  /tmp/ccaHx2Yz.s 			page 14


 736              	.L57:
 737              		.loc 1 372 0
 738 003a 2046     		mov	r0, r4
 739 003c 38BD     		pop	{r3, r4, r5, pc}
 740              	.LVL37:
 741              	.L53:
 742              		.loc 1 361 0 discriminator 1
 743 003e 002A     		cmp	r2, #0
 744 0040 E7D0     		beq	.L54
 745              		.loc 1 362 0
 746 0042 6FF00200 		mvn	r0, #2
 747              		.loc 1 373 0
 748 0046 38BD     		pop	{r3, r4, r5, pc}
 749              		.cfi_endproc
 750              	.LFE9:
 751              		.size	chOQGetI, .-chOQGetI
 752 0048 AFF30080 		.section	.text.chOQWriteTimeout,"ax",%progbits
 752      AFF30080 
 753              		.align	2
 754              		.p2align 4,,15
 755              		.global	chOQWriteTimeout
 756              		.thumb
 757              		.thumb_func
 758              		.type	chOQWriteTimeout, %function
 759              	chOQWriteTimeout:
 760              	.LFB10:
 761              		.loc 1 400 0
 762              		.cfi_startproc
 763              		@ args = 0, pretend = 0, frame = 0
 764              		@ frame_needed = 0, uses_anonymous_args = 0
 765              	.LVL38:
 766 0000 2DE9F843 		push	{r3, r4, r5, r6, r7, r8, r9, lr}
 767              	.LCFI10:
 768              		.cfi_def_cfa_offset 32
 769              		.cfi_offset 14, -4
 770              		.cfi_offset 9, -8
 771              		.cfi_offset 8, -12
 772              		.cfi_offset 7, -16
 773              		.cfi_offset 6, -20
 774              		.cfi_offset 5, -24
 775              		.cfi_offset 4, -28
 776              		.cfi_offset 3, -32
 777              		.loc 1 400 0
 778 0004 0446     		mov	r4, r0
 779              		.loc 1 404 0
 780 0006 1546     		mov	r5, r2
 781              		.loc 1 400 0
 782 0008 0E46     		mov	r6, r1
 783 000a 9946     		mov	r9, r3
 784              		.loc 1 401 0
 785 000c D0F81C80 		ldr	r8, [r0, #28]
 786              	.LVL39:
 787              		.loc 1 404 0
 788 0010 002A     		cmp	r2, #0
 789 0012 33D0     		beq	.L70
 790              	.LVL40:
 791              	.L60:
ARM GAS  /tmp/ccaHx2Yz.s 			page 15


 792              		.loc 1 406 0
 793              	@ 406 "../../../os/kernel/src/chqueues.c" 1
 794 0014 FFF7FEFF 		bl      _port_lock
 795              	@ 0 "" 2
 796              		.thumb
 797 0018 FFF7FEFF 		bl	dbg_check_lock
 798              		.loc 1 402 0
 799 001c 0027     		movs	r7, #0
 800              	.LVL41:
 801              	.L69:
 802              		.loc 1 408 0 discriminator 1
 803 001e A368     		ldr	r3, [r4, #8]
 804 0020 FBB1     		cbz	r3, .L64
 805              	.L71:
 806              		.loc 1 414 0
 807 0022 591E     		subs	r1, r3, #1
 808 0024 A160     		str	r1, [r4, #8]
 809              		.loc 1 415 0
 810 0026 6369     		ldr	r3, [r4, #20]
 811 0028 3078     		ldrb	r0, [r6, #0]	@ zero_extendqisi2
 812 002a 03F8010B 		strb	r0, [r3], #1
 813              		.loc 1 416 0
 814 002e 2269     		ldr	r2, [r4, #16]
 815              		.loc 1 415 0
 816 0030 6361     		str	r3, [r4, #20]
 817              	.LVL42:
 818              		.loc 1 416 0
 819 0032 9342     		cmp	r3, r2
 820              		.loc 1 417 0
 821 0034 24BF     		itt	cs
 822 0036 E368     		ldrcs	r3, [r4, #12]
 823 0038 6361     		strcs	r3, [r4, #20]
 824              		.loc 1 419 0
 825 003a B8F1000F 		cmp	r8, #0
 826 003e 01D0     		beq	.L66
 827              		.loc 1 420 0
 828 0040 2046     		mov	r0, r4
 829 0042 C047     		blx	r8
 830              	.L66:
 831              		.loc 1 422 0
 832 0044 FFF7FEFF 		bl	dbg_check_unlock
 833              	@ 422 "../../../os/kernel/src/chqueues.c" 1
 834 0048 FFF7FEFF 		bl      _port_unlock
 835              	@ 0 "" 2
 836              		.loc 1 423 0
 837              		.thumb
 838 004c 0137     		adds	r7, r7, #1
 839              	.LVL43:
 840              		.loc 1 424 0
 841 004e 013D     		subs	r5, r5, #1
 842              	.LVL44:
 843 0050 11D0     		beq	.L63
 844              		.loc 1 415 0
 845 0052 0136     		adds	r6, r6, #1
 846              	.LVL45:
 847              		.loc 1 426 0
 848              	@ 426 "../../../os/kernel/src/chqueues.c" 1
ARM GAS  /tmp/ccaHx2Yz.s 			page 16


 849 0054 FFF7FEFF 		bl      _port_lock
 850              	@ 0 "" 2
 851              		.thumb
 852 0058 FFF7FEFF 		bl	dbg_check_lock
 853              		.loc 1 408 0
 854 005c A368     		ldr	r3, [r4, #8]
 855 005e 002B     		cmp	r3, #0
 856 0060 DFD1     		bne	.L71
 857              	.L64:
 858              		.loc 1 409 0
 859 0062 2046     		mov	r0, r4
 860 0064 4946     		mov	r1, r9
 861 0066 FFF7FEFF 		bl	qwait
 862 006a 0028     		cmp	r0, #0
 863 006c D7D0     		beq	.L69
 864              		.loc 1 410 0
 865 006e FFF7FEFF 		bl	dbg_check_unlock
 866              	@ 410 "../../../os/kernel/src/chqueues.c" 1
 867 0072 FFF7FEFF 		bl      _port_unlock
 868              	@ 0 "" 2
 869              	.LVL46:
 870              		.thumb
 871              	.L63:
 872              		.loc 1 428 0
 873 0076 3846     		mov	r0, r7
 874 0078 BDE8F883 		pop	{r3, r4, r5, r6, r7, r8, r9, pc}
 875              	.LVL47:
 876              	.L70:
 877              		.loc 1 404 0 discriminator 1
 878 007c 40F20000 		movw	r0, #:lower16:.LC1
 879 0080 C0F20000 		movt	r0, #:upper16:.LC1
 880 0084 FFF7FEFF 		bl	chDbgPanic
 881              	.LVL48:
 882 0088 C4E7     		b	.L60
 883              		.cfi_endproc
 884              	.LFE10:
 885              		.size	chOQWriteTimeout, .-chOQWriteTimeout
 886 008a 00BFAFF3 		.section	.rodata.str1.4,"aMS",%progbits,1
 886      0080
 887              		.align	2
 888              	.LC0:
 889 0000 22636849 		.ascii	"\"chIQReadTimeout\"()\000"
 889      51526561 
 889      6454696D 
 889      656F7574 
 889      22282900 
 890              	.LC1:
 891 0014 2263684F 		.ascii	"\"chOQWriteTimeout\"()\000"
 891      51577269 
 891      74655469 
 891      6D656F75 
 891      74222829 
 892 0029 000000   		.text
 893              	.Letext0:
 894              		.file 2 "/home/prana/CodeSourcery/ARM_EABI/bin/../lib/gcc/arm-none-eabi/4.6.3/include/stddef.h"
 895              		.file 3 "/home/prana/CodeSourcery/ARM_EABI/bin/../lib/gcc/arm-none-eabi/4.6.3/../../../../arm-none
 896              		.file 4 "../../../os/ports/GCC/ARMCMx/chtypes.h"
ARM GAS  /tmp/ccaHx2Yz.s 			page 17


 897              		.file 5 "../../../os/kernel/include/chlists.h"
 898              		.file 6 "../../../os/kernel/include/chthreads.h"
 899              		.file 7 "../../../os/ports/GCC/ARMCMx/chcore_v7m.h"
 900              		.file 8 "../../../os/kernel/include/chschd.h"
 901              		.file 9 "../../../os/kernel/include/chmtx.h"
 902              		.file 10 "../../../os/kernel/include/chqueues.h"