ARM GAS  /tmp/cc2XB3dB.s 			page 1


   1              		.syntax unified
   2              		.cpu cortex-m4
   3              		.fpu softvfp
   4              		.eabi_attribute 20, 1
   5              		.eabi_attribute 21, 1
   6              		.eabi_attribute 23, 3
   7              		.eabi_attribute 24, 1
   8              		.eabi_attribute 25, 1
   9              		.eabi_attribute 26, 1
  10              		.eabi_attribute 30, 2
  11              		.eabi_attribute 34, 1
  12              		.eabi_attribute 18, 4
  13              		.thumb
  14              		.file	"chregistry.c"
  15              		.text
  16              	.Ltext0:
  17              		.cfi_sections	.debug_frame
  18              		.section	.text.chRegFirstThread,"ax",%progbits
  19              		.align	2
  20              		.p2align 4,,15
  21              		.global	chRegFirstThread
  22              		.thumb
  23              		.thumb_func
  24              		.type	chRegFirstThread, %function
  25              	chRegFirstThread:
  26              	.LFB0:
  27              		.file 1 "../../../os/kernel/src/chregistry.c"
  28              		.loc 1 110 0
  29              		.cfi_startproc
  30              		@ args = 0, pretend = 0, frame = 0
  31              		@ frame_needed = 0, uses_anonymous_args = 0
  32 0000 10B5     		push	{r4, lr}
  33              	.LCFI0:
  34              		.cfi_def_cfa_offset 8
  35              		.cfi_offset 14, -4
  36              		.cfi_offset 4, -8
  37              		.loc 1 113 0
  38              	@ 113 "../../../os/kernel/src/chregistry.c" 1
  39 0002 FFF7FEFF 		bl      _port_lock
  40              	@ 0 "" 2
  41              		.thumb
  42 0006 FFF7FEFF 		bl	dbg_check_lock
  43              		.loc 1 114 0
  44 000a 40F20003 		movw	r3, #:lower16:rlist
  45 000e C0F20003 		movt	r3, #:upper16:rlist
  46 0012 1C69     		ldr	r4, [r3, #16]
  47              	.LVL0:
  48              		.loc 1 118 0
  49 0014 FFF7FEFF 		bl	dbg_check_unlock
  50              	.LVL1:
  51              	@ 118 "../../../os/kernel/src/chregistry.c" 1
  52 0018 FFF7FEFF 		bl      _port_unlock
  53              	@ 0 "" 2
  54              		.loc 1 120 0
  55              		.thumb
  56 001c 2046     		mov	r0, r4
  57 001e 10BD     		pop	{r4, pc}
ARM GAS  /tmp/cc2XB3dB.s 			page 2


  58              		.cfi_endproc
  59              	.LFE0:
  60              		.size	chRegFirstThread, .-chRegFirstThread
  61              		.section	.text.chRegNextThread,"ax",%progbits
  62              		.align	2
  63              		.p2align 4,,15
  64              		.global	chRegNextThread
  65              		.thumb
  66              		.thumb_func
  67              		.type	chRegNextThread, %function
  68              	chRegNextThread:
  69              	.LFB1:
  70              		.loc 1 133 0
  71              		.cfi_startproc
  72              		@ args = 0, pretend = 0, frame = 0
  73              		@ frame_needed = 0, uses_anonymous_args = 0
  74              	.LVL2:
  75 0000 10B5     		push	{r4, lr}
  76              	.LCFI1:
  77              		.cfi_def_cfa_offset 8
  78              		.cfi_offset 14, -4
  79              		.cfi_offset 4, -8
  80              		.loc 1 133 0
  81 0002 0446     		mov	r4, r0
  82              		.loc 1 136 0
  83              	@ 136 "../../../os/kernel/src/chregistry.c" 1
  84 0004 FFF7FEFF 		bl      _port_lock
  85              	@ 0 "" 2
  86              		.thumb
  87 0008 FFF7FEFF 		bl	dbg_check_lock
  88              	.LVL3:
  89              		.loc 1 137 0
  90 000c 2469     		ldr	r4, [r4, #16]
  91              	.LVL4:
  92              		.loc 1 138 0
  93 000e 40F20003 		movw	r3, #:lower16:rlist
  94 0012 C0F20003 		movt	r3, #:upper16:rlist
  95              		.loc 1 139 0
  96 0016 9C42     		cmp	r4, r3
  97 0018 08BF     		it	eq
  98 001a 0024     		moveq	r4, #0
  99              	.LVL5:
 100              		.loc 1 147 0
 101 001c FFF7FEFF 		bl	dbg_check_unlock
 102              	@ 147 "../../../os/kernel/src/chregistry.c" 1
 103 0020 FFF7FEFF 		bl      _port_unlock
 104              	@ 0 "" 2
 105              		.loc 1 152 0
 106              		.thumb
 107 0024 2046     		mov	r0, r4
 108 0026 10BD     		pop	{r4, pc}
 109              		.cfi_endproc
 110              	.LFE1:
 111              		.size	chRegNextThread, .-chRegNextThread
 112              		.global	ch_debug
 113 0028 AFF30080 		.section	.rodata.ch_debug,"a",%progbits
 113      AFF30080 
ARM GAS  /tmp/cc2XB3dB.s 			page 3


 114              		.align	2
 115              		.type	ch_debug, %object
 116              		.size	ch_debug, 22
 117              	ch_debug:
 118 0000 6D61696E 		.ascii	"main"
 119 0004 00       		.byte	0
 120 0005 16       		.byte	22
 121 0006 4111     		.short	4417
 122 0008 04       		.byte	4
 123 0009 04       		.byte	4
 124 000a 48       		.byte	72
 125 000b 08       		.byte	8
 126 000c 0C       		.byte	12
 127 000d 10       		.byte	16
 128 000e 14       		.byte	20
 129 000f 18       		.byte	24
 130 0010 1C       		.byte	28
 131 0011 20       		.byte	32
 132 0012 21       		.byte	33
 133 0013 00       		.byte	0
 134 0014 00       		.byte	0
 135 0015 24       		.byte	36
 136 0016 0000     		.text
 137              	.Letext0:
 138              		.file 2 "/home/prana/CodeSourcery/ARM_EABI/bin/../lib/gcc/arm-none-eabi/4.6.3/include/stddef.h"
 139              		.file 3 "/home/prana/CodeSourcery/ARM_EABI/bin/../lib/gcc/arm-none-eabi/4.6.3/../../../../arm-none
 140              		.file 4 "../../../os/ports/GCC/ARMCMx/chtypes.h"
 141              		.file 5 "../../../os/kernel/include/chlists.h"
 142              		.file 6 "../../../os/kernel/include/chthreads.h"
 143              		.file 7 "../../../os/ports/GCC/ARMCMx/chcore_v7m.h"
 144              		.file 8 "../../../os/kernel/include/chschd.h"
 145              		.file 9 "../../../os/kernel/include/chmtx.h"
 146              		.file 10 "../../../os/kernel/include/chregistry.h"