ARM GAS  /tmp/cc0TifqM.s 			page 1


   1              		.syntax unified
   2              		.cpu cortex-m4
   3              		.fpu softvfp
   4              		.eabi_attribute 20, 1
   5              		.eabi_attribute 21, 1
   6              		.eabi_attribute 23, 3
   7              		.eabi_attribute 24, 1
   8              		.eabi_attribute 25, 1
   9              		.eabi_attribute 26, 1
  10              		.eabi_attribute 30, 2
  11              		.eabi_attribute 34, 1
  12              		.eabi_attribute 18, 4
  13              		.thumb
  14              		.file	"chrtclib.c"
  15              		.text
  16              	.Ltext0:
  17              		.cfi_sections	.debug_frame
  18              		.section	.text.stm32_rtc_bcd2tm,"ax",%progbits
  19              		.align	2
  20              		.p2align 4,,15
  21              		.thumb
  22              		.thumb_func
  23              		.type	stm32_rtc_bcd2tm, %function
  24              	stm32_rtc_bcd2tm:
  25              	.LFB111:
  26              		.file 1 "../../../os/various/chrtclib.c"
  27              		.loc 1 52 0
  28              		.cfi_startproc
  29              		@ args = 0, pretend = 0, frame = 8
  30              		@ frame_needed = 0, uses_anonymous_args = 0
  31              		@ link register save eliminated.
  32              	.LVL0:
  33              		.loc 1 54 0
  34 0000 91E80C00 		ldmia	r1, {r2, r3}
  35              	.LVL1:
  36              		.loc 1 52 0
  37 0004 2DE9F00F 		push	{r4, r5, r6, r7, r8, r9, sl, fp}
  38              	.LCFI0:
  39              		.cfi_def_cfa_offset 32
  40              		.cfi_offset 11, -4
  41              		.cfi_offset 10, -8
  42              		.cfi_offset 9, -12
  43              		.cfi_offset 8, -16
  44              		.cfi_offset 7, -20
  45              		.cfi_offset 6, -24
  46              		.cfi_offset 5, -28
  47              		.cfi_offset 4, -32
  48              		.loc 1 93 0
  49 0008 C3F38051 		ubfx	r1, r3, #22, #1
  50              	.LVL2:
  51 000c 4D00     		lsls	r5, r1, #1
  52              		.loc 1 78 0
  53 000e C2F30034 		ubfx	r4, r2, #12, #1
  54              		.loc 1 93 0
  55 0012 6E18     		adds	r6, r5, r1
  56              		.loc 1 52 0
  57 0014 82B0     		sub	sp, sp, #8
ARM GAS  /tmp/cc0TifqM.s 			page 2


  58              	.LCFI1:
  59              		.cfi_def_cfa_offset 40
  60              		.loc 1 78 0
  61 0016 4FEA8408 		lsl	r8, r4, #2
  62              		.loc 1 82 0
  63 001a C2F3035B 		ubfx	fp, r2, #20, #4
  64              		.loc 1 93 0
  65 001e B100     		lsls	r1, r6, #2
  66              		.loc 1 78 0
  67 0020 08EB040A 		add	sl, r8, r4
  68              		.loc 1 75 0
  69 0024 C2F3011C 		ubfx	ip, r2, #4, #2
  70              		.loc 1 82 0
  71 0028 0BEB8B08 		add	r8, fp, fp, lsl #2
  72              		.loc 1 81 0
  73 002c C2F30345 		ubfx	r5, r2, #16, #4
  74              		.loc 1 93 0
  75 0030 0191     		str	r1, [sp, #4]
  76              		.loc 1 92 0
  77 0032 C3F30157 		ubfx	r7, r3, #20, #2
  78              		.loc 1 75 0
  79 0036 0CEB8C06 		add	r6, ip, ip, lsl #2
  80              		.loc 1 82 0
  81 003a 05EB480C 		add	ip, r5, r8, lsl #1
  82              		.loc 1 92 0
  83 003e DDF80480 		ldr	r8, [sp, #4]
  84              		.loc 1 86 0
  85 0042 C3F30214 		ubfx	r4, r3, #4, #3
  86              		.loc 1 89 0
  87 0046 C3F3023B 		ubfx	fp, r3, #12, #3
  88              		.loc 1 77 0
  89 004a C2F30329 		ubfx	r9, r2, #8, #4
  90              		.loc 1 92 0
  91 004e 07EB8707 		add	r7, r7, r7, lsl #2
  92              		.loc 1 78 0
  93 0052 09EB4A09 		add	r9, r9, sl, lsl #1
  94              		.loc 1 86 0
  95 0056 04EB8405 		add	r5, r4, r4, lsl #2
  96              		.loc 1 85 0
  97 005a 03F00F0A 		and	sl, r3, #15
  98              		.loc 1 89 0
  99 005e 0BEB8B04 		add	r4, fp, fp, lsl #2
 100              		.loc 1 92 0
 101 0062 08EB4707 		add	r7, r8, r7, lsl #1
 102              		.loc 1 88 0
 103 0066 C3F3032B 		ubfx	fp, r3, #8, #4
 104              		.loc 1 91 0
 105 006a C3F30343 		ubfx	r3, r3, #16, #4
 106              		.loc 1 70 0
 107 006e C2F34231 		ubfx	r1, r2, #13, #3
 108              		.loc 1 93 0
 109 0072 FF18     		adds	r7, r7, r3
 110              		.loc 1 74 0
 111 0074 02F00F02 		and	r2, r2, #15
 112              	.LVL3:
 113              		.loc 1 60 0
 114 0078 0023     		movs	r3, #0
ARM GAS  /tmp/cc0TifqM.s 			page 3


 115              		.loc 1 75 0
 116 007a 02EB4606 		add	r6, r2, r6, lsl #1
 117              		.loc 1 72 0
 118 007e 0729     		cmp	r1, #7
 119 0080 08BF     		it	eq
 120 0082 0021     		moveq	r1, #0
 121              		.loc 1 79 0
 122 0084 09F1FF32 		add	r2, r9, #-1
 123              		.loc 1 83 0
 124 0088 0CF1640C 		add	ip, ip, #100
 125              		.loc 1 86 0
 126 008c 0AEB4505 		add	r5, sl, r5, lsl #1
 127              		.loc 1 89 0
 128 0090 0BEB4404 		add	r4, fp, r4, lsl #1
 129              		.loc 1 60 0
 130 0094 C361     		str	r3, [r0, #28]
 131              		.loc 1 68 0
 132 0096 4FF0FF33 		mov	r3, #-1
 133 009a 0362     		str	r3, [r0, #32]
 134              		.loc 1 72 0
 135 009c 8161     		str	r1, [r0, #24]
 136              		.loc 1 75 0
 137 009e C660     		str	r6, [r0, #12]
 138              		.loc 1 79 0
 139 00a0 0261     		str	r2, [r0, #16]
 140              		.loc 1 83 0
 141 00a2 C0F814C0 		str	ip, [r0, #20]
 142              		.loc 1 86 0
 143 00a6 0560     		str	r5, [r0, #0]
 144              		.loc 1 89 0
 145 00a8 4460     		str	r4, [r0, #4]
 146              		.loc 1 93 0
 147 00aa 8760     		str	r7, [r0, #8]
 148              		.loc 1 94 0
 149 00ac 02B0     		add	sp, sp, #8
 150 00ae BDE8F00F 		pop	{r4, r5, r6, r7, r8, r9, sl, fp}
 151 00b2 7047     		bx	lr
 152              		.cfi_endproc
 153              	.LFE111:
 154              		.size	stm32_rtc_bcd2tm, .-stm32_rtc_bcd2tm
 155 00b4 AFF30080 		.section	.text.stm32_rtc_tm2bcd,"ax",%progbits
 155      AFF30080 
 155      AFF30080 
 156              		.align	2
 157              		.p2align 4,,15
 158              		.thumb
 159              		.thumb_func
 160              		.type	stm32_rtc_tm2bcd, %function
 161              	stm32_rtc_tm2bcd:
 162              	.LFB112:
 163              		.loc 1 104 0
 164              		.cfi_startproc
 165              		@ args = 0, pretend = 0, frame = 24
 166              		@ frame_needed = 0, uses_anonymous_args = 0
 167              		@ link register save eliminated.
 168              	.LVL4:
 169 0000 2DE9F00F 		push	{r4, r5, r6, r7, r8, r9, sl, fp}
ARM GAS  /tmp/cc0TifqM.s 			page 4


 170              	.LCFI2:
 171              		.cfi_def_cfa_offset 32
 172              		.cfi_offset 11, -4
 173              		.cfi_offset 10, -8
 174              		.cfi_offset 9, -12
 175              		.cfi_offset 8, -16
 176              		.cfi_offset 7, -20
 177              		.cfi_offset 6, -24
 178              		.cfi_offset 5, -28
 179              		.cfi_offset 4, -32
 180              		.loc 1 110 0
 181 0004 4769     		ldr	r7, [r0, #20]
 182              		.loc 1 114 0
 183 0006 8469     		ldr	r4, [r0, #24]
 184              		.loc 1 111 0
 185 0008 4CF6CD46 		movw	r6, #52429
 186              		.loc 1 110 0
 187 000c 643F     		subs	r7, r7, #100
 188              	.LVL5:
 189              		.loc 1 111 0
 190 000e CCF6CC46 		movt	r6, 52428
 191 0012 A6FB0753 		umull	r5, r3, r6, r7
 192 0016 DD08     		lsrs	r5, r3, #3
 193              		.loc 1 112 0
 194 0018 05EB8502 		add	r2, r5, r5, lsl #2
 195              		.loc 1 104 0
 196 001c 86B0     		sub	sp, sp, #24
 197              	.LCFI3:
 198              		.cfi_def_cfa_offset 56
 199              		.loc 1 111 0
 200 001e 2E05     		lsls	r6, r5, #20
 201              		.loc 1 112 0
 202 0020 A7EB4205 		sub	r5, r7, r2, lsl #1
 203              		.loc 1 111 0
 204 0024 06F47003 		and	r3, r6, #15728640
 205              		.loc 1 112 0
 206 0028 2A04     		lsls	r2, r5, #16
 207              		.loc 1 111 0
 208 002a 0293     		str	r3, [sp, #8]
 209              		.loc 1 112 0
 210 002c 0392     		str	r2, [sp, #12]
 211              		.loc 1 114 0
 212 002e 002C     		cmp	r4, #0
 213 0030 6BD0     		beq	.L5
 214              	.LVL6:
 215 0032 6707     		lsls	r7, r4, #29
 216 0034 3C0C     		lsrs	r4, r7, #16
 217 0036 0494     		str	r4, [sp, #16]
 218              	.LVL7:
 219              	.L4:
 220              		.loc 1 132 0
 221 0038 D0F80480 		ldr	r8, [r0, #4]
 222              		.loc 1 120 0
 223 003c 0469     		ldr	r4, [r0, #16]
 224              		.loc 1 124 0
 225 003e D0F80CC0 		ldr	ip, [r0, #12]
 226              		.loc 1 128 0
ARM GAS  /tmp/cc0TifqM.s 			page 5


 227 0042 8768     		ldr	r7, [r0, #8]
 228              		.loc 1 136 0
 229 0044 0668     		ldr	r6, [r0, #0]
 230              		.loc 1 122 0
 231 0046 4CF6CD43 		movw	r3, #52429
 232 004a CCF6CC43 		movt	r3, 52428
 233              		.loc 1 134 0
 234 004e A3FB08B2 		umull	fp, r2, r3, r8
 235              		.loc 1 120 0
 236 0052 04F1010A 		add	sl, r4, #1
 237              	.LVL8:
 238              		.loc 1 134 0
 239 0056 D208     		lsrs	r2, r2, #3
 240              		.loc 1 126 0
 241 0058 A3FB0C45 		umull	r4, r5, r3, ip
 242              		.loc 1 130 0
 243 005c A3FB0794 		umull	r9, r4, r3, r7
 244              		.loc 1 122 0
 245 0060 A3FB0A90 		umull	r9, r0, r3, sl
 246              	.LVL9:
 247              		.loc 1 134 0
 248 0064 02EB820B 		add	fp, r2, r2, lsl #2
 249              		.loc 1 130 0
 250 0068 E408     		lsrs	r4, r4, #3
 251              		.loc 1 134 0
 252 006a CDF814B0 		str	fp, [sp, #20]
 253              		.loc 1 122 0
 254 006e C008     		lsrs	r0, r0, #3
 255              		.loc 1 138 0
 256 0070 A3FB06B3 		umull	fp, r3, r3, r6
 257              		.loc 1 130 0
 258 0074 04EB840B 		add	fp, r4, r4, lsl #2
 259              		.loc 1 122 0
 260 0078 00EB8009 		add	r9, r0, r0, lsl #2
 261              		.loc 1 126 0
 262 007c ED08     		lsrs	r5, r5, #3
 263              		.loc 1 130 0
 264 007e CDF804B0 		str	fp, [sp, #4]
 265              		.loc 1 134 0
 266 0082 DDF814B0 		ldr	fp, [sp, #20]
 267              		.loc 1 122 0
 268 0086 AAEB490A 		sub	sl, sl, r9, lsl #1
 269              		.loc 1 126 0
 270 008a 05EB8509 		add	r9, r5, r5, lsl #2
 271 008e ACEB490C 		sub	ip, ip, r9, lsl #1
 272              		.loc 1 134 0
 273 0092 A8EB4B08 		sub	r8, r8, fp, lsl #1
 274              		.loc 1 130 0
 275 0096 DDF80490 		ldr	r9, [sp, #4]
 276              		.loc 1 112 0
 277 009a DDF80CB0 		ldr	fp, [sp, #12]
 278              		.loc 1 138 0
 279 009e DB08     		lsrs	r3, r3, #3
 280              		.loc 1 112 0
 281 00a0 4BEA0A2A 		orr	sl, fp, sl, lsl #8
 282              		.loc 1 125 0
 283 00a4 2D01     		lsls	r5, r5, #4
ARM GAS  /tmp/cc0TifqM.s 			page 6


 284              		.loc 1 130 0
 285 00a6 A7EB4907 		sub	r7, r7, r9, lsl #1
 286              		.loc 1 134 0
 287 00aa 4FEA0828 		lsl	r8, r8, #8
 288              		.loc 1 138 0
 289 00ae 03EB8309 		add	r9, r3, r3, lsl #2
 290              		.loc 1 118 0
 291 00b2 4AEA0C0A 		orr	sl, sl, ip
 292              		.loc 1 125 0
 293 00b6 05F0300B 		and	fp, r5, #48
 294              		.loc 1 130 0
 295 00ba 48EA0747 		orr	r7, r8, r7, lsl #16
 296              		.loc 1 129 0
 297 00be 2405     		lsls	r4, r4, #20
 298              		.loc 1 138 0
 299 00c0 A6EB4906 		sub	r6, r6, r9, lsl #1
 300              	.LVL10:
 301              		.loc 1 121 0
 302 00c4 4AEA0B05 		orr	r5, sl, fp
 303              		.loc 1 133 0
 304 00c8 47EA0608 		orr	r8, r7, r6
 305 00cc 1203     		lsls	r2, r2, #12
 306              		.loc 1 129 0
 307 00ce 04F44017 		and	r7, r4, #3145728
 308              		.loc 1 122 0
 309 00d2 DDF808B0 		ldr	fp, [sp, #8]
 310              		.loc 1 121 0
 311 00d6 0003     		lsls	r0, r0, #12
 312              		.loc 1 133 0
 313 00d8 02F4E044 		and	r4, r2, #28672
 314              		.loc 1 134 0
 315 00dc 48EA0707 		orr	r7, r8, r7
 316              		.loc 1 121 0
 317 00e0 00F4805C 		and	ip, r0, #4096
 318              		.loc 1 137 0
 319 00e4 1B01     		lsls	r3, r3, #4
 320 00e6 47EA0402 		orr	r2, r7, r4
 321              		.loc 1 122 0
 322 00ea 45EA0B05 		orr	r5, r5, fp
 323              		.loc 1 126 0
 324 00ee 049C     		ldr	r4, [sp, #16]
 325              		.loc 1 125 0
 326 00f0 45EA0C00 		orr	r0, r5, ip
 327              		.loc 1 137 0
 328 00f4 03F0700C 		and	ip, r3, #112
 329              		.loc 1 126 0
 330 00f8 2043     		orrs	r0, r0, r4
 331              		.loc 1 138 0
 332 00fa 42EA0C03 		orr	r3, r2, ip
 333 00fe 81E80900 		stmia	r1, {r0, r3}
 334              		.loc 1 139 0
 335 0102 06B0     		add	sp, sp, #24
 336 0104 BDE8F00F 		pop	{r4, r5, r6, r7, r8, r9, sl, fp}
 337 0108 7047     		bx	lr
 338              	.LVL11:
 339              	.L5:
 340              		.loc 1 114 0
ARM GAS  /tmp/cc0TifqM.s 			page 7


 341 010a 4FF46042 		mov	r2, #57344
 342 010e 0492     		str	r2, [sp, #16]
 343 0110 92E7     		b	.L4
 344              		.cfi_endproc
 345              	.LFE112:
 346              		.size	stm32_rtc_tm2bcd, .-stm32_rtc_tm2bcd
 347 0112 00BFAFF3 		.section	.text.rtcGetTimeTm,"ax",%progbits
 347      0080AFF3 
 347      0080AFF3 
 347      0080
 348              		.align	2
 349              		.p2align 4,,15
 350              		.global	rtcGetTimeTm
 351              		.thumb
 352              		.thumb_func
 353              		.type	rtcGetTimeTm, %function
 354              	rtcGetTimeTm:
 355              	.LFB113:
 356              		.loc 1 149 0
 357              		.cfi_startproc
 358              		@ args = 0, pretend = 0, frame = 16
 359              		@ frame_needed = 0, uses_anonymous_args = 0
 360              	.LVL12:
 361 0000 10B5     		push	{r4, lr}
 362              	.LCFI4:
 363              		.cfi_def_cfa_offset 8
 364              		.cfi_offset 14, -4
 365              		.cfi_offset 4, -8
 366 0002 84B0     		sub	sp, sp, #16
 367              	.LCFI5:
 368              		.cfi_def_cfa_offset 24
 369              		.loc 1 151 0
 370 0004 0023     		movs	r3, #0
 371              		.loc 1 149 0
 372 0006 0C46     		mov	r4, r1
 373              		.loc 1 156 0
 374 0008 6946     		mov	r1, sp
 375              	.LVL13:
 376              		.loc 1 151 0
 377 000a 0093     		str	r3, [sp, #0]
 378 000c 0193     		str	r3, [sp, #4]
 379 000e 0293     		str	r3, [sp, #8]
 380 0010 0393     		str	r3, [sp, #12]
 381              		.loc 1 156 0
 382 0012 FFF7FEFF 		bl	rtcGetTime
 383              	.LVL14:
 384              		.loc 1 157 0
 385 0016 2046     		mov	r0, r4
 386 0018 6946     		mov	r1, sp
 387 001a FFF7FEFF 		bl	stm32_rtc_bcd2tm
 388              		.loc 1 158 0
 389 001e 04B0     		add	sp, sp, #16
 390 0020 10BD     		pop	{r4, pc}
 391              		.cfi_endproc
 392              	.LFE113:
 393              		.size	rtcGetTimeTm, .-rtcGetTimeTm
 394 0022 00BFAFF3 		.section	.text.rtcSetTimeTm,"ax",%progbits
ARM GAS  /tmp/cc0TifqM.s 			page 8


 394      0080AFF3 
 394      0080AFF3 
 394      0080
 395              		.align	2
 396              		.p2align 4,,15
 397              		.global	rtcSetTimeTm
 398              		.thumb
 399              		.thumb_func
 400              		.type	rtcSetTimeTm, %function
 401              	rtcSetTimeTm:
 402              	.LFB114:
 403              		.loc 1 168 0
 404              		.cfi_startproc
 405              		@ args = 0, pretend = 0, frame = 16
 406              		@ frame_needed = 0, uses_anonymous_args = 0
 407              	.LVL15:
 408 0000 10B5     		push	{r4, lr}
 409              	.LCFI6:
 410              		.cfi_def_cfa_offset 8
 411              		.cfi_offset 14, -4
 412              		.cfi_offset 4, -8
 413 0002 84B0     		sub	sp, sp, #16
 414              	.LCFI7:
 415              		.cfi_def_cfa_offset 24
 416              		.loc 1 170 0
 417 0004 0023     		movs	r3, #0
 418              		.loc 1 168 0
 419 0006 0446     		mov	r4, r0
 420              		.loc 1 175 0
 421 0008 0846     		mov	r0, r1
 422              	.LVL16:
 423 000a 6946     		mov	r1, sp
 424              	.LVL17:
 425              		.loc 1 170 0
 426 000c 0093     		str	r3, [sp, #0]
 427 000e 0193     		str	r3, [sp, #4]
 428 0010 0293     		str	r3, [sp, #8]
 429 0012 0393     		str	r3, [sp, #12]
 430              		.loc 1 175 0
 431 0014 FFF7FEFF 		bl	stm32_rtc_tm2bcd
 432              	.LVL18:
 433              		.loc 1 176 0
 434 0018 2046     		mov	r0, r4
 435 001a 6946     		mov	r1, sp
 436 001c FFF7FEFF 		bl	rtcSetTime
 437              		.loc 1 177 0
 438 0020 04B0     		add	sp, sp, #16
 439 0022 10BD     		pop	{r4, pc}
 440              		.cfi_endproc
 441              	.LFE114:
 442              		.size	rtcSetTimeTm, .-rtcSetTimeTm
 443 0024 AFF30080 		.section	.text.rtcGetTimeUnixSec,"ax",%progbits
 443      AFF30080 
 443      AFF30080 
 444              		.align	2
 445              		.p2align 4,,15
 446              		.global	rtcGetTimeUnixSec
ARM GAS  /tmp/cc0TifqM.s 			page 9


 447              		.thumb
 448              		.thumb_func
 449              		.type	rtcGetTimeUnixSec, %function
 450              	rtcGetTimeUnixSec:
 451              	.LFB115:
 452              		.loc 1 187 0
 453              		.cfi_startproc
 454              		@ args = 0, pretend = 0, frame = 64
 455              		@ frame_needed = 0, uses_anonymous_args = 0
 456              	.LVL19:
 457 0000 00B5     		push	{lr}
 458              	.LCFI8:
 459              		.cfi_def_cfa_offset 4
 460              		.cfi_offset 14, -4
 461 0002 91B0     		sub	sp, sp, #68
 462              	.LCFI9:
 463              		.cfi_def_cfa_offset 72
 464              		.loc 1 189 0
 465 0004 0023     		movs	r3, #0
 466              		.loc 1 195 0
 467 0006 0CA9     		add	r1, sp, #48
 468              		.loc 1 189 0
 469 0008 0C93     		str	r3, [sp, #48]
 470 000a 0D93     		str	r3, [sp, #52]
 471 000c 0E93     		str	r3, [sp, #56]
 472 000e 0F93     		str	r3, [sp, #60]
 473              		.loc 1 195 0
 474 0010 FFF7FEFF 		bl	rtcGetTime
 475              	.LVL20:
 476              		.loc 1 196 0
 477 0014 01A8     		add	r0, sp, #4
 478 0016 0CA9     		add	r1, sp, #48
 479 0018 FFF7FEFF 		bl	stm32_rtc_bcd2tm
 480              		.loc 1 198 0
 481 001c 01A8     		add	r0, sp, #4
 482 001e FFF7FEFF 		bl	mktime
 483              		.loc 1 199 0
 484 0022 11B0     		add	sp, sp, #68
 485 0024 00BD     		pop	{pc}
 486              		.cfi_endproc
 487              	.LFE115:
 488              		.size	rtcGetTimeUnixSec, .-rtcGetTimeUnixSec
 489 0026 00BFAFF3 		.section	.text.rtcSetTimeUnixSec,"ax",%progbits
 489      0080AFF3 
 489      0080
 490              		.align	2
 491              		.p2align 4,,15
 492              		.global	rtcSetTimeUnixSec
 493              		.thumb
 494              		.thumb_func
 495              		.type	rtcSetTimeUnixSec, %function
 496              	rtcSetTimeUnixSec:
 497              	.LFB116:
 498              		.loc 1 210 0
 499              		.cfi_startproc
 500              		@ args = 0, pretend = 0, frame = 72
 501              		@ frame_needed = 0, uses_anonymous_args = 0
ARM GAS  /tmp/cc0TifqM.s 			page 10


 502              	.LVL21:
 503 0000 10B5     		push	{r4, lr}
 504              	.LCFI10:
 505              		.cfi_def_cfa_offset 8
 506              		.cfi_offset 14, -4
 507              		.cfi_offset 4, -8
 508 0002 92B0     		sub	sp, sp, #72
 509              	.LCFI11:
 510              		.cfi_def_cfa_offset 80
 511              		.loc 1 212 0
 512 0004 0023     		movs	r3, #0
 513              		.loc 1 210 0
 514 0006 0446     		mov	r4, r0
 515 0008 0191     		str	r1, [sp, #4]
 516              		.loc 1 218 0
 517 000a 01A8     		add	r0, sp, #4
 518              	.LVL22:
 519 000c 03A9     		add	r1, sp, #12
 520              	.LVL23:
 521              		.loc 1 212 0
 522 000e 0E93     		str	r3, [sp, #56]
 523 0010 0F93     		str	r3, [sp, #60]
 524 0012 1093     		str	r3, [sp, #64]
 525 0014 1193     		str	r3, [sp, #68]
 526              		.loc 1 218 0
 527 0016 FFF7FEFF 		bl	localtime_r
 528              		.loc 1 219 0
 529 001a 03A8     		add	r0, sp, #12
 530 001c 0EA9     		add	r1, sp, #56
 531 001e FFF7FEFF 		bl	stm32_rtc_tm2bcd
 532              		.loc 1 220 0
 533 0022 2046     		mov	r0, r4
 534 0024 0EA9     		add	r1, sp, #56
 535 0026 FFF7FEFF 		bl	rtcSetTime
 536              		.loc 1 221 0
 537 002a 12B0     		add	sp, sp, #72
 538 002c 10BD     		pop	{r4, pc}
 539              		.cfi_endproc
 540              	.LFE116:
 541              		.size	rtcSetTimeUnixSec, .-rtcSetTimeUnixSec
 542 002e 00BF     		.section	.text.rtcGetTimeUnixUsec,"ax",%progbits
 543              		.align	2
 544              		.p2align 4,,15
 545              		.global	rtcGetTimeUnixUsec
 546              		.thumb
 547              		.thumb_func
 548              		.type	rtcGetTimeUnixUsec, %function
 549              	rtcGetTimeUnixUsec:
 550              	.LFB117:
 551              		.loc 1 231 0
 552              		.cfi_startproc
 553              		@ args = 0, pretend = 0, frame = 64
 554              		@ frame_needed = 0, uses_anonymous_args = 0
 555              	.LVL24:
 556 0000 10B5     		push	{r4, lr}
 557              	.LCFI12:
 558              		.cfi_def_cfa_offset 8
ARM GAS  /tmp/cc0TifqM.s 			page 11


 559              		.cfi_offset 14, -4
 560              		.cfi_offset 4, -8
 561 0002 90B0     		sub	sp, sp, #64
 562              	.LCFI13:
 563              		.cfi_def_cfa_offset 72
 564              		.loc 1 234 0
 565 0004 0023     		movs	r3, #0
 566              		.loc 1 237 0
 567 0006 0CA9     		add	r1, sp, #48
 568              		.loc 1 234 0
 569 0008 0C93     		str	r3, [sp, #48]
 570 000a 0D93     		str	r3, [sp, #52]
 571 000c 0E93     		str	r3, [sp, #56]
 572 000e 0F93     		str	r3, [sp, #60]
 573              		.loc 1 237 0
 574 0010 FFF7FEFF 		bl	rtcGetTime
 575              	.LVL25:
 576              		.loc 1 238 0
 577 0014 0CA9     		add	r1, sp, #48
 578 0016 01A8     		add	r0, sp, #4
 579 0018 FFF7FEFF 		bl	stm32_rtc_bcd2tm
 580              		.loc 1 240 0
 581 001c 01A8     		add	r0, sp, #4
 582 001e FFF7FEFF 		bl	mktime
 583              	.LVL26:
 584              		.loc 1 241 0
 585 0022 0F99     		ldr	r1, [sp, #60]
 586 0024 4FF47A74 		mov	r4, #1000
 587 0028 04FB01F1 		mul	r1, r4, r1
 588 002c 0A46     		mov	r2, r1
 589 002e 44F24021 		movw	r1, #16960
 590 0032 0023     		movs	r3, #0
 591 0034 C0F20F01 		movt	r1, 15
 592 0038 C1FB0023 		smlal	r2, r3, r1, r0
 593              		.loc 1 245 0
 594 003c 1046     		mov	r0, r2
 595 003e 1946     		mov	r1, r3
 596 0040 10B0     		add	sp, sp, #64
 597 0042 10BD     		pop	{r4, pc}
 598              		.cfi_endproc
 599              	.LFE117:
 600              		.size	rtcGetTimeUnixUsec, .-rtcGetTimeUnixUsec
 601 0044 AFF30080 		.text
 601      AFF30080 
 601      AFF30080 
 602              	.Letext0:
 603              		.file 2 "/home/prana/CodeSourcery/ARM_EABI/bin/../lib/gcc/arm-none-eabi/4.6.3/../../../../arm-none
 604              		.file 3 "/home/prana/CodeSourcery/ARM_EABI/bin/../lib/gcc/arm-none-eabi/4.6.3/../../../../arm-none
 605              		.file 4 "/home/prana/CodeSourcery/ARM_EABI/bin/../lib/gcc/arm-none-eabi/4.6.3/../../../../arm-none
 606              		.file 5 "../../../os/ports/GCC/ARMCMx/chtypes.h"
 607              		.file 6 "../../../os/hal/platforms/STM32F4xx/stm32f4xx.h"
 608              		.file 7 "../../../os/hal/include/rtc.h"
 609              		.file 8 "../../../os/hal/platforms/STM32/RTCv2/rtc_lld.h"
 610              		.file 9 "../../../os/ports/common/ARMCMx/CMSIS/include/core_cm4.h"