ARM GAS  /tmp/ccegnmey.s 			page 1


   1              		.syntax unified
   2              		.cpu cortex-m4
   3              		.fpu softvfp
   4              		.eabi_attribute 20, 1
   5              		.eabi_attribute 21, 1
   6              		.eabi_attribute 23, 3
   7              		.eabi_attribute 24, 1
   8              		.eabi_attribute 25, 1
   9              		.eabi_attribute 26, 1
  10              		.eabi_attribute 30, 2
  11              		.eabi_attribute 34, 1
  12              		.eabi_attribute 18, 4
  13              		.thumb
  14              		.file	"chschd.c"
  15              		.text
  16              	.Ltext0:
  17              		.cfi_sections	.debug_frame
  18              		.section	.text._scheduler_init,"ax",%progbits
  19              		.align	2
  20              		.p2align 4,,15
  21              		.global	_scheduler_init
  22              		.thumb
  23              		.thumb_func
  24              		.type	_scheduler_init, %function
  25              	_scheduler_init:
  26              	.LFB0:
  27              		.file 1 "../../../os/kernel/src/chschd.c"
  28              		.loc 1 48 0
  29              		.cfi_startproc
  30              		@ args = 0, pretend = 0, frame = 0
  31              		@ frame_needed = 0, uses_anonymous_args = 0
  32              		@ link register save eliminated.
  33              		.loc 1 50 0
  34 0000 40F20003 		movw	r3, #:lower16:.LANCHOR0
  35 0004 C0F20003 		movt	r3, #:upper16:.LANCHOR0
  36              		.loc 1 51 0
  37 0008 0022     		movs	r2, #0
  38              		.loc 1 50 0
  39 000a 5B60     		str	r3, [r3, #4]
  40 000c 1B60     		str	r3, [r3, #0]
  41              		.loc 1 51 0
  42 000e 9A60     		str	r2, [r3, #8]
  43              		.loc 1 53 0
  44 0010 5B61     		str	r3, [r3, #20]
  45 0012 1B61     		str	r3, [r3, #16]
  46              		.loc 1 55 0
  47 0014 7047     		bx	lr
  48              		.cfi_endproc
  49              	.LFE0:
  50              		.size	_scheduler_init, .-_scheduler_init
  51 0016 00BFAFF3 		.section	.text.chSchReadyI,"ax",%progbits
  51      0080AFF3 
  51      0080
  52              		.align	2
  53              		.p2align 4,,15
  54              		.global	chSchReadyI
  55              		.thumb
ARM GAS  /tmp/ccegnmey.s 			page 2


  56              		.thumb_func
  57              		.type	chSchReadyI, %function
  58              	chSchReadyI:
  59              	.LFB1:
  60              		.loc 1 74 0
  61              		.cfi_startproc
  62              		@ args = 0, pretend = 0, frame = 0
  63              		@ frame_needed = 0, uses_anonymous_args = 0
  64              	.LVL0:
  65 0000 10B5     		push	{r4, lr}
  66              	.LCFI0:
  67              		.cfi_def_cfa_offset 8
  68              		.cfi_offset 14, -4
  69              		.cfi_offset 4, -8
  70              		.loc 1 74 0
  71 0002 0446     		mov	r4, r0
  72              		.loc 1 77 0
  73 0004 FFF7FEFF 		bl	chDbgCheckClassI
  74              	.LVL1:
  75              		.loc 1 80 0
  76 0008 94F82000 		ldrb	r0, [r4, #32]	@ zero_extendqisi2
  77 000c D0F10102 		rsbs	r2, r0, #1
  78 0010 38BF     		it	cc
  79 0012 0022     		movcc	r2, #0
  80 0014 0E28     		cmp	r0, #14
  81 0016 14BF     		ite	ne
  82 0018 1346     		movne	r3, r2
  83 001a 42F00103 		orreq	r3, r2, #1
  84 001e 93B9     		cbnz	r3, .L7
  85              	.L3:
  86              		.loc 1 86 0
  87 0020 40F20003 		movw	r3, #:lower16:.LANCHOR0
  88              		.loc 1 85 0
  89 0024 0020     		movs	r0, #0
  90 0026 A168     		ldr	r1, [r4, #8]
  91 0028 84F82000 		strb	r0, [r4, #32]
  92              	.LVL2:
  93              		.loc 1 86 0
  94 002c C0F20003 		movt	r3, #:upper16:.LANCHOR0
  95              	.LVL3:
  96              	.L4:
  97              		.loc 1 88 0 discriminator 1
  98 0030 1B68     		ldr	r3, [r3, #0]
  99              	.LVL4:
 100              		.loc 1 89 0 discriminator 1
 101 0032 9A68     		ldr	r2, [r3, #8]
 102 0034 8A42     		cmp	r2, r1
 103 0036 FBD2     		bcs	.L4
 104              		.loc 1 92 0
 105 0038 5968     		ldr	r1, [r3, #4]
 106              		.loc 1 91 0
 107 003a 2360     		str	r3, [r4, #0]
 108              		.loc 1 92 0
 109 003c 6160     		str	r1, [r4, #4]
 110              		.loc 1 93 0
 111 003e 0C60     		str	r4, [r1, #0]
 112 0040 5C60     		str	r4, [r3, #4]
ARM GAS  /tmp/ccegnmey.s 			page 3


 113              		.loc 1 95 0
 114 0042 2046     		mov	r0, r4
 115 0044 10BD     		pop	{r4, pc}
 116              	.LVL5:
 117              	.L7:
 118              		.loc 1 80 0 discriminator 1
 119 0046 40F20000 		movw	r0, #:lower16:.LC0
 120 004a C0F20000 		movt	r0, #:upper16:.LC0
 121 004e FFF7FEFF 		bl	chDbgPanic
 122 0052 E5E7     		b	.L3
 123              		.cfi_endproc
 124              	.LFE1:
 125              		.size	chSchReadyI, .-chSchReadyI
 126 0054 AFF30080 		.section	.text.wakeup,"ax",%progbits
 126      AFF30080 
 126      AFF30080 
 127              		.align	2
 128              		.p2align 4,,15
 129              		.thumb
 130              		.thumb_func
 131              		.type	wakeup, %function
 132              	wakeup:
 133              	.LFB3:
 134              		.loc 1 129 0
 135              		.cfi_startproc
 136              		@ args = 0, pretend = 0, frame = 0
 137              		@ frame_needed = 0, uses_anonymous_args = 0
 138              	.LVL6:
 139 0000 10B5     		push	{r4, lr}
 140              	.LCFI1:
 141              		.cfi_def_cfa_offset 8
 142              		.cfi_offset 14, -4
 143              		.cfi_offset 4, -8
 144              		.loc 1 129 0
 145 0002 0446     		mov	r4, r0
 146              	.LVL7:
 147              		.loc 1 132 0
 148              	@ 132 "../../../os/kernel/src/chschd.c" 1
 149 0004 FFF7FEFF 		bl      _port_lock
 150              	@ 0 "" 2
 151              		.thumb
 152 0008 FFF7FEFF 		bl	dbg_check_lock_from_isr
 153              	.LVL8:
 154              		.loc 1 133 0
 155 000c 94F82030 		ldrb	r3, [r4, #32]	@ zero_extendqisi2
 156 0010 032B     		cmp	r3, #3
 157 0012 07D0     		beq	.L11
 158 0014 0D2B     		cmp	r3, #13
 159 0016 09D0     		beq	.L12
 160 0018 5BB9     		cbnz	r3, .L9
 161              		.loc 1 158 0
 162 001a FFF7FEFF 		bl	dbg_check_unlock_from_isr
 163              	@ 158 "../../../os/kernel/src/chschd.c" 1
 164 001e FFF7FEFF 		bl      _port_unlock
 165              	@ 0 "" 2
 166              		.thumb
 167 0022 10BD     		pop	{r4, pc}
ARM GAS  /tmp/ccegnmey.s 			page 4


 168              	.L11:
 169              		.loc 1 143 0
 170 0024 A36A     		ldr	r3, [r4, #40]
 171 0026 9868     		ldr	r0, [r3, #8]
 172 0028 421C     		adds	r2, r0, #1
 173 002a 9A60     		str	r2, [r3, #8]
 174              	.L12:
 175              		.loc 1 153 0
 176 002c 2046     		mov	r0, r4
 177 002e FFF7FEFF 		bl	dequeue
 178              	.L9:
 179              		.loc 1 156 0
 180 0032 4FF0FF31 		mov	r1, #-1
 181 0036 A162     		str	r1, [r4, #40]
 182              		.loc 1 157 0
 183 0038 2046     		mov	r0, r4
 184 003a FFF7FEFF 		bl	chSchReadyI
 185              		.loc 1 158 0
 186 003e FFF7FEFF 		bl	dbg_check_unlock_from_isr
 187              	@ 158 "../../../os/kernel/src/chschd.c" 1
 188 0042 FFF7FEFF 		bl      _port_unlock
 189              	@ 0 "" 2
 190              		.thumb
 191 0046 10BD     		pop	{r4, pc}
 192              		.cfi_endproc
 193              	.LFE3:
 194              		.size	wakeup, .-wakeup
 195 0048 AFF30080 		.section	.text.chSchGoSleepS,"ax",%progbits
 195      AFF30080 
 196              		.align	2
 197              		.p2align 4,,15
 198              		.global	chSchGoSleepS
 199              		.thumb
 200              		.thumb_func
 201              		.type	chSchGoSleepS, %function
 202              	chSchGoSleepS:
 203              	.LFB2:
 204              		.loc 1 108 0
 205              		.cfi_startproc
 206              		@ args = 0, pretend = 0, frame = 0
 207              		@ frame_needed = 0, uses_anonymous_args = 0
 208              	.LVL9:
 209 0000 70B5     		push	{r4, r5, r6, lr}
 210              	.LCFI2:
 211              		.cfi_def_cfa_offset 16
 212              		.cfi_offset 14, -4
 213              		.cfi_offset 6, -8
 214              		.cfi_offset 5, -12
 215              		.cfi_offset 4, -16
 216              		.loc 1 113 0
 217 0002 40F20004 		movw	r4, #:lower16:.LANCHOR0
 218 0006 C0F20004 		movt	r4, #:upper16:.LANCHOR0
 219              		.loc 1 108 0
 220 000a 0646     		mov	r6, r0
 221              		.loc 1 111 0
 222 000c FFF7FEFF 		bl	chDbgCheckClassS
 223              	.LVL10:
ARM GAS  /tmp/ccegnmey.s 			page 5


 224              		.loc 1 113 0
 225 0010 A569     		ldr	r5, [r4, #24]
 226              	.LVL11:
 227              		.loc 1 119 0
 228 0012 2046     		mov	r0, r4
 229              		.loc 1 113 0
 230 0014 85F82060 		strb	r6, [r5, #32]
 231              		.loc 1 119 0
 232 0018 FFF7FEFF 		bl	fifo_remove
 233              	.LVL12:
 234              		.loc 1 120 0
 235 001c 0122     		movs	r2, #1
 236              		.loc 1 119 0
 237 001e 0146     		mov	r1, r0
 238              		.loc 1 120 0
 239 0020 80F82020 		strb	r2, [r0, #32]
 240              		.loc 1 121 0
 241 0024 2846     		mov	r0, r5
 242              		.loc 1 119 0
 243 0026 A161     		str	r1, [r4, #24]
 244              		.loc 1 121 0
 245 0028 FFF7FEFF 		bl	dbg_trace
 246              	.LBB2:
 247 002c EA69     		ldr	r2, [r5, #28]
 248 002e ADF12403 		sub	r3, sp, #36
 249 0032 9A42     		cmp	r2, r3
 250 0034 05D9     		bls	.L16
 251              		.loc 1 121 0 is_stmt 0 discriminator 1
 252 0036 40F20000 		movw	r0, #:lower16:.LC1
 253 003a C0F20000 		movt	r0, #:upper16:.LC1
 254 003e FFF7FEFF 		bl	chDbgPanic
 255              	.L16:
 256              		.loc 1 121 0 discriminator 2
 257 0042 A069     		ldr	r0, [r4, #24]
 258 0044 2946     		mov	r1, r5
 259              	.LBE2:
 260              		.loc 1 122 0 is_stmt 1 discriminator 2
 261 0046 BDE87040 		pop	{r4, r5, r6, lr}
 262              	.LBB3:
 263              		.loc 1 121 0 discriminator 2
 264 004a FFF7FEBF 		b	_port_switch
 265              	.LBE3:
 266              		.cfi_endproc
 267              	.LFE2:
 268              		.size	chSchGoSleepS, .-chSchGoSleepS
 269 004e 00BF     		.section	.text.chSchGoSleepTimeoutS,"ax",%progbits
 270              		.align	2
 271              		.p2align 4,,15
 272              		.global	chSchGoSleepTimeoutS
 273              		.thumb
 274              		.thumb_func
 275              		.type	chSchGoSleepTimeoutS, %function
 276              	chSchGoSleepTimeoutS:
 277              	.LFB4:
 278              		.loc 1 182 0
 279              		.cfi_startproc
 280              		@ args = 0, pretend = 0, frame = 24
ARM GAS  /tmp/ccegnmey.s 			page 6


 281              		@ frame_needed = 0, uses_anonymous_args = 0
 282              	.LVL13:
 283 0000 70B5     		push	{r4, r5, r6, lr}
 284              	.LCFI3:
 285              		.cfi_def_cfa_offset 16
 286              		.cfi_offset 14, -4
 287              		.cfi_offset 6, -8
 288              		.cfi_offset 5, -12
 289              		.cfi_offset 4, -16
 290 0002 0E46     		mov	r6, r1
 291 0004 86B0     		sub	sp, sp, #24
 292              	.LCFI4:
 293              		.cfi_def_cfa_offset 40
 294              		.loc 1 182 0
 295 0006 0546     		mov	r5, r0
 296              		.loc 1 184 0
 297 0008 FFF7FEFF 		bl	chDbgCheckClassS
 298              	.LVL14:
 299              		.loc 1 186 0
 300 000c 731C     		adds	r3, r6, #1
 301 000e 18D0     		beq	.L18
 302              	.LBB4:
 303              		.loc 1 189 0
 304 0010 40F20004 		movw	r4, #:lower16:.LANCHOR0
 305 0014 C0F20004 		movt	r4, #:upper16:.LANCHOR0
 306 0018 40F20002 		movw	r2, #:lower16:wakeup
 307 001c A369     		ldr	r3, [r4, #24]
 308 001e 3146     		mov	r1, r6
 309 0020 C0F20002 		movt	r2, #:upper16:wakeup
 310 0024 01A8     		add	r0, sp, #4
 311 0026 FFF7FEFF 		bl	chVTSetI
 312              		.loc 1 190 0
 313 002a 2846     		mov	r0, r5
 314 002c FFF7FEFF 		bl	chSchGoSleepS
 315              		.loc 1 191 0
 316 0030 049B     		ldr	r3, [sp, #16]
 317 0032 13B1     		cbz	r3, .L19
 318              		.loc 1 192 0
 319 0034 01A8     		add	r0, sp, #4
 320 0036 FFF7FEFF 		bl	chVTResetI
 321              	.L19:
 322              	.LBE4:
 323              		.loc 1 196 0
 324 003a A069     		ldr	r0, [r4, #24]
 325              		.loc 1 197 0
 326 003c 806A     		ldr	r0, [r0, #40]
 327 003e 06B0     		add	sp, sp, #24
 328 0040 70BD     		pop	{r4, r5, r6, pc}
 329              	.L18:
 330              		.loc 1 195 0
 331 0042 2846     		mov	r0, r5
 332 0044 40F20004 		movw	r4, #:lower16:.LANCHOR0
 333 0048 FFF7FEFF 		bl	chSchGoSleepS
 334 004c C0F20004 		movt	r4, #:upper16:.LANCHOR0
 335 0050 F3E7     		b	.L19
 336              		.cfi_endproc
 337              	.LFE4:
ARM GAS  /tmp/ccegnmey.s 			page 7


 338              		.size	chSchGoSleepTimeoutS, .-chSchGoSleepTimeoutS
 339 0052 00BFAFF3 		.section	.text.chSchWakeupS,"ax",%progbits
 339      0080AFF3 
 339      0080AFF3 
 339      0080
 340              		.align	2
 341              		.p2align 4,,15
 342              		.global	chSchWakeupS
 343              		.thumb
 344              		.thumb_func
 345              		.type	chSchWakeupS, %function
 346              	chSchWakeupS:
 347              	.LFB5:
 348              		.loc 1 218 0
 349              		.cfi_startproc
 350              		@ args = 0, pretend = 0, frame = 0
 351              		@ frame_needed = 0, uses_anonymous_args = 0
 352              	.LVL15:
 353 0000 70B5     		push	{r4, r5, r6, lr}
 354              	.LCFI5:
 355              		.cfi_def_cfa_offset 16
 356              		.cfi_offset 14, -4
 357              		.cfi_offset 6, -8
 358              		.cfi_offset 5, -12
 359              		.cfi_offset 4, -16
 360              		.loc 1 227 0
 361 0002 40F20005 		movw	r5, #:lower16:.LANCHOR0
 362 0006 C0F20005 		movt	r5, #:upper16:.LANCHOR0
 363              		.loc 1 218 0
 364 000a 0446     		mov	r4, r0
 365 000c 0E46     		mov	r6, r1
 366              		.loc 1 220 0
 367 000e FFF7FEFF 		bl	chDbgCheckClassS
 368              	.LVL16:
 369              		.loc 1 227 0
 370 0012 A869     		ldr	r0, [r5, #24]
 371 0014 A268     		ldr	r2, [r4, #8]
 372 0016 8368     		ldr	r3, [r0, #8]
 373              		.loc 1 222 0
 374 0018 A662     		str	r6, [r4, #40]
 375              		.loc 1 227 0
 376 001a 9A42     		cmp	r2, r3
 377 001c 13D9     		bls	.L23
 378              	.LBB5:
 379              		.loc 1 230 0
 380 001e FFF7FEFF 		bl	chSchReadyI
 381              		.loc 1 232 0
 382 0022 0122     		movs	r2, #1
 383              		.loc 1 230 0
 384 0024 0646     		mov	r6, r0
 385              	.LVL17:
 386              		.loc 1 232 0
 387 0026 84F82020 		strb	r2, [r4, #32]
 388              		.loc 1 231 0
 389 002a AC61     		str	r4, [r5, #24]
 390              		.loc 1 233 0
 391 002c FFF7FEFF 		bl	dbg_trace
ARM GAS  /tmp/ccegnmey.s 			page 8


 392              	.LVL18:
 393              	.LBB6:
 394 0030 F069     		ldr	r0, [r6, #28]
 395 0032 ADF12401 		sub	r1, sp, #36
 396 0036 8842     		cmp	r0, r1
 397 0038 0AD8     		bhi	.L24
 398              	.L22:
 399              		.loc 1 233 0 is_stmt 0 discriminator 2
 400 003a 2046     		mov	r0, r4
 401 003c 3146     		mov	r1, r6
 402              	.LBE6:
 403              	.LBE5:
 404              		.loc 1 235 0 is_stmt 1 discriminator 2
 405 003e BDE87040 		pop	{r4, r5, r6, lr}
 406              	.LBB9:
 407              	.LBB7:
 408              		.loc 1 233 0 discriminator 2
 409 0042 FFF7FEBF 		b	_port_switch
 410              	.LVL19:
 411              	.L23:
 412              	.LBE7:
 413              	.LBE9:
 414              		.loc 1 228 0
 415 0046 2046     		mov	r0, r4
 416              		.loc 1 235 0
 417 0048 BDE87040 		pop	{r4, r5, r6, lr}
 418              		.loc 1 228 0
 419 004c FFF7FEBF 		b	chSchReadyI
 420              	.LVL20:
 421              	.L24:
 422              	.LBB10:
 423              	.LBB8:
 424              		.loc 1 233 0 discriminator 1
 425 0050 40F20000 		movw	r0, #:lower16:.LC1
 426 0054 C0F20000 		movt	r0, #:upper16:.LC1
 427 0058 FFF7FEFF 		bl	chDbgPanic
 428 005c EDE7     		b	.L22
 429              	.LBE8:
 430              	.LBE10:
 431              		.cfi_endproc
 432              	.LFE5:
 433              		.size	chSchWakeupS, .-chSchWakeupS
 434 005e 00BF     		.section	.text.chSchDoRescheduleBehind,"ax",%progbits
 435              		.align	2
 436              		.p2align 4,,15
 437              		.global	chSchDoRescheduleBehind
 438              		.thumb
 439              		.thumb_func
 440              		.type	chSchDoRescheduleBehind, %function
 441              	chSchDoRescheduleBehind:
 442              	.LFB7:
 443              		.loc 1 297 0
 444              		.cfi_startproc
 445              		@ args = 0, pretend = 0, frame = 0
 446              		@ frame_needed = 0, uses_anonymous_args = 0
 447 0000 38B5     		push	{r3, r4, r5, lr}
 448              	.LCFI6:
ARM GAS  /tmp/ccegnmey.s 			page 9


 449              		.cfi_def_cfa_offset 16
 450              		.cfi_offset 14, -4
 451              		.cfi_offset 5, -8
 452              		.cfi_offset 4, -12
 453              		.cfi_offset 3, -16
 454              		.loc 1 300 0
 455 0002 40F20004 		movw	r4, #:lower16:.LANCHOR0
 456 0006 C0F20004 		movt	r4, #:upper16:.LANCHOR0
 457              		.loc 1 302 0
 458 000a 2046     		mov	r0, r4
 459              		.loc 1 300 0
 460 000c A569     		ldr	r5, [r4, #24]
 461              	.LVL21:
 462              		.loc 1 302 0
 463 000e FFF7FEFF 		bl	fifo_remove
 464              	.LVL22:
 465              		.loc 1 303 0
 466 0012 0122     		movs	r2, #1
 467              		.loc 1 302 0
 468 0014 0146     		mov	r1, r0
 469              		.loc 1 303 0
 470 0016 80F82020 		strb	r2, [r0, #32]
 471              		.loc 1 307 0
 472 001a 2846     		mov	r0, r5
 473              		.loc 1 302 0
 474 001c A161     		str	r1, [r4, #24]
 475              		.loc 1 307 0
 476 001e FFF7FEFF 		bl	chSchReadyI
 477              		.loc 1 308 0
 478 0022 2846     		mov	r0, r5
 479 0024 FFF7FEFF 		bl	dbg_trace
 480              	.LBB11:
 481 0028 EA69     		ldr	r2, [r5, #28]
 482 002a ADF12403 		sub	r3, sp, #36
 483 002e 9A42     		cmp	r2, r3
 484 0030 05D9     		bls	.L26
 485              		.loc 1 308 0 is_stmt 0 discriminator 1
 486 0032 40F20000 		movw	r0, #:lower16:.LC1
 487 0036 C0F20000 		movt	r0, #:upper16:.LC1
 488 003a FFF7FEFF 		bl	chDbgPanic
 489              	.L26:
 490              		.loc 1 308 0 discriminator 2
 491 003e A069     		ldr	r0, [r4, #24]
 492 0040 2946     		mov	r1, r5
 493              	.LBE11:
 494              		.loc 1 309 0 is_stmt 1 discriminator 2
 495 0042 BDE83840 		pop	{r3, r4, r5, lr}
 496              	.LBB12:
 497              		.loc 1 308 0 discriminator 2
 498 0046 FFF7FEBF 		b	_port_switch
 499              	.LBE12:
 500              		.cfi_endproc
 501              	.LFE7:
 502              		.size	chSchDoRescheduleBehind, .-chSchDoRescheduleBehind
 503 004a 00BFAFF3 		.section	.text.chSchDoRescheduleAhead,"ax",%progbits
 503      0080
 504              		.align	2
ARM GAS  /tmp/ccegnmey.s 			page 10


 505              		.p2align 4,,15
 506              		.global	chSchDoRescheduleAhead
 507              		.thumb
 508              		.thumb_func
 509              		.type	chSchDoRescheduleAhead, %function
 510              	chSchDoRescheduleAhead:
 511              	.LFB8:
 512              		.loc 1 322 0
 513              		.cfi_startproc
 514              		@ args = 0, pretend = 0, frame = 0
 515              		@ frame_needed = 0, uses_anonymous_args = 0
 516 0000 70B5     		push	{r4, r5, r6, lr}
 517              	.LCFI7:
 518              		.cfi_def_cfa_offset 16
 519              		.cfi_offset 14, -4
 520              		.cfi_offset 6, -8
 521              		.cfi_offset 5, -12
 522              		.cfi_offset 4, -16
 523              		.loc 1 325 0
 524 0002 40F20005 		movw	r5, #:lower16:.LANCHOR0
 525 0006 C0F20005 		movt	r5, #:upper16:.LANCHOR0
 526              		.loc 1 327 0
 527 000a 2846     		mov	r0, r5
 528              		.loc 1 325 0
 529 000c AC69     		ldr	r4, [r5, #24]
 530              	.LVL23:
 531              		.loc 1 327 0
 532 000e FFF7FEFF 		bl	fifo_remove
 533              	.LVL24:
 534              		.loc 1 330 0
 535 0012 0023     		movs	r3, #0
 536              		.loc 1 328 0
 537 0014 0122     		movs	r2, #1
 538              		.loc 1 330 0
 539 0016 A168     		ldr	r1, [r4, #8]
 540              		.loc 1 328 0
 541 0018 80F82020 		strb	r2, [r0, #32]
 542              		.loc 1 331 0
 543 001c 2E46     		mov	r6, r5
 544              		.loc 1 330 0
 545 001e 84F82030 		strb	r3, [r4, #32]
 546              	.LVL25:
 547              		.loc 1 327 0
 548 0022 A861     		str	r0, [r5, #24]
 549              		.loc 1 331 0
 550 0024 2B46     		mov	r3, r5
 551              	.LVL26:
 552              	.L28:
 553              		.loc 1 333 0 discriminator 1
 554 0026 1B68     		ldr	r3, [r3, #0]
 555              	.LVL27:
 556              		.loc 1 334 0 discriminator 1
 557 0028 9868     		ldr	r0, [r3, #8]
 558 002a 8842     		cmp	r0, r1
 559 002c FBD8     		bhi	.L28
 560              		.loc 1 337 0
 561 002e 5A68     		ldr	r2, [r3, #4]
ARM GAS  /tmp/ccegnmey.s 			page 11


 562              		.loc 1 336 0
 563 0030 2360     		str	r3, [r4, #0]
 564              		.loc 1 337 0
 565 0032 6260     		str	r2, [r4, #4]
 566              		.loc 1 338 0
 567 0034 1460     		str	r4, [r2, #0]
 568 0036 5C60     		str	r4, [r3, #4]
 569              		.loc 1 340 0
 570 0038 2046     		mov	r0, r4
 571 003a FFF7FEFF 		bl	dbg_trace
 572              	.LVL28:
 573              	.LBB13:
 574 003e E169     		ldr	r1, [r4, #28]
 575 0040 ADF1240C 		sub	ip, sp, #36
 576 0044 6145     		cmp	r1, ip
 577 0046 05D9     		bls	.L29
 578              		.loc 1 340 0 is_stmt 0 discriminator 1
 579 0048 40F20000 		movw	r0, #:lower16:.LC1
 580 004c C0F20000 		movt	r0, #:upper16:.LC1
 581 0050 FFF7FEFF 		bl	chDbgPanic
 582              	.L29:
 583              		.loc 1 340 0 discriminator 2
 584 0054 B069     		ldr	r0, [r6, #24]
 585 0056 2146     		mov	r1, r4
 586              	.LBE13:
 587              		.loc 1 341 0 is_stmt 1 discriminator 2
 588 0058 BDE87040 		pop	{r4, r5, r6, lr}
 589              	.LBB14:
 590              		.loc 1 340 0 discriminator 2
 591 005c FFF7FEBF 		b	_port_switch
 592              	.LBE14:
 593              		.cfi_endproc
 594              	.LFE8:
 595              		.size	chSchDoRescheduleAhead, .-chSchDoRescheduleAhead
 596              		.section	.text.chSchRescheduleS,"ax",%progbits
 597              		.align	2
 598              		.p2align 4,,15
 599              		.global	chSchRescheduleS
 600              		.thumb
 601              		.thumb_func
 602              		.type	chSchRescheduleS, %function
 603              	chSchRescheduleS:
 604              	.LFB6:
 605              		.loc 1 246 0
 606              		.cfi_startproc
 607              		@ args = 0, pretend = 0, frame = 0
 608              		@ frame_needed = 0, uses_anonymous_args = 0
 609 0000 08B5     		push	{r3, lr}
 610              	.LCFI8:
 611              		.cfi_def_cfa_offset 8
 612              		.cfi_offset 14, -4
 613              		.cfi_offset 3, -8
 614              		.loc 1 248 0
 615 0002 FFF7FEFF 		bl	chDbgCheckClassS
 616              		.loc 1 250 0
 617 0006 40F2000C 		movw	ip, #:lower16:.LANCHOR0
 618 000a C0F2000C 		movt	ip, #:upper16:.LANCHOR0
ARM GAS  /tmp/ccegnmey.s 			page 12


 619 000e DCF80010 		ldr	r1, [ip, #0]
 620 0012 DCF81800 		ldr	r0, [ip, #24]
 621 0016 8A68     		ldr	r2, [r1, #8]
 622 0018 8368     		ldr	r3, [r0, #8]
 623 001a 9A42     		cmp	r2, r3
 624 001c 00D8     		bhi	.L33
 625 001e 08BD     		pop	{r3, pc}
 626              	.L33:
 627              		.loc 1 252 0
 628 0020 BDE80840 		pop	{r3, lr}
 629              		.loc 1 251 0
 630 0024 FFF7FEBF 		b	chSchDoRescheduleAhead
 631              		.cfi_endproc
 632              	.LFE6:
 633              		.size	chSchRescheduleS, .-chSchRescheduleS
 634 0028 AFF30080 		.section	.text.chSchDoReschedule,"ax",%progbits
 634      AFF30080 
 635              		.align	2
 636              		.p2align 4,,15
 637              		.global	chSchDoReschedule
 638              		.thumb
 639              		.thumb_func
 640              		.type	chSchDoReschedule, %function
 641              	chSchDoReschedule:
 642              	.LFB9:
 643              		.loc 1 355 0
 644              		.cfi_startproc
 645              		@ args = 0, pretend = 0, frame = 0
 646              		@ frame_needed = 0, uses_anonymous_args = 0
 647              		@ link register save eliminated.
 648              		.loc 1 375 0
 649              		.loc 1 373 0
 650 0000 FFF7FEBF 		b	chSchDoRescheduleAhead
 651              		.cfi_endproc
 652              	.LFE9:
 653              		.size	chSchDoReschedule, .-chSchDoReschedule
 654              		.global	rlist
 655 0004 AFF30080 		.section	.rodata.str1.4,"aMS",%progbits,1
 655      AFF30080 
 655      AFF30080 
 656              		.align	2
 657              	.LC0:
 658 0000 63685363 		.ascii	"chSchReadyI(), #1\000"
 658      68526561 
 658      64794928 
 658      292C2023 
 658      3100
 659 0012 0000     		.space	2
 660              	.LC1:
 661 0014 73746163 		.ascii	"stack overflow\000"
 661      6B206F76 
 661      6572666C 
 661      6F7700
 662 0023 00       		.section	.bss.rlist,"aw",%nobits
 663              		.align	2
 664              		.set	.LANCHOR0,. + 0
 665              		.type	rlist, %object
ARM GAS  /tmp/ccegnmey.s 			page 13


 666              		.size	rlist, 28
 667              	rlist:
 668 0000 00000000 		.space	28
 668      00000000 
 668      00000000 
 668      00000000 
 668      00000000 
 669              		.text
 670              	.Letext0:
 671              		.file 2 "/home/prana/CodeSourcery/ARM_EABI/bin/../lib/gcc/arm-none-eabi/4.6.3/../../../../arm-none
 672              		.file 3 "../../../os/ports/GCC/ARMCMx/chtypes.h"
 673              		.file 4 "../../../os/kernel/include/chlists.h"
 674              		.file 5 "../../../os/kernel/include/chthreads.h"
 675              		.file 6 "../../../os/ports/GCC/ARMCMx/chcore_v7m.h"
 676              		.file 7 "../../../os/kernel/include/chvt.h"
 677              		.file 8 "../../../os/kernel/include/chschd.h"
 678              		.file 9 "../../../os/kernel/include/chsem.h"
 679              		.file 10 "../../../os/kernel/include/chmtx.h"