ARM GAS  /tmp/ccPfrNjB.s 			page 1


   1              		.syntax unified
   2              		.cpu cortex-m4
   3              		.fpu softvfp
   4              		.eabi_attribute 20, 1
   5              		.eabi_attribute 21, 1
   6              		.eabi_attribute 23, 3
   7              		.eabi_attribute 24, 1
   8              		.eabi_attribute 25, 1
   9              		.eabi_attribute 26, 1
  10              		.eabi_attribute 30, 2
  11              		.eabi_attribute 34, 1
  12              		.eabi_attribute 18, 4
  13              		.thumb
  14              		.file	"chsem.c"
  15              		.text
  16              	.Ltext0:
  17              		.cfi_sections	.debug_frame
  18              		.section	.text.chSemInit,"ax",%progbits
  19              		.align	2
  20              		.p2align 4,,15
  21              		.global	chSemInit
  22              		.thumb
  23              		.thumb_func
  24              		.type	chSemInit, %function
  25              	chSemInit:
  26              	.LFB0:
  27              		.file 1 "../../../os/kernel/src/chsem.c"
  28              		.loc 1 79 0
  29              		.cfi_startproc
  30              		@ args = 0, pretend = 0, frame = 0
  31              		@ frame_needed = 0, uses_anonymous_args = 0
  32              	.LVL0:
  33 0000 38B5     		push	{r3, r4, r5, lr}
  34              	.LCFI0:
  35              		.cfi_def_cfa_offset 16
  36              		.cfi_offset 14, -4
  37              		.cfi_offset 5, -8
  38              		.cfi_offset 4, -12
  39              		.cfi_offset 3, -16
  40              		.loc 1 81 0
  41 0002 D0F10103 		rsbs	r3, r0, #1
  42 0006 38BF     		it	cc
  43 0008 0023     		movcc	r3, #0
  44 000a 53EAD173 		orrs	r3, r3, r1, lsr #31
  45 000e 0446     		mov	r4, r0
  46              		.loc 1 79 0
  47 0010 0D46     		mov	r5, r1
  48              		.loc 1 81 0
  49 0012 05D0     		beq	.L2
  50              		.loc 1 81 0 is_stmt 0 discriminator 1
  51 0014 40F20000 		movw	r0, #:lower16:.LC0
  52              	.LVL1:
  53 0018 C0F20000 		movt	r0, #:upper16:.LC0
  54 001c FFF7FEFF 		bl	chDbgPanic
  55              	.LVL2:
  56              	.L2:
  57              		.loc 1 83 0 is_stmt 1
ARM GAS  /tmp/ccPfrNjB.s 			page 2


  58 0020 6460     		str	r4, [r4, #4]
  59 0022 2460     		str	r4, [r4, #0]
  60              		.loc 1 84 0
  61 0024 A560     		str	r5, [r4, #8]
  62              		.loc 1 85 0
  63 0026 38BD     		pop	{r3, r4, r5, pc}
  64              		.cfi_endproc
  65              	.LFE0:
  66              		.size	chSemInit, .-chSemInit
  67 0028 AFF30080 		.section	.text.chSemResetI,"ax",%progbits
  67      AFF30080 
  68              		.align	2
  69              		.p2align 4,,15
  70              		.global	chSemResetI
  71              		.thumb
  72              		.thumb_func
  73              		.type	chSemResetI, %function
  74              	chSemResetI:
  75              	.LFB2:
  76              		.loc 1 129 0
  77              		.cfi_startproc
  78              		@ args = 0, pretend = 0, frame = 0
  79              		@ frame_needed = 0, uses_anonymous_args = 0
  80              	.LVL3:
  81 0000 F8B5     		push	{r3, r4, r5, r6, r7, lr}
  82              	.LCFI1:
  83              		.cfi_def_cfa_offset 24
  84              		.cfi_offset 14, -4
  85              		.cfi_offset 7, -8
  86              		.cfi_offset 6, -12
  87              		.cfi_offset 5, -16
  88              		.cfi_offset 4, -20
  89              		.cfi_offset 3, -24
  90              		.loc 1 129 0
  91 0002 0446     		mov	r4, r0
  92 0004 0D46     		mov	r5, r1
  93              		.loc 1 132 0
  94 0006 FFF7FEFF 		bl	chDbgCheckClassI
  95              	.LVL4:
  96              		.loc 1 133 0
  97 000a D4F10103 		rsbs	r3, r4, #1
  98 000e 38BF     		it	cc
  99 0010 0023     		movcc	r3, #0
 100 0012 53EAD573 		orrs	r3, r3, r5, lsr #31
 101 0016 3AD1     		bne	.L18
 102              	.L5:
 103              		.loc 1 134 0
 104 0018 A768     		ldr	r7, [r4, #8]
 105 001a 2368     		ldr	r3, [r4, #0]
 106 001c 002F     		cmp	r7, #0
 107 001e 33DB     		blt	.L6
 108              		.loc 1 134 0 is_stmt 0 discriminator 2
 109 0020 A342     		cmp	r3, r4
 110 0022 06D0     		beq	.L8
 111              	.L7:
 112              		.loc 1 134 0 discriminator 3
 113 0024 40F20000 		movw	r0, #:lower16:.LC2
ARM GAS  /tmp/ccPfrNjB.s 			page 3


 114 0028 C0F20000 		movt	r0, #:upper16:.LC2
 115 002c FFF7FEFF 		bl	chDbgPanic
 116 0030 A768     		ldr	r7, [r4, #8]
 117              	.L8:
 118              	.LVL5:
 119              		.loc 1 141 0 is_stmt 1
 120 0032 0137     		adds	r7, r7, #1
 121              	.LVL6:
 122 0034 002F     		cmp	r7, #0
 123              		.loc 1 140 0
 124 0036 A560     		str	r5, [r4, #8]
 125              	.LVL7:
 126              		.loc 1 141 0
 127 0038 25DC     		bgt	.L4
 128              		.loc 1 142 0
 129 003a 2046     		mov	r0, r4
 130 003c FFF7FEFF 		bl	lifo_remove
 131 0040 FFF7FEFF 		bl	chSchReadyI
 132 0044 6FF00106 		mvn	r6, #1
 133 0048 07F00103 		and	r3, r7, #1
 134 004c 8662     		str	r6, [r0, #40]
 135              		.loc 1 141 0
 136 004e 7D1C     		adds	r5, r7, #1
 137              	.LVL8:
 138 0050 27B3     		cbz	r7, .L19
 139 0052 43B1     		cbz	r3, .L11
 140              		.loc 1 142 0
 141 0054 2046     		mov	r0, r4
 142 0056 FFF7FEFF 		bl	lifo_remove
 143 005a FFF7FEFF 		bl	chSchReadyI
 144              		.loc 1 141 0
 145 005e 0135     		adds	r5, r5, #1
 146 0060 012D     		cmp	r5, #1
 147              		.loc 1 142 0
 148 0062 8662     		str	r6, [r0, #40]
 149              	.LVL9:
 150              		.loc 1 141 0
 151 0064 1BD0     		beq	.L20
 152              	.L11:
 153              		.loc 1 142 0
 154 0066 2046     		mov	r0, r4
 155 0068 FFF7FEFF 		bl	lifo_remove
 156 006c FFF7FEFF 		bl	chSchReadyI
 157 0070 8662     		str	r6, [r0, #40]
 158 0072 2046     		mov	r0, r4
 159 0074 FFF7FEFF 		bl	lifo_remove
 160 0078 FFF7FEFF 		bl	chSchReadyI
 161              		.loc 1 141 0
 162 007c 691C     		adds	r1, r5, #1
 163              		.loc 1 142 0
 164 007e 8662     		str	r6, [r0, #40]
 165              		.loc 1 141 0
 166 0080 0235     		adds	r5, r5, #2
 167 0082 0029     		cmp	r1, #0
 168 0084 EFD1     		bne	.L11
 169              	.L4:
 170 0086 F8BD     		pop	{r3, r4, r5, r6, r7, pc}
ARM GAS  /tmp/ccPfrNjB.s 			page 4


 171              	.LVL10:
 172              	.L6:
 173              		.loc 1 134 0 discriminator 4
 174 0088 A342     		cmp	r3, r4
 175 008a D2D1     		bne	.L8
 176 008c CAE7     		b	.L7
 177              	.L18:
 178              		.loc 1 133 0 discriminator 1
 179 008e 40F20000 		movw	r0, #:lower16:.LC1
 180 0092 C0F20000 		movt	r0, #:upper16:.LC1
 181 0096 FFF7FEFF 		bl	chDbgPanic
 182 009a BDE7     		b	.L5
 183              	.LVL11:
 184              	.L19:
 185 009c F8BD     		pop	{r3, r4, r5, r6, r7, pc}
 186              	.LVL12:
 187              	.L20:
 188 009e F8BD     		pop	{r3, r4, r5, r6, r7, pc}
 189              		.cfi_endproc
 190              	.LFE2:
 191              		.size	chSemResetI, .-chSemResetI
 192              		.section	.text.chSemReset,"ax",%progbits
 193              		.align	2
 194              		.p2align 4,,15
 195              		.global	chSemReset
 196              		.thumb
 197              		.thumb_func
 198              		.type	chSemReset, %function
 199              	chSemReset:
 200              	.LFB1:
 201              		.loc 1 102 0
 202              		.cfi_startproc
 203              		@ args = 0, pretend = 0, frame = 0
 204              		@ frame_needed = 0, uses_anonymous_args = 0
 205              	.LVL13:
 206 0000 38B5     		push	{r3, r4, r5, lr}
 207              	.LCFI2:
 208              		.cfi_def_cfa_offset 16
 209              		.cfi_offset 14, -4
 210              		.cfi_offset 5, -8
 211              		.cfi_offset 4, -12
 212              		.cfi_offset 3, -16
 213              		.loc 1 102 0
 214 0002 0546     		mov	r5, r0
 215 0004 0C46     		mov	r4, r1
 216              		.loc 1 104 0
 217              	@ 104 "../../../os/kernel/src/chsem.c" 1
 218 0006 FFF7FEFF 		bl      _port_lock
 219              	@ 0 "" 2
 220              		.thumb
 221 000a FFF7FEFF 		bl	dbg_check_lock
 222              	.LVL14:
 223              		.loc 1 105 0
 224 000e 2846     		mov	r0, r5
 225 0010 2146     		mov	r1, r4
 226 0012 FFF7FEFF 		bl	chSemResetI
 227              		.loc 1 106 0
ARM GAS  /tmp/ccPfrNjB.s 			page 5


 228 0016 FFF7FEFF 		bl	chSchRescheduleS
 229              		.loc 1 107 0
 230 001a FFF7FEFF 		bl	dbg_check_unlock
 231              	@ 107 "../../../os/kernel/src/chsem.c" 1
 232 001e FFF7FEFF 		bl      _port_unlock
 233              	@ 0 "" 2
 234              		.loc 1 108 0
 235              		.thumb
 236 0022 38BD     		pop	{r3, r4, r5, pc}
 237              		.cfi_endproc
 238              	.LFE1:
 239              		.size	chSemReset, .-chSemReset
 240 0024 AFF30080 		.section	.text.chSemWaitS,"ax",%progbits
 240      AFF30080 
 240      AFF30080 
 241              		.align	2
 242              		.p2align 4,,15
 243              		.global	chSemWaitS
 244              		.thumb
 245              		.thumb_func
 246              		.type	chSemWaitS, %function
 247              	chSemWaitS:
 248              	.LFB4:
 249              		.loc 1 178 0
 250              		.cfi_startproc
 251              		@ args = 0, pretend = 0, frame = 0
 252              		@ frame_needed = 0, uses_anonymous_args = 0
 253              	.LVL15:
 254 0000 38B5     		push	{r3, r4, r5, lr}
 255              	.LCFI3:
 256              		.cfi_def_cfa_offset 16
 257              		.cfi_offset 14, -4
 258              		.cfi_offset 5, -8
 259              		.cfi_offset 4, -12
 260              		.cfi_offset 3, -16
 261              		.loc 1 178 0
 262 0002 0446     		mov	r4, r0
 263              		.loc 1 180 0
 264 0004 FFF7FEFF 		bl	chDbgCheckClassS
 265              	.LVL16:
 266              		.loc 1 181 0
 267 0008 002C     		cmp	r4, #0
 268 000a 28D0     		beq	.L30
 269              	.L23:
 270              		.loc 1 182 0
 271 000c A368     		ldr	r3, [r4, #8]
 272 000e 2268     		ldr	r2, [r4, #0]
 273 0010 002B     		cmp	r3, #0
 274 0012 0EDB     		blt	.L24
 275              		.loc 1 182 0 is_stmt 0 discriminator 2
 276 0014 A242     		cmp	r2, r4
 277 0016 06D0     		beq	.L26
 278              	.L25:
 279              		.loc 1 182 0 discriminator 3
 280 0018 40F20000 		movw	r0, #:lower16:.LC4
 281 001c C0F20000 		movt	r0, #:upper16:.LC4
 282 0020 FFF7FEFF 		bl	chDbgPanic
ARM GAS  /tmp/ccPfrNjB.s 			page 6


 283 0024 A368     		ldr	r3, [r4, #8]
 284              	.L26:
 285              		.loc 1 187 0 is_stmt 1
 286 0026 013B     		subs	r3, r3, #1
 287 0028 002B     		cmp	r3, #0
 288 002a A360     		str	r3, [r4, #8]
 289 002c 07DB     		blt	.L31
 290              	.L28:
 291              		.loc 1 193 0
 292 002e 0020     		movs	r0, #0
 293              		.loc 1 194 0
 294 0030 38BD     		pop	{r3, r4, r5, pc}
 295              	.L24:
 296              		.loc 1 182 0 discriminator 4
 297 0032 A242     		cmp	r2, r4
 298 0034 F0D0     		beq	.L25
 299              		.loc 1 187 0
 300 0036 013B     		subs	r3, r3, #1
 301 0038 002B     		cmp	r3, #0
 302 003a A360     		str	r3, [r4, #8]
 303 003c F7DA     		bge	.L28
 304              	.L31:
 305              		.loc 1 188 0
 306 003e 40F20005 		movw	r5, #:lower16:rlist
 307 0042 C0F20005 		movt	r5, #:upper16:rlist
 308              		.loc 1 189 0
 309 0046 2146     		mov	r1, r4
 310              		.loc 1 188 0
 311 0048 AA69     		ldr	r2, [r5, #24]
 312              		.loc 1 189 0
 313 004a 1046     		mov	r0, r2
 314              		.loc 1 188 0
 315 004c 9462     		str	r4, [r2, #40]
 316              		.loc 1 189 0
 317 004e FFF7FEFF 		bl	queue_insert
 318              		.loc 1 190 0
 319 0052 0320     		movs	r0, #3
 320 0054 FFF7FEFF 		bl	chSchGoSleepS
 321              		.loc 1 191 0
 322 0058 A869     		ldr	r0, [r5, #24]
 323 005a 806A     		ldr	r0, [r0, #40]
 324 005c 38BD     		pop	{r3, r4, r5, pc}
 325              	.L30:
 326              		.loc 1 181 0 discriminator 1
 327 005e 40F20000 		movw	r0, #:lower16:.LC3
 328 0062 C0F20000 		movt	r0, #:upper16:.LC3
 329 0066 FFF7FEFF 		bl	chDbgPanic
 330 006a CFE7     		b	.L23
 331              		.cfi_endproc
 332              	.LFE4:
 333              		.size	chSemWaitS, .-chSemWaitS
 334 006c AFF30080 		.section	.text.chSemWait,"ax",%progbits
 335              		.align	2
 336              		.p2align 4,,15
 337              		.global	chSemWait
 338              		.thumb
 339              		.thumb_func
ARM GAS  /tmp/ccPfrNjB.s 			page 7


 340              		.type	chSemWait, %function
 341              	chSemWait:
 342              	.LFB3:
 343              		.loc 1 157 0
 344              		.cfi_startproc
 345              		@ args = 0, pretend = 0, frame = 0
 346              		@ frame_needed = 0, uses_anonymous_args = 0
 347              	.LVL17:
 348 0000 10B5     		push	{r4, lr}
 349              	.LCFI4:
 350              		.cfi_def_cfa_offset 8
 351              		.cfi_offset 14, -4
 352              		.cfi_offset 4, -8
 353              		.loc 1 157 0
 354 0002 0446     		mov	r4, r0
 355              		.loc 1 160 0
 356              	@ 160 "../../../os/kernel/src/chsem.c" 1
 357 0004 FFF7FEFF 		bl      _port_lock
 358              	@ 0 "" 2
 359              		.thumb
 360 0008 FFF7FEFF 		bl	dbg_check_lock
 361              	.LVL18:
 362              		.loc 1 161 0
 363 000c 2046     		mov	r0, r4
 364 000e FFF7FEFF 		bl	chSemWaitS
 365 0012 0446     		mov	r4, r0
 366              	.LVL19:
 367              		.loc 1 162 0
 368 0014 FFF7FEFF 		bl	dbg_check_unlock
 369              	.LVL20:
 370              	@ 162 "../../../os/kernel/src/chsem.c" 1
 371 0018 FFF7FEFF 		bl      _port_unlock
 372              	@ 0 "" 2
 373              		.loc 1 164 0
 374              		.thumb
 375 001c 2046     		mov	r0, r4
 376 001e 10BD     		pop	{r4, pc}
 377              		.cfi_endproc
 378              	.LFE3:
 379              		.size	chSemWait, .-chSemWait
 380              		.section	.text.chSemWaitTimeoutS,"ax",%progbits
 381              		.align	2
 382              		.p2align 4,,15
 383              		.global	chSemWaitTimeoutS
 384              		.thumb
 385              		.thumb_func
 386              		.type	chSemWaitTimeoutS, %function
 387              	chSemWaitTimeoutS:
 388              	.LFB6:
 389              		.loc 1 243 0
 390              		.cfi_startproc
 391              		@ args = 0, pretend = 0, frame = 0
 392              		@ frame_needed = 0, uses_anonymous_args = 0
 393              	.LVL21:
 394 0000 38B5     		push	{r3, r4, r5, lr}
 395              	.LCFI5:
 396              		.cfi_def_cfa_offset 16
ARM GAS  /tmp/ccPfrNjB.s 			page 8


 397              		.cfi_offset 14, -4
 398              		.cfi_offset 5, -8
 399              		.cfi_offset 4, -12
 400              		.cfi_offset 3, -16
 401              		.loc 1 243 0
 402 0002 0446     		mov	r4, r0
 403 0004 0D46     		mov	r5, r1
 404              		.loc 1 245 0
 405 0006 FFF7FEFF 		bl	chDbgCheckClassS
 406              	.LVL22:
 407              		.loc 1 246 0
 408 000a 002C     		cmp	r4, #0
 409 000c 29D0     		beq	.L42
 410              	.L34:
 411              		.loc 1 247 0
 412 000e A368     		ldr	r3, [r4, #8]
 413 0010 2268     		ldr	r2, [r4, #0]
 414 0012 002B     		cmp	r3, #0
 415 0014 0EDB     		blt	.L35
 416              		.loc 1 247 0 is_stmt 0 discriminator 2
 417 0016 A242     		cmp	r2, r4
 418 0018 06D0     		beq	.L37
 419              	.L36:
 420              		.loc 1 247 0 discriminator 3
 421 001a 40F20000 		movw	r0, #:lower16:.LC6
 422 001e C0F20000 		movt	r0, #:upper16:.LC6
 423 0022 FFF7FEFF 		bl	chDbgPanic
 424 0026 A368     		ldr	r3, [r4, #8]
 425              	.L37:
 426              		.loc 1 252 0 is_stmt 1
 427 0028 5A1E     		subs	r2, r3, #1
 428 002a 002A     		cmp	r2, #0
 429 002c A260     		str	r2, [r4, #8]
 430 002e 07DB     		blt	.L43
 431              	.L40:
 432              		.loc 1 261 0
 433 0030 0020     		movs	r0, #0
 434              		.loc 1 262 0
 435 0032 38BD     		pop	{r3, r4, r5, pc}
 436              	.L35:
 437              		.loc 1 247 0 discriminator 4
 438 0034 A242     		cmp	r2, r4
 439 0036 F0D0     		beq	.L36
 440              		.loc 1 252 0
 441 0038 5A1E     		subs	r2, r3, #1
 442 003a 002A     		cmp	r2, #0
 443 003c A260     		str	r2, [r4, #8]
 444 003e F7DA     		bge	.L40
 445              	.L43:
 446              		.loc 1 253 0
 447 0040 B5B1     		cbz	r5, .L44
 448              		.loc 1 257 0
 449 0042 40F20000 		movw	r0, #:lower16:rlist
 450 0046 C0F20000 		movt	r0, #:upper16:rlist
 451              		.loc 1 258 0
 452 004a 2146     		mov	r1, r4
 453              		.loc 1 257 0
ARM GAS  /tmp/ccPfrNjB.s 			page 9


 454 004c 8369     		ldr	r3, [r0, #24]
 455              		.loc 1 258 0
 456 004e 1846     		mov	r0, r3
 457              		.loc 1 257 0
 458 0050 9C62     		str	r4, [r3, #40]
 459              		.loc 1 258 0
 460 0052 FFF7FEFF 		bl	queue_insert
 461              		.loc 1 259 0
 462 0056 0320     		movs	r0, #3
 463 0058 2946     		mov	r1, r5
 464              		.loc 1 262 0
 465 005a BDE83840 		pop	{r3, r4, r5, lr}
 466              		.loc 1 259 0
 467 005e FFF7FEBF 		b	chSchGoSleepTimeoutS
 468              	.L42:
 469              		.loc 1 246 0 discriminator 1
 470 0062 40F20000 		movw	r0, #:lower16:.LC5
 471 0066 C0F20000 		movt	r0, #:upper16:.LC5
 472 006a FFF7FEFF 		bl	chDbgPanic
 473 006e CEE7     		b	.L34
 474              	.L44:
 475              		.loc 1 254 0
 476 0070 A360     		str	r3, [r4, #8]
 477              		.loc 1 255 0
 478 0072 4FF0FF30 		mov	r0, #-1
 479 0076 38BD     		pop	{r3, r4, r5, pc}
 480              		.cfi_endproc
 481              	.LFE6:
 482              		.size	chSemWaitTimeoutS, .-chSemWaitTimeoutS
 483 0078 AFF30080 		.section	.text.chSemWaitTimeout,"ax",%progbits
 483      AFF30080 
 484              		.align	2
 485              		.p2align 4,,15
 486              		.global	chSemWaitTimeout
 487              		.thumb
 488              		.thumb_func
 489              		.type	chSemWaitTimeout, %function
 490              	chSemWaitTimeout:
 491              	.LFB5:
 492              		.loc 1 215 0
 493              		.cfi_startproc
 494              		@ args = 0, pretend = 0, frame = 0
 495              		@ frame_needed = 0, uses_anonymous_args = 0
 496              	.LVL23:
 497 0000 38B5     		push	{r3, r4, r5, lr}
 498              	.LCFI6:
 499              		.cfi_def_cfa_offset 16
 500              		.cfi_offset 14, -4
 501              		.cfi_offset 5, -8
 502              		.cfi_offset 4, -12
 503              		.cfi_offset 3, -16
 504              		.loc 1 215 0
 505 0002 0546     		mov	r5, r0
 506 0004 0C46     		mov	r4, r1
 507              		.loc 1 218 0
 508              	@ 218 "../../../os/kernel/src/chsem.c" 1
 509 0006 FFF7FEFF 		bl      _port_lock
ARM GAS  /tmp/ccPfrNjB.s 			page 10


 510              	@ 0 "" 2
 511              		.thumb
 512 000a FFF7FEFF 		bl	dbg_check_lock
 513              	.LVL24:
 514              		.loc 1 219 0
 515 000e 2146     		mov	r1, r4
 516 0010 2846     		mov	r0, r5
 517 0012 FFF7FEFF 		bl	chSemWaitTimeoutS
 518 0016 0446     		mov	r4, r0
 519              	.LVL25:
 520              		.loc 1 220 0
 521 0018 FFF7FEFF 		bl	dbg_check_unlock
 522              	.LVL26:
 523              	@ 220 "../../../os/kernel/src/chsem.c" 1
 524 001c FFF7FEFF 		bl      _port_unlock
 525              	@ 0 "" 2
 526              		.loc 1 222 0
 527              		.thumb
 528 0020 2046     		mov	r0, r4
 529 0022 38BD     		pop	{r3, r4, r5, pc}
 530              		.cfi_endproc
 531              	.LFE5:
 532              		.size	chSemWaitTimeout, .-chSemWaitTimeout
 533 0024 AFF30080 		.section	.text.chSemSignal,"ax",%progbits
 533      AFF30080 
 533      AFF30080 
 534              		.align	2
 535              		.p2align 4,,15
 536              		.global	chSemSignal
 537              		.thumb
 538              		.thumb_func
 539              		.type	chSemSignal, %function
 540              	chSemSignal:
 541              	.LFB7:
 542              		.loc 1 271 0
 543              		.cfi_startproc
 544              		@ args = 0, pretend = 0, frame = 0
 545              		@ frame_needed = 0, uses_anonymous_args = 0
 546              	.LVL27:
 547 0000 10B5     		push	{r4, lr}
 548              	.LCFI7:
 549              		.cfi_def_cfa_offset 8
 550              		.cfi_offset 14, -4
 551              		.cfi_offset 4, -8
 552              		.loc 1 273 0
 553 0002 0446     		mov	r4, r0
 554 0004 0028     		cmp	r0, #0
 555 0006 2FD0     		beq	.L53
 556              	.LVL28:
 557              	.L47:
 558              		.loc 1 274 0
 559 0008 A368     		ldr	r3, [r4, #8]
 560 000a 002B     		cmp	r3, #0
 561 000c 2368     		ldr	r3, [r4, #0]
 562 000e 15DB     		blt	.L48
 563              		.loc 1 274 0 is_stmt 0 discriminator 2
 564 0010 A342     		cmp	r3, r4
ARM GAS  /tmp/ccPfrNjB.s 			page 11


 565 0012 05D0     		beq	.L50
 566              	.L49:
 567              		.loc 1 274 0 discriminator 3
 568 0014 40F20000 		movw	r0, #:lower16:.LC8
 569 0018 C0F20000 		movt	r0, #:upper16:.LC8
 570 001c FFF7FEFF 		bl	chDbgPanic
 571              	.L50:
 572              		.loc 1 279 0 is_stmt 1
 573              	@ 279 "../../../os/kernel/src/chsem.c" 1
 574 0020 FFF7FEFF 		bl      _port_lock
 575              	@ 0 "" 2
 576              		.thumb
 577 0024 FFF7FEFF 		bl	dbg_check_lock
 578              		.loc 1 280 0
 579 0028 A168     		ldr	r1, [r4, #8]
 580 002a 481C     		adds	r0, r1, #1
 581 002c 0028     		cmp	r0, #0
 582 002e A060     		str	r0, [r4, #8]
 583 0030 0FDD     		ble	.L54
 584              	.L51:
 585              		.loc 1 282 0
 586 0032 FFF7FEFF 		bl	dbg_check_unlock
 587              	@ 282 "../../../os/kernel/src/chsem.c" 1
 588 0036 FFF7FEFF 		bl      _port_unlock
 589              	@ 0 "" 2
 590              		.loc 1 283 0
 591              		.thumb
 592 003a 10BD     		pop	{r4, pc}
 593              	.L48:
 594              		.loc 1 274 0 discriminator 4
 595 003c A342     		cmp	r3, r4
 596 003e E9D0     		beq	.L49
 597              		.loc 1 279 0
 598              	@ 279 "../../../os/kernel/src/chsem.c" 1
 599 0040 FFF7FEFF 		bl      _port_lock
 600              	@ 0 "" 2
 601              		.thumb
 602 0044 FFF7FEFF 		bl	dbg_check_lock
 603              		.loc 1 280 0
 604 0048 A168     		ldr	r1, [r4, #8]
 605 004a 481C     		adds	r0, r1, #1
 606 004c 0028     		cmp	r0, #0
 607 004e A060     		str	r0, [r4, #8]
 608 0050 EFDC     		bgt	.L51
 609              	.L54:
 610              		.loc 1 281 0
 611 0052 2046     		mov	r0, r4
 612 0054 FFF7FEFF 		bl	fifo_remove
 613 0058 0021     		movs	r1, #0
 614 005a FFF7FEFF 		bl	chSchWakeupS
 615              		.loc 1 282 0
 616 005e FFF7FEFF 		bl	dbg_check_unlock
 617              	@ 282 "../../../os/kernel/src/chsem.c" 1
 618 0062 FFF7FEFF 		bl      _port_unlock
 619              	@ 0 "" 2
 620              		.loc 1 283 0
 621              		.thumb
ARM GAS  /tmp/ccPfrNjB.s 			page 12


 622 0066 10BD     		pop	{r4, pc}
 623              	.L53:
 624              		.loc 1 273 0 discriminator 1
 625 0068 40F20000 		movw	r0, #:lower16:.LC7
 626 006c C0F20000 		movt	r0, #:upper16:.LC7
 627 0070 FFF7FEFF 		bl	chDbgPanic
 628 0074 C8E7     		b	.L47
 629              		.cfi_endproc
 630              	.LFE7:
 631              		.size	chSemSignal, .-chSemSignal
 632 0076 00BFAFF3 		.section	.text.chSemSignalI,"ax",%progbits
 632      0080AFF3 
 632      0080
 633              		.align	2
 634              		.p2align 4,,15
 635              		.global	chSemSignalI
 636              		.thumb
 637              		.thumb_func
 638              		.type	chSemSignalI, %function
 639              	chSemSignalI:
 640              	.LFB8:
 641              		.loc 1 296 0
 642              		.cfi_startproc
 643              		@ args = 0, pretend = 0, frame = 0
 644              		@ frame_needed = 0, uses_anonymous_args = 0
 645              	.LVL29:
 646 0000 10B5     		push	{r4, lr}
 647              	.LCFI8:
 648              		.cfi_def_cfa_offset 8
 649              		.cfi_offset 14, -4
 650              		.cfi_offset 4, -8
 651              		.loc 1 296 0
 652 0002 0446     		mov	r4, r0
 653              		.loc 1 298 0
 654 0004 FFF7FEFF 		bl	chDbgCheckClassI
 655              	.LVL30:
 656              		.loc 1 299 0
 657 0008 002C     		cmp	r4, #0
 658 000a 20D0     		beq	.L62
 659              	.L56:
 660              		.loc 1 300 0
 661 000c A368     		ldr	r3, [r4, #8]
 662 000e 2268     		ldr	r2, [r4, #0]
 663 0010 002B     		cmp	r3, #0
 664 0012 0DDB     		blt	.L57
 665              		.loc 1 300 0 is_stmt 0 discriminator 2
 666 0014 A242     		cmp	r2, r4
 667 0016 06D0     		beq	.L59
 668              	.L58:
 669              		.loc 1 300 0 discriminator 3
 670 0018 40F20000 		movw	r0, #:lower16:.LC10
 671 001c C0F20000 		movt	r0, #:upper16:.LC10
 672 0020 FFF7FEFF 		bl	chDbgPanic
 673 0024 A368     		ldr	r3, [r4, #8]
 674              	.L59:
 675              		.loc 1 305 0 is_stmt 1
 676 0026 0133     		adds	r3, r3, #1
ARM GAS  /tmp/ccPfrNjB.s 			page 13


 677 0028 002B     		cmp	r3, #0
 678 002a A360     		str	r3, [r4, #8]
 679 002c 06DD     		ble	.L63
 680              	.L55:
 681 002e 10BD     		pop	{r4, pc}
 682              	.L57:
 683              		.loc 1 300 0 discriminator 4
 684 0030 A242     		cmp	r2, r4
 685 0032 F1D0     		beq	.L58
 686              		.loc 1 305 0
 687 0034 0133     		adds	r3, r3, #1
 688 0036 002B     		cmp	r3, #0
 689 0038 A360     		str	r3, [r4, #8]
 690 003a F8DC     		bgt	.L55
 691              	.L63:
 692              	.LBB2:
 693              		.loc 1 308 0
 694 003c 2046     		mov	r0, r4
 695 003e FFF7FEFF 		bl	fifo_remove
 696              	.LVL31:
 697              		.loc 1 309 0
 698 0042 0022     		movs	r2, #0
 699 0044 8262     		str	r2, [r0, #40]
 700              	.LBE2:
 701              		.loc 1 312 0
 702 0046 BDE81040 		pop	{r4, lr}
 703              	.LBB3:
 704              		.loc 1 310 0
 705 004a FFF7FEBF 		b	chSchReadyI
 706              	.LVL32:
 707              	.L62:
 708              	.LBE3:
 709              		.loc 1 299 0 discriminator 1
 710 004e 40F20000 		movw	r0, #:lower16:.LC9
 711 0052 C0F20000 		movt	r0, #:upper16:.LC9
 712 0056 FFF7FEFF 		bl	chDbgPanic
 713 005a D7E7     		b	.L56
 714              		.cfi_endproc
 715              	.LFE8:
 716              		.size	chSemSignalI, .-chSemSignalI
 717 005c AFF30080 		.section	.text.chSemAddCounterI,"ax",%progbits
 718              		.align	2
 719              		.p2align 4,,15
 720              		.global	chSemAddCounterI
 721              		.thumb
 722              		.thumb_func
 723              		.type	chSemAddCounterI, %function
 724              	chSemAddCounterI:
 725              	.LFB9:
 726              		.loc 1 327 0
 727              		.cfi_startproc
 728              		@ args = 0, pretend = 0, frame = 0
 729              		@ frame_needed = 0, uses_anonymous_args = 0
 730              	.LVL33:
 731 0000 F8B5     		push	{r3, r4, r5, r6, r7, lr}
 732              	.LCFI9:
 733              		.cfi_def_cfa_offset 24
ARM GAS  /tmp/ccPfrNjB.s 			page 14


 734              		.cfi_offset 14, -4
 735              		.cfi_offset 7, -8
 736              		.cfi_offset 6, -12
 737              		.cfi_offset 5, -16
 738              		.cfi_offset 4, -20
 739              		.cfi_offset 3, -24
 740              		.loc 1 327 0
 741 0002 0446     		mov	r4, r0
 742 0004 0D46     		mov	r5, r1
 743              		.loc 1 329 0
 744 0006 FFF7FEFF 		bl	chDbgCheckClassI
 745              	.LVL34:
 746              		.loc 1 330 0
 747 000a D4F10103 		rsbs	r3, r4, #1
 748 000e 38BF     		it	cc
 749 0010 0023     		movcc	r3, #0
 750 0012 002D     		cmp	r5, #0
 751 0014 D8BF     		it	le
 752 0016 43F00103 		orrle	r3, r3, #1
 753 001a 002B     		cmp	r3, #0
 754 001c 47D1     		bne	.L84
 755              	.L65:
 756              		.loc 1 331 0
 757 001e A068     		ldr	r0, [r4, #8]
 758 0020 2368     		ldr	r3, [r4, #0]
 759 0022 0028     		cmp	r0, #0
 760 0024 40DB     		blt	.L66
 761              		.loc 1 331 0 is_stmt 0 discriminator 2
 762 0026 A342     		cmp	r3, r4
 763 0028 05D0     		beq	.L68
 764              	.L67:
 765              		.loc 1 331 0 discriminator 3
 766 002a 40F20000 		movw	r0, #:lower16:.LC12
 767 002e C0F20000 		movt	r0, #:upper16:.LC12
 768 0032 FFF7FEFF 		bl	chDbgPanic
 769              	.L68:
 770              		.loc 1 336 0 is_stmt 1 discriminator 1
 771 0036 002D     		cmp	r5, #0
 772 0038 35DD     		ble	.L64
 773              		.loc 1 337 0
 774 003a A268     		ldr	r2, [r4, #8]
 775              		.loc 1 338 0
 776 003c 0026     		movs	r6, #0
 777              		.loc 1 337 0
 778 003e 511C     		adds	r1, r2, #1
 779 0040 6F1E     		subs	r7, r5, #1
 780 0042 B142     		cmp	r1, r6
 781 0044 A160     		str	r1, [r4, #8]
 782 0046 07F00107 		and	r7, r7, #1
 783 004a 37DD     		ble	.L85
 784              	.L74:
 785              		.loc 1 336 0
 786 004c 013D     		subs	r5, r5, #1
 787              	.LVL35:
 788 004e 2AD0     		beq	.L64
 789 0050 7FB1     		cbz	r7, .L72
 790              		.loc 1 337 0
ARM GAS  /tmp/ccPfrNjB.s 			page 15


 791 0052 A068     		ldr	r0, [r4, #8]
 792 0054 431C     		adds	r3, r0, #1
 793 0056 002B     		cmp	r3, #0
 794 0058 A360     		str	r3, [r4, #8]
 795 005a 36DD     		ble	.L86
 796              	.L76:
 797              	.LVL36:
 798              		.loc 1 336 0
 799 005c 013D     		subs	r5, r5, #1
 800 005e 08D1     		bne	.L72
 801 0060 3AE0     		b	.L90
 802              	.L70:
 803              		.loc 1 337 0
 804 0062 A268     		ldr	r2, [r4, #8]
 805 0064 511C     		adds	r1, r2, #1
 806              		.loc 1 339 0
 807 0066 013D     		subs	r5, r5, #1
 808              		.loc 1 337 0
 809 0068 0029     		cmp	r1, #0
 810 006a A160     		str	r1, [r4, #8]
 811 006c 12DD     		ble	.L88
 812              	.L79:
 813              		.loc 1 336 0
 814 006e 013D     		subs	r5, r5, #1
 815 0070 18D0     		beq	.L89
 816              	.L72:
 817              		.loc 1 337 0
 818 0072 A068     		ldr	r0, [r4, #8]
 819 0074 431C     		adds	r3, r0, #1
 820 0076 002B     		cmp	r3, #0
 821 0078 A360     		str	r3, [r4, #8]
 822 007a F2DC     		bgt	.L70
 823              		.loc 1 338 0
 824 007c 2046     		mov	r0, r4
 825 007e FFF7FEFF 		bl	fifo_remove
 826 0082 FFF7FEFF 		bl	chSchReadyI
 827 0086 8662     		str	r6, [r0, #40]
 828              		.loc 1 337 0
 829 0088 A268     		ldr	r2, [r4, #8]
 830 008a 511C     		adds	r1, r2, #1
 831              		.loc 1 339 0
 832 008c 013D     		subs	r5, r5, #1
 833              		.loc 1 337 0
 834 008e 0029     		cmp	r1, #0
 835 0090 A160     		str	r1, [r4, #8]
 836 0092 ECDC     		bgt	.L79
 837              	.L88:
 838              		.loc 1 338 0
 839 0094 2046     		mov	r0, r4
 840 0096 FFF7FEFF 		bl	fifo_remove
 841 009a FFF7FEFF 		bl	chSchReadyI
 842              		.loc 1 336 0
 843 009e 013D     		subs	r5, r5, #1
 844              		.loc 1 338 0
 845 00a0 8662     		str	r6, [r0, #40]
 846              		.loc 1 336 0
 847 00a2 E6D1     		bne	.L72
ARM GAS  /tmp/ccPfrNjB.s 			page 16


 848              	.L89:
 849 00a4 F8BD     		pop	{r3, r4, r5, r6, r7, pc}
 850              	.L64:
 851 00a6 F8BD     		pop	{r3, r4, r5, r6, r7, pc}
 852              	.LVL37:
 853              	.L66:
 854              		.loc 1 331 0 discriminator 4
 855 00a8 A342     		cmp	r3, r4
 856 00aa C4D1     		bne	.L68
 857 00ac BDE7     		b	.L67
 858              	.L84:
 859              		.loc 1 330 0 discriminator 1
 860 00ae 40F20000 		movw	r0, #:lower16:.LC11
 861 00b2 C0F20000 		movt	r0, #:upper16:.LC11
 862 00b6 FFF7FEFF 		bl	chDbgPanic
 863 00ba B0E7     		b	.L65
 864              	.L85:
 865              		.loc 1 338 0
 866 00bc 2046     		mov	r0, r4
 867 00be FFF7FEFF 		bl	fifo_remove
 868 00c2 FFF7FEFF 		bl	chSchReadyI
 869 00c6 8662     		str	r6, [r0, #40]
 870 00c8 C0E7     		b	.L74
 871              	.LVL38:
 872              	.L86:
 873 00ca 2046     		mov	r0, r4
 874 00cc FFF7FEFF 		bl	fifo_remove
 875 00d0 FFF7FEFF 		bl	chSchReadyI
 876 00d4 8662     		str	r6, [r0, #40]
 877 00d6 C1E7     		b	.L76
 878              	.LVL39:
 879              	.L90:
 880 00d8 F8BD     		pop	{r3, r4, r5, r6, r7, pc}
 881              		.cfi_endproc
 882              	.LFE9:
 883              		.size	chSemAddCounterI, .-chSemAddCounterI
 884 00da 00BFAFF3 		.section	.text.chSemSignalWait,"ax",%progbits
 884      0080
 885              		.align	2
 886              		.p2align 4,,15
 887              		.global	chSemSignalWait
 888              		.thumb
 889              		.thumb_func
 890              		.type	chSemSignalWait, %function
 891              	chSemSignalWait:
 892              	.LFB10:
 893              		.loc 1 359 0
 894              		.cfi_startproc
 895              		@ args = 0, pretend = 0, frame = 0
 896              		@ frame_needed = 0, uses_anonymous_args = 0
 897              	.LVL40:
 898 0000 38B5     		push	{r3, r4, r5, lr}
 899              	.LCFI10:
 900              		.cfi_def_cfa_offset 16
 901              		.cfi_offset 14, -4
 902              		.cfi_offset 5, -8
 903              		.cfi_offset 4, -12
ARM GAS  /tmp/ccPfrNjB.s 			page 17


 904              		.cfi_offset 3, -16
 905              		.loc 1 362 0
 906 0002 D0F10103 		rsbs	r3, r0, #1
 907 0006 38BF     		it	cc
 908 0008 0023     		movcc	r3, #0
 909 000a 0029     		cmp	r1, #0
 910 000c 08BF     		it	eq
 911 000e 43F00103 		orreq	r3, r3, #1
 912 0012 0546     		mov	r5, r0
 913 0014 0C46     		mov	r4, r1
 914 0016 002B     		cmp	r3, #0
 915 0018 5FD1     		bne	.L104
 916              	.LVL41:
 917              	.L92:
 918              		.loc 1 363 0
 919 001a A868     		ldr	r0, [r5, #8]
 920 001c 2B68     		ldr	r3, [r5, #0]
 921 001e 0028     		cmp	r0, #0
 922 0020 2ADB     		blt	.L93
 923              		.loc 1 363 0 is_stmt 0 discriminator 2
 924 0022 AB42     		cmp	r3, r5
 925 0024 05D0     		beq	.L95
 926              	.L94:
 927              		.loc 1 363 0 discriminator 3
 928 0026 40F20000 		movw	r0, #:lower16:.LC14
 929 002a C0F20000 		movt	r0, #:upper16:.LC14
 930 002e FFF7FEFF 		bl	chDbgPanic
 931              	.L95:
 932              		.loc 1 367 0 is_stmt 1
 933 0032 A168     		ldr	r1, [r4, #8]
 934 0034 2368     		ldr	r3, [r4, #0]
 935 0036 0029     		cmp	r1, #0
 936 0038 24DB     		blt	.L96
 937              	.L107:
 938              		.loc 1 367 0 is_stmt 0 discriminator 2
 939 003a A342     		cmp	r3, r4
 940 003c 05D0     		beq	.L98
 941              	.L97:
 942              		.loc 1 367 0 discriminator 3
 943 003e 40F20000 		movw	r0, #:lower16:.LC15
 944 0042 C0F20000 		movt	r0, #:upper16:.LC15
 945 0046 FFF7FEFF 		bl	chDbgPanic
 946              	.L98:
 947              		.loc 1 372 0 is_stmt 1
 948              	@ 372 "../../../os/kernel/src/chsem.c" 1
 949 004a FFF7FEFF 		bl      _port_lock
 950              	@ 0 "" 2
 951              		.thumb
 952 004e FFF7FEFF 		bl	dbg_check_lock
 953              		.loc 1 373 0
 954 0052 AB68     		ldr	r3, [r5, #8]
 955 0054 5A1C     		adds	r2, r3, #1
 956 0056 002A     		cmp	r2, #0
 957 0058 AA60     		str	r2, [r5, #8]
 958 005a 1EDD     		ble	.L105
 959              	.L99:
 960              		.loc 1 375 0
ARM GAS  /tmp/ccPfrNjB.s 			page 18


 961 005c A268     		ldr	r2, [r4, #8]
 962 005e 501E     		subs	r0, r2, #1
 963 0060 0028     		cmp	r0, #0
 964 0062 A060     		str	r0, [r4, #8]
 965 0064 25DB     		blt	.L106
 966              	.L100:
 967              		.loc 1 383 0
 968 0066 FFF7FEFF 		bl	chSchRescheduleS
 969              	.LVL42:
 970              		.loc 1 384 0
 971 006a 0024     		movs	r4, #0
 972              	.LVL43:
 973              		.loc 1 386 0
 974 006c FFF7FEFF 		bl	dbg_check_unlock
 975              	@ 386 "../../../os/kernel/src/chsem.c" 1
 976 0070 FFF7FEFF 		bl      _port_unlock
 977              	@ 0 "" 2
 978              		.loc 1 388 0
 979              		.thumb
 980 0074 2046     		mov	r0, r4
 981 0076 38BD     		pop	{r3, r4, r5, pc}
 982              	.LVL44:
 983              	.L93:
 984              		.loc 1 363 0 discriminator 4
 985 0078 AB42     		cmp	r3, r5
 986 007a D4D0     		beq	.L94
 987              		.loc 1 367 0
 988 007c A168     		ldr	r1, [r4, #8]
 989 007e 2368     		ldr	r3, [r4, #0]
 990 0080 0029     		cmp	r1, #0
 991 0082 DADA     		bge	.L107
 992              	.L96:
 993              		.loc 1 367 0 is_stmt 0 discriminator 4
 994 0084 A342     		cmp	r3, r4
 995 0086 DAD0     		beq	.L97
 996              		.loc 1 372 0 is_stmt 1
 997              	@ 372 "../../../os/kernel/src/chsem.c" 1
 998 0088 FFF7FEFF 		bl      _port_lock
 999              	@ 0 "" 2
 1000              		.thumb
 1001 008c FFF7FEFF 		bl	dbg_check_lock
 1002              		.loc 1 373 0
 1003 0090 AB68     		ldr	r3, [r5, #8]
 1004 0092 5A1C     		adds	r2, r3, #1
 1005 0094 002A     		cmp	r2, #0
 1006 0096 AA60     		str	r2, [r5, #8]
 1007 0098 E0DC     		bgt	.L99
 1008              	.L105:
 1009              		.loc 1 374 0
 1010 009a 2846     		mov	r0, r5
 1011 009c FFF7FEFF 		bl	fifo_remove
 1012 00a0 FFF7FEFF 		bl	chSchReadyI
 1013 00a4 0021     		movs	r1, #0
 1014 00a6 8162     		str	r1, [r0, #40]
 1015              		.loc 1 375 0
 1016 00a8 A268     		ldr	r2, [r4, #8]
 1017 00aa 501E     		subs	r0, r2, #1
ARM GAS  /tmp/ccPfrNjB.s 			page 19


 1018 00ac 0028     		cmp	r0, #0
 1019 00ae A060     		str	r0, [r4, #8]
 1020 00b0 D9DA     		bge	.L100
 1021              	.L106:
 1022              	.LBB4:
 1023              		.loc 1 376 0
 1024 00b2 40F20005 		movw	r5, #:lower16:rlist
 1025              	.LVL45:
 1026 00b6 C0F20005 		movt	r5, #:upper16:rlist
 1027              		.loc 1 377 0
 1028 00ba 2146     		mov	r1, r4
 1029              		.loc 1 376 0
 1030 00bc AD69     		ldr	r5, [r5, #24]
 1031              	.LVL46:
 1032              		.loc 1 377 0
 1033 00be 2846     		mov	r0, r5
 1034 00c0 FFF7FEFF 		bl	queue_insert
 1035              	.LVL47:
 1036              		.loc 1 378 0
 1037 00c4 AC62     		str	r4, [r5, #40]
 1038              		.loc 1 379 0
 1039 00c6 0320     		movs	r0, #3
 1040 00c8 FFF7FEFF 		bl	chSchGoSleepS
 1041              		.loc 1 380 0
 1042 00cc AC6A     		ldr	r4, [r5, #40]
 1043              	.LVL48:
 1044              	.LBE4:
 1045              		.loc 1 386 0
 1046 00ce FFF7FEFF 		bl	dbg_check_unlock
 1047              	.LVL49:
 1048              	@ 386 "../../../os/kernel/src/chsem.c" 1
 1049 00d2 FFF7FEFF 		bl      _port_unlock
 1050              	@ 0 "" 2
 1051              		.loc 1 388 0
 1052              		.thumb
 1053 00d6 2046     		mov	r0, r4
 1054 00d8 38BD     		pop	{r3, r4, r5, pc}
 1055              	.LVL50:
 1056              	.L104:
 1057              		.loc 1 362 0 discriminator 1
 1058 00da 40F20000 		movw	r0, #:lower16:.LC13
 1059              	.LVL51:
 1060 00de C0F20000 		movt	r0, #:upper16:.LC13
 1061 00e2 FFF7FEFF 		bl	chDbgPanic
 1062              	.LVL52:
 1063 00e6 98E7     		b	.L92
 1064              		.cfi_endproc
 1065              	.LFE10:
 1066              		.size	chSemSignalWait, .-chSemSignalWait
 1067 00e8 AFF30080 		.section	.rodata.str1.4,"aMS",%progbits,1
 1067      AFF30080 
 1068              		.align	2
 1069              	.LC0:
 1070 0000 22636853 		.ascii	"\"chSemInit\"()\000"
 1070      656D496E 
 1070      69742228 
 1070      2900
ARM GAS  /tmp/ccPfrNjB.s 			page 20


 1071 000e 0000     		.space	2
 1072              	.LC1:
 1073 0010 22636853 		.ascii	"\"chSemResetI\"()\000"
 1073      656D5265 
 1073      73657449 
 1073      22282900 
 1074              	.LC2:
 1075 0020 63685365 		.ascii	"chSemResetI(), #1\000"
 1075      6D526573 
 1075      65744928 
 1075      292C2023 
 1075      3100
 1076 0032 0000     		.space	2
 1077              	.LC3:
 1078 0034 22636853 		.ascii	"\"chSemWaitS\"()\000"
 1078      656D5761 
 1078      69745322 
 1078      282900
 1079 0043 00       		.space	1
 1080              	.LC4:
 1081 0044 63685365 		.ascii	"chSemWaitS(), #1\000"
 1081      6D576169 
 1081      74532829 
 1081      2C202331 
 1081      00
 1082 0055 000000   		.space	3
 1083              	.LC5:
 1084 0058 22636853 		.ascii	"\"chSemWaitTimeoutS\"()\000"
 1084      656D5761 
 1084      69745469 
 1084      6D656F75 
 1084      74532228 
 1085 006e 0000     		.space	2
 1086              	.LC6:
 1087 0070 63685365 		.ascii	"chSemWaitTimeoutS(), #1\000"
 1087      6D576169 
 1087      7454696D 
 1087      656F7574 
 1087      5328292C 
 1088              	.LC7:
 1089 0088 22636853 		.ascii	"\"chSemSignal\"()\000"
 1089      656D5369 
 1089      676E616C 
 1089      22282900 
 1090              	.LC8:
 1091 0098 63685365 		.ascii	"chSemSignal(), #1\000"
 1091      6D536967 
 1091      6E616C28 
 1091      292C2023 
 1091      3100
 1092 00aa 0000     		.space	2
 1093              	.LC9:
 1094 00ac 22636853 		.ascii	"\"chSemSignalI\"()\000"
 1094      656D5369 
 1094      676E616C 
 1094      49222829 
 1094      00
ARM GAS  /tmp/ccPfrNjB.s 			page 21


 1095 00bd 000000   		.space	3
 1096              	.LC10:
 1097 00c0 63685365 		.ascii	"chSemSignalI(), #1\000"
 1097      6D536967 
 1097      6E616C49 
 1097      28292C20 
 1097      233100
 1098 00d3 00       		.space	1
 1099              	.LC11:
 1100 00d4 22636853 		.ascii	"\"chSemAddCounterI\"()\000"
 1100      656D4164 
 1100      64436F75 
 1100      6E746572 
 1100      49222829 
 1101 00e9 000000   		.space	3
 1102              	.LC12:
 1103 00ec 63685365 		.ascii	"chSemAddCounterI(), #1\000"
 1103      6D416464 
 1103      436F756E 
 1103      74657249 
 1103      28292C20 
 1104 0103 00       		.space	1
 1105              	.LC13:
 1106 0104 22636853 		.ascii	"\"chSemSignalWait\"()\000"
 1106      656D5369 
 1106      676E616C 
 1106      57616974 
 1106      22282900 
 1107              	.LC14:
 1108 0118 63685365 		.ascii	"chSemSignalWait(), #1\000"
 1108      6D536967 
 1108      6E616C57 
 1108      61697428 
 1108      292C2023 
 1109 012e 0000     		.space	2
 1110              	.LC15:
 1111 0130 63685365 		.ascii	"chSemSignalWait(), #2\000"
 1111      6D536967 
 1111      6E616C57 
 1111      61697428 
 1111      292C2023 
 1112 0146 0000     		.text
 1113              	.Letext0:
 1114              		.file 2 "/home/prana/CodeSourcery/ARM_EABI/bin/../lib/gcc/arm-none-eabi/4.6.3/../../../../arm-none
 1115              		.file 3 "../../../os/ports/GCC/ARMCMx/chtypes.h"
 1116              		.file 4 "../../../os/kernel/include/chlists.h"
 1117              		.file 5 "../../../os/kernel/include/chthreads.h"
 1118              		.file 6 "../../../os/ports/GCC/ARMCMx/chcore_v7m.h"
 1119              		.file 7 "../../../os/kernel/include/chschd.h"
 1120              		.file 8 "../../../os/kernel/include/chsem.h"
 1121              		.file 9 "../../../os/kernel/include/chmtx.h"