ARM GAS  /tmp/ccmcXPPz.s 			page 1


   1              		.syntax unified
   2              		.cpu cortex-m4
   3              		.fpu softvfp
   4              		.eabi_attribute 20, 1
   5              		.eabi_attribute 21, 1
   6              		.eabi_attribute 23, 3
   7              		.eabi_attribute 24, 1
   8              		.eabi_attribute 25, 1
   9              		.eabi_attribute 26, 1
  10              		.eabi_attribute 30, 2
  11              		.eabi_attribute 34, 1
  12              		.eabi_attribute 18, 4
  13              		.thumb
  14              		.file	"chsys.c"
  15              		.text
  16              	.Ltext0:
  17              		.cfi_sections	.debug_frame
  18              		.section	.text._idle_thread,"ax",%progbits
  19              		.align	2
  20              		.p2align 4,,15
  21              		.global	_idle_thread
  22              		.thumb
  23              		.thumb_func
  24              		.type	_idle_thread, %function
  25              	_idle_thread:
  26              	.LFB0:
  27              		.file 1 "../../../os/kernel/src/chsys.c"
  28              		.loc 1 54 0
  29              		.cfi_startproc
  30              		@ args = 0, pretend = 0, frame = 0
  31              		@ frame_needed = 0, uses_anonymous_args = 0
  32              		@ link register save eliminated.
  33              	.LVL0:
  34              		.loc 1 57 0
  35 0000 40F20000 		movw	r0, #:lower16:rlist
  36              	.LVL1:
  37 0004 C0F20000 		movt	r0, #:upper16:rlist
  38 0008 40F20003 		movw	r3, #:lower16:.LC0
  39 000c 8269     		ldr	r2, [r0, #24]
  40 000e C0F20003 		movt	r3, #:upper16:.LC0
  41 0012 9361     		str	r3, [r2, #24]
  42              	.L2:
  43 0014 FEE7     		b	.L2
  44              		.cfi_endproc
  45              	.LFE0:
  46              		.size	_idle_thread, .-_idle_thread
  47 0016 00BFAFF3 		.section	.text.chSysInit,"ax",%progbits
  47      0080AFF3 
  47      0080
  48              		.align	2
  49              		.p2align 4,,15
  50              		.global	chSysInit
  51              		.thumb
  52              		.thumb_func
  53              		.type	chSysInit, %function
  54              	chSysInit:
  55              	.LFB1:
ARM GAS  /tmp/ccmcXPPz.s 			page 2


  56              		.loc 1 77 0
  57              		.cfi_startproc
  58              		@ args = 0, pretend = 0, frame = 0
  59              		@ frame_needed = 0, uses_anonymous_args = 0
  60 0000 30B5     		push	{r4, r5, lr}
  61              	.LCFI0:
  62              		.cfi_def_cfa_offset 12
  63              		.cfi_offset 14, -4
  64              		.cfi_offset 5, -8
  65              		.cfi_offset 4, -12
  66 0002 83B0     		sub	sp, sp, #12
  67              	.LCFI1:
  68              		.cfi_def_cfa_offset 24
  69              		.loc 1 83 0
  70 0004 FFF7FEFF 		bl	_port_init
  71              		.loc 1 84 0
  72 0008 FFF7FEFF 		bl	_scheduler_init
  73              		.loc 1 85 0
  74 000c FFF7FEFF 		bl	_vt_init
  75              		.loc 1 87 0
  76 0010 FFF7FEFF 		bl	_core_init
  77              		.loc 1 93 0
  78 0014 FFF7FEFF 		bl	_trace_init
  79              		.loc 1 97 0
  80 0018 40F20000 		movw	r0, #:lower16:.LANCHOR0
  81 001c 4021     		movs	r1, #64
  82 001e C0F20000 		movt	r0, #:upper16:.LANCHOR0
  83 0022 FFF7FEFF 		bl	_thread_init
  84 0026 40F20005 		movw	r5, #:lower16:rlist
  85 002a C0F20005 		movt	r5, #:upper16:rlist
  86              		.loc 1 102 0
  87 002e 40F20003 		movw	r3, #:lower16:__main_thread_stack_base__
  88 0032 C0F20003 		movt	r3, #:upper16:__main_thread_stack_base__
  89              		.loc 1 98 0
  90 0036 0124     		movs	r4, #1
  91              		.loc 1 102 0
  92 0038 C361     		str	r3, [r0, #28]
  93              		.loc 1 98 0
  94 003a 80F82040 		strb	r4, [r0, #32]
  95              		.loc 1 97 0
  96 003e A861     		str	r0, [r5, #24]
  97              		.loc 1 104 0
  98 0040 FFF7FEFF 		bl	dbg_check_enable
  99              	.LBB2:
 100 0044 0023     		movs	r3, #0
 101              	.LVL2:
 102              	@ 104 "../../../os/kernel/src/chsys.c" 1
 103 0046 83F31188 		msr     BASEPRI, r3                    
 104 004a 62B6     		cpsie   i
 105              	@ 0 "" 2
 106              	.LVL3:
 107              		.thumb
 108              	.LBE2:
 109              		.loc 1 108 0
 110 004c 40F20002 		movw	r2, #:lower16:ch_debug
 111 0050 A969     		ldr	r1, [r5, #24]
 112 0052 C0F20002 		movt	r2, #:upper16:ch_debug
ARM GAS  /tmp/ccmcXPPz.s 			page 3


 113              		.loc 1 114 0
 114 0056 1D46     		mov	r5, r3
 115 0058 40F20000 		movw	r0, #:lower16:.LANCHOR1
 116 005c 40F20003 		movw	r3, #:lower16:_idle_thread
 117              	.LVL4:
 118              		.loc 1 108 0
 119 0060 8A61     		str	r2, [r1, #24]
 120              		.loc 1 114 0
 121 0062 C0F20003 		movt	r3, #:upper16:_idle_thread
 122 0066 D021     		movs	r1, #208
 123 0068 2246     		mov	r2, r4
 124 006a C0F20000 		movt	r0, #:upper16:.LANCHOR1
 125 006e 0095     		str	r5, [sp, #0]
 126              	.LVL5:
 127 0070 FFF7FEFF 		bl	chThdCreateStatic
 128              		.loc 1 117 0
 129 0074 03B0     		add	sp, sp, #12
 130 0076 30BD     		pop	{r4, r5, pc}
 131              		.cfi_endproc
 132              	.LFE1:
 133              		.size	chSysInit, .-chSysInit
 134 0078 AFF30080 		.section	.text.chSysTimerHandlerI,"ax",%progbits
 134      AFF30080 
 135              		.align	2
 136              		.p2align 4,,15
 137              		.global	chSysTimerHandlerI
 138              		.thumb
 139              		.thumb_func
 140              		.type	chSysTimerHandlerI, %function
 141              	chSysTimerHandlerI:
 142              	.LFB2:
 143              		.loc 1 130 0
 144              		.cfi_startproc
 145              		@ args = 0, pretend = 0, frame = 0
 146              		@ frame_needed = 0, uses_anonymous_args = 0
 147 0000 F8B5     		push	{r3, r4, r5, r6, r7, lr}
 148              	.LCFI2:
 149              		.cfi_def_cfa_offset 24
 150              		.cfi_offset 14, -4
 151              		.cfi_offset 7, -8
 152              		.cfi_offset 6, -12
 153              		.cfi_offset 5, -16
 154              		.cfi_offset 4, -20
 155              		.cfi_offset 3, -24
 156              		.loc 1 132 0
 157 0002 FFF7FEFF 		bl	chDbgCheckClassI
 158              		.loc 1 141 0
 159 0006 40F2000C 		movw	ip, #:lower16:rlist
 160 000a C0F2000C 		movt	ip, #:upper16:rlist
 161              		.loc 1 143 0
 162 000e 40F20004 		movw	r4, #:lower16:vtlist
 163              		.loc 1 141 0
 164 0012 DCF81810 		ldr	r1, [ip, #24]
 165 0016 4F6A     		ldr	r7, [r1, #36]
 166              		.loc 1 143 0
 167 0018 C0F20004 		movt	r4, #:upper16:vtlist
 168              		.loc 1 141 0
ARM GAS  /tmp/ccmcXPPz.s 			page 4


 169 001c 7A1C     		adds	r2, r7, #1
 170 001e 4A62     		str	r2, [r1, #36]
 171              		.loc 1 143 0
 172 0020 E068     		ldr	r0, [r4, #12]
 173 0022 2768     		ldr	r7, [r4, #0]
 174 0024 431C     		adds	r3, r0, #1
 175 0026 A742     		cmp	r7, r4
 176 0028 E360     		str	r3, [r4, #12]
 177 002a 16D0     		beq	.L5
 178              	.LBB3:
 179              		.loc 1 143 0 is_stmt 0 discriminator 1
 180 002c BE68     		ldr	r6, [r7, #8]
 181 002e 013E     		subs	r6, r6, #1
 182 0030 BE60     		str	r6, [r7, #8]
 183              	.LVL6:
 184 0032 96B9     		cbnz	r6, .L5
 185              	.LVL7:
 186              	.L8:
 187              	.LBB4:
 188              		.loc 1 143 0 discriminator 3
 189 0034 3868     		ldr	r0, [r7, #0]
 190 0036 FD68     		ldr	r5, [r7, #12]
 191              	.LVL8:
 192 0038 4460     		str	r4, [r0, #4]
 193 003a FE60     		str	r6, [r7, #12]
 194 003c 2060     		str	r0, [r4, #0]
 195 003e FFF7FEFF 		bl	dbg_check_unlock_from_isr
 196              	.LVL9:
 197              	@ 143 "../../../os/kernel/src/chsys.c" 1
 198 0042 FFF7FEFF 		bl      _port_unlock
 199              	@ 0 "" 2
 200              		.thumb
 201 0046 3869     		ldr	r0, [r7, #16]
 202 0048 A847     		blx	r5
 203              	@ 143 "../../../os/kernel/src/chsys.c" 1
 204 004a FFF7FEFF 		bl      _port_lock
 205              	@ 0 "" 2
 206              		.thumb
 207 004e FFF7FEFF 		bl	dbg_check_lock_from_isr
 208              	.LBE4:
 209 0052 2768     		ldr	r7, [r4, #0]
 210              	.LVL10:
 211 0054 BB68     		ldr	r3, [r7, #8]
 212 0056 002B     		cmp	r3, #0
 213 0058 ECD0     		beq	.L8
 214              	.LVL11:
 215              	.L5:
 216 005a F8BD     		pop	{r3, r4, r5, r6, r7, pc}
 217              	.LBE3:
 218              		.cfi_endproc
 219              	.LFE2:
 220              		.size	chSysTimerHandlerI, .-chSysTimerHandlerI
 221              		.global	_idle_thread_wa
 222 005c AFF30080 		.section	.bss.mainthread.4610,"aw",%nobits
 223              		.align	2
 224              		.set	.LANCHOR0,. + 0
 225              		.type	mainthread.4610, %object
ARM GAS  /tmp/ccmcXPPz.s 			page 5


 226              		.size	mainthread.4610, 72
 227              	mainthread.4610:
 228 0000 00000000 		.space	72
 228      00000000 
 228      00000000 
 228      00000000 
 228      00000000 
 229              		.section	.rodata.str1.4,"aMS",%progbits,1
 230              		.align	2
 231              	.LC0:
 232 0000 69646C65 		.ascii	"idle\000"
 232      00
 233 0005 000000   		.section	.bss._idle_thread_wa,"aw",%nobits
 234              		.align	3
 235              		.set	.LANCHOR1,. + 0
 236              		.type	_idle_thread_wa, %object
 237              		.size	_idle_thread_wa, 208
 238              	_idle_thread_wa:
 239 0000 00000000 		.space	208
 239      00000000 
 239      00000000 
 239      00000000 
 239      00000000 
 240              		.text
 241              	.Letext0:
 242              		.file 2 "/home/prana/CodeSourcery/ARM_EABI/bin/../lib/gcc/arm-none-eabi/4.6.3/../../../../arm-none
 243              		.file 3 "../../../os/ports/GCC/ARMCMx/chtypes.h"
 244              		.file 4 "../../../os/kernel/include/chlists.h"
 245              		.file 5 "../../../os/kernel/include/chthreads.h"
 246              		.file 6 "../../../os/ports/GCC/ARMCMx/chcore_v7m.h"
 247              		.file 7 "../../../os/kernel/include/chvt.h"
 248              		.file 8 "../../../os/kernel/include/chschd.h"
 249              		.file 9 "../../../os/kernel/include/chmtx.h"
 250              		.file 10 "../../../os/kernel/include/chregistry.h"