ARM GAS  /tmp/ccLmfwry.s 			page 1


   1              		.syntax unified
   2              		.cpu cortex-m4
   3              		.fpu softvfp
   4              		.eabi_attribute 20, 1
   5              		.eabi_attribute 21, 1
   6              		.eabi_attribute 23, 3
   7              		.eabi_attribute 24, 1
   8              		.eabi_attribute 25, 1
   9              		.eabi_attribute 26, 1
  10              		.eabi_attribute 30, 2
  11              		.eabi_attribute 34, 1
  12              		.eabi_attribute 18, 4
  13              		.thumb
  14              		.file	"chthreads.c"
  15              		.text
  16              	.Ltext0:
  17              		.cfi_sections	.debug_frame
  18              		.section	.text._thread_init,"ax",%progbits
  19              		.align	2
  20              		.p2align 4,,15
  21              		.global	_thread_init
  22              		.thumb
  23              		.thumb_func
  24              		.type	_thread_init, %function
  25              	_thread_init:
  26              	.LFB0:
  27              		.file 1 "../../../os/kernel/src/chthreads.c"
  28              		.loc 1 69 0
  29              		.cfi_startproc
  30              		@ args = 0, pretend = 0, frame = 0
  31              		@ frame_needed = 0, uses_anonymous_args = 0
  32              		@ link register save eliminated.
  33              	.LVL0:
  34 0000 2DE9F001 		push	{r4, r5, r6, r7, r8}
  35              	.LCFI0:
  36              		.cfi_def_cfa_offset 20
  37              		.cfi_offset 8, -4
  38              		.cfi_offset 7, -8
  39              		.cfi_offset 6, -12
  40              		.cfi_offset 5, -16
  41              		.cfi_offset 4, -20
  42              		.loc 1 92 0
  43 0004 40F20004 		movw	r4, #:lower16:rlist
  44 0008 C0F20004 		movt	r4, #:upper16:rlist
  45              		.loc 1 73 0
  46 000c 0022     		movs	r2, #0
  47              		.loc 1 92 0
  48 000e 6569     		ldr	r5, [r4, #20]
  49              		.loc 1 73 0
  50 0010 80F82120 		strb	r2, [r0, #33]
  51              		.loc 1 98 0
  52 0014 00F13006 		add	r6, r0, #48
  53              		.loc 1 95 0
  54 0018 00F12C0C 		add	ip, r0, #44
  55              		.loc 1 101 0
  56 001c 00F14807 		add	r7, r0, #72
  57              		.loc 1 72 0
ARM GAS  /tmp/ccLmfwry.s 			page 2


  58 0020 4FF00208 		mov	r8, #2
  59              		.loc 1 92 0
  60 0024 0461     		str	r4, [r0, #16]
  61              		.loc 1 71 0
  62 0026 8160     		str	r1, [r0, #8]
  63              		.loc 1 92 0
  64 0028 4561     		str	r5, [r0, #20]
  65              		.loc 1 72 0
  66 002a 80F82080 		strb	r8, [r0, #32]
  67              		.loc 1 92 0
  68 002e 6061     		str	r0, [r4, #20]
  69              		.loc 1 78 0
  70 0030 4164     		str	r1, [r0, #68]
  71              		.loc 1 79 0
  72 0032 0264     		str	r2, [r0, #64]
  73              		.loc 1 82 0
  74 0034 C263     		str	r2, [r0, #60]
  75              		.loc 1 85 0
  76 0036 4262     		str	r2, [r0, #36]
  77              		.loc 1 91 0
  78 0038 8261     		str	r2, [r0, #24]
  79              		.loc 1 92 0
  80 003a 2861     		str	r0, [r5, #16]
  81              		.loc 1 95 0
  82 003c C0F82CC0 		str	ip, [r0, #44]
  83              		.loc 1 98 0
  84 0040 4663     		str	r6, [r0, #52]
  85 0042 0663     		str	r6, [r0, #48]
  86              		.loc 1 101 0
  87 0044 C761     		str	r7, [r0, #28]
  88              		.loc 1 107 0
  89 0046 BDE8F001 		pop	{r4, r5, r6, r7, r8}
  90 004a 7047     		bx	lr
  91              		.cfi_endproc
  92              	.LFE0:
  93              		.size	_thread_init, .-_thread_init
  94 004c AFF30080 		.section	.text._thread_memfill,"ax",%progbits
  95              		.align	2
  96              		.p2align 4,,15
  97              		.global	_thread_memfill
  98              		.thumb
  99              		.thumb_func
 100              		.type	_thread_memfill, %function
 101              	_thread_memfill:
 102              	.LFB1:
 103              		.loc 1 119 0
 104              		.cfi_startproc
 105              		@ args = 0, pretend = 0, frame = 0
 106              		@ frame_needed = 0, uses_anonymous_args = 0
 107              		@ link register save eliminated.
 108              	.LVL1:
 109              		.loc 1 121 0
 110 0000 8842     		cmp	r0, r1
 111 0002 14D2     		bcs	.L2
 112              		.loc 1 122 0
 113 0004 0346     		mov	r3, r0
 114 0006 C043     		mvns	r0, r0
ARM GAS  /tmp/ccLmfwry.s 			page 3


 115              	.LVL2:
 116 0008 03F8012B 		strb	r2, [r3], #1
 117              	.LVL3:
 118 000c 0818     		adds	r0, r1, r0
 119              		.loc 1 121 0
 120 000e 8B42     		cmp	r3, r1
 121 0010 00F00100 		and	r0, r0, #1
 122 0014 0CD0     		beq	.L13
 123 0016 18B1     		cbz	r0, .L5
 124              		.loc 1 122 0
 125 0018 03F8012B 		strb	r2, [r3], #1
 126              	.LVL4:
 127              		.loc 1 121 0
 128 001c 8B42     		cmp	r3, r1
 129 001e 08D0     		beq	.L14
 130              	.L5:
 131              		.loc 1 122 0
 132 0020 1846     		mov	r0, r3
 133 0022 00F8012B 		strb	r2, [r0], #1
 134 0026 5A70     		strb	r2, [r3, #1]
 135 0028 431C     		adds	r3, r0, #1
 136              		.loc 1 121 0
 137 002a 8B42     		cmp	r3, r1
 138 002c F8D1     		bne	.L5
 139              	.L2:
 140 002e 7047     		bx	lr
 141              	.LVL5:
 142              	.L13:
 143 0030 7047     		bx	lr
 144              	.LVL6:
 145              	.L14:
 146 0032 7047     		bx	lr
 147              		.cfi_endproc
 148              	.LFE1:
 149              		.size	_thread_memfill, .-_thread_memfill
 150 0034 AFF30080 		.section	.text.chThdCreateI,"ax",%progbits
 150      AFF30080 
 150      AFF30080 
 151              		.align	2
 152              		.p2align 4,,15
 153              		.global	chThdCreateI
 154              		.thumb
 155              		.thumb_func
 156              		.type	chThdCreateI, %function
 157              	chThdCreateI:
 158              	.LFB2:
 159              		.loc 1 151 0
 160              		.cfi_startproc
 161              		@ args = 4, pretend = 0, frame = 0
 162              		@ frame_needed = 0, uses_anonymous_args = 0
 163              	.LVL7:
 164 0000 2DE9F047 		push	{r4, r5, r6, r7, r8, r9, sl, lr}
 165              	.LCFI1:
 166              		.cfi_def_cfa_offset 32
 167              		.cfi_offset 14, -4
 168              		.cfi_offset 10, -8
 169              		.cfi_offset 9, -12
ARM GAS  /tmp/ccLmfwry.s 			page 4


 170              		.cfi_offset 8, -16
 171              		.cfi_offset 7, -20
 172              		.cfi_offset 6, -24
 173              		.cfi_offset 5, -28
 174              		.cfi_offset 4, -32
 175              		.loc 1 151 0
 176 0004 0446     		mov	r4, r0
 177              	.LVL8:
 178 0006 0D46     		mov	r5, r1
 179 0008 9846     		mov	r8, r3
 180 000a 1646     		mov	r6, r2
 181              		.loc 1 155 0
 182 000c FFF7FEFF 		bl	chDbgCheckClassI
 183              	.LVL9:
 184              		.loc 1 157 0
 185 0010 D4F10103 		rsbs	r3, r4, #1
 186 0014 38BF     		it	cc
 187 0016 0023     		movcc	r3, #0
 188 0018 AF2D     		cmp	r5, #175
 189 001a 98BF     		it	ls
 190 001c 43F00103 		orrls	r3, r3, #1
 191 0020 4BB9     		cbnz	r3, .L16
 192              		.loc 1 157 0 is_stmt 0 discriminator 2
 193 0022 7F2E     		cmp	r6, #127
 194 0024 94BF     		ite	ls
 195 0026 0023     		movls	r3, #0
 196 0028 0123     		movhi	r3, #1
 197 002a B8F1000F 		cmp	r8, #0
 198 002e 08BF     		it	eq
 199 0030 43F00103 		orreq	r3, r3, #1
 200 0034 2BB1     		cbz	r3, .L17
 201              	.LVL10:
 202              	.L16:
 203              		.loc 1 157 0 discriminator 1
 204 0036 40F20000 		movw	r0, #:lower16:.LC0
 205 003a C0F20000 		movt	r0, #:upper16:.LC0
 206 003e FFF7FEFF 		bl	chDbgPanic
 207              	.L17:
 208              	.LBB8:
 209              	.LBB9:
 210              		.loc 1 92 0 is_stmt 1
 211 0042 40F20001 		movw	r1, #:lower16:rlist
 212 0046 C0F20001 		movt	r1, #:upper16:rlist
 213              	.LBE9:
 214              	.LBE8:
 215              		.loc 1 160 0
 216 004a A5F1240A 		sub	sl, r5, #36
 217 004e 04EB0A00 		add	r0, r4, sl
 218              	.LBB15:
 219              	.LBB10:
 220              		.loc 1 92 0
 221 0052 4D69     		ldr	r5, [r1, #20]
 222              	.LVL11:
 223              	.LBE10:
 224              	.LBE15:
 225              		.loc 1 160 0
 226 0054 E060     		str	r0, [r4, #12]
ARM GAS  /tmp/ccLmfwry.s 			page 5


 227 0056 44F80A80 		str	r8, [r4, sl]
 228 005a DDF82080 		ldr	r8, [sp, #32]
 229              	.LVL12:
 230 005e 40F20009 		movw	r9, #:lower16:_port_thread_start
 231 0062 C0F80480 		str	r8, [r0, #4]
 232              	.LBB16:
 233              	.LBB11:
 234              		.loc 1 73 0
 235 0066 0022     		movs	r2, #0
 236              		.loc 1 98 0
 237 0068 04F13007 		add	r7, r4, #48
 238              	.LBE11:
 239              	.LBE16:
 240              		.loc 1 160 0
 241 006c C0F20009 		movt	r9, #:upper16:_port_thread_start
 242              	.LBB17:
 243              	.LBB12:
 244              		.loc 1 95 0
 245 0070 04F12C0C 		add	ip, r4, #44
 246              		.loc 1 101 0
 247 0074 04F14803 		add	r3, r4, #72
 248              		.loc 1 72 0
 249 0078 4FF00208 		mov	r8, #2
 250              	.LBE12:
 251              	.LBE17:
 252              		.loc 1 160 0
 253 007c C0F82090 		str	r9, [r0, #32]
 254              	.LVL13:
 255              	.LBB18:
 256              	.LBB13:
 257              		.loc 1 92 0
 258 0080 2161     		str	r1, [r4, #16]
 259              		.loc 1 71 0
 260 0082 A660     		str	r6, [r4, #8]
 261              		.loc 1 92 0
 262 0084 6561     		str	r5, [r4, #20]
 263              	.LBE13:
 264              	.LBE18:
 265              		.loc 1 162 0
 266 0086 2046     		mov	r0, r4
 267              	.LVL14:
 268              	.LBB19:
 269              	.LBB14:
 270              		.loc 1 92 0
 271 0088 4C61     		str	r4, [r1, #20]
 272              		.loc 1 72 0
 273 008a 84F82080 		strb	r8, [r4, #32]
 274              		.loc 1 73 0
 275 008e 84F82120 		strb	r2, [r4, #33]
 276              		.loc 1 78 0
 277 0092 6664     		str	r6, [r4, #68]
 278              		.loc 1 79 0
 279 0094 2264     		str	r2, [r4, #64]
 280              		.loc 1 82 0
 281 0096 E263     		str	r2, [r4, #60]
 282              		.loc 1 85 0
 283 0098 6262     		str	r2, [r4, #36]
ARM GAS  /tmp/ccLmfwry.s 			page 6


 284              		.loc 1 91 0
 285 009a A261     		str	r2, [r4, #24]
 286              		.loc 1 92 0
 287 009c 2C61     		str	r4, [r5, #16]
 288              		.loc 1 95 0
 289 009e C4F82CC0 		str	ip, [r4, #44]
 290              		.loc 1 98 0
 291 00a2 6763     		str	r7, [r4, #52]
 292 00a4 2763     		str	r7, [r4, #48]
 293              		.loc 1 101 0
 294 00a6 E361     		str	r3, [r4, #28]
 295              	.LBE14:
 296              	.LBE19:
 297              		.loc 1 162 0
 298 00a8 BDE8F087 		pop	{r4, r5, r6, r7, r8, r9, sl, pc}
 299              		.cfi_endproc
 300              	.LFE2:
 301              		.size	chThdCreateI, .-chThdCreateI
 302 00ac AFF30080 		.section	.text.chThdCreateStatic,"ax",%progbits
 303              		.align	2
 304              		.p2align 4,,15
 305              		.global	chThdCreateStatic
 306              		.thumb
 307              		.thumb_func
 308              		.type	chThdCreateStatic, %function
 309              	chThdCreateStatic:
 310              	.LFB3:
 311              		.loc 1 181 0
 312              		.cfi_startproc
 313              		@ args = 4, pretend = 0, frame = 0
 314              		@ frame_needed = 0, uses_anonymous_args = 0
 315              	.LVL15:
 316 0000 F0B5     		push	{r4, r5, r6, r7, lr}
 317              	.LCFI2:
 318              		.cfi_def_cfa_offset 20
 319              		.cfi_offset 14, -4
 320              		.cfi_offset 7, -8
 321              		.cfi_offset 6, -12
 322              		.cfi_offset 5, -16
 323              		.cfi_offset 4, -20
 324 0002 0446     		mov	r4, r0
 325 0004 0D46     		mov	r5, r1
 326 0006 1E46     		mov	r6, r3
 327              		.loc 1 185 0
 328 0008 00F1480E 		add	lr, r0, #72
 329              	.LVL16:
 330              		.loc 1 180 0
 331 000c 431C     		adds	r3, r0, #1
 332              	.LVL17:
 333              		.loc 1 181 0
 334 000e 83B0     		sub	sp, sp, #12
 335              	.LCFI3:
 336              		.cfi_def_cfa_offset 32
 337              		.loc 1 181 0
 338 0010 1746     		mov	r7, r2
 339              		.loc 1 180 0
 340 0012 4930     		adds	r0, r0, #73
ARM GAS  /tmp/ccLmfwry.s 			page 7


 341              	.LVL18:
 342              	.LBB20:
 343              	.LBB21:
 344              		.loc 1 122 0
 345 0014 FF21     		movs	r1, #255
 346              	.LVL19:
 347              	.L19:
 348 0016 1A46     		mov	r2, r3
 349 0018 03F8011C 		strb	r1, [r3, #-1]
 350 001c 02F8011B 		strb	r1, [r2], #1
 351 0020 531C     		adds	r3, r2, #1
 352              		.loc 1 121 0
 353 0022 8342     		cmp	r3, r0
 354 0024 F7D1     		bne	.L19
 355              	.LBE21:
 356              	.LBE20:
 357              		.loc 1 188 0
 358 0026 6019     		adds	r0, r4, r5
 359              	.LVL20:
 360              	.LBB22:
 361              	.LBB23:
 362              		.loc 1 121 0
 363 0028 8645     		cmp	lr, r0
 364 002a 17D2     		bcs	.L20
 365              		.loc 1 122 0
 366 002c 7346     		mov	r3, lr
 367 002e 5521     		movs	r1, #85
 368 0030 03F8011B 		strb	r1, [r3], #1
 369 0034 6FEA0E0E 		mvn	lr, lr
 370              	.LVL21:
 371 0038 00EB0E0C 		add	ip, r0, lr
 372              		.loc 1 121 0
 373 003c 8342     		cmp	r3, r0
 374 003e 0CF00102 		and	r2, ip, #1
 375 0042 0BD0     		beq	.L20
 376              	.LVL22:
 377 0044 1AB1     		cbz	r2, .L22
 378              		.loc 1 122 0
 379 0046 03F8011B 		strb	r1, [r3], #1
 380              	.LVL23:
 381              		.loc 1 121 0
 382 004a 8342     		cmp	r3, r0
 383 004c 06D0     		beq	.L20
 384              	.LVL24:
 385              	.L22:
 386              		.loc 1 122 0
 387 004e 1A46     		mov	r2, r3
 388 0050 02F8011B 		strb	r1, [r2], #1
 389 0054 5970     		strb	r1, [r3, #1]
 390 0056 531C     		adds	r3, r2, #1
 391              		.loc 1 121 0
 392 0058 8342     		cmp	r3, r0
 393 005a F8D1     		bne	.L22
 394              	.LVL25:
 395              	.L20:
 396              	.LBE23:
 397              	.LBE22:
ARM GAS  /tmp/ccLmfwry.s 			page 8


 398              		.loc 1 192 0
 399              	@ 192 "../../../os/kernel/src/chthreads.c" 1
 400 005c FFF7FEFF 		bl      _port_lock
 401              	@ 0 "" 2
 402              		.thumb
 403 0060 FFF7FEFF 		bl	dbg_check_lock
 404              	.LVL26:
 405              		.loc 1 193 0
 406 0064 2046     		mov	r0, r4
 407 0066 089C     		ldr	r4, [sp, #32]
 408              	.LVL27:
 409 0068 3A46     		mov	r2, r7
 410 006a 3346     		mov	r3, r6
 411 006c 2946     		mov	r1, r5
 412 006e 0094     		str	r4, [sp, #0]
 413 0070 FFF7FEFF 		bl	chThdCreateI
 414              	.LVL28:
 415 0074 0021     		movs	r1, #0
 416 0076 0446     		mov	r4, r0
 417              	.LVL29:
 418 0078 FFF7FEFF 		bl	chSchWakeupS
 419              	.LVL30:
 420              		.loc 1 194 0
 421 007c FFF7FEFF 		bl	dbg_check_unlock
 422              	@ 194 "../../../os/kernel/src/chthreads.c" 1
 423 0080 FFF7FEFF 		bl      _port_unlock
 424              	@ 0 "" 2
 425              		.loc 1 196 0
 426              		.thumb
 427 0084 2046     		mov	r0, r4
 428 0086 03B0     		add	sp, sp, #12
 429 0088 F0BD     		pop	{r4, r5, r6, r7, pc}
 430              		.cfi_endproc
 431              	.LFE3:
 432              		.size	chThdCreateStatic, .-chThdCreateStatic
 433 008a 00BFAFF3 		.section	.text.chThdSetPriority,"ax",%progbits
 433      0080
 434              		.align	2
 435              		.p2align 4,,15
 436              		.global	chThdSetPriority
 437              		.thumb
 438              		.thumb_func
 439              		.type	chThdSetPriority, %function
 440              	chThdSetPriority:
 441              	.LFB4:
 442              		.loc 1 210 0
 443              		.cfi_startproc
 444              		@ args = 0, pretend = 0, frame = 0
 445              		@ frame_needed = 0, uses_anonymous_args = 0
 446              	.LVL31:
 447              		.loc 1 213 0
 448 0000 7F28     		cmp	r0, #127
 449              		.loc 1 210 0
 450 0002 38B5     		push	{r3, r4, r5, lr}
 451              	.LCFI4:
 452              		.cfi_def_cfa_offset 16
 453              		.cfi_offset 14, -4
ARM GAS  /tmp/ccLmfwry.s 			page 9


 454              		.cfi_offset 5, -8
 455              		.cfi_offset 4, -12
 456              		.cfi_offset 3, -16
 457              		.loc 1 210 0
 458 0004 0446     		mov	r4, r0
 459              		.loc 1 213 0
 460 0006 18D8     		bhi	.L35
 461              	.LVL32:
 462              	.L32:
 463              		.loc 1 215 0
 464              	@ 215 "../../../os/kernel/src/chthreads.c" 1
 465 0008 FFF7FEFF 		bl      _port_lock
 466              	@ 0 "" 2
 467              		.thumb
 468 000c FFF7FEFF 		bl	dbg_check_lock
 469              		.loc 1 217 0
 470 0010 40F20003 		movw	r3, #:lower16:rlist
 471 0014 C0F20003 		movt	r3, #:upper16:rlist
 472 0018 9B69     		ldr	r3, [r3, #24]
 473 001a 5D6C     		ldr	r5, [r3, #68]
 474              	.LVL33:
 475              		.loc 1 218 0
 476 001c 9A68     		ldr	r2, [r3, #8]
 477 001e 9542     		cmp	r5, r2
 478 0020 01D0     		beq	.L33
 479              		.loc 1 218 0 is_stmt 0 discriminator 1
 480 0022 9442     		cmp	r4, r2
 481 0024 00D9     		bls	.L34
 482              	.L33:
 483              		.loc 1 219 0 is_stmt 1
 484 0026 9C60     		str	r4, [r3, #8]
 485              	.L34:
 486              		.loc 1 220 0
 487 0028 5C64     		str	r4, [r3, #68]
 488              		.loc 1 225 0
 489 002a FFF7FEFF 		bl	chSchRescheduleS
 490              	.LVL34:
 491              		.loc 1 226 0
 492 002e FFF7FEFF 		bl	dbg_check_unlock
 493              	@ 226 "../../../os/kernel/src/chthreads.c" 1
 494 0032 FFF7FEFF 		bl      _port_unlock
 495              	@ 0 "" 2
 496              		.loc 1 228 0
 497              		.thumb
 498 0036 2846     		mov	r0, r5
 499 0038 38BD     		pop	{r3, r4, r5, pc}
 500              	.LVL35:
 501              	.L35:
 502              		.loc 1 213 0 discriminator 1
 503 003a 40F20000 		movw	r0, #:lower16:.LC1
 504 003e C0F20000 		movt	r0, #:upper16:.LC1
 505 0042 FFF7FEFF 		bl	chDbgPanic
 506 0046 DFE7     		b	.L32
 507              		.cfi_endproc
 508              	.LFE4:
 509              		.size	chThdSetPriority, .-chThdSetPriority
 510 0048 AFF30080 		.section	.text.chThdResume,"ax",%progbits
ARM GAS  /tmp/ccLmfwry.s 			page 10


 510      AFF30080 
 511              		.align	2
 512              		.p2align 4,,15
 513              		.global	chThdResume
 514              		.thumb
 515              		.thumb_func
 516              		.type	chThdResume, %function
 517              	chThdResume:
 518              	.LFB5:
 519              		.loc 1 243 0
 520              		.cfi_startproc
 521              		@ args = 0, pretend = 0, frame = 0
 522              		@ frame_needed = 0, uses_anonymous_args = 0
 523              	.LVL36:
 524 0000 10B5     		push	{r4, lr}
 525              	.LCFI5:
 526              		.cfi_def_cfa_offset 8
 527              		.cfi_offset 14, -4
 528              		.cfi_offset 4, -8
 529              		.loc 1 243 0
 530 0002 0446     		mov	r4, r0
 531              		.loc 1 245 0
 532              	@ 245 "../../../os/kernel/src/chthreads.c" 1
 533 0004 FFF7FEFF 		bl      _port_lock
 534              	@ 0 "" 2
 535              		.thumb
 536 0008 FFF7FEFF 		bl	dbg_check_lock
 537              	.LVL37:
 538              		.loc 1 246 0
 539 000c 94F82030 		ldrb	r3, [r4, #32]	@ zero_extendqisi2
 540 0010 022B     		cmp	r3, #2
 541 0012 05D0     		beq	.L37
 542              		.loc 1 246 0 is_stmt 0 discriminator 1
 543 0014 40F20000 		movw	r0, #:lower16:.LC2
 544 0018 C0F20000 		movt	r0, #:upper16:.LC2
 545 001c FFF7FEFF 		bl	chDbgPanic
 546              	.L37:
 547              		.loc 1 249 0 is_stmt 1
 548 0020 2046     		mov	r0, r4
 549 0022 0021     		movs	r1, #0
 550 0024 FFF7FEFF 		bl	chSchWakeupS
 551              		.loc 1 250 0
 552 0028 FFF7FEFF 		bl	dbg_check_unlock
 553              	@ 250 "../../../os/kernel/src/chthreads.c" 1
 554 002c FFF7FEFF 		bl      _port_unlock
 555              	@ 0 "" 2
 556              		.loc 1 252 0
 557              		.thumb
 558 0030 2046     		mov	r0, r4
 559 0032 10BD     		pop	{r4, pc}
 560              		.cfi_endproc
 561              	.LFE5:
 562              		.size	chThdResume, .-chThdResume
 563 0034 AFF30080 		.section	.text.chThdTerminate,"ax",%progbits
 563      AFF30080 
 563      AFF30080 
 564              		.align	2
ARM GAS  /tmp/ccLmfwry.s 			page 11


 565              		.p2align 4,,15
 566              		.global	chThdTerminate
 567              		.thumb
 568              		.thumb_func
 569              		.type	chThdTerminate, %function
 570              	chThdTerminate:
 571              	.LFB6:
 572              		.loc 1 266 0
 573              		.cfi_startproc
 574              		@ args = 0, pretend = 0, frame = 0
 575              		@ frame_needed = 0, uses_anonymous_args = 0
 576              	.LVL38:
 577 0000 10B5     		push	{r4, lr}
 578              	.LCFI6:
 579              		.cfi_def_cfa_offset 8
 580              		.cfi_offset 14, -4
 581              		.cfi_offset 4, -8
 582              		.loc 1 266 0
 583 0002 0446     		mov	r4, r0
 584              		.loc 1 268 0
 585              	@ 268 "../../../os/kernel/src/chthreads.c" 1
 586 0004 FFF7FEFF 		bl      _port_lock
 587              	@ 0 "" 2
 588              		.thumb
 589 0008 FFF7FEFF 		bl	dbg_check_lock
 590              	.LVL39:
 591              		.loc 1 269 0
 592 000c 94F82100 		ldrb	r0, [r4, #33]	@ zero_extendqisi2
 593 0010 40F00403 		orr	r3, r0, #4
 594 0014 84F82130 		strb	r3, [r4, #33]
 595              		.loc 1 270 0
 596 0018 FFF7FEFF 		bl	dbg_check_unlock
 597              	@ 270 "../../../os/kernel/src/chthreads.c" 1
 598 001c FFF7FEFF 		bl      _port_unlock
 599              	@ 0 "" 2
 600              		.loc 1 271 0
 601              		.thumb
 602 0020 10BD     		pop	{r4, pc}
 603              		.cfi_endproc
 604              	.LFE6:
 605              		.size	chThdTerminate, .-chThdTerminate
 606 0022 00BFAFF3 		.section	.text.chThdSleep,"ax",%progbits
 606      0080AFF3 
 606      0080AFF3 
 606      0080
 607              		.align	2
 608              		.p2align 4,,15
 609              		.global	chThdSleep
 610              		.thumb
 611              		.thumb_func
 612              		.type	chThdSleep, %function
 613              	chThdSleep:
 614              	.LFB7:
 615              		.loc 1 285 0
 616              		.cfi_startproc
 617              		@ args = 0, pretend = 0, frame = 0
 618              		@ frame_needed = 0, uses_anonymous_args = 0
ARM GAS  /tmp/ccLmfwry.s 			page 12


 619              	.LVL40:
 620 0000 10B5     		push	{r4, lr}
 621              	.LCFI7:
 622              		.cfi_def_cfa_offset 8
 623              		.cfi_offset 14, -4
 624              		.cfi_offset 4, -8
 625              		.loc 1 287 0
 626 0002 0446     		mov	r4, r0
 627 0004 28B9     		cbnz	r0, .L40
 628              		.loc 1 287 0 is_stmt 0 discriminator 1
 629 0006 40F20000 		movw	r0, #:lower16:.LC3
 630              	.LVL41:
 631 000a C0F20000 		movt	r0, #:upper16:.LC3
 632 000e FFF7FEFF 		bl	chDbgPanic
 633              	.L40:
 634              		.loc 1 289 0 is_stmt 1
 635              	@ 289 "../../../os/kernel/src/chthreads.c" 1
 636 0012 FFF7FEFF 		bl      _port_lock
 637              	@ 0 "" 2
 638              		.thumb
 639 0016 FFF7FEFF 		bl	dbg_check_lock
 640              		.loc 1 290 0
 641 001a 2146     		mov	r1, r4
 642 001c 0620     		movs	r0, #6
 643 001e FFF7FEFF 		bl	chSchGoSleepTimeoutS
 644              		.loc 1 291 0
 645 0022 FFF7FEFF 		bl	dbg_check_unlock
 646              	@ 291 "../../../os/kernel/src/chthreads.c" 1
 647 0026 FFF7FEFF 		bl      _port_unlock
 648              	@ 0 "" 2
 649              		.loc 1 292 0
 650              		.thumb
 651 002a 10BD     		pop	{r4, pc}
 652              		.cfi_endproc
 653              	.LFE7:
 654              		.size	chThdSleep, .-chThdSleep
 655              		.section	.text.chThdSleepUntil,"ax",%progbits
 656              		.align	2
 657              		.p2align 4,,15
 658              		.global	chThdSleepUntil
 659              		.thumb
 660              		.thumb_func
 661              		.type	chThdSleepUntil, %function
 662              	chThdSleepUntil:
 663              	.LFB8:
 664              		.loc 1 302 0
 665              		.cfi_startproc
 666              		@ args = 0, pretend = 0, frame = 0
 667              		@ frame_needed = 0, uses_anonymous_args = 0
 668              	.LVL42:
 669 0000 10B5     		push	{r4, lr}
 670              	.LCFI8:
 671              		.cfi_def_cfa_offset 8
 672              		.cfi_offset 14, -4
 673              		.cfi_offset 4, -8
 674              		.loc 1 302 0
 675 0002 0446     		mov	r4, r0
ARM GAS  /tmp/ccLmfwry.s 			page 13


 676              		.loc 1 304 0
 677              	@ 304 "../../../os/kernel/src/chthreads.c" 1
 678 0004 FFF7FEFF 		bl      _port_lock
 679              	@ 0 "" 2
 680              		.thumb
 681 0008 FFF7FEFF 		bl	dbg_check_lock
 682              	.LVL43:
 683              		.loc 1 305 0
 684 000c 40F20003 		movw	r3, #:lower16:vtlist
 685 0010 C0F20003 		movt	r3, #:upper16:vtlist
 686 0014 D968     		ldr	r1, [r3, #12]
 687              	.LVL44:
 688 0016 611A     		subs	r1, r4, r1
 689              	.LVL45:
 690 0018 02D0     		beq	.L42
 691              		.loc 1 306 0
 692 001a 0620     		movs	r0, #6
 693 001c FFF7FEFF 		bl	chSchGoSleepTimeoutS
 694              	.LVL46:
 695              	.L42:
 696              		.loc 1 307 0
 697 0020 FFF7FEFF 		bl	dbg_check_unlock
 698              	@ 307 "../../../os/kernel/src/chthreads.c" 1
 699 0024 FFF7FEFF 		bl      _port_unlock
 700              	@ 0 "" 2
 701              		.loc 1 308 0
 702              		.thumb
 703 0028 10BD     		pop	{r4, pc}
 704              		.cfi_endproc
 705              	.LFE8:
 706              		.size	chThdSleepUntil, .-chThdSleepUntil
 707 002a 00BFAFF3 		.section	.text.chThdYield,"ax",%progbits
 707      0080
 708              		.align	2
 709              		.p2align 4,,15
 710              		.global	chThdYield
 711              		.thumb
 712              		.thumb_func
 713              		.type	chThdYield, %function
 714              	chThdYield:
 715              	.LFB9:
 716              		.loc 1 317 0
 717              		.cfi_startproc
 718              		@ args = 0, pretend = 0, frame = 0
 719              		@ frame_needed = 0, uses_anonymous_args = 0
 720 0000 08B5     		push	{r3, lr}
 721              	.LCFI9:
 722              		.cfi_def_cfa_offset 8
 723              		.cfi_offset 14, -4
 724              		.cfi_offset 3, -8
 725              		.loc 1 319 0
 726              	@ 319 "../../../os/kernel/src/chthreads.c" 1
 727 0002 FFF7FEFF 		bl      _port_lock
 728              	@ 0 "" 2
 729              		.thumb
 730 0006 FFF7FEFF 		bl	dbg_check_lock
 731              		.loc 1 320 0
ARM GAS  /tmp/ccLmfwry.s 			page 14


 732 000a 40F2000C 		movw	ip, #:lower16:rlist
 733 000e C0F2000C 		movt	ip, #:upper16:rlist
 734 0012 DCF80010 		ldr	r1, [ip, #0]
 735 0016 DCF81800 		ldr	r0, [ip, #24]
 736 001a 8A68     		ldr	r2, [r1, #8]
 737 001c 8368     		ldr	r3, [r0, #8]
 738 001e 9A42     		cmp	r2, r3
 739 0020 01D3     		bcc	.L44
 740              		.loc 1 320 0 is_stmt 0 discriminator 1
 741 0022 FFF7FEFF 		bl	chSchDoRescheduleBehind
 742              	.L44:
 743              		.loc 1 321 0 is_stmt 1
 744 0026 FFF7FEFF 		bl	dbg_check_unlock
 745              	@ 321 "../../../os/kernel/src/chthreads.c" 1
 746 002a FFF7FEFF 		bl      _port_unlock
 747              	@ 0 "" 2
 748              		.loc 1 322 0
 749              		.thumb
 750 002e 08BD     		pop	{r3, pc}
 751              		.cfi_endproc
 752              	.LFE9:
 753              		.size	chThdYield, .-chThdYield
 754              		.section	.text.chThdExitS,"ax",%progbits
 755              		.align	2
 756              		.p2align 4,,15
 757              		.global	chThdExitS
 758              		.thumb
 759              		.thumb_func
 760              		.type	chThdExitS, %function
 761              	chThdExitS:
 762              	.LFB11:
 763              		.loc 1 359 0
 764              		.cfi_startproc
 765              		@ args = 0, pretend = 0, frame = 0
 766              		@ frame_needed = 0, uses_anonymous_args = 0
 767              	.LVL47:
 768              		.loc 1 360 0
 769 0000 40F20001 		movw	r1, #:lower16:rlist
 770 0004 C0F20001 		movt	r1, #:upper16:rlist
 771              		.loc 1 359 0
 772 0008 38B5     		push	{r3, r4, r5, lr}
 773              	.LCFI10:
 774              		.cfi_def_cfa_offset 16
 775              		.cfi_offset 14, -4
 776              		.cfi_offset 5, -8
 777              		.cfi_offset 4, -12
 778              		.cfi_offset 3, -16
 779              		.loc 1 360 0
 780 000a 8D69     		ldr	r5, [r1, #24]
 781              	.LVL48:
 782              		.loc 1 367 0
 783 000c EB6A     		ldr	r3, [r5, #44]
 784              		.loc 1 362 0
 785 000e A862     		str	r0, [r5, #40]
 786              		.loc 1 367 0
 787 0010 05F12C04 		add	r4, r5, #44
 788 0014 A342     		cmp	r3, r4
ARM GAS  /tmp/ccLmfwry.s 			page 15


 789 0016 07D0     		beq	.L46
 790              	.LVL49:
 791              	.L49:
 792              		.loc 1 368 0
 793 0018 2046     		mov	r0, r4
 794 001a FFF7FEFF 		bl	list_remove
 795 001e FFF7FEFF 		bl	chSchReadyI
 796              		.loc 1 367 0
 797 0022 E86A     		ldr	r0, [r5, #44]
 798 0024 A042     		cmp	r0, r4
 799 0026 F7D1     		bne	.L49
 800              	.L46:
 801              		.loc 1 373 0
 802 0028 95F82110 		ldrb	r1, [r5, #33]	@ zero_extendqisi2
 803 002c 8B07     		lsls	r3, r1, #30
 804              		.loc 1 374 0
 805 002e 01BF     		itttt	eq
 806 0030 2A69     		ldreq	r2, [r5, #16]
 807 0032 6B69     		ldreq	r3, [r5, #20]
 808 0034 1A61     		streq	r2, [r3, #16]
 809 0036 2A69     		ldreq	r2, [r5, #16]
 810 0038 08BF     		it	eq
 811 003a 5361     		streq	r3, [r2, #20]
 812              		.loc 1 376 0
 813 003c 0E20     		movs	r0, #14
 814 003e FFF7FEFF 		bl	chSchGoSleepS
 815              		.loc 1 378 0
 816 0042 40F20000 		movw	r0, #:lower16:.LC4
 817 0046 C0F20000 		movt	r0, #:upper16:.LC4
 818              		.loc 1 379 0
 819 004a BDE83840 		pop	{r3, r4, r5, lr}
 820              		.loc 1 378 0
 821 004e FFF7FEBF 		b	chDbgPanic
 822              		.cfi_endproc
 823              	.LFE11:
 824              		.size	chThdExitS, .-chThdExitS
 825 0052 00BFAFF3 		.section	.text.chThdExit,"ax",%progbits
 825      0080AFF3 
 825      0080AFF3 
 825      0080
 826              		.align	2
 827              		.p2align 4,,15
 828              		.global	chThdExit
 829              		.thumb
 830              		.thumb_func
 831              		.type	chThdExit, %function
 832              	chThdExit:
 833              	.LFB10:
 834              		.loc 1 338 0
 835              		.cfi_startproc
 836              		@ args = 0, pretend = 0, frame = 0
 837              		@ frame_needed = 0, uses_anonymous_args = 0
 838              	.LVL50:
 839 0000 10B5     		push	{r4, lr}
 840              	.LCFI11:
 841              		.cfi_def_cfa_offset 8
 842              		.cfi_offset 14, -4
ARM GAS  /tmp/ccLmfwry.s 			page 16


 843              		.cfi_offset 4, -8
 844              		.loc 1 338 0
 845 0002 0446     		mov	r4, r0
 846              		.loc 1 340 0
 847              	@ 340 "../../../os/kernel/src/chthreads.c" 1
 848 0004 FFF7FEFF 		bl      _port_lock
 849              	@ 0 "" 2
 850              		.thumb
 851 0008 FFF7FEFF 		bl	dbg_check_lock
 852              	.LVL51:
 853              		.loc 1 341 0
 854 000c 2046     		mov	r0, r4
 855              		.loc 1 343 0
 856 000e BDE81040 		pop	{r4, lr}
 857              		.loc 1 341 0
 858 0012 FFF7FEBF 		b	chThdExitS
 859              		.cfi_endproc
 860              	.LFE10:
 861              		.size	chThdExit, .-chThdExit
 862 0016 00BFAFF3 		.section	.text.chThdWait,"ax",%progbits
 862      0080AFF3 
 862      0080
 863              		.align	2
 864              		.p2align 4,,15
 865              		.global	chThdWait
 866              		.thumb
 867              		.thumb_func
 868              		.type	chThdWait, %function
 869              	chThdWait:
 870              	.LFB12:
 871              		.loc 1 413 0
 872              		.cfi_startproc
 873              		@ args = 0, pretend = 0, frame = 0
 874              		@ frame_needed = 0, uses_anonymous_args = 0
 875              	.LVL52:
 876 0000 38B5     		push	{r3, r4, r5, lr}
 877              	.LCFI12:
 878              		.cfi_def_cfa_offset 16
 879              		.cfi_offset 14, -4
 880              		.cfi_offset 5, -8
 881              		.cfi_offset 4, -12
 882              		.cfi_offset 3, -16
 883              		.loc 1 416 0
 884 0002 0446     		mov	r4, r0
 885 0004 E8B1     		cbz	r0, .L56
 886              	.LVL53:
 887              	.L53:
 888              		.loc 1 418 0
 889              	@ 418 "../../../os/kernel/src/chthreads.c" 1
 890 0006 FFF7FEFF 		bl      _port_lock
 891              	@ 0 "" 2
 892              		.loc 1 419 0
 893              		.thumb
 894 000a 40F20005 		movw	r5, #:lower16:rlist
 895 000e C0F20005 		movt	r5, #:upper16:rlist
 896              		.loc 1 418 0
 897 0012 FFF7FEFF 		bl	dbg_check_lock
ARM GAS  /tmp/ccLmfwry.s 			page 17


 898              		.loc 1 419 0
 899 0016 AB69     		ldr	r3, [r5, #24]
 900 0018 A342     		cmp	r3, r4
 901 001a 19D0     		beq	.L57
 902              	.L54:
 903              		.loc 1 423 0
 904 001c 94F82000 		ldrb	r0, [r4, #32]	@ zero_extendqisi2
 905 0020 0E28     		cmp	r0, #14
 906 0022 07D0     		beq	.L55
 907              		.loc 1 424 0
 908 0024 A869     		ldr	r0, [r5, #24]
 909 0026 04F12C01 		add	r1, r4, #44
 910 002a FFF7FEFF 		bl	list_insert
 911              		.loc 1 425 0
 912 002e 0720     		movs	r0, #7
 913 0030 FFF7FEFF 		bl	chSchGoSleepS
 914              	.L55:
 915              		.loc 1 427 0
 916 0034 A46A     		ldr	r4, [r4, #40]
 917              	.LVL54:
 918              		.loc 1 428 0
 919 0036 FFF7FEFF 		bl	dbg_check_unlock
 920              	@ 428 "../../../os/kernel/src/chthreads.c" 1
 921 003a FFF7FEFF 		bl      _port_unlock
 922              	@ 0 "" 2
 923              		.loc 1 433 0
 924              		.thumb
 925 003e 2046     		mov	r0, r4
 926 0040 38BD     		pop	{r3, r4, r5, pc}
 927              	.LVL55:
 928              	.L56:
 929              		.loc 1 416 0 discriminator 1
 930 0042 40F20000 		movw	r0, #:lower16:.LC5
 931              	.LVL56:
 932 0046 C0F20000 		movt	r0, #:upper16:.LC5
 933 004a FFF7FEFF 		bl	chDbgPanic
 934 004e DAE7     		b	.L53
 935              	.L57:
 936              		.loc 1 419 0 discriminator 1
 937 0050 40F20000 		movw	r0, #:lower16:.LC6
 938 0054 C0F20000 		movt	r0, #:upper16:.LC6
 939 0058 FFF7FEFF 		bl	chDbgPanic
 940 005c DEE7     		b	.L54
 941              		.cfi_endproc
 942              	.LFE12:
 943              		.size	chThdWait, .-chThdWait
 944 005e 00BF     		.section	.rodata.str1.4,"aMS",%progbits,1
 945              		.align	2
 946              	.LC0:
 947 0000 22636854 		.ascii	"\"chThdCreateI\"()\000"
 947      68644372 
 947      65617465 
 947      49222829 
 947      00
 948 0011 000000   		.space	3
 949              	.LC1:
 950 0014 22636854 		.ascii	"\"chThdSetPriority\"()\000"
ARM GAS  /tmp/ccLmfwry.s 			page 18


 950      68645365 
 950      74507269 
 950      6F726974 
 950      79222829 
 951 0029 000000   		.space	3
 952              	.LC2:
 953 002c 63685468 		.ascii	"chThdResume(), #1\000"
 953      64526573 
 953      756D6528 
 953      292C2023 
 953      3100
 954 003e 0000     		.space	2
 955              	.LC3:
 956 0040 22636854 		.ascii	"\"chThdSleep\"()\000"
 956      6864536C 
 956      65657022 
 956      282900
 957 004f 00       		.space	1
 958              	.LC4:
 959 0050 63685468 		.ascii	"chThdExitS(), #1\000"
 959      64457869 
 959      74532829 
 959      2C202331 
 959      00
 960 0061 000000   		.space	3
 961              	.LC5:
 962 0064 22636854 		.ascii	"\"chThdWait\"()\000"
 962      68645761 
 962      69742228 
 962      2900
 963 0072 0000     		.space	2
 964              	.LC6:
 965 0074 63685468 		.ascii	"chThdWait(), #1\000"
 965      64576169 
 965      7428292C 
 965      20233100 
 966              		.text
 967              	.Letext0:
 968              		.file 2 "/home/prana/CodeSourcery/ARM_EABI/bin/../lib/gcc/arm-none-eabi/4.6.3/include/stddef.h"
 969              		.file 3 "/home/prana/CodeSourcery/ARM_EABI/bin/../lib/gcc/arm-none-eabi/4.6.3/../../../../arm-none
 970              		.file 4 "../../../os/ports/GCC/ARMCMx/chtypes.h"
 971              		.file 5 "../../../os/kernel/include/chlists.h"
 972              		.file 6 "../../../os/kernel/include/chthreads.h"
 973              		.file 7 "../../../os/ports/GCC/ARMCMx/chcore_v7m.h"
 974              		.file 8 "../../../os/kernel/include/chvt.h"
 975              		.file 9 "../../../os/kernel/include/chschd.h"
 976              		.file 10 "../../../os/kernel/include/chmtx.h"