ARM GAS  /tmp/cc9oNEKy.s 			page 1


   1              		.syntax unified
   2              		.cpu cortex-m4
   3              		.fpu softvfp
   4              		.eabi_attribute 20, 1
   5              		.eabi_attribute 21, 1
   6              		.eabi_attribute 23, 3
   7              		.eabi_attribute 24, 1
   8              		.eabi_attribute 25, 1
   9              		.eabi_attribute 26, 1
  10              		.eabi_attribute 30, 2
  11              		.eabi_attribute 34, 1
  12              		.eabi_attribute 18, 4
  13              		.thumb
  14              		.file	"chvt.c"
  15              		.text
  16              	.Ltext0:
  17              		.cfi_sections	.debug_frame
  18              		.section	.text._vt_init,"ax",%progbits
  19              		.align	2
  20              		.p2align 4,,15
  21              		.global	_vt_init
  22              		.thumb
  23              		.thumb_func
  24              		.type	_vt_init, %function
  25              	_vt_init:
  26              	.LFB0:
  27              		.file 1 "../../../os/kernel/src/chvt.c"
  28              		.loc 1 43 0
  29              		.cfi_startproc
  30              		@ args = 0, pretend = 0, frame = 0
  31              		@ frame_needed = 0, uses_anonymous_args = 0
  32              		@ link register save eliminated.
  33              		.loc 1 45 0
  34 0000 40F20003 		movw	r3, #:lower16:.LANCHOR0
  35 0004 C0F20003 		movt	r3, #:upper16:.LANCHOR0
  36              		.loc 1 46 0
  37 0008 4FF0FF30 		mov	r0, #-1
  38              		.loc 1 47 0
  39 000c 0022     		movs	r2, #0
  40              		.loc 1 45 0
  41 000e 5B60     		str	r3, [r3, #4]
  42 0010 1B60     		str	r3, [r3, #0]
  43              		.loc 1 46 0
  44 0012 9860     		str	r0, [r3, #8]
  45              		.loc 1 47 0
  46 0014 DA60     		str	r2, [r3, #12]
  47              		.loc 1 48 0
  48 0016 7047     		bx	lr
  49              		.cfi_endproc
  50              	.LFE0:
  51              		.size	_vt_init, .-_vt_init
  52 0018 AFF30080 		.section	.text.chVTSetI,"ax",%progbits
  52      AFF30080 
  53              		.align	2
  54              		.p2align 4,,15
  55              		.global	chVTSetI
  56              		.thumb
ARM GAS  /tmp/cc9oNEKy.s 			page 2


  57              		.thumb_func
  58              		.type	chVTSetI, %function
  59              	chVTSetI:
  60              	.LFB1:
  61              		.loc 1 69 0
  62              		.cfi_startproc
  63              		@ args = 0, pretend = 0, frame = 0
  64              		@ frame_needed = 0, uses_anonymous_args = 0
  65              	.LVL0:
  66 0000 F8B5     		push	{r3, r4, r5, r6, r7, lr}
  67              	.LCFI0:
  68              		.cfi_def_cfa_offset 24
  69              		.cfi_offset 14, -4
  70              		.cfi_offset 7, -8
  71              		.cfi_offset 6, -12
  72              		.cfi_offset 5, -16
  73              		.cfi_offset 4, -20
  74              		.cfi_offset 3, -24
  75              		.loc 1 69 0
  76 0002 0446     		mov	r4, r0
  77 0004 1546     		mov	r5, r2
  78 0006 1F46     		mov	r7, r3
  79 0008 0E46     		mov	r6, r1
  80              		.loc 1 72 0
  81 000a FFF7FEFF 		bl	chDbgCheckClassI
  82              	.LVL1:
  83              		.loc 1 73 0
  84 000e D4F10103 		rsbs	r3, r4, #1
  85 0012 38BF     		it	cc
  86 0014 0023     		movcc	r3, #0
  87 0016 002D     		cmp	r5, #0
  88 0018 08BF     		it	eq
  89 001a 43F00103 		orreq	r3, r3, #1
  90 001e EBB9     		cbnz	r3, .L3
  91              		.loc 1 73 0 is_stmt 0 discriminator 2
  92 0020 E6B1     		cbz	r6, .L3
  93              	.L4:
  94              		.loc 1 78 0 is_stmt 1
  95 0022 40F20001 		movw	r1, #:lower16:.LANCHOR0
  96 0026 C0F20001 		movt	r1, #:upper16:.LANCHOR0
  97              		.loc 1 76 0
  98 002a 2761     		str	r7, [r4, #16]
  99              		.loc 1 78 0
 100 002c 0B68     		ldr	r3, [r1, #0]
 101              	.LVL2:
 102              		.loc 1 77 0
 103 002e E560     		str	r5, [r4, #12]
 104              		.loc 1 79 0
 105 0030 9A68     		ldr	r2, [r3, #8]
 106 0032 9642     		cmp	r6, r2
 107 0034 04D9     		bls	.L5
 108              	.LVL3:
 109              	.L8:
 110              		.loc 1 81 0
 111 0036 1B68     		ldr	r3, [r3, #0]
 112              	.LVL4:
 113              		.loc 1 80 0
ARM GAS  /tmp/cc9oNEKy.s 			page 3


 114 0038 B61A     		subs	r6, r6, r2
 115              	.LVL5:
 116              		.loc 1 79 0
 117 003a 9A68     		ldr	r2, [r3, #8]
 118 003c B242     		cmp	r2, r6
 119 003e FAD3     		bcc	.L8
 120              	.L5:
 121              		.loc 1 84 0
 122 0040 5A68     		ldr	r2, [r3, #4]
 123              		.loc 1 86 0
 124 0042 A660     		str	r6, [r4, #8]
 125              		.loc 1 87 0
 126 0044 8B42     		cmp	r3, r1
 127              		.loc 1 84 0
 128 0046 6260     		str	r2, [r4, #4]
 129 0048 2360     		str	r3, [r4, #0]
 130              		.loc 1 85 0
 131 004a 1460     		str	r4, [r2, #0]
 132              		.loc 1 88 0
 133 004c 18BF     		it	ne
 134 004e 9A68     		ldrne	r2, [r3, #8]
 135              		.loc 1 85 0
 136 0050 5C60     		str	r4, [r3, #4]
 137              		.loc 1 88 0
 138 0052 1CBF     		itt	ne
 139 0054 C6EB0206 		rsbne	r6, r6, r2
 140              	.LVL6:
 141 0058 9E60     		strne	r6, [r3, #8]
 142 005a F8BD     		pop	{r3, r4, r5, r6, r7, pc}
 143              	.LVL7:
 144              	.L3:
 145              		.loc 1 73 0 discriminator 1
 146 005c 40F20000 		movw	r0, #:lower16:.LC0
 147 0060 C0F20000 		movt	r0, #:upper16:.LC0
 148 0064 FFF7FEFF 		bl	chDbgPanic
 149 0068 DBE7     		b	.L4
 150              		.cfi_endproc
 151              	.LFE1:
 152              		.size	chVTSetI, .-chVTSetI
 153 006a 00BFAFF3 		.section	.text.chVTResetI,"ax",%progbits
 153      0080
 154              		.align	2
 155              		.p2align 4,,15
 156              		.global	chVTResetI
 157              		.thumb
 158              		.thumb_func
 159              		.type	chVTResetI, %function
 160              	chVTResetI:
 161              	.LFB2:
 162              		.loc 1 99 0
 163              		.cfi_startproc
 164              		@ args = 0, pretend = 0, frame = 0
 165              		@ frame_needed = 0, uses_anonymous_args = 0
 166              	.LVL8:
 167 0000 10B5     		push	{r4, lr}
 168              	.LCFI1:
 169              		.cfi_def_cfa_offset 8
ARM GAS  /tmp/cc9oNEKy.s 			page 4


 170              		.cfi_offset 14, -4
 171              		.cfi_offset 4, -8
 172              		.loc 1 99 0
 173 0002 0446     		mov	r4, r0
 174              		.loc 1 101 0
 175 0004 FFF7FEFF 		bl	chDbgCheckClassI
 176              	.LVL9:
 177              		.loc 1 102 0
 178 0008 A4B1     		cbz	r4, .L15
 179              	.L12:
 180              		.loc 1 103 0
 181 000a E368     		ldr	r3, [r4, #12]
 182 000c CBB1     		cbz	r3, .L16
 183              	.L13:
 184              		.loc 1 107 0
 185 000e 2368     		ldr	r3, [r4, #0]
 186 0010 40F20000 		movw	r0, #:lower16:.LANCHOR0
 187 0014 C0F20000 		movt	r0, #:upper16:.LANCHOR0
 188 0018 8342     		cmp	r3, r0
 189              		.loc 1 108 0
 190 001a 1EBF     		ittt	ne
 191 001c 9A68     		ldrne	r2, [r3, #8]
 192 001e A068     		ldrne	r0, [r4, #8]
 193 0020 1018     		addne	r0, r2, r0
 194              		.loc 1 109 0
 195 0022 6268     		ldr	r2, [r4, #4]
 196              		.loc 1 108 0
 197 0024 18BF     		it	ne
 198 0026 9860     		strne	r0, [r3, #8]
 199              		.loc 1 109 0
 200 0028 1360     		str	r3, [r2, #0]
 201              		.loc 1 110 0
 202 002a 2168     		ldr	r1, [r4, #0]
 203              		.loc 1 111 0
 204 002c 0020     		movs	r0, #0
 205              		.loc 1 110 0
 206 002e 4A60     		str	r2, [r1, #4]
 207              		.loc 1 111 0
 208 0030 E060     		str	r0, [r4, #12]
 209              		.loc 1 112 0
 210 0032 10BD     		pop	{r4, pc}
 211              	.L15:
 212              		.loc 1 102 0 discriminator 1
 213 0034 40F20000 		movw	r0, #:lower16:.LC1
 214 0038 C0F20000 		movt	r0, #:upper16:.LC1
 215 003c FFF7FEFF 		bl	chDbgPanic
 216 0040 E3E7     		b	.L12
 217              	.L16:
 218              		.loc 1 103 0 discriminator 1
 219 0042 40F20000 		movw	r0, #:lower16:.LC2
 220 0046 C0F20000 		movt	r0, #:upper16:.LC2
 221 004a FFF7FEFF 		bl	chDbgPanic
 222 004e DEE7     		b	.L13
 223              		.cfi_endproc
 224              	.LFE2:
 225              		.size	chVTResetI, .-chVTResetI
 226              		.section	.text.chTimeIsWithin,"ax",%progbits
ARM GAS  /tmp/cc9oNEKy.s 			page 5


 227              		.align	2
 228              		.p2align 4,,15
 229              		.global	chTimeIsWithin
 230              		.thumb
 231              		.thumb_func
 232              		.type	chTimeIsWithin, %function
 233              	chTimeIsWithin:
 234              	.LFB3:
 235              		.loc 1 127 0
 236              		.cfi_startproc
 237              		@ args = 0, pretend = 0, frame = 0
 238              		@ frame_needed = 0, uses_anonymous_args = 0
 239              		@ link register save eliminated.
 240              	.LVL10:
 241              		.loc 1 129 0
 242 0000 40F20003 		movw	r3, #:lower16:.LANCHOR0
 243 0004 C0F20003 		movt	r3, #:upper16:.LANCHOR0
 244              		.loc 1 130 0
 245 0008 8142     		cmp	r1, r0
 246              		.loc 1 129 0
 247 000a DB68     		ldr	r3, [r3, #12]
 248              	.LVL11:
 249              		.loc 1 130 0
 250 000c 08D8     		bhi	.L20
 251              		.loc 1 131 0 discriminator 2
 252 000e 8342     		cmp	r3, r0
 253 0010 34BF     		ite	cc
 254 0012 0020     		movcc	r0, #0
 255              	.LVL12:
 256 0014 0120     		movcs	r0, #1
 257              		.loc 1 130 0 discriminator 2
 258 0016 8B42     		cmp	r3, r1
 259 0018 38BF     		it	cc
 260 001a 40F00100 		orrcc	r0, r0, #1
 261              		.loc 1 132 0 discriminator 2
 262 001e 7047     		bx	lr
 263              	.LVL13:
 264              	.L20:
 265              		.loc 1 130 0 discriminator 1
 266 0020 8342     		cmp	r3, r0
 267 0022 34BF     		ite	cc
 268 0024 0020     		movcc	r0, #0
 269              	.LVL14:
 270 0026 0120     		movcs	r0, #1
 271 0028 8B42     		cmp	r3, r1
 272 002a 2CBF     		ite	cs
 273 002c 0020     		movcs	r0, #0
 274 002e 00F00100 		andcc	r0, r0, #1
 275 0032 7047     		bx	lr
 276              		.cfi_endproc
 277              	.LFE3:
 278              		.size	chTimeIsWithin, .-chTimeIsWithin
 279              		.global	vtlist
 280 0034 AFF30080 		.section	.bss.vtlist,"aw",%nobits
 280      AFF30080 
 280      AFF30080 
 281              		.align	2
ARM GAS  /tmp/cc9oNEKy.s 			page 6


 282              		.set	.LANCHOR0,. + 0
 283              		.type	vtlist, %object
 284              		.size	vtlist, 16
 285              	vtlist:
 286 0000 00000000 		.space	16
 286      00000000 
 286      00000000 
 286      00000000 
 287              		.section	.rodata.str1.4,"aMS",%progbits,1
 288              		.align	2
 289              	.LC0:
 290 0000 22636856 		.ascii	"\"chVTSetI\"()\000"
 290      54536574 
 290      49222829 
 290      00
 291 000d 000000   		.space	3
 292              	.LC1:
 293 0010 22636856 		.ascii	"\"chVTResetI\"()\000"
 293      54526573 
 293      65744922 
 293      282900
 294 001f 00       		.space	1
 295              	.LC2:
 296 0020 63685654 		.ascii	"chVTResetI(), #1\000"
 296      52657365 
 296      74492829 
 296      2C202331 
 296      00
 297 0031 000000   		.text
 298              	.Letext0:
 299              		.file 2 "/home/prana/CodeSourcery/ARM_EABI/bin/../lib/gcc/arm-none-eabi/4.6.3/../../../../arm-none
 300              		.file 3 "../../../os/ports/GCC/ARMCMx/chtypes.h"
 301              		.file 4 "../../../os/kernel/include/chvt.h"