ARM GAS  /tmp/ccZnGWur.s 			page 1


   1              		.syntax unified
   2              		.cpu cortex-m4
   3              		.fpu softvfp
   4              		.eabi_attribute 20, 1
   5              		.eabi_attribute 21, 1
   6              		.eabi_attribute 23, 3
   7              		.eabi_attribute 24, 1
   8              		.eabi_attribute 25, 1
   9              		.eabi_attribute 26, 1
  10              		.eabi_attribute 30, 2
  11              		.eabi_attribute 34, 1
  12              		.eabi_attribute 18, 4
  13              		.thumb
  14              		.file	"crt0.c"
  15              		.text
  16              	.Ltext0:
  17              		.cfi_sections	.debug_frame
  18              		.section	.text.__early_init,"ax",%progbits
  19              		.align	2
  20              		.p2align 4,,15
  21              		.weak	__early_init
  22              		.thumb
  23              		.thumb_func
  24              		.type	__early_init, %function
  25              	__early_init:
  26              	.LFB0:
  27              		.file 1 "../../../os/ports/GCC/ARMCMx/crt0.c"
  28              		.loc 1 213 0
  29              		.cfi_startproc
  30              		@ args = 0, pretend = 0, frame = 0
  31              		@ frame_needed = 0, uses_anonymous_args = 0
  32              		@ link register save eliminated.
  33              		.loc 1 213 0
  34 0000 7047     		bx	lr
  35              		.cfi_endproc
  36              	.LFE0:
  37              		.size	__early_init, .-__early_init
  38 0002 00BFAFF3 		.section	.text.__late_init,"ax",%progbits
  38      0080AFF3 
  38      0080AFF3 
  38      0080
  39              		.align	2
  40              		.p2align 4,,15
  41              		.weak	__late_init
  42              		.thumb
  43              		.thumb_func
  44              		.type	__late_init, %function
  45              	__late_init:
  46              	.LFB1:
  47              		.loc 1 225 0
  48              		.cfi_startproc
  49              		@ args = 0, pretend = 0, frame = 0
  50              		@ frame_needed = 0, uses_anonymous_args = 0
  51              		@ link register save eliminated.
  52              		.loc 1 225 0
  53 0000 7047     		bx	lr
  54              		.cfi_endproc
ARM GAS  /tmp/ccZnGWur.s 			page 2


  55              	.LFE1:
  56              		.size	__late_init, .-__late_init
  57 0002 00BFAFF3 		.section	.text._default_exit,"ax",%progbits
  57      0080AFF3 
  57      0080AFF3 
  57      0080
  58              		.align	2
  59              		.p2align 4,,15
  60              		.weak	_default_exit
  61              		.thumb
  62              		.thumb_func
  63              		.type	_default_exit, %function
  64              	_default_exit:
  65              	.LFB2:
  66              		.loc 1 236 0
  67              		.cfi_startproc
  68              		@ Naked Function: prologue and epilogue provided by programmer.
  69              		@ args = 0, pretend = 0, frame = 0
  70              		@ frame_needed = 0, uses_anonymous_args = 0
  71              	.L4:
  72 0000 FEE7     		b	.L4
  73              		.cfi_endproc
  74              	.LFE2:
  75              		.size	_default_exit, .-_default_exit
  76 0002 00BFAFF3 		.section	.text.ResetHandler,"ax",%progbits
  76      0080AFF3 
  76      0080AFF3 
  76      0080
  77              		.align	2
  78              		.p2align 4,,15
  79              		.global	ResetHandler
  80              		.thumb
  81              		.thumb_func
  82              		.type	ResetHandler, %function
  83              	ResetHandler:
  84              	.LFB3:
  85              		.loc 1 247 0
  86              		.cfi_startproc
  87              		@ Naked Function: prologue and epilogue provided by programmer.
  88              		@ args = 0, pretend = 0, frame = 0
  89              		@ frame_needed = 0, uses_anonymous_args = 0
  90              		.loc 1 253 0
  91              	@ 253 "../../../os/ports/GCC/ARMCMx/crt0.c" 1
  92 0000 72B6     		cpsid   i
  93              	@ 0 "" 2
  94              	.LVL0:
  95              		.loc 1 255 0
  96              		.thumb
  97 0002 40F20001 		movw	r1, #:lower16:__process_stack_end__
  98 0006 C0F20001 		movt	r1, #:upper16:__process_stack_end__
  99              	@ 255 "../../../os/ports/GCC/ARMCMx/crt0.c" 1
 100 000a 81F30988 		msr     PSP, r1
 101              	@ 0 "" 2
 102              	.LVL1:
 103              		.loc 1 275 0
 104              		.thumb
 105 000e 0223     		movs	r3, #2
ARM GAS  /tmp/ccZnGWur.s 			page 3


 106              	@ 275 "../../../os/ports/GCC/ARMCMx/crt0.c" 1
 107 0010 83F31488 		msr     CONTROL, r3
 108              	@ 0 "" 2
 109              		.loc 1 276 0
 110              	@ 276 "../../../os/ports/GCC/ARMCMx/crt0.c" 1
 111 0014 BFF36F8F 		isb
 112              	@ 0 "" 2
 113              	.LVL2:
 114              		.thumb
 115              	.LBB2:
 116              		.loc 1 280 0
 117 0018 40F20002 		movw	r2, #:lower16:__main_stack_base__
 118 001c 40F20004 		movw	r4, #:lower16:__main_stack_end__
 119 0020 C0F20002 		movt	r2, #:upper16:__main_stack_base__
 120 0024 C0F20004 		movt	r4, #:upper16:__main_stack_end__
 121 0028 A242     		cmp	r2, r4
 122 002a 17D2     		bcs	.L6
 123 002c 1346     		mov	r3, r2
 124 002e 4FF05530 		mov	r0, #1431655765
 125 0032 43F8040B 		str	r0, [r3], #4
 126              	.LVL3:
 127 0036 D643     		mvns	r6, r2
 128 0038 A519     		adds	r5, r4, r6
 129 003a A342     		cmp	r3, r4
 130 003c C5F38005 		ubfx	r5, r5, #2, #1
 131 0040 0CD2     		bcs	.L6
 132 0042 25B1     		cbz	r5, .L7
 133 0044 1860     		str	r0, [r3, #0]
 134 0046 02F10803 		add	r3, r2, #8
 135 004a A342     		cmp	r3, r4
 136 004c 06D2     		bcs	.L6
 137              	.LVL4:
 138              	.L7:
 139              		.loc 1 280 0 is_stmt 0 discriminator 2
 140 004e 1A46     		mov	r2, r3
 141 0050 42F8040B 		str	r0, [r2], #4
 142              	.LVL5:
 143 0054 5860     		str	r0, [r3, #4]
 144 0056 131D     		adds	r3, r2, #4
 145 0058 A342     		cmp	r3, r4
 146 005a F8D3     		bcc	.L7
 147              	.LVL6:
 148              	.L6:
 149              	.LBE2:
 150              	.LBB3:
 151              		.loc 1 283 0 is_stmt 1 discriminator 1
 152 005c 40F20002 		movw	r2, #:lower16:__process_stack_base__
 153 0060 C0F20002 		movt	r2, #:upper16:__process_stack_base__
 154 0064 8A42     		cmp	r2, r1
 155 0066 17D2     		bcs	.L8
 156              		.loc 1 283 0 is_stmt 0
 157 0068 1346     		mov	r3, r2
 158 006a 4FF05530 		mov	r0, #1431655765
 159 006e 43F8040B 		str	r0, [r3], #4
 160              	.LVL7:
 161 0072 D543     		mvns	r5, r2
 162 0074 4C19     		adds	r4, r1, r5
ARM GAS  /tmp/ccZnGWur.s 			page 4


 163 0076 8B42     		cmp	r3, r1
 164 0078 C4F38004 		ubfx	r4, r4, #2, #1
 165 007c 0CD2     		bcs	.L8
 166 007e 24B1     		cbz	r4, .L9
 167 0080 1860     		str	r0, [r3, #0]
 168 0082 02F10803 		add	r3, r2, #8
 169 0086 8B42     		cmp	r3, r1
 170 0088 06D2     		bcs	.L8
 171              	.LVL8:
 172              	.L9:
 173              		.loc 1 283 0 discriminator 2
 174 008a 1E46     		mov	r6, r3
 175 008c 46F8040B 		str	r0, [r6], #4
 176              	.LVL9:
 177 0090 5860     		str	r0, [r3, #4]
 178 0092 331D     		adds	r3, r6, #4
 179 0094 8B42     		cmp	r3, r1
 180 0096 F8D3     		bcc	.L9
 181              	.LVL10:
 182              	.L8:
 183              	.LBE3:
 184              		.loc 1 289 0 is_stmt 1
 185 0098 FFF7FEFF 		bl	__early_init
 186              	.LVL11:
 187              	.LBB4:
 188              		.loc 1 298 0
 189 009c 40F20004 		movw	r4, #:lower16:_edata
 190 00a0 40F20001 		movw	r1, #:lower16:_data
 191 00a4 C0F20001 		movt	r1, #:upper16:_data
 192 00a8 C0F20004 		movt	r4, #:upper16:_edata
 193 00ac A142     		cmp	r1, r4
 194 00ae 25D2     		bcs	.L10
 195 00b0 40F20000 		movw	r0, #:lower16:_textdata
 196 00b4 C0F20000 		movt	r0, #:upper16:_textdata
 197              		.loc 1 299 0
 198 00b8 0246     		mov	r2, r0
 199 00ba 0B46     		mov	r3, r1
 200 00bc 52F8046B 		ldr	r6, [r2], #4
 201 00c0 43F8046B 		str	r6, [r3], #4
 202              	.LVL12:
 203 00c4 CD43     		mvns	r5, r1
 204 00c6 04EB050C 		add	ip, r4, r5
 205              		.loc 1 298 0
 206 00ca A342     		cmp	r3, r4
 207 00cc CCF38005 		ubfx	r5, ip, #2, #1
 208 00d0 14D2     		bcs	.L10
 209 00d2 3DB1     		cbz	r5, .L11
 210              		.loc 1 299 0
 211 00d4 1668     		ldr	r6, [r2, #0]
 212 00d6 1E60     		str	r6, [r3, #0]
 213 00d8 01F10803 		add	r3, r1, #8
 214              		.loc 1 298 0
 215 00dc A342     		cmp	r3, r4
 216              		.loc 1 299 0
 217 00de 00F10802 		add	r2, r0, #8
 218              		.loc 1 298 0
 219 00e2 0BD2     		bcs	.L10
ARM GAS  /tmp/ccZnGWur.s 			page 5


 220              	.LVL13:
 221              	.L11:
 222              		.loc 1 299 0
 223 00e4 1146     		mov	r1, r2
 224 00e6 1846     		mov	r0, r3
 225 00e8 51F8045B 		ldr	r5, [r1], #4
 226 00ec 5268     		ldr	r2, [r2, #4]
 227 00ee 40F8045B 		str	r5, [r0], #4
 228              	.LVL14:
 229 00f2 5A60     		str	r2, [r3, #4]
 230 00f4 031D     		adds	r3, r0, #4
 231 00f6 0A1D     		adds	r2, r1, #4
 232              		.loc 1 298 0
 233 00f8 A342     		cmp	r3, r4
 234 00fa F3D3     		bcc	.L11
 235              	.LVL15:
 236              	.L10:
 237              	.LBE4:
 238              	.LBB5:
 239              		.loc 1 305 0 discriminator 1
 240 00fc 40F20002 		movw	r2, #:lower16:_bss_start
 241 0100 40F20000 		movw	r0, #:lower16:_bss_end
 242 0104 C0F20002 		movt	r2, #:upper16:_bss_start
 243 0108 C0F20000 		movt	r0, #:upper16:_bss_end
 244 010c 8242     		cmp	r2, r0
 245 010e 17D2     		bcs	.L12
 246              		.loc 1 305 0 is_stmt 0
 247 0110 1346     		mov	r3, r2
 248 0112 0021     		movs	r1, #0
 249 0114 43F8041B 		str	r1, [r3], #4
 250              	.LVL16:
 251 0118 D443     		mvns	r4, r2
 252 011a 00EB040E 		add	lr, r0, r4
 253 011e 8342     		cmp	r3, r0
 254 0120 CEF38004 		ubfx	r4, lr, #2, #1
 255 0124 0CD2     		bcs	.L12
 256 0126 24B1     		cbz	r4, .L13
 257 0128 1960     		str	r1, [r3, #0]
 258 012a 02F10803 		add	r3, r2, #8
 259 012e 8342     		cmp	r3, r0
 260 0130 06D2     		bcs	.L12
 261              	.LVL17:
 262              	.L13:
 263              		.loc 1 305 0 discriminator 2
 264 0132 1E46     		mov	r6, r3
 265 0134 46F8041B 		str	r1, [r6], #4
 266              	.LVL18:
 267 0138 5960     		str	r1, [r3, #4]
 268 013a 331D     		adds	r3, r6, #4
 269 013c 8342     		cmp	r3, r0
 270 013e F8D3     		bcc	.L13
 271              	.LVL19:
 272              	.L12:
 273              	.LBE5:
 274              	.LBB6:
 275              		.loc 1 315 0 is_stmt 1
 276 0140 40F20005 		movw	r5, #:lower16:__init_array_start
ARM GAS  /tmp/ccZnGWur.s 			page 6


 277 0144 40F20006 		movw	r6, #:lower16:__init_array_end
 278 0148 C0F20005 		movt	r5, #:upper16:__init_array_start
 279 014c C0F20006 		movt	r6, #:upper16:__init_array_end
 280              	.LBE6:
 281              		.loc 1 309 0
 282 0150 FFF7FEFF 		bl	__late_init
 283              	.LVL20:
 284              	.LBB7:
 285              		.loc 1 315 0
 286 0154 B542     		cmp	r5, r6
 287 0156 19D2     		bcs	.L14
 288              		.loc 1 316 0
 289 0158 2C46     		mov	r4, r5
 290 015a E943     		mvns	r1, r5
 291 015c 54F8043B 		ldr	r3, [r4], #4
 292 0160 7718     		adds	r7, r6, r1
 293 0162 9847     		blx	r3
 294              	.LVL21:
 295              		.loc 1 315 0
 296 0164 B442     		cmp	r4, r6
 297 0166 C7F38007 		ubfx	r7, r7, #2, #1
 298 016a 0FD2     		bcs	.L14
 299 016c 2FB1     		cbz	r7, .L15
 300              		.loc 1 316 0
 301 016e 2368     		ldr	r3, [r4, #0]
 302              		.loc 1 317 0
 303 0170 05F10804 		add	r4, r5, #8
 304              		.loc 1 316 0
 305 0174 9847     		blx	r3
 306              		.loc 1 315 0
 307 0176 B442     		cmp	r4, r6
 308 0178 08D2     		bcs	.L14
 309              	.LVL22:
 310              	.L15:
 311              		.loc 1 316 0
 312 017a 2546     		mov	r5, r4
 313 017c 55F8042B 		ldr	r2, [r5], #4
 314 0180 9047     		blx	r2
 315              	.LVL23:
 316 0182 6068     		ldr	r0, [r4, #4]
 317              		.loc 1 317 0
 318 0184 2C1D     		adds	r4, r5, #4
 319              		.loc 1 316 0
 320 0186 8047     		blx	r0
 321              		.loc 1 315 0
 322 0188 B442     		cmp	r4, r6
 323 018a F6D3     		bcc	.L15
 324              	.LVL24:
 325              	.L14:
 326              	.LBE7:
 327              	.LBB8:
 328              		.loc 1 329 0
 329 018c 40F20005 		movw	r5, #:lower16:__fini_array_start
 330 0190 40F20006 		movw	r6, #:lower16:__fini_array_end
 331 0194 C0F20005 		movt	r5, #:upper16:__fini_array_start
 332 0198 C0F20006 		movt	r6, #:upper16:__fini_array_end
 333              	.LBE8:
ARM GAS  /tmp/ccZnGWur.s 			page 7


 334              		.loc 1 323 0
 335 019c FFF7FEFF 		bl	main
 336              	.LVL25:
 337              	.LBB9:
 338              		.loc 1 329 0
 339 01a0 B542     		cmp	r5, r6
 340 01a2 1AD2     		bcs	.L16
 341              		.loc 1 330 0
 342 01a4 2C46     		mov	r4, r5
 343 01a6 EF43     		mvns	r7, r5
 344 01a8 54F8043B 		ldr	r3, [r4], #4
 345 01ac 06EB070C 		add	ip, r6, r7
 346 01b0 CCF38007 		ubfx	r7, ip, #2, #1
 347 01b4 9847     		blx	r3
 348              	.LVL26:
 349              		.loc 1 329 0
 350 01b6 B442     		cmp	r4, r6
 351 01b8 0FD2     		bcs	.L16
 352 01ba 2FB1     		cbz	r7, .L17
 353              		.loc 1 330 0
 354 01bc 2268     		ldr	r2, [r4, #0]
 355              		.loc 1 331 0
 356 01be 05F10804 		add	r4, r5, #8
 357              		.loc 1 330 0
 358 01c2 9047     		blx	r2
 359              		.loc 1 329 0
 360 01c4 B442     		cmp	r4, r6
 361 01c6 08D2     		bcs	.L16
 362              	.LVL27:
 363              	.L17:
 364              		.loc 1 330 0
 365 01c8 2546     		mov	r5, r4
 366 01ca 55F8040B 		ldr	r0, [r5], #4
 367 01ce 8047     		blx	r0
 368              	.LVL28:
 369 01d0 6168     		ldr	r1, [r4, #4]
 370              		.loc 1 331 0
 371 01d2 2C1D     		adds	r4, r5, #4
 372              		.loc 1 330 0
 373 01d4 8847     		blx	r1
 374              		.loc 1 329 0
 375 01d6 B442     		cmp	r4, r6
 376 01d8 F6D3     		bcc	.L17
 377              	.LVL29:
 378              	.L16:
 379              	.LBE9:
 380              		.loc 1 337 0
 381 01da FFF7FEFF 		bl	_default_exit
 382              		.loc 1 338 0
 383              		.cfi_endproc
 384              	.LFE3:
 385              		.size	ResetHandler, .-ResetHandler
 386 01de 00BF     		.text
 387              	.Letext0:
 388              		.file 2 "/home/prana/CodeSourcery/ARM_EABI/bin/../lib/gcc/arm-none-eabi/4.6.3/../../../../arm-none