ARM GAS  /tmp/ccwcHxQL.s 			page 1


   1              		.syntax unified
   2              		.cpu cortex-m4
   3              		.fpu softvfp
   4              		.eabi_attribute 20, 1
   5              		.eabi_attribute 21, 1
   6              		.eabi_attribute 23, 3
   7              		.eabi_attribute 24, 1
   8              		.eabi_attribute 25, 1
   9              		.eabi_attribute 26, 1
  10              		.eabi_attribute 30, 2
  11              		.eabi_attribute 34, 1
  12              		.eabi_attribute 18, 4
  13              		.thumb
  14              		.file	"evtimer.c"
  15              		.text
  16              	.Ltext0:
  17              		.cfi_sections	.debug_frame
  18              		.section	.text.tmrcb,"ax",%progbits
  19              		.align	2
  20              		.p2align 4,,15
  21              		.thumb
  22              		.thumb_func
  23              		.type	tmrcb, %function
  24              	tmrcb:
  25              	.LFB0:
  26              		.file 1 "../../../os/various/evtimer.c"
  27              		.loc 1 32 0
  28              		.cfi_startproc
  29              		@ args = 0, pretend = 0, frame = 0
  30              		@ frame_needed = 0, uses_anonymous_args = 0
  31              	.LVL0:
  32 0000 10B5     		push	{r4, lr}
  33              	.LCFI0:
  34              		.cfi_def_cfa_offset 8
  35              		.cfi_offset 14, -4
  36              		.cfi_offset 4, -8
  37              		.loc 1 32 0
  38 0002 0446     		mov	r4, r0
  39              	.LVL1:
  40              		.loc 1 35 0
  41              	@ 35 "../../../os/various/evtimer.c" 1
  42 0004 FFF7FEFF 		bl      _port_lock
  43              	@ 0 "" 2
  44              		.thumb
  45 0008 FFF7FEFF 		bl	dbg_check_lock_from_isr
  46              	.LVL2:
  47              		.loc 1 36 0
  48 000c 04F11400 		add	r0, r4, #20
  49 0010 0021     		movs	r1, #0
  50 0012 FFF7FEFF 		bl	chEvtBroadcastFlagsI
  51              		.loc 1 37 0
  52 0016 40F20002 		movw	r2, #:lower16:tmrcb
  53 001a 2046     		mov	r0, r4
  54 001c A169     		ldr	r1, [r4, #24]
  55 001e C0F20002 		movt	r2, #:upper16:tmrcb
  56 0022 2346     		mov	r3, r4
  57 0024 FFF7FEFF 		bl	chVTSetI
ARM GAS  /tmp/ccwcHxQL.s 			page 2


  58              		.loc 1 38 0
  59 0028 FFF7FEFF 		bl	dbg_check_unlock_from_isr
  60              	@ 38 "../../../os/various/evtimer.c" 1
  61 002c FFF7FEFF 		bl      _port_unlock
  62              	@ 0 "" 2
  63              		.loc 1 39 0
  64              		.thumb
  65 0030 10BD     		pop	{r4, pc}
  66              		.cfi_endproc
  67              	.LFE0:
  68              		.size	tmrcb, .-tmrcb
  69 0032 00BFAFF3 		.section	.text.evtStart,"ax",%progbits
  69      0080AFF3 
  69      0080AFF3 
  69      0080
  70              		.align	2
  71              		.p2align 4,,15
  72              		.global	evtStart
  73              		.thumb
  74              		.thumb_func
  75              		.type	evtStart, %function
  76              	evtStart:
  77              	.LFB1:
  78              		.loc 1 47 0
  79              		.cfi_startproc
  80              		@ args = 0, pretend = 0, frame = 0
  81              		@ frame_needed = 0, uses_anonymous_args = 0
  82              	.LVL3:
  83 0000 10B5     		push	{r4, lr}
  84              	.LCFI1:
  85              		.cfi_def_cfa_offset 8
  86              		.cfi_offset 14, -4
  87              		.cfi_offset 4, -8
  88              		.loc 1 47 0
  89 0002 0446     		mov	r4, r0
  90              		.loc 1 49 0
  91              	@ 49 "../../../os/various/evtimer.c" 1
  92 0004 FFF7FEFF 		bl      _port_lock
  93              	@ 0 "" 2
  94              		.thumb
  95 0008 FFF7FEFF 		bl	dbg_check_lock
  96              	.LVL4:
  97              		.loc 1 51 0
  98 000c E368     		ldr	r3, [r4, #12]
  99 000e 23B1     		cbz	r3, .L5
 100              		.loc 1 54 0
 101 0010 FFF7FEFF 		bl	dbg_check_unlock
 102              	@ 54 "../../../os/various/evtimer.c" 1
 103 0014 FFF7FEFF 		bl      _port_unlock
 104              	@ 0 "" 2
 105              		.loc 1 55 0
 106              		.thumb
 107 0018 10BD     		pop	{r4, pc}
 108              	.L5:
 109              		.loc 1 52 0
 110 001a 40F20002 		movw	r2, #:lower16:tmrcb
 111 001e 2046     		mov	r0, r4
ARM GAS  /tmp/ccwcHxQL.s 			page 3


 112 0020 A169     		ldr	r1, [r4, #24]
 113 0022 C0F20002 		movt	r2, #:upper16:tmrcb
 114 0026 2346     		mov	r3, r4
 115 0028 FFF7FEFF 		bl	chVTSetI
 116              		.loc 1 54 0
 117 002c FFF7FEFF 		bl	dbg_check_unlock
 118              	@ 54 "../../../os/various/evtimer.c" 1
 119 0030 FFF7FEFF 		bl      _port_unlock
 120              	@ 0 "" 2
 121              		.loc 1 55 0
 122              		.thumb
 123 0034 10BD     		pop	{r4, pc}
 124              		.cfi_endproc
 125              	.LFE1:
 126              		.size	evtStart, .-evtStart
 127 0036 00BFAFF3 		.section	.text.evtStop,"ax",%progbits
 127      0080AFF3 
 127      0080
 128              		.align	2
 129              		.p2align 4,,15
 130              		.global	evtStop
 131              		.thumb
 132              		.thumb_func
 133              		.type	evtStop, %function
 134              	evtStop:
 135              	.LFB2:
 136              		.loc 1 63 0
 137              		.cfi_startproc
 138              		@ args = 0, pretend = 0, frame = 0
 139              		@ frame_needed = 0, uses_anonymous_args = 0
 140              	.LVL5:
 141 0000 10B5     		push	{r4, lr}
 142              	.LCFI2:
 143              		.cfi_def_cfa_offset 8
 144              		.cfi_offset 14, -4
 145              		.cfi_offset 4, -8
 146              		.loc 1 63 0
 147 0002 0446     		mov	r4, r0
 148              		.loc 1 65 0
 149              	@ 65 "../../../os/various/evtimer.c" 1
 150 0004 FFF7FEFF 		bl      _port_lock
 151              	@ 0 "" 2
 152              		.thumb
 153 0008 FFF7FEFF 		bl	dbg_check_lock
 154              	.LVL6:
 155 000c E368     		ldr	r3, [r4, #12]
 156 000e 13B1     		cbz	r3, .L7
 157              		.loc 1 65 0 is_stmt 0 discriminator 1
 158 0010 2046     		mov	r0, r4
 159 0012 FFF7FEFF 		bl	chVTResetI
 160              	.L7:
 161              		.loc 1 65 0 discriminator 2
 162 0016 FFF7FEFF 		bl	dbg_check_unlock
 163              	@ 65 "../../../os/various/evtimer.c" 1
 164 001a FFF7FEFF 		bl      _port_unlock
 165              	@ 0 "" 2
 166              		.loc 1 66 0 is_stmt 1 discriminator 2
ARM GAS  /tmp/ccwcHxQL.s 			page 4


 167              		.thumb
 168 001e 10BD     		pop	{r4, pc}
 169              		.cfi_endproc
 170              	.LFE2:
 171              		.size	evtStop, .-evtStop
 172              		.text
 173              	.Letext0:
 174              		.file 2 "/home/prana/CodeSourcery/ARM_EABI/bin/../lib/gcc/arm-none-eabi/4.6.3/../../../../arm-none
 175              		.file 3 "../../../os/ports/GCC/ARMCMx/chtypes.h"
 176              		.file 4 "../../../os/kernel/include/chlists.h"
 177              		.file 5 "../../../os/kernel/include/chthreads.h"
 178              		.file 6 "../../../os/ports/GCC/ARMCMx/chcore_v7m.h"
 179              		.file 7 "../../../os/kernel/include/chvt.h"
 180              		.file 8 "../../../os/kernel/include/chmtx.h"
 181              		.file 9 "../../../os/kernel/include/chevents.h"
 182              		.file 10 "../../../os/various/evtimer.h"
 183              		.section	.debug_info,"",%progbits
 184              	.Ldebug_info0:
 185 0000 7E050000 		.4byte	0x57e
 186 0004 0200     		.2byte	0x2
 187 0006 00000000 		.4byte	.Ldebug_abbrev0
 188 000a 04       		.byte	0x4
 189 000b 01       		.uleb128 0x1
 190 000c 57020000 		.4byte	.LASF71
 191 0010 01       		.byte	0x1
 192 0011 A5010000 		.4byte	.LASF72
 193 0015 ED000000 		.4byte	.LASF73
 194 0019 00000000 		.4byte	0
 195 001d 00000000 		.4byte	0
 196 0021 00000000 		.4byte	.Ldebug_ranges0+0
 197 0025 00000000 		.4byte	.Ldebug_line0
 198 0029 02       		.uleb128 0x2
 199 002a 04       		.byte	0x4
 200 002b 05       		.byte	0x5
 201 002c 696E7400 		.ascii	"int\000"
 202 0030 03       		.uleb128 0x3
 203 0031 04       		.byte	0x4
 204 0032 07       		.byte	0x7
 205 0033 BE000000 		.4byte	.LASF0
 206 0037 03       		.uleb128 0x3
 207 0038 01       		.byte	0x1
 208 0039 06       		.byte	0x6
 209 003a 60000000 		.4byte	.LASF1
 210 003e 04       		.uleb128 0x4
 211 003f CF020000 		.4byte	.LASF5
 212 0043 02       		.byte	0x2
 213 0044 2A       		.byte	0x2a
 214 0045 49000000 		.4byte	0x49
 215 0049 03       		.uleb128 0x3
 216 004a 01       		.byte	0x1
 217 004b 08       		.byte	0x8
 218 004c DA010000 		.4byte	.LASF2
 219 0050 03       		.uleb128 0x3
 220 0051 02       		.byte	0x2
 221 0052 05       		.byte	0x5
 222 0053 07020000 		.4byte	.LASF3
 223 0057 03       		.uleb128 0x3
ARM GAS  /tmp/ccwcHxQL.s 			page 5


 224 0058 02       		.byte	0x2
 225 0059 07       		.byte	0x7
 226 005a 20010000 		.4byte	.LASF4
 227 005e 04       		.uleb128 0x4
 228 005f D2010000 		.4byte	.LASF6
 229 0063 02       		.byte	0x2
 230 0064 4F       		.byte	0x4f
 231 0065 69000000 		.4byte	0x69
 232 0069 03       		.uleb128 0x3
 233 006a 04       		.byte	0x4
 234 006b 05       		.byte	0x5
 235 006c 7C000000 		.4byte	.LASF7
 236 0070 04       		.uleb128 0x4
 237 0071 41020000 		.4byte	.LASF8
 238 0075 02       		.byte	0x2
 239 0076 50       		.byte	0x50
 240 0077 7B000000 		.4byte	0x7b
 241 007b 03       		.uleb128 0x3
 242 007c 04       		.byte	0x4
 243 007d 07       		.byte	0x7
 244 007e D3000000 		.4byte	.LASF9
 245 0082 03       		.uleb128 0x3
 246 0083 08       		.byte	0x8
 247 0084 05       		.byte	0x5
 248 0085 52000000 		.4byte	.LASF10
 249 0089 04       		.uleb128 0x4
 250 008a 19000000 		.4byte	.LASF11
 251 008e 02       		.byte	0x2
 252 008f 78       		.byte	0x78
 253 0090 94000000 		.4byte	0x94
 254 0094 03       		.uleb128 0x3
 255 0095 08       		.byte	0x8
 256 0096 07       		.byte	0x7
 257 0097 22000000 		.4byte	.LASF12
 258 009b 04       		.uleb128 0x4
 259 009c 41010000 		.4byte	.LASF13
 260 00a0 03       		.byte	0x3
 261 00a1 28       		.byte	0x28
 262 00a2 3E000000 		.4byte	0x3e
 263 00a6 04       		.uleb128 0x4
 264 00a7 85000000 		.4byte	.LASF14
 265 00ab 03       		.byte	0x3
 266 00ac 29       		.byte	0x29
 267 00ad 3E000000 		.4byte	0x3e
 268 00b1 04       		.uleb128 0x4
 269 00b2 CA010000 		.4byte	.LASF15
 270 00b6 03       		.byte	0x3
 271 00b7 2C       		.byte	0x2c
 272 00b8 70000000 		.4byte	0x70
 273 00bc 04       		.uleb128 0x4
 274 00bd 33010000 		.4byte	.LASF16
 275 00c1 03       		.byte	0x3
 276 00c2 2D       		.byte	0x2d
 277 00c3 5E000000 		.4byte	0x5e
 278 00c7 04       		.uleb128 0x4
 279 00c8 55010000 		.4byte	.LASF17
 280 00cc 03       		.byte	0x3
ARM GAS  /tmp/ccwcHxQL.s 			page 6


 281 00cd 2F       		.byte	0x2f
 282 00ce 70000000 		.4byte	0x70
 283 00d2 04       		.uleb128 0x4
 284 00d3 BB020000 		.4byte	.LASF18
 285 00d7 03       		.byte	0x3
 286 00d8 30       		.byte	0x30
 287 00d9 70000000 		.4byte	0x70
 288 00dd 04       		.uleb128 0x4
 289 00de 75020000 		.4byte	.LASF19
 290 00e2 03       		.byte	0x3
 291 00e3 31       		.byte	0x31
 292 00e4 70000000 		.4byte	0x70
 293 00e8 04       		.uleb128 0x4
 294 00e9 2F020000 		.4byte	.LASF20
 295 00ed 04       		.byte	0x4
 296 00ee 23       		.byte	0x23
 297 00ef F3000000 		.4byte	0xf3
 298 00f3 05       		.uleb128 0x5
 299 00f4 2F020000 		.4byte	.LASF20
 300 00f8 48       		.byte	0x48
 301 00f9 05       		.byte	0x5
 302 00fa 57       		.byte	0x57
 303 00fb FC010000 		.4byte	0x1fc
 304 00ff 06       		.uleb128 0x6
 305 0100 20020000 		.4byte	.LASF21
 306 0104 05       		.byte	0x5
 307 0105 58       		.byte	0x58
 308 0106 21020000 		.4byte	0x221
 309 010a 02       		.byte	0x2
 310 010b 23       		.byte	0x23
 311 010c 00       		.uleb128 0
 312 010d 06       		.uleb128 0x6
 313 010e C3010000 		.4byte	.LASF22
 314 0112 05       		.byte	0x5
 315 0113 5A       		.byte	0x5a
 316 0114 21020000 		.4byte	0x221
 317 0118 02       		.byte	0x2
 318 0119 23       		.byte	0x23
 319 011a 04       		.uleb128 0x4
 320 011b 06       		.uleb128 0x6
 321 011c 4B000000 		.4byte	.LASF23
 322 0120 05       		.byte	0x5
 323 0121 5C       		.byte	0x5c
 324 0122 B1000000 		.4byte	0xb1
 325 0126 02       		.byte	0x2
 326 0127 23       		.byte	0x23
 327 0128 08       		.uleb128 0x8
 328 0129 06       		.uleb128 0x6
 329 012a 01030000 		.4byte	.LASF24
 330 012e 05       		.byte	0x5
 331 012f 5D       		.byte	0x5d
 332 0130 FA020000 		.4byte	0x2fa
 333 0134 02       		.byte	0x2
 334 0135 23       		.byte	0x23
 335 0136 0C       		.uleb128 0xc
 336 0137 06       		.uleb128 0x6
 337 0138 8E000000 		.4byte	.LASF25
ARM GAS  /tmp/ccwcHxQL.s 			page 7


 338 013c 05       		.byte	0x5
 339 013d 5F       		.byte	0x5f
 340 013e 21020000 		.4byte	0x221
 341 0142 02       		.byte	0x2
 342 0143 23       		.byte	0x23
 343 0144 10       		.uleb128 0x10
 344 0145 06       		.uleb128 0x6
 345 0146 88010000 		.4byte	.LASF26
 346 014a 05       		.byte	0x5
 347 014b 60       		.byte	0x60
 348 014c 21020000 		.4byte	0x221
 349 0150 02       		.byte	0x2
 350 0151 23       		.byte	0x23
 351 0152 14       		.uleb128 0x14
 352 0153 06       		.uleb128 0x6
 353 0154 EC020000 		.4byte	.LASF27
 354 0158 05       		.byte	0x5
 355 0159 67       		.byte	0x67
 356 015a 9C040000 		.4byte	0x49c
 357 015e 02       		.byte	0x2
 358 015f 23       		.byte	0x23
 359 0160 18       		.uleb128 0x18
 360 0161 06       		.uleb128 0x6
 361 0162 B3000000 		.4byte	.LASF28
 362 0166 05       		.byte	0x5
 363 0167 6D       		.byte	0x6d
 364 0168 AE040000 		.4byte	0x4ae
 365 016c 02       		.byte	0x2
 366 016d 23       		.byte	0x23
 367 016e 1C       		.uleb128 0x1c
 368 016f 06       		.uleb128 0x6
 369 0170 11020000 		.4byte	.LASF29
 370 0174 05       		.byte	0x5
 371 0175 72       		.byte	0x72
 372 0176 A6000000 		.4byte	0xa6
 373 017a 02       		.byte	0x2
 374 017b 23       		.byte	0x23
 375 017c 20       		.uleb128 0x20
 376 017d 06       		.uleb128 0x6
 377 017e 27020000 		.4byte	.LASF30
 378 0182 05       		.byte	0x5
 379 0183 76       		.byte	0x76
 380 0184 9B000000 		.4byte	0x9b
 381 0188 02       		.byte	0x2
 382 0189 23       		.byte	0x23
 383 018a 21       		.uleb128 0x21
 384 018b 06       		.uleb128 0x6
 385 018c 9B020000 		.4byte	.LASF31
 386 0190 05       		.byte	0x5
 387 0191 88       		.byte	0x88
 388 0192 9E030000 		.4byte	0x39e
 389 0196 02       		.byte	0x2
 390 0197 23       		.byte	0x23
 391 0198 24       		.uleb128 0x24
 392 0199 07       		.uleb128 0x7
 393 019a 705F7500 		.ascii	"p_u\000"
 394 019e 05       		.byte	0x5
ARM GAS  /tmp/ccwcHxQL.s 			page 8


 395 019f AD       		.byte	0xad
 396 01a0 67040000 		.4byte	0x467
 397 01a4 02       		.byte	0x2
 398 01a5 23       		.byte	0x23
 399 01a6 28       		.uleb128 0x28
 400 01a7 06       		.uleb128 0x6
 401 01a8 07030000 		.4byte	.LASF32
 402 01ac 05       		.byte	0x5
 403 01ad B2       		.byte	0xb2
 404 01ae 49020000 		.4byte	0x249
 405 01b2 02       		.byte	0x2
 406 01b3 23       		.byte	0x23
 407 01b4 2C       		.uleb128 0x2c
 408 01b5 06       		.uleb128 0x6
 409 01b6 A9020000 		.4byte	.LASF33
 410 01ba 05       		.byte	0x5
 411 01bb B8       		.byte	0xb8
 412 01bc 27020000 		.4byte	0x227
 413 01c0 02       		.byte	0x2
 414 01c1 23       		.byte	0x23
 415 01c2 30       		.uleb128 0x30
 416 01c3 06       		.uleb128 0x6
 417 01c4 0C000000 		.4byte	.LASF34
 418 01c8 05       		.byte	0x5
 419 01c9 BC       		.byte	0xbc
 420 01ca BC000000 		.4byte	0xbc
 421 01ce 02       		.byte	0x2
 422 01cf 23       		.byte	0x23
 423 01d0 38       		.uleb128 0x38
 424 01d1 06       		.uleb128 0x6
 425 01d2 36020000 		.4byte	.LASF35
 426 01d6 05       		.byte	0x5
 427 01d7 C2       		.byte	0xc2
 428 01d8 C7000000 		.4byte	0xc7
 429 01dc 02       		.byte	0x2
 430 01dd 23       		.byte	0x23
 431 01de 3C       		.uleb128 0x3c
 432 01df 06       		.uleb128 0x6
 433 01e0 FD010000 		.4byte	.LASF36
 434 01e4 05       		.byte	0x5
 435 01e5 C9       		.byte	0xc9
 436 01e6 B4040000 		.4byte	0x4b4
 437 01ea 02       		.byte	0x2
 438 01eb 23       		.byte	0x23
 439 01ec 40       		.uleb128 0x40
 440 01ed 06       		.uleb128 0x6
 441 01ee 7F020000 		.4byte	.LASF37
 442 01f2 05       		.byte	0x5
 443 01f3 CD       		.byte	0xcd
 444 01f4 B1000000 		.4byte	0xb1
 445 01f8 02       		.byte	0x2
 446 01f9 23       		.byte	0x23
 447 01fa 44       		.uleb128 0x44
 448 01fb 00       		.byte	0
 449 01fc 08       		.uleb128 0x8
 450 01fd 08       		.byte	0x8
 451 01fe 04       		.byte	0x4
ARM GAS  /tmp/ccwcHxQL.s 			page 9


 452 01ff 5A       		.byte	0x5a
 453 0200 21020000 		.4byte	0x221
 454 0204 06       		.uleb128 0x6
 455 0205 20020000 		.4byte	.LASF21
 456 0209 04       		.byte	0x4
 457 020a 5B       		.byte	0x5b
 458 020b 21020000 		.4byte	0x221
 459 020f 02       		.byte	0x2
 460 0210 23       		.byte	0x23
 461 0211 00       		.uleb128 0
 462 0212 06       		.uleb128 0x6
 463 0213 C3010000 		.4byte	.LASF22
 464 0217 04       		.byte	0x4
 465 0218 5D       		.byte	0x5d
 466 0219 21020000 		.4byte	0x221
 467 021d 02       		.byte	0x2
 468 021e 23       		.byte	0x23
 469 021f 04       		.uleb128 0x4
 470 0220 00       		.byte	0
 471 0221 09       		.uleb128 0x9
 472 0222 04       		.byte	0x4
 473 0223 E8000000 		.4byte	0xe8
 474 0227 04       		.uleb128 0x4
 475 0228 90010000 		.4byte	.LASF38
 476 022c 04       		.byte	0x4
 477 022d 5F       		.byte	0x5f
 478 022e FC010000 		.4byte	0x1fc
 479 0232 08       		.uleb128 0x8
 480 0233 04       		.byte	0x4
 481 0234 04       		.byte	0x4
 482 0235 64       		.byte	0x64
 483 0236 49020000 		.4byte	0x249
 484 023a 06       		.uleb128 0x6
 485 023b 20020000 		.4byte	.LASF21
 486 023f 04       		.byte	0x4
 487 0240 66       		.byte	0x66
 488 0241 21020000 		.4byte	0x221
 489 0245 02       		.byte	0x2
 490 0246 23       		.byte	0x23
 491 0247 00       		.uleb128 0
 492 0248 00       		.byte	0
 493 0249 04       		.uleb128 0x4
 494 024a 49010000 		.4byte	.LASF39
 495 024e 04       		.byte	0x4
 496 024f 69       		.byte	0x69
 497 0250 32020000 		.4byte	0x232
 498 0254 04       		.uleb128 0x4
 499 0255 96000000 		.4byte	.LASF40
 500 0259 06       		.byte	0x6
 501 025a DE       		.byte	0xde
 502 025b 5F020000 		.4byte	0x25f
 503 025f 0A       		.uleb128 0xa
 504 0260 04       		.byte	0x4
 505 0261 04       		.uleb128 0x4
 506 0262 67010000 		.4byte	.LASF41
 507 0266 06       		.byte	0x6
 508 0267 E4       		.byte	0xe4
ARM GAS  /tmp/ccwcHxQL.s 			page 10


 509 0268 89000000 		.4byte	0x89
 510 026c 0B       		.uleb128 0xb
 511 026d A2020000 		.4byte	.LASF42
 512 0271 24       		.byte	0x24
 513 0272 06       		.byte	0x6
 514 0273 0501     		.2byte	0x105
 515 0275 FA020000 		.4byte	0x2fa
 516 0279 0C       		.uleb128 0xc
 517 027a 723400   		.ascii	"r4\000"
 518 027d 06       		.byte	0x6
 519 027e 1801     		.2byte	0x118
 520 0280 54020000 		.4byte	0x254
 521 0284 02       		.byte	0x2
 522 0285 23       		.byte	0x23
 523 0286 00       		.uleb128 0
 524 0287 0C       		.uleb128 0xc
 525 0288 723500   		.ascii	"r5\000"
 526 028b 06       		.byte	0x6
 527 028c 1901     		.2byte	0x119
 528 028e 54020000 		.4byte	0x254
 529 0292 02       		.byte	0x2
 530 0293 23       		.byte	0x23
 531 0294 04       		.uleb128 0x4
 532 0295 0C       		.uleb128 0xc
 533 0296 723600   		.ascii	"r6\000"
 534 0299 06       		.byte	0x6
 535 029a 1A01     		.2byte	0x11a
 536 029c 54020000 		.4byte	0x254
 537 02a0 02       		.byte	0x2
 538 02a1 23       		.byte	0x23
 539 02a2 08       		.uleb128 0x8
 540 02a3 0C       		.uleb128 0xc
 541 02a4 723700   		.ascii	"r7\000"
 542 02a7 06       		.byte	0x6
 543 02a8 1B01     		.2byte	0x11b
 544 02aa 54020000 		.4byte	0x254
 545 02ae 02       		.byte	0x2
 546 02af 23       		.byte	0x23
 547 02b0 0C       		.uleb128 0xc
 548 02b1 0C       		.uleb128 0xc
 549 02b2 723800   		.ascii	"r8\000"
 550 02b5 06       		.byte	0x6
 551 02b6 1C01     		.2byte	0x11c
 552 02b8 54020000 		.4byte	0x254
 553 02bc 02       		.byte	0x2
 554 02bd 23       		.byte	0x23
 555 02be 10       		.uleb128 0x10
 556 02bf 0C       		.uleb128 0xc
 557 02c0 723900   		.ascii	"r9\000"
 558 02c3 06       		.byte	0x6
 559 02c4 1D01     		.2byte	0x11d
 560 02c6 54020000 		.4byte	0x254
 561 02ca 02       		.byte	0x2
 562 02cb 23       		.byte	0x23
 563 02cc 14       		.uleb128 0x14
 564 02cd 0C       		.uleb128 0xc
 565 02ce 72313000 		.ascii	"r10\000"
ARM GAS  /tmp/ccwcHxQL.s 			page 11


 566 02d2 06       		.byte	0x6
 567 02d3 1E01     		.2byte	0x11e
 568 02d5 54020000 		.4byte	0x254
 569 02d9 02       		.byte	0x2
 570 02da 23       		.byte	0x23
 571 02db 18       		.uleb128 0x18
 572 02dc 0C       		.uleb128 0xc
 573 02dd 72313100 		.ascii	"r11\000"
 574 02e1 06       		.byte	0x6
 575 02e2 1F01     		.2byte	0x11f
 576 02e4 54020000 		.4byte	0x254
 577 02e8 02       		.byte	0x2
 578 02e9 23       		.byte	0x23
 579 02ea 1C       		.uleb128 0x1c
 580 02eb 0C       		.uleb128 0xc
 581 02ec 6C7200   		.ascii	"lr\000"
 582 02ef 06       		.byte	0x6
 583 02f0 2001     		.2byte	0x120
 584 02f2 54020000 		.4byte	0x254
 585 02f6 02       		.byte	0x2
 586 02f7 23       		.byte	0x23
 587 02f8 20       		.uleb128 0x20
 588 02f9 00       		.byte	0
 589 02fa 0B       		.uleb128 0xb
 590 02fb E5000000 		.4byte	.LASF43
 591 02ff 04       		.byte	0x4
 592 0300 06       		.byte	0x6
 593 0301 2A01     		.2byte	0x12a
 594 0303 17030000 		.4byte	0x317
 595 0307 0C       		.uleb128 0xc
 596 0308 72313300 		.ascii	"r13\000"
 597 030c 06       		.byte	0x6
 598 030d 2B01     		.2byte	0x12b
 599 030f 17030000 		.4byte	0x317
 600 0313 02       		.byte	0x2
 601 0314 23       		.byte	0x23
 602 0315 00       		.uleb128 0
 603 0316 00       		.byte	0
 604 0317 09       		.uleb128 0x9
 605 0318 04       		.byte	0x4
 606 0319 6C020000 		.4byte	0x26c
 607 031d 04       		.uleb128 0x4
 608 031e 8A020000 		.4byte	.LASF44
 609 0322 07       		.byte	0x7
 610 0323 4E       		.byte	0x4e
 611 0324 28030000 		.4byte	0x328
 612 0328 09       		.uleb128 0x9
 613 0329 04       		.byte	0x4
 614 032a 2E030000 		.4byte	0x32e
 615 032e 0D       		.uleb128 0xd
 616 032f 01       		.byte	0x1
 617 0330 3A030000 		.4byte	0x33a
 618 0334 0E       		.uleb128 0xe
 619 0335 5F020000 		.4byte	0x25f
 620 0339 00       		.byte	0
 621 033a 04       		.uleb128 0x4
 622 033b 4A020000 		.4byte	.LASF45
ARM GAS  /tmp/ccwcHxQL.s 			page 12


 623 033f 07       		.byte	0x7
 624 0340 53       		.byte	0x53
 625 0341 45030000 		.4byte	0x345
 626 0345 05       		.uleb128 0x5
 627 0346 4A020000 		.4byte	.LASF45
 628 034a 14       		.byte	0x14
 629 034b 07       		.byte	0x7
 630 034c 5A       		.byte	0x5a
 631 034d 98030000 		.4byte	0x398
 632 0351 06       		.uleb128 0x6
 633 0352 CB000000 		.4byte	.LASF46
 634 0356 07       		.byte	0x7
 635 0357 5B       		.byte	0x5b
 636 0358 98030000 		.4byte	0x398
 637 035c 02       		.byte	0x2
 638 035d 23       		.byte	0x23
 639 035e 00       		.uleb128 0
 640 035f 06       		.uleb128 0x6
 641 0360 9F000000 		.4byte	.LASF47
 642 0364 07       		.byte	0x7
 643 0365 5D       		.byte	0x5d
 644 0366 98030000 		.4byte	0x398
 645 036a 02       		.byte	0x2
 646 036b 23       		.byte	0x23
 647 036c 04       		.uleb128 0x4
 648 036d 06       		.uleb128 0x6
 649 036e 72010000 		.4byte	.LASF48
 650 0372 07       		.byte	0x7
 651 0373 5F       		.byte	0x5f
 652 0374 DD000000 		.4byte	0xdd
 653 0378 02       		.byte	0x2
 654 0379 23       		.byte	0x23
 655 037a 08       		.uleb128 0x8
 656 037b 06       		.uleb128 0x6
 657 037c 80010000 		.4byte	.LASF49
 658 0380 07       		.byte	0x7
 659 0381 60       		.byte	0x60
 660 0382 1D030000 		.4byte	0x31d
 661 0386 02       		.byte	0x2
 662 0387 23       		.byte	0x23
 663 0388 0C       		.uleb128 0xc
 664 0389 06       		.uleb128 0x6
 665 038a B4020000 		.4byte	.LASF50
 666 038e 07       		.byte	0x7
 667 038f 62       		.byte	0x62
 668 0390 5F020000 		.4byte	0x25f
 669 0394 02       		.byte	0x2
 670 0395 23       		.byte	0x23
 671 0396 10       		.uleb128 0x10
 672 0397 00       		.byte	0
 673 0398 09       		.uleb128 0x9
 674 0399 04       		.byte	0x4
 675 039a 3A030000 		.4byte	0x33a
 676 039e 0F       		.uleb128 0xf
 677 039f DD000000 		.4byte	0xdd
 678 03a3 05       		.uleb128 0x5
 679 03a4 61010000 		.4byte	.LASF51
ARM GAS  /tmp/ccwcHxQL.s 			page 13


 680 03a8 10       		.byte	0x10
 681 03a9 08       		.byte	0x8
 682 03aa 25       		.byte	0x25
 683 03ab DA030000 		.4byte	0x3da
 684 03af 06       		.uleb128 0x6
 685 03b0 74000000 		.4byte	.LASF52
 686 03b4 08       		.byte	0x8
 687 03b5 26       		.byte	0x26
 688 03b6 27020000 		.4byte	0x227
 689 03ba 02       		.byte	0x2
 690 03bb 23       		.byte	0x23
 691 03bc 00       		.uleb128 0
 692 03bd 06       		.uleb128 0x6
 693 03be F9020000 		.4byte	.LASF53
 694 03c2 08       		.byte	0x8
 695 03c3 28       		.byte	0x28
 696 03c4 21020000 		.4byte	0x221
 697 03c8 02       		.byte	0x2
 698 03c9 23       		.byte	0x23
 699 03ca 08       		.uleb128 0x8
 700 03cb 06       		.uleb128 0x6
 701 03cc 6E020000 		.4byte	.LASF54
 702 03d0 08       		.byte	0x8
 703 03d1 2A       		.byte	0x2a
 704 03d2 DA030000 		.4byte	0x3da
 705 03d6 02       		.byte	0x2
 706 03d7 23       		.byte	0x23
 707 03d8 0C       		.uleb128 0xc
 708 03d9 00       		.byte	0
 709 03da 09       		.uleb128 0x9
 710 03db 04       		.byte	0x4
 711 03dc A3030000 		.4byte	0x3a3
 712 03e0 04       		.uleb128 0x4
 713 03e1 61010000 		.4byte	.LASF51
 714 03e5 08       		.byte	0x8
 715 03e6 2C       		.byte	0x2c
 716 03e7 A3030000 		.4byte	0x3a3
 717 03eb 04       		.uleb128 0x4
 718 03ec D7020000 		.4byte	.LASF55
 719 03f0 09       		.byte	0x9
 720 03f1 25       		.byte	0x25
 721 03f2 F6030000 		.4byte	0x3f6
 722 03f6 05       		.uleb128 0x5
 723 03f7 D7020000 		.4byte	.LASF55
 724 03fb 10       		.byte	0x10
 725 03fc 09       		.byte	0x9
 726 03fd 2A       		.byte	0x2a
 727 03fe 3B040000 		.4byte	0x43b
 728 0402 06       		.uleb128 0x6
 729 0403 39010000 		.4byte	.LASF56
 730 0407 09       		.byte	0x9
 731 0408 2B       		.byte	0x2b
 732 0409 3B040000 		.4byte	0x43b
 733 040d 02       		.byte	0x2
 734 040e 23       		.byte	0x23
 735 040f 00       		.uleb128 0
 736 0410 06       		.uleb128 0x6
ARM GAS  /tmp/ccwcHxQL.s 			page 14


 737 0411 E8010000 		.4byte	.LASF57
 738 0415 09       		.byte	0x9
 739 0416 2E       		.byte	0x2e
 740 0417 21020000 		.4byte	0x221
 741 041b 02       		.byte	0x2
 742 041c 23       		.byte	0x23
 743 041d 04       		.uleb128 0x4
 744 041e 06       		.uleb128 0x6
 745 041f 9D010000 		.4byte	.LASF58
 746 0423 09       		.byte	0x9
 747 0424 30       		.byte	0x30
 748 0425 C7000000 		.4byte	0xc7
 749 0429 02       		.byte	0x2
 750 042a 23       		.byte	0x23
 751 042b 08       		.uleb128 0x8
 752 042c 06       		.uleb128 0x6
 753 042d F4010000 		.4byte	.LASF59
 754 0431 09       		.byte	0x9
 755 0432 33       		.byte	0x33
 756 0433 D2000000 		.4byte	0xd2
 757 0437 02       		.byte	0x2
 758 0438 23       		.byte	0x23
 759 0439 0C       		.uleb128 0xc
 760 043a 00       		.byte	0
 761 043b 09       		.uleb128 0x9
 762 043c 04       		.byte	0x4
 763 043d EB030000 		.4byte	0x3eb
 764 0441 05       		.uleb128 0x5
 765 0442 A7000000 		.4byte	.LASF60
 766 0446 04       		.byte	0x4
 767 0447 09       		.byte	0x9
 768 0448 3A       		.byte	0x3a
 769 0449 5C040000 		.4byte	0x45c
 770 044d 06       		.uleb128 0x6
 771 044e C7020000 		.4byte	.LASF61
 772 0452 09       		.byte	0x9
 773 0453 3B       		.byte	0x3b
 774 0454 3B040000 		.4byte	0x43b
 775 0458 02       		.byte	0x2
 776 0459 23       		.byte	0x23
 777 045a 00       		.uleb128 0
 778 045b 00       		.byte	0
 779 045c 04       		.uleb128 0x4
 780 045d A7000000 		.4byte	.LASF60
 781 0461 09       		.byte	0x9
 782 0462 3E       		.byte	0x3e
 783 0463 41040000 		.4byte	0x441
 784 0467 10       		.uleb128 0x10
 785 0468 04       		.byte	0x4
 786 0469 05       		.byte	0x5
 787 046a 8F       		.byte	0x8f
 788 046b 9C040000 		.4byte	0x49c
 789 046f 11       		.uleb128 0x11
 790 0470 12000000 		.4byte	.LASF62
 791 0474 05       		.byte	0x5
 792 0475 96       		.byte	0x96
 793 0476 BC000000 		.4byte	0xbc
ARM GAS  /tmp/ccwcHxQL.s 			page 15


 794 047a 11       		.uleb128 0x11
 795 047b 39000000 		.4byte	.LASF63
 796 047f 05       		.byte	0x5
 797 0480 9D       		.byte	0x9d
 798 0481 BC000000 		.4byte	0xbc
 799 0485 11       		.uleb128 0x11
 800 0486 E5020000 		.4byte	.LASF64
 801 048a 05       		.byte	0x5
 802 048b A4       		.byte	0xa4
 803 048c 5F020000 		.4byte	0x25f
 804 0490 11       		.uleb128 0x11
 805 0491 19020000 		.4byte	.LASF65
 806 0495 05       		.byte	0x5
 807 0496 AB       		.byte	0xab
 808 0497 C7000000 		.4byte	0xc7
 809 049b 00       		.byte	0
 810 049c 09       		.uleb128 0x9
 811 049d 04       		.byte	0x4
 812 049e A2040000 		.4byte	0x4a2
 813 04a2 12       		.uleb128 0x12
 814 04a3 A7040000 		.4byte	0x4a7
 815 04a7 03       		.uleb128 0x3
 816 04a8 01       		.byte	0x1
 817 04a9 08       		.byte	0x8
 818 04aa 63020000 		.4byte	.LASF66
 819 04ae 09       		.uleb128 0x9
 820 04af 04       		.byte	0x4
 821 04b0 61020000 		.4byte	0x261
 822 04b4 09       		.uleb128 0x9
 823 04b5 04       		.byte	0x4
 824 04b6 E0030000 		.4byte	0x3e0
 825 04ba 08       		.uleb128 0x8
 826 04bb 1C       		.byte	0x1c
 827 04bc 0A       		.byte	0xa
 828 04bd 2B       		.byte	0x2b
 829 04be ED040000 		.4byte	0x4ed
 830 04c2 06       		.uleb128 0x6
 831 04c3 F3020000 		.4byte	.LASF67
 832 04c7 0A       		.byte	0xa
 833 04c8 2C       		.byte	0x2c
 834 04c9 3A030000 		.4byte	0x33a
 835 04cd 02       		.byte	0x2
 836 04ce 23       		.byte	0x23
 837 04cf 00       		.uleb128 0
 838 04d0 06       		.uleb128 0x6
 839 04d1 7A010000 		.4byte	.LASF68
 840 04d5 0A       		.byte	0xa
 841 04d6 2D       		.byte	0x2d
 842 04d7 5C040000 		.4byte	0x45c
 843 04db 02       		.byte	0x2
 844 04dc 23       		.byte	0x23
 845 04dd 14       		.uleb128 0x14
 846 04de 06       		.uleb128 0x6
 847 04df 00000000 		.4byte	.LASF69
 848 04e3 0A       		.byte	0xa
 849 04e4 2E       		.byte	0x2e
 850 04e5 DD000000 		.4byte	0xdd
ARM GAS  /tmp/ccwcHxQL.s 			page 16


 851 04e9 02       		.byte	0x2
 852 04ea 23       		.byte	0x23
 853 04eb 18       		.uleb128 0x18
 854 04ec 00       		.byte	0
 855 04ed 04       		.uleb128 0x4
 856 04ee 6C000000 		.4byte	.LASF70
 857 04f2 0A       		.byte	0xa
 858 04f3 2F       		.byte	0x2f
 859 04f4 BA040000 		.4byte	0x4ba
 860 04f8 13       		.uleb128 0x13
 861 04f9 68020000 		.4byte	.LASF74
 862 04fd 01       		.byte	0x1
 863 04fe 20       		.byte	0x20
 864 04ff 01       		.byte	0x1
 865 0500 00000000 		.4byte	.LFB0
 866 0504 32000000 		.4byte	.LFE0
 867 0508 00000000 		.4byte	.LLST0
 868 050c 2D050000 		.4byte	0x52d
 869 0510 14       		.uleb128 0x14
 870 0511 7000     		.ascii	"p\000"
 871 0513 01       		.byte	0x1
 872 0514 20       		.byte	0x20
 873 0515 5F020000 		.4byte	0x25f
 874 0519 20000000 		.4byte	.LLST1
 875 051d 15       		.uleb128 0x15
 876 051e 65747000 		.ascii	"etp\000"
 877 0522 01       		.byte	0x1
 878 0523 21       		.byte	0x21
 879 0524 2D050000 		.4byte	0x52d
 880 0528 3E000000 		.4byte	.LLST2
 881 052c 00       		.byte	0
 882 052d 09       		.uleb128 0x9
 883 052e 04       		.byte	0x4
 884 052f ED040000 		.4byte	0x4ed
 885 0533 16       		.uleb128 0x16
 886 0534 01       		.byte	0x1
 887 0535 42000000 		.4byte	.LASF75
 888 0539 01       		.byte	0x1
 889 053a 2F       		.byte	0x2f
 890 053b 01       		.byte	0x1
 891 053c 00000000 		.4byte	.LFB1
 892 0540 36000000 		.4byte	.LFE1
 893 0544 5C000000 		.4byte	.LLST3
 894 0548 5C050000 		.4byte	0x55c
 895 054c 14       		.uleb128 0x14
 896 054d 65747000 		.ascii	"etp\000"
 897 0551 01       		.byte	0x1
 898 0552 2F       		.byte	0x2f
 899 0553 2D050000 		.4byte	0x52d
 900 0557 7C000000 		.4byte	.LLST4
 901 055b 00       		.byte	0
 902 055c 17       		.uleb128 0x17
 903 055d 01       		.byte	0x1
 904 055e 93020000 		.4byte	.LASF76
 905 0562 01       		.byte	0x1
 906 0563 3F       		.byte	0x3f
 907 0564 01       		.byte	0x1
ARM GAS  /tmp/ccwcHxQL.s 			page 17


 908 0565 00000000 		.4byte	.LFB2
 909 0569 20000000 		.4byte	.LFE2
 910 056d 9A000000 		.4byte	.LLST5
 911 0571 14       		.uleb128 0x14
 912 0572 65747000 		.ascii	"etp\000"
 913 0576 01       		.byte	0x1
 914 0577 3F       		.byte	0x3f
 915 0578 2D050000 		.4byte	0x52d
 916 057c BA000000 		.4byte	.LLST6
 917 0580 00       		.byte	0
 918 0581 00       		.byte	0
 919              		.section	.debug_abbrev,"",%progbits
 920              	.Ldebug_abbrev0:
 921 0000 01       		.uleb128 0x1
 922 0001 11       		.uleb128 0x11
 923 0002 01       		.byte	0x1
 924 0003 25       		.uleb128 0x25
 925 0004 0E       		.uleb128 0xe
 926 0005 13       		.uleb128 0x13
 927 0006 0B       		.uleb128 0xb
 928 0007 03       		.uleb128 0x3
 929 0008 0E       		.uleb128 0xe
 930 0009 1B       		.uleb128 0x1b
 931 000a 0E       		.uleb128 0xe
 932 000b 11       		.uleb128 0x11
 933 000c 01       		.uleb128 0x1
 934 000d 52       		.uleb128 0x52
 935 000e 01       		.uleb128 0x1
 936 000f 55       		.uleb128 0x55
 937 0010 06       		.uleb128 0x6
 938 0011 10       		.uleb128 0x10
 939 0012 06       		.uleb128 0x6
 940 0013 00       		.byte	0
 941 0014 00       		.byte	0
 942 0015 02       		.uleb128 0x2
 943 0016 24       		.uleb128 0x24
 944 0017 00       		.byte	0
 945 0018 0B       		.uleb128 0xb
 946 0019 0B       		.uleb128 0xb
 947 001a 3E       		.uleb128 0x3e
 948 001b 0B       		.uleb128 0xb
 949 001c 03       		.uleb128 0x3
 950 001d 08       		.uleb128 0x8
 951 001e 00       		.byte	0
 952 001f 00       		.byte	0
 953 0020 03       		.uleb128 0x3
 954 0021 24       		.uleb128 0x24
 955 0022 00       		.byte	0
 956 0023 0B       		.uleb128 0xb
 957 0024 0B       		.uleb128 0xb
 958 0025 3E       		.uleb128 0x3e
 959 0026 0B       		.uleb128 0xb
 960 0027 03       		.uleb128 0x3
 961 0028 0E       		.uleb128 0xe
 962 0029 00       		.byte	0
 963 002a 00       		.byte	0
 964 002b 04       		.uleb128 0x4
ARM GAS  /tmp/ccwcHxQL.s 			page 18


 965 002c 16       		.uleb128 0x16
 966 002d 00       		.byte	0
 967 002e 03       		.uleb128 0x3
 968 002f 0E       		.uleb128 0xe
 969 0030 3A       		.uleb128 0x3a
 970 0031 0B       		.uleb128 0xb
 971 0032 3B       		.uleb128 0x3b
 972 0033 0B       		.uleb128 0xb
 973 0034 49       		.uleb128 0x49
 974 0035 13       		.uleb128 0x13
 975 0036 00       		.byte	0
 976 0037 00       		.byte	0
 977 0038 05       		.uleb128 0x5
 978 0039 13       		.uleb128 0x13
 979 003a 01       		.byte	0x1
 980 003b 03       		.uleb128 0x3
 981 003c 0E       		.uleb128 0xe
 982 003d 0B       		.uleb128 0xb
 983 003e 0B       		.uleb128 0xb
 984 003f 3A       		.uleb128 0x3a
 985 0040 0B       		.uleb128 0xb
 986 0041 3B       		.uleb128 0x3b
 987 0042 0B       		.uleb128 0xb
 988 0043 01       		.uleb128 0x1
 989 0044 13       		.uleb128 0x13
 990 0045 00       		.byte	0
 991 0046 00       		.byte	0
 992 0047 06       		.uleb128 0x6
 993 0048 0D       		.uleb128 0xd
 994 0049 00       		.byte	0
 995 004a 03       		.uleb128 0x3
 996 004b 0E       		.uleb128 0xe
 997 004c 3A       		.uleb128 0x3a
 998 004d 0B       		.uleb128 0xb
 999 004e 3B       		.uleb128 0x3b
 1000 004f 0B       		.uleb128 0xb
 1001 0050 49       		.uleb128 0x49
 1002 0051 13       		.uleb128 0x13
 1003 0052 38       		.uleb128 0x38
 1004 0053 0A       		.uleb128 0xa
 1005 0054 00       		.byte	0
 1006 0055 00       		.byte	0
 1007 0056 07       		.uleb128 0x7
 1008 0057 0D       		.uleb128 0xd
 1009 0058 00       		.byte	0
 1010 0059 03       		.uleb128 0x3
 1011 005a 08       		.uleb128 0x8
 1012 005b 3A       		.uleb128 0x3a
 1013 005c 0B       		.uleb128 0xb
 1014 005d 3B       		.uleb128 0x3b
 1015 005e 0B       		.uleb128 0xb
 1016 005f 49       		.uleb128 0x49
 1017 0060 13       		.uleb128 0x13
 1018 0061 38       		.uleb128 0x38
 1019 0062 0A       		.uleb128 0xa
 1020 0063 00       		.byte	0
 1021 0064 00       		.byte	0
ARM GAS  /tmp/ccwcHxQL.s 			page 19


 1022 0065 08       		.uleb128 0x8
 1023 0066 13       		.uleb128 0x13
 1024 0067 01       		.byte	0x1
 1025 0068 0B       		.uleb128 0xb
 1026 0069 0B       		.uleb128 0xb
 1027 006a 3A       		.uleb128 0x3a
 1028 006b 0B       		.uleb128 0xb
 1029 006c 3B       		.uleb128 0x3b
 1030 006d 0B       		.uleb128 0xb
 1031 006e 01       		.uleb128 0x1
 1032 006f 13       		.uleb128 0x13
 1033 0070 00       		.byte	0
 1034 0071 00       		.byte	0
 1035 0072 09       		.uleb128 0x9
 1036 0073 0F       		.uleb128 0xf
 1037 0074 00       		.byte	0
 1038 0075 0B       		.uleb128 0xb
 1039 0076 0B       		.uleb128 0xb
 1040 0077 49       		.uleb128 0x49
 1041 0078 13       		.uleb128 0x13
 1042 0079 00       		.byte	0
 1043 007a 00       		.byte	0
 1044 007b 0A       		.uleb128 0xa
 1045 007c 0F       		.uleb128 0xf
 1046 007d 00       		.byte	0
 1047 007e 0B       		.uleb128 0xb
 1048 007f 0B       		.uleb128 0xb
 1049 0080 00       		.byte	0
 1050 0081 00       		.byte	0
 1051 0082 0B       		.uleb128 0xb
 1052 0083 13       		.uleb128 0x13
 1053 0084 01       		.byte	0x1
 1054 0085 03       		.uleb128 0x3
 1055 0086 0E       		.uleb128 0xe
 1056 0087 0B       		.uleb128 0xb
 1057 0088 0B       		.uleb128 0xb
 1058 0089 3A       		.uleb128 0x3a
 1059 008a 0B       		.uleb128 0xb
 1060 008b 3B       		.uleb128 0x3b
 1061 008c 05       		.uleb128 0x5
 1062 008d 01       		.uleb128 0x1
 1063 008e 13       		.uleb128 0x13
 1064 008f 00       		.byte	0
 1065 0090 00       		.byte	0
 1066 0091 0C       		.uleb128 0xc
 1067 0092 0D       		.uleb128 0xd
 1068 0093 00       		.byte	0
 1069 0094 03       		.uleb128 0x3
 1070 0095 08       		.uleb128 0x8
 1071 0096 3A       		.uleb128 0x3a
 1072 0097 0B       		.uleb128 0xb
 1073 0098 3B       		.uleb128 0x3b
 1074 0099 05       		.uleb128 0x5
 1075 009a 49       		.uleb128 0x49
 1076 009b 13       		.uleb128 0x13
 1077 009c 38       		.uleb128 0x38
 1078 009d 0A       		.uleb128 0xa
ARM GAS  /tmp/ccwcHxQL.s 			page 20


 1079 009e 00       		.byte	0
 1080 009f 00       		.byte	0
 1081 00a0 0D       		.uleb128 0xd
 1082 00a1 15       		.uleb128 0x15
 1083 00a2 01       		.byte	0x1
 1084 00a3 27       		.uleb128 0x27
 1085 00a4 0C       		.uleb128 0xc
 1086 00a5 01       		.uleb128 0x1
 1087 00a6 13       		.uleb128 0x13
 1088 00a7 00       		.byte	0
 1089 00a8 00       		.byte	0
 1090 00a9 0E       		.uleb128 0xe
 1091 00aa 05       		.uleb128 0x5
 1092 00ab 00       		.byte	0
 1093 00ac 49       		.uleb128 0x49
 1094 00ad 13       		.uleb128 0x13
 1095 00ae 00       		.byte	0
 1096 00af 00       		.byte	0
 1097 00b0 0F       		.uleb128 0xf
 1098 00b1 35       		.uleb128 0x35
 1099 00b2 00       		.byte	0
 1100 00b3 49       		.uleb128 0x49
 1101 00b4 13       		.uleb128 0x13
 1102 00b5 00       		.byte	0
 1103 00b6 00       		.byte	0
 1104 00b7 10       		.uleb128 0x10
 1105 00b8 17       		.uleb128 0x17
 1106 00b9 01       		.byte	0x1
 1107 00ba 0B       		.uleb128 0xb
 1108 00bb 0B       		.uleb128 0xb
 1109 00bc 3A       		.uleb128 0x3a
 1110 00bd 0B       		.uleb128 0xb
 1111 00be 3B       		.uleb128 0x3b
 1112 00bf 0B       		.uleb128 0xb
 1113 00c0 01       		.uleb128 0x1
 1114 00c1 13       		.uleb128 0x13
 1115 00c2 00       		.byte	0
 1116 00c3 00       		.byte	0
 1117 00c4 11       		.uleb128 0x11
 1118 00c5 0D       		.uleb128 0xd
 1119 00c6 00       		.byte	0
 1120 00c7 03       		.uleb128 0x3
 1121 00c8 0E       		.uleb128 0xe
 1122 00c9 3A       		.uleb128 0x3a
 1123 00ca 0B       		.uleb128 0xb
 1124 00cb 3B       		.uleb128 0x3b
 1125 00cc 0B       		.uleb128 0xb
 1126 00cd 49       		.uleb128 0x49
 1127 00ce 13       		.uleb128 0x13
 1128 00cf 00       		.byte	0
 1129 00d0 00       		.byte	0
 1130 00d1 12       		.uleb128 0x12
 1131 00d2 26       		.uleb128 0x26
 1132 00d3 00       		.byte	0
 1133 00d4 49       		.uleb128 0x49
 1134 00d5 13       		.uleb128 0x13
 1135 00d6 00       		.byte	0
ARM GAS  /tmp/ccwcHxQL.s 			page 21


 1136 00d7 00       		.byte	0
 1137 00d8 13       		.uleb128 0x13
 1138 00d9 2E       		.uleb128 0x2e
 1139 00da 01       		.byte	0x1
 1140 00db 03       		.uleb128 0x3
 1141 00dc 0E       		.uleb128 0xe
 1142 00dd 3A       		.uleb128 0x3a
 1143 00de 0B       		.uleb128 0xb
 1144 00df 3B       		.uleb128 0x3b
 1145 00e0 0B       		.uleb128 0xb
 1146 00e1 27       		.uleb128 0x27
 1147 00e2 0C       		.uleb128 0xc
 1148 00e3 11       		.uleb128 0x11
 1149 00e4 01       		.uleb128 0x1
 1150 00e5 12       		.uleb128 0x12
 1151 00e6 01       		.uleb128 0x1
 1152 00e7 40       		.uleb128 0x40
 1153 00e8 06       		.uleb128 0x6
 1154 00e9 01       		.uleb128 0x1
 1155 00ea 13       		.uleb128 0x13
 1156 00eb 00       		.byte	0
 1157 00ec 00       		.byte	0
 1158 00ed 14       		.uleb128 0x14
 1159 00ee 05       		.uleb128 0x5
 1160 00ef 00       		.byte	0
 1161 00f0 03       		.uleb128 0x3
 1162 00f1 08       		.uleb128 0x8
 1163 00f2 3A       		.uleb128 0x3a
 1164 00f3 0B       		.uleb128 0xb
 1165 00f4 3B       		.uleb128 0x3b
 1166 00f5 0B       		.uleb128 0xb
 1167 00f6 49       		.uleb128 0x49
 1168 00f7 13       		.uleb128 0x13
 1169 00f8 02       		.uleb128 0x2
 1170 00f9 06       		.uleb128 0x6
 1171 00fa 00       		.byte	0
 1172 00fb 00       		.byte	0
 1173 00fc 15       		.uleb128 0x15
 1174 00fd 34       		.uleb128 0x34
 1175 00fe 00       		.byte	0
 1176 00ff 03       		.uleb128 0x3
 1177 0100 08       		.uleb128 0x8
 1178 0101 3A       		.uleb128 0x3a
 1179 0102 0B       		.uleb128 0xb
 1180 0103 3B       		.uleb128 0x3b
 1181 0104 0B       		.uleb128 0xb
 1182 0105 49       		.uleb128 0x49
 1183 0106 13       		.uleb128 0x13
 1184 0107 02       		.uleb128 0x2
 1185 0108 06       		.uleb128 0x6
 1186 0109 00       		.byte	0
 1187 010a 00       		.byte	0
 1188 010b 16       		.uleb128 0x16
 1189 010c 2E       		.uleb128 0x2e
 1190 010d 01       		.byte	0x1
 1191 010e 3F       		.uleb128 0x3f
 1192 010f 0C       		.uleb128 0xc
ARM GAS  /tmp/ccwcHxQL.s 			page 22


 1193 0110 03       		.uleb128 0x3
 1194 0111 0E       		.uleb128 0xe
 1195 0112 3A       		.uleb128 0x3a
 1196 0113 0B       		.uleb128 0xb
 1197 0114 3B       		.uleb128 0x3b
 1198 0115 0B       		.uleb128 0xb
 1199 0116 27       		.uleb128 0x27
 1200 0117 0C       		.uleb128 0xc
 1201 0118 11       		.uleb128 0x11
 1202 0119 01       		.uleb128 0x1
 1203 011a 12       		.uleb128 0x12
 1204 011b 01       		.uleb128 0x1
 1205 011c 40       		.uleb128 0x40
 1206 011d 06       		.uleb128 0x6
 1207 011e 01       		.uleb128 0x1
 1208 011f 13       		.uleb128 0x13
 1209 0120 00       		.byte	0
 1210 0121 00       		.byte	0
 1211 0122 17       		.uleb128 0x17
 1212 0123 2E       		.uleb128 0x2e
 1213 0124 01       		.byte	0x1
 1214 0125 3F       		.uleb128 0x3f
 1215 0126 0C       		.uleb128 0xc
 1216 0127 03       		.uleb128 0x3
 1217 0128 0E       		.uleb128 0xe
 1218 0129 3A       		.uleb128 0x3a
 1219 012a 0B       		.uleb128 0xb
 1220 012b 3B       		.uleb128 0x3b
 1221 012c 0B       		.uleb128 0xb
 1222 012d 27       		.uleb128 0x27
 1223 012e 0C       		.uleb128 0xc
 1224 012f 11       		.uleb128 0x11
 1225 0130 01       		.uleb128 0x1
 1226 0131 12       		.uleb128 0x12
 1227 0132 01       		.uleb128 0x1
 1228 0133 40       		.uleb128 0x40
 1229 0134 06       		.uleb128 0x6
 1230 0135 00       		.byte	0
 1231 0136 00       		.byte	0
 1232 0137 00       		.byte	0
 1233              		.section	.debug_loc,"",%progbits
 1234              	.Ldebug_loc0:
 1235              	.LLST0:
 1236 0000 00000000 		.4byte	.LFB0
 1237 0004 02000000 		.4byte	.LCFI0
 1238 0008 0200     		.2byte	0x2
 1239 000a 7D       		.byte	0x7d
 1240 000b 00       		.sleb128 0
 1241 000c 02000000 		.4byte	.LCFI0
 1242 0010 32000000 		.4byte	.LFE0
 1243 0014 0200     		.2byte	0x2
 1244 0016 7D       		.byte	0x7d
 1245 0017 08       		.sleb128 8
 1246 0018 00000000 		.4byte	0
 1247 001c 00000000 		.4byte	0
 1248              	.LLST1:
 1249 0020 00000000 		.4byte	.LVL0
ARM GAS  /tmp/ccwcHxQL.s 			page 23


 1250 0024 0B000000 		.4byte	.LVL2-1
 1251 0028 0100     		.2byte	0x1
 1252 002a 50       		.byte	0x50
 1253 002b 0B000000 		.4byte	.LVL2-1
 1254 002f 32000000 		.4byte	.LFE0
 1255 0033 0100     		.2byte	0x1
 1256 0035 54       		.byte	0x54
 1257 0036 00000000 		.4byte	0
 1258 003a 00000000 		.4byte	0
 1259              	.LLST2:
 1260 003e 04000000 		.4byte	.LVL1
 1261 0042 0B000000 		.4byte	.LVL2-1
 1262 0046 0100     		.2byte	0x1
 1263 0048 50       		.byte	0x50
 1264 0049 0B000000 		.4byte	.LVL2-1
 1265 004d 32000000 		.4byte	.LFE0
 1266 0051 0100     		.2byte	0x1
 1267 0053 54       		.byte	0x54
 1268 0054 00000000 		.4byte	0
 1269 0058 00000000 		.4byte	0
 1270              	.LLST3:
 1271 005c 00000000 		.4byte	.LFB1
 1272 0060 02000000 		.4byte	.LCFI1
 1273 0064 0200     		.2byte	0x2
 1274 0066 7D       		.byte	0x7d
 1275 0067 00       		.sleb128 0
 1276 0068 02000000 		.4byte	.LCFI1
 1277 006c 36000000 		.4byte	.LFE1
 1278 0070 0200     		.2byte	0x2
 1279 0072 7D       		.byte	0x7d
 1280 0073 08       		.sleb128 8
 1281 0074 00000000 		.4byte	0
 1282 0078 00000000 		.4byte	0
 1283              	.LLST4:
 1284 007c 00000000 		.4byte	.LVL3
 1285 0080 0B000000 		.4byte	.LVL4-1
 1286 0084 0100     		.2byte	0x1
 1287 0086 50       		.byte	0x50
 1288 0087 0B000000 		.4byte	.LVL4-1
 1289 008b 36000000 		.4byte	.LFE1
 1290 008f 0100     		.2byte	0x1
 1291 0091 54       		.byte	0x54
 1292 0092 00000000 		.4byte	0
 1293 0096 00000000 		.4byte	0
 1294              	.LLST5:
 1295 009a 00000000 		.4byte	.LFB2
 1296 009e 02000000 		.4byte	.LCFI2
 1297 00a2 0200     		.2byte	0x2
 1298 00a4 7D       		.byte	0x7d
 1299 00a5 00       		.sleb128 0
 1300 00a6 02000000 		.4byte	.LCFI2
 1301 00aa 20000000 		.4byte	.LFE2
 1302 00ae 0200     		.2byte	0x2
 1303 00b0 7D       		.byte	0x7d
 1304 00b1 08       		.sleb128 8
 1305 00b2 00000000 		.4byte	0
 1306 00b6 00000000 		.4byte	0
ARM GAS  /tmp/ccwcHxQL.s 			page 24


 1307              	.LLST6:
 1308 00ba 00000000 		.4byte	.LVL5
 1309 00be 0B000000 		.4byte	.LVL6-1
 1310 00c2 0100     		.2byte	0x1
 1311 00c4 50       		.byte	0x50
 1312 00c5 0B000000 		.4byte	.LVL6-1
 1313 00c9 20000000 		.4byte	.LFE2
 1314 00cd 0100     		.2byte	0x1
 1315 00cf 54       		.byte	0x54
 1316 00d0 00000000 		.4byte	0
 1317 00d4 00000000 		.4byte	0
 1318              		.section	.debug_aranges,"",%progbits
 1319 0000 2C000000 		.4byte	0x2c
 1320 0004 0200     		.2byte	0x2
 1321 0006 00000000 		.4byte	.Ldebug_info0
 1322 000a 04       		.byte	0x4
 1323 000b 00       		.byte	0
 1324 000c 0000     		.2byte	0
 1325 000e 0000     		.2byte	0
 1326 0010 00000000 		.4byte	.LFB0
 1327 0014 32000000 		.4byte	.LFE0-.LFB0
 1328 0018 00000000 		.4byte	.LFB1
 1329 001c 36000000 		.4byte	.LFE1-.LFB1
 1330 0020 00000000 		.4byte	.LFB2
 1331 0024 20000000 		.4byte	.LFE2-.LFB2
 1332 0028 00000000 		.4byte	0
 1333 002c 00000000 		.4byte	0
 1334              		.section	.debug_ranges,"",%progbits
 1335              	.Ldebug_ranges0:
 1336 0000 00000000 		.4byte	.LFB0
 1337 0004 32000000 		.4byte	.LFE0
 1338 0008 00000000 		.4byte	.LFB1
 1339 000c 36000000 		.4byte	.LFE1
 1340 0010 00000000 		.4byte	.LFB2
 1341 0014 20000000 		.4byte	.LFE2
 1342 0018 00000000 		.4byte	0
 1343 001c 00000000 		.4byte	0
 1344              		.section	.debug_line,"",%progbits
 1345              	.Ldebug_line0:
 1346 0000 9C010000 		.section	.debug_str,"MS",%progbits,1
 1346      02004801 
 1346      00000201 
 1346      FB0E0D00 
 1346      01010101 
 1347              	.LASF69:
 1348 0000 65745F69 		.ascii	"et_interval\000"
 1348      6E746572 
 1348      76616C00 
 1349              	.LASF34:
 1350 000c 705F6D73 		.ascii	"p_msg\000"
 1350      6700
 1351              	.LASF62:
 1352 0012 7264796D 		.ascii	"rdymsg\000"
 1352      736700
 1353              	.LASF11:
 1354 0019 75696E74 		.ascii	"uint64_t\000"
 1354      36345F74 
ARM GAS  /tmp/ccwcHxQL.s 			page 25


 1354      00
 1355              	.LASF12:
 1356 0022 6C6F6E67 		.ascii	"long long unsigned int\000"
 1356      206C6F6E 
 1356      6720756E 
 1356      7369676E 
 1356      65642069 
 1357              	.LASF63:
 1358 0039 65786974 		.ascii	"exitcode\000"
 1358      636F6465 
 1358      00
 1359              	.LASF75:
 1360 0042 65767453 		.ascii	"evtStart\000"
 1360      74617274 
 1360      00
 1361              	.LASF23:
 1362 004b 705F7072 		.ascii	"p_prio\000"
 1362      696F00
 1363              	.LASF10:
 1364 0052 6C6F6E67 		.ascii	"long long int\000"
 1364      206C6F6E 
 1364      6720696E 
 1364      7400
 1365              	.LASF1:
 1366 0060 7369676E 		.ascii	"signed char\000"
 1366      65642063 
 1366      68617200 
 1367              	.LASF70:
 1368 006c 45765469 		.ascii	"EvTimer\000"
 1368      6D657200 
 1369              	.LASF52:
 1370 0074 6D5F7175 		.ascii	"m_queue\000"
 1370      65756500 
 1371              	.LASF7:
 1372 007c 6C6F6E67 		.ascii	"long int\000"
 1372      20696E74 
 1372      00
 1373              	.LASF14:
 1374 0085 74737461 		.ascii	"tstate_t\000"
 1374      74655F74 
 1374      00
 1375              	.LASF25:
 1376 008e 705F6E65 		.ascii	"p_newer\000"
 1376      77657200 
 1377              	.LASF40:
 1378 0096 72656761 		.ascii	"regarm_t\000"
 1378      726D5F74 
 1378      00
 1379              	.LASF47:
 1380 009f 76745F70 		.ascii	"vt_prev\000"
 1380      72657600 
 1381              	.LASF60:
 1382 00a7 4576656E 		.ascii	"EventSource\000"
 1382      74536F75 
 1382      72636500 
 1383              	.LASF28:
 1384 00b3 705F7374 		.ascii	"p_stklimit\000"
ARM GAS  /tmp/ccwcHxQL.s 			page 26


 1384      6B6C696D 
 1384      697400
 1385              	.LASF0:
 1386 00be 756E7369 		.ascii	"unsigned int\000"
 1386      676E6564 
 1386      20696E74 
 1386      00
 1387              	.LASF46:
 1388 00cb 76745F6E 		.ascii	"vt_next\000"
 1388      65787400 
 1389              	.LASF9:
 1390 00d3 6C6F6E67 		.ascii	"long unsigned int\000"
 1390      20756E73 
 1390      69676E65 
 1390      6420696E 
 1390      7400
 1391              	.LASF43:
 1392 00e5 636F6E74 		.ascii	"context\000"
 1392      65787400 
 1393              	.LASF73:
 1394 00ed 2F686F6D 		.ascii	"/home/prana/workspace/eth/ch/testhal/STM32F4xx/RTC\000"
 1394      652F7072 
 1394      616E612F 
 1394      776F726B 
 1394      73706163 
 1395              	.LASF4:
 1396 0120 73686F72 		.ascii	"short unsigned int\000"
 1396      7420756E 
 1396      7369676E 
 1396      65642069 
 1396      6E7400
 1397              	.LASF16:
 1398 0133 6D73675F 		.ascii	"msg_t\000"
 1398      7400
 1399              	.LASF56:
 1400 0139 656C5F6E 		.ascii	"el_next\000"
 1400      65787400 
 1401              	.LASF13:
 1402 0141 746D6F64 		.ascii	"tmode_t\000"
 1402      655F7400 
 1403              	.LASF39:
 1404 0149 54687265 		.ascii	"ThreadsList\000"
 1404      6164734C 
 1404      69737400 
 1405              	.LASF17:
 1406 0155 6576656E 		.ascii	"eventmask_t\000"
 1406      746D6173 
 1406      6B5F7400 
 1407              	.LASF51:
 1408 0161 4D757465 		.ascii	"Mutex\000"
 1408      7800
 1409              	.LASF41:
 1410 0167 73746B61 		.ascii	"stkalign_t\000"
 1410      6C69676E 
 1410      5F7400
 1411              	.LASF48:
 1412 0172 76745F74 		.ascii	"vt_time\000"
ARM GAS  /tmp/ccwcHxQL.s 			page 27


 1412      696D6500 
 1413              	.LASF68:
 1414 017a 65745F65 		.ascii	"et_es\000"
 1414      7300
 1415              	.LASF49:
 1416 0180 76745F66 		.ascii	"vt_func\000"
 1416      756E6300 
 1417              	.LASF26:
 1418 0188 705F6F6C 		.ascii	"p_older\000"
 1418      64657200 
 1419              	.LASF38:
 1420 0190 54687265 		.ascii	"ThreadsQueue\000"
 1420      61647351 
 1420      75657565 
 1420      00
 1421              	.LASF58:
 1422 019d 656C5F6D 		.ascii	"el_mask\000"
 1422      61736B00 
 1423              	.LASF72:
 1424 01a5 2E2E2F2E 		.ascii	"../../../os/various/evtimer.c\000"
 1424      2E2F2E2E 
 1424      2F6F732F 
 1424      76617269 
 1424      6F75732F 
 1425              	.LASF22:
 1426 01c3 705F7072 		.ascii	"p_prev\000"
 1426      657600
 1427              	.LASF15:
 1428 01ca 74707269 		.ascii	"tprio_t\000"
 1428      6F5F7400 
 1429              	.LASF6:
 1430 01d2 696E7433 		.ascii	"int32_t\000"
 1430      325F7400 
 1431              	.LASF2:
 1432 01da 756E7369 		.ascii	"unsigned char\000"
 1432      676E6564 
 1432      20636861 
 1432      7200
 1433              	.LASF57:
 1434 01e8 656C5F6C 		.ascii	"el_listener\000"
 1434      69737465 
 1434      6E657200 
 1435              	.LASF59:
 1436 01f4 656C5F66 		.ascii	"el_flags\000"
 1436      6C616773 
 1436      00
 1437              	.LASF36:
 1438 01fd 705F6D74 		.ascii	"p_mtxlist\000"
 1438      786C6973 
 1438      7400
 1439              	.LASF3:
 1440 0207 73686F72 		.ascii	"short int\000"
 1440      7420696E 
 1440      7400
 1441              	.LASF29:
 1442 0211 705F7374 		.ascii	"p_state\000"
 1442      61746500 
ARM GAS  /tmp/ccwcHxQL.s 			page 28


 1443              	.LASF65:
 1444 0219 65776D61 		.ascii	"ewmask\000"
 1444      736B00
 1445              	.LASF21:
 1446 0220 705F6E65 		.ascii	"p_next\000"
 1446      787400
 1447              	.LASF30:
 1448 0227 705F666C 		.ascii	"p_flags\000"
 1448      61677300 
 1449              	.LASF20:
 1450 022f 54687265 		.ascii	"Thread\000"
 1450      616400
 1451              	.LASF35:
 1452 0236 705F6570 		.ascii	"p_epending\000"
 1452      656E6469 
 1452      6E6700
 1453              	.LASF8:
 1454 0241 75696E74 		.ascii	"uint32_t\000"
 1454      33325F74 
 1454      00
 1455              	.LASF45:
 1456 024a 56697274 		.ascii	"VirtualTimer\000"
 1456      75616C54 
 1456      696D6572 
 1456      00
 1457              	.LASF71:
 1458 0257 474E5520 		.ascii	"GNU C 4.6.3\000"
 1458      4320342E 
 1458      362E3300 
 1459              	.LASF66:
 1460 0263 63686172 		.ascii	"char\000"
 1460      00
 1461              	.LASF74:
 1462 0268 746D7263 		.ascii	"tmrcb\000"
 1462      6200
 1463              	.LASF54:
 1464 026e 6D5F6E65 		.ascii	"m_next\000"
 1464      787400
 1465              	.LASF19:
 1466 0275 73797374 		.ascii	"systime_t\000"
 1466      696D655F 
 1466      7400
 1467              	.LASF37:
 1468 027f 705F7265 		.ascii	"p_realprio\000"
 1468      616C7072 
 1468      696F00
 1469              	.LASF44:
 1470 028a 76746675 		.ascii	"vtfunc_t\000"
 1470      6E635F74 
 1470      00
 1471              	.LASF76:
 1472 0293 65767453 		.ascii	"evtStop\000"
 1472      746F7000 
 1473              	.LASF31:
 1474 029b 705F7469 		.ascii	"p_time\000"
 1474      6D6500
 1475              	.LASF42:
ARM GAS  /tmp/ccwcHxQL.s 			page 29


 1476 02a2 696E7463 		.ascii	"intctx\000"
 1476      747800
 1477              	.LASF33:
 1478 02a9 705F6D73 		.ascii	"p_msgqueue\000"
 1478      67717565 
 1478      756500
 1479              	.LASF50:
 1480 02b4 76745F70 		.ascii	"vt_par\000"
 1480      617200
 1481              	.LASF18:
 1482 02bb 666C6167 		.ascii	"flagsmask_t\000"
 1482      736D6173 
 1482      6B5F7400 
 1483              	.LASF61:
 1484 02c7 65735F6E 		.ascii	"es_next\000"
 1484      65787400 
 1485              	.LASF5:
 1486 02cf 75696E74 		.ascii	"uint8_t\000"
 1486      385F7400 
 1487              	.LASF55:
 1488 02d7 4576656E 		.ascii	"EventListener\000"
 1488      744C6973 
 1488      74656E65 
 1488      7200
 1489              	.LASF64:
 1490 02e5 77746F62 		.ascii	"wtobjp\000"
 1490      6A7000
 1491              	.LASF27:
 1492 02ec 705F6E61 		.ascii	"p_name\000"
 1492      6D6500
 1493              	.LASF67:
 1494 02f3 65745F76 		.ascii	"et_vt\000"
 1494      7400
 1495              	.LASF53:
 1496 02f9 6D5F6F77 		.ascii	"m_owner\000"
 1496      6E657200 
 1497              	.LASF24:
 1498 0301 705F6374 		.ascii	"p_ctx\000"
 1498      7800
 1499              	.LASF32:
 1500 0307 705F7761 		.ascii	"p_waiting\000"
 1500      6974696E 
 1500      6700
 1501              		.ident	"GCC: (Sourcery CodeBench Lite 2012.03-56) 4.6.3"
ARM GAS  /tmp/ccwcHxQL.s 			page 30


DEFINED SYMBOLS
                            *ABS*:00000000 evtimer.c
     /tmp/ccwcHxQL.s:19     .text.tmrcb:00000000 $t
     /tmp/ccwcHxQL.s:24     .text.tmrcb:00000000 tmrcb
     /tmp/ccwcHxQL.s:70     .text.evtStart:00000000 $t
     /tmp/ccwcHxQL.s:76     .text.evtStart:00000000 evtStart
     /tmp/ccwcHxQL.s:128    .text.evtStop:00000000 $t
     /tmp/ccwcHxQL.s:134    .text.evtStop:00000000 evtStop
                     .debug_frame:00000010 $d

UNDEFINED SYMBOLS
_port_lock
dbg_check_lock_from_isr
chEvtBroadcastFlagsI
chVTSetI
dbg_check_unlock_from_isr
_port_unlock
dbg_check_lock
dbg_check_unlock
chVTResetI
