ARM GAS  /tmp/ccwcHxQL.s 			page 1


   1              		.syntax unified
   2              		.cpu cortex-m4
   3              		.fpu softvfp
   4              		.eabi_attribute 20, 1
   5              		.eabi_attribute 21, 1
   6              		.eabi_attribute 23, 3
   7              		.eabi_attribute 24, 1
   8              		.eabi_attribute 25, 1
   9              		.eabi_attribute 26, 1
  10              		.eabi_attribute 30, 2
  11              		.eabi_attribute 34, 1
  12              		.eabi_attribute 18, 4
  13              		.thumb
  14              		.file	"evtimer.c"
  15              		.text
  16              	.Ltext0:
  17              		.cfi_sections	.debug_frame
  18              		.section	.text.tmrcb,"ax",%progbits
  19              		.align	2
  20              		.p2align 4,,15
  21              		.thumb
  22              		.thumb_func
  23              		.type	tmrcb, %function
  24              	tmrcb:
  25              	.LFB0:
  26              		.file 1 "../../../os/various/evtimer.c"
  27              		.loc 1 32 0
  28              		.cfi_startproc
  29              		@ args = 0, pretend = 0, frame = 0
  30              		@ frame_needed = 0, uses_anonymous_args = 0
  31              	.LVL0:
  32 0000 10B5     		push	{r4, lr}
  33              	.LCFI0:
  34              		.cfi_def_cfa_offset 8
  35              		.cfi_offset 14, -4
  36              		.cfi_offset 4, -8
  37              		.loc 1 32 0
  38 0002 0446     		mov	r4, r0
  39              	.LVL1:
  40              		.loc 1 35 0
  41              	@ 35 "../../../os/various/evtimer.c" 1
  42 0004 FFF7FEFF 		bl      _port_lock
  43              	@ 0 "" 2
  44              		.thumb
  45 0008 FFF7FEFF 		bl	dbg_check_lock_from_isr
  46              	.LVL2:
  47              		.loc 1 36 0
  48 000c 04F11400 		add	r0, r4, #20
  49 0010 0021     		movs	r1, #0
  50 0012 FFF7FEFF 		bl	chEvtBroadcastFlagsI
  51              		.loc 1 37 0
  52 0016 40F20002 		movw	r2, #:lower16:tmrcb
  53 001a 2046     		mov	r0, r4
  54 001c A169     		ldr	r1, [r4, #24]
  55 001e C0F20002 		movt	r2, #:upper16:tmrcb
  56 0022 2346     		mov	r3, r4
  57 0024 FFF7FEFF 		bl	chVTSetI
ARM GAS  /tmp/ccwcHxQL.s 			page 2


  58              		.loc 1 38 0
  59 0028 FFF7FEFF 		bl	dbg_check_unlock_from_isr
  60              	@ 38 "../../../os/various/evtimer.c" 1
  61 002c FFF7FEFF 		bl      _port_unlock
  62              	@ 0 "" 2
  63              		.loc 1 39 0
  64              		.thumb
  65 0030 10BD     		pop	{r4, pc}
  66              		.cfi_endproc
  67              	.LFE0:
  68              		.size	tmrcb, .-tmrcb
  69 0032 00BFAFF3 		.section	.text.evtStart,"ax",%progbits
  69      0080AFF3 
  69      0080AFF3 
  69      0080
  70              		.align	2
  71              		.p2align 4,,15
  72              		.global	evtStart
  73              		.thumb
  74              		.thumb_func
  75              		.type	evtStart, %function
  76              	evtStart:
  77              	.LFB1:
  78              		.loc 1 47 0
  79              		.cfi_startproc
  80              		@ args = 0, pretend = 0, frame = 0
  81              		@ frame_needed = 0, uses_anonymous_args = 0
  82              	.LVL3:
  83 0000 10B5     		push	{r4, lr}
  84              	.LCFI1:
  85              		.cfi_def_cfa_offset 8
  86              		.cfi_offset 14, -4
  87              		.cfi_offset 4, -8
  88              		.loc 1 47 0
  89 0002 0446     		mov	r4, r0
  90              		.loc 1 49 0
  91              	@ 49 "../../../os/various/evtimer.c" 1
  92 0004 FFF7FEFF 		bl      _port_lock
  93              	@ 0 "" 2
  94              		.thumb
  95 0008 FFF7FEFF 		bl	dbg_check_lock
  96              	.LVL4:
  97              		.loc 1 51 0
  98 000c E368     		ldr	r3, [r4, #12]
  99 000e 23B1     		cbz	r3, .L5
 100              		.loc 1 54 0
 101 0010 FFF7FEFF 		bl	dbg_check_unlock
 102              	@ 54 "../../../os/various/evtimer.c" 1
 103 0014 FFF7FEFF 		bl      _port_unlock
 104              	@ 0 "" 2
 105              		.loc 1 55 0
 106              		.thumb
 107 0018 10BD     		pop	{r4, pc}
 108              	.L5:
 109              		.loc 1 52 0
 110 001a 40F20002 		movw	r2, #:lower16:tmrcb
 111 001e 2046     		mov	r0, r4
ARM GAS  /tmp/ccwcHxQL.s 			page 3


 112 0020 A169     		ldr	r1, [r4, #24]
 113 0022 C0F20002 		movt	r2, #:upper16:tmrcb
 114 0026 2346     		mov	r3, r4
 115 0028 FFF7FEFF 		bl	chVTSetI
 116              		.loc 1 54 0
 117 002c FFF7FEFF 		bl	dbg_check_unlock
 118              	@ 54 "../../../os/various/evtimer.c" 1
 119 0030 FFF7FEFF 		bl      _port_unlock
 120              	@ 0 "" 2
 121              		.loc 1 55 0
 122              		.thumb
 123 0034 10BD     		pop	{r4, pc}
 124              		.cfi_endproc
 125              	.LFE1:
 126              		.size	evtStart, .-evtStart
 127 0036 00BFAFF3 		.section	.text.evtStop,"ax",%progbits
 127      0080AFF3 
 127      0080
 128              		.align	2
 129              		.p2align 4,,15
 130              		.global	evtStop
 131              		.thumb
 132              		.thumb_func
 133              		.type	evtStop, %function
 134              	evtStop:
 135              	.LFB2:
 136              		.loc 1 63 0
 137              		.cfi_startproc
 138              		@ args = 0, pretend = 0, frame = 0
 139              		@ frame_needed = 0, uses_anonymous_args = 0
 140              	.LVL5:
 141 0000 10B5     		push	{r4, lr}
 142              	.LCFI2:
 143              		.cfi_def_cfa_offset 8
 144              		.cfi_offset 14, -4
 145              		.cfi_offset 4, -8
 146              		.loc 1 63 0
 147 0002 0446     		mov	r4, r0
 148              		.loc 1 65 0
 149              	@ 65 "../../../os/various/evtimer.c" 1
 150 0004 FFF7FEFF 		bl      _port_lock
 151              	@ 0 "" 2
 152              		.thumb
 153 0008 FFF7FEFF 		bl	dbg_check_lock
 154              	.LVL6:
 155 000c E368     		ldr	r3, [r4, #12]
 156 000e 13B1     		cbz	r3, .L7
 157              		.loc 1 65 0 is_stmt 0 discriminator 1
 158 0010 2046     		mov	r0, r4
 159 0012 FFF7FEFF 		bl	chVTResetI
 160              	.L7:
 161              		.loc 1 65 0 discriminator 2
 162 0016 FFF7FEFF 		bl	dbg_check_unlock
 163              	@ 65 "../../../os/various/evtimer.c" 1
 164 001a FFF7FEFF 		bl      _port_unlock
 165              	@ 0 "" 2
 166              		.loc 1 66 0 is_stmt 1 discriminator 2
ARM GAS  /tmp/ccwcHxQL.s 			page 4


 167              		.thumb
 168 001e 10BD     		pop	{r4, pc}
 169              		.cfi_endproc
 170              	.LFE2:
 171              		.size	evtStop, .-evtStop
 172              		.text
 173              	.Letext0:
 174              		.file 2 "/home/prana/CodeSourcery/ARM_EABI/bin/../lib/gcc/arm-none-eabi/4.6.3/../../../../arm-none
 175              		.file 3 "../../../os/ports/GCC/ARMCMx/chtypes.h"
 176              		.file 4 "../../../os/kernel/include/chlists.h"
 177              		.file 5 "../../../os/kernel/include/chthreads.h"
 178              		.file 6 "../../../os/ports/GCC/ARMCMx/chcore_v7m.h"
 179              		.file 7 "../../../os/kernel/include/chvt.h"
 180              		.file 8 "../../../os/kernel/include/chmtx.h"
 181              		.file 9 "../../../os/kernel/include/chevents.h"
 182              		.file 10 "../../../os/various/evtimer.h"