ARM GAS  /tmp/ccniBS8F.s 			page 1


   1              		.syntax unified
   2              		.cpu cortex-m4
   3              		.fpu softvfp
   4              		.eabi_attribute 20, 1
   5              		.eabi_attribute 21, 1
   6              		.eabi_attribute 23, 3
   7              		.eabi_attribute 24, 1
   8              		.eabi_attribute 25, 1
   9              		.eabi_attribute 26, 1
  10              		.eabi_attribute 30, 2
  11              		.eabi_attribute 34, 1
  12              		.eabi_attribute 18, 4
  13              		.thumb
  14              		.file	"ext.c"
  15              		.text
  16              	.Ltext0:
  17              		.cfi_sections	.debug_frame
  18              		.section	.text.extInit,"ax",%progbits
  19              		.align	2
  20              		.p2align 4,,15
  21              		.global	extInit
  22              		.thumb
  23              		.thumb_func
  24              		.type	extInit, %function
  25              	extInit:
  26              	.LFB111:
  27              		.file 1 "../../../os/hal/src/ext.c"
  28              		.loc 1 61 0
  29              		.cfi_startproc
  30              		@ args = 0, pretend = 0, frame = 0
  31              		@ frame_needed = 0, uses_anonymous_args = 0
  32              		@ link register save eliminated.
  33              		.loc 1 64 0
  34              		.loc 1 63 0
  35 0000 FFF7FEBF 		b	ext_lld_init
  36              		.cfi_endproc
  37              	.LFE111:
  38              		.size	extInit, .-extInit
  39 0004 AFF30080 		.section	.text.extObjectInit,"ax",%progbits
  39      AFF30080 
  39      AFF30080 
  40              		.align	2
  41              		.p2align 4,,15
  42              		.global	extObjectInit
  43              		.thumb
  44              		.thumb_func
  45              		.type	extObjectInit, %function
  46              	extObjectInit:
  47              	.LFB112:
  48              		.loc 1 73 0
  49              		.cfi_startproc
  50              		@ args = 0, pretend = 0, frame = 0
  51              		@ frame_needed = 0, uses_anonymous_args = 0
  52              		@ link register save eliminated.
  53              	.LVL0:
  54              		.loc 1 75 0
  55 0000 0121     		movs	r1, #1
ARM GAS  /tmp/ccniBS8F.s 			page 2


  56              		.loc 1 76 0
  57 0002 0023     		movs	r3, #0
  58              		.loc 1 75 0
  59 0004 0170     		strb	r1, [r0, #0]
  60              		.loc 1 76 0
  61 0006 4360     		str	r3, [r0, #4]
  62              		.loc 1 77 0
  63 0008 7047     		bx	lr
  64              		.cfi_endproc
  65              	.LFE112:
  66              		.size	extObjectInit, .-extObjectInit
  67 000a 00BFAFF3 		.section	.text.extStart,"ax",%progbits
  67      0080
  68              		.align	2
  69              		.p2align 4,,15
  70              		.global	extStart
  71              		.thumb
  72              		.thumb_func
  73              		.type	extStart, %function
  74              	extStart:
  75              	.LFB113:
  76              		.loc 1 89 0
  77              		.cfi_startproc
  78              		@ args = 0, pretend = 0, frame = 0
  79              		@ frame_needed = 0, uses_anonymous_args = 0
  80              	.LVL1:
  81 0000 38B5     		push	{r3, r4, r5, lr}
  82              	.LCFI0:
  83              		.cfi_def_cfa_offset 16
  84              		.cfi_offset 14, -4
  85              		.cfi_offset 5, -8
  86              		.cfi_offset 4, -12
  87              		.cfi_offset 3, -16
  88              		.loc 1 91 0
  89 0002 D0F10103 		rsbs	r3, r0, #1
  90 0006 38BF     		it	cc
  91 0008 0023     		movcc	r3, #0
  92 000a 0029     		cmp	r1, #0
  93 000c 08BF     		it	eq
  94 000e 43F00103 		orreq	r3, r3, #1
  95 0012 0446     		mov	r4, r0
  96 0014 0D46     		mov	r5, r1
  97 0016 CBB9     		cbnz	r3, .L7
  98              	.LVL2:
  99              	.L4:
 100              		.loc 1 93 0
 101              	@ 93 "../../../os/hal/src/ext.c" 1
 102 0018 FFF7FEFF 		bl      _port_lock
 103              	@ 0 "" 2
 104              		.thumb
 105 001c FFF7FEFF 		bl	dbg_check_lock
 106              		.loc 1 94 0
 107 0020 2278     		ldrb	r2, [r4, #0]	@ zero_extendqisi2
 108 0022 511E     		subs	r1, r2, #1
 109 0024 C8B2     		uxtb	r0, r1
 110 0026 0128     		cmp	r0, #1
 111 0028 05D9     		bls	.L5
ARM GAS  /tmp/ccniBS8F.s 			page 3


 112              		.loc 1 94 0 is_stmt 0 discriminator 1
 113 002a 40F20000 		movw	r0, #:lower16:.LC1
 114 002e C0F20000 		movt	r0, #:upper16:.LC1
 115 0032 FFF7FEFF 		bl	chDbgPanic
 116              	.L5:
 117              		.loc 1 97 0 is_stmt 1
 118 0036 2046     		mov	r0, r4
 119              		.loc 1 96 0
 120 0038 6560     		str	r5, [r4, #4]
 121              		.loc 1 97 0
 122 003a FFF7FEFF 		bl	ext_lld_start
 123              		.loc 1 98 0
 124 003e 0223     		movs	r3, #2
 125 0040 2370     		strb	r3, [r4, #0]
 126              		.loc 1 99 0
 127 0042 FFF7FEFF 		bl	dbg_check_unlock
 128              	@ 99 "../../../os/hal/src/ext.c" 1
 129 0046 FFF7FEFF 		bl      _port_unlock
 130              	@ 0 "" 2
 131              		.loc 1 100 0
 132              		.thumb
 133 004a 38BD     		pop	{r3, r4, r5, pc}
 134              	.L7:
 135              		.loc 1 91 0 discriminator 1
 136 004c 40F20000 		movw	r0, #:lower16:.LC0
 137 0050 C0F20000 		movt	r0, #:upper16:.LC0
 138 0054 FFF7FEFF 		bl	chDbgPanic
 139 0058 DEE7     		b	.L4
 140              		.cfi_endproc
 141              	.LFE113:
 142              		.size	extStart, .-extStart
 143 005a 00BFAFF3 		.section	.text.extStop,"ax",%progbits
 143      0080
 144              		.align	2
 145              		.p2align 4,,15
 146              		.global	extStop
 147              		.thumb
 148              		.thumb_func
 149              		.type	extStop, %function
 150              	extStop:
 151              	.LFB114:
 152              		.loc 1 109 0
 153              		.cfi_startproc
 154              		@ args = 0, pretend = 0, frame = 0
 155              		@ frame_needed = 0, uses_anonymous_args = 0
 156              	.LVL3:
 157 0000 10B5     		push	{r4, lr}
 158              	.LCFI1:
 159              		.cfi_def_cfa_offset 8
 160              		.cfi_offset 14, -4
 161              		.cfi_offset 4, -8
 162              		.loc 1 111 0
 163 0002 0446     		mov	r4, r0
 164 0004 C0B1     		cbz	r0, .L11
 165              	.LVL4:
 166              	.L9:
 167              		.loc 1 113 0
ARM GAS  /tmp/ccniBS8F.s 			page 4


 168              	@ 113 "../../../os/hal/src/ext.c" 1
 169 0006 FFF7FEFF 		bl      _port_lock
 170              	@ 0 "" 2
 171              		.thumb
 172 000a FFF7FEFF 		bl	dbg_check_lock
 173              		.loc 1 114 0
 174 000e 2178     		ldrb	r1, [r4, #0]	@ zero_extendqisi2
 175 0010 481E     		subs	r0, r1, #1
 176 0012 C3B2     		uxtb	r3, r0
 177 0014 012B     		cmp	r3, #1
 178 0016 05D9     		bls	.L10
 179              		.loc 1 114 0 is_stmt 0 discriminator 1
 180 0018 40F20000 		movw	r0, #:lower16:.LC3
 181 001c C0F20000 		movt	r0, #:upper16:.LC3
 182 0020 FFF7FEFF 		bl	chDbgPanic
 183              	.L10:
 184              		.loc 1 116 0 is_stmt 1
 185 0024 2046     		mov	r0, r4
 186 0026 FFF7FEFF 		bl	ext_lld_stop
 187              		.loc 1 117 0
 188 002a 0122     		movs	r2, #1
 189 002c 2270     		strb	r2, [r4, #0]
 190              		.loc 1 118 0
 191 002e FFF7FEFF 		bl	dbg_check_unlock
 192              	@ 118 "../../../os/hal/src/ext.c" 1
 193 0032 FFF7FEFF 		bl      _port_unlock
 194              	@ 0 "" 2
 195              		.loc 1 119 0
 196              		.thumb
 197 0036 10BD     		pop	{r4, pc}
 198              	.L11:
 199              		.loc 1 111 0 discriminator 1
 200 0038 40F20000 		movw	r0, #:lower16:.LC2
 201 003c C0F20000 		movt	r0, #:upper16:.LC2
 202 0040 FFF7FEFF 		bl	chDbgPanic
 203 0044 DFE7     		b	.L9
 204              		.cfi_endproc
 205              	.LFE114:
 206              		.size	extStop, .-extStop
 207 0046 00BFAFF3 		.section	.text.extChannelEnable,"ax",%progbits
 207      0080AFF3 
 207      0080
 208              		.align	2
 209              		.p2align 4,,15
 210              		.global	extChannelEnable
 211              		.thumb
 212              		.thumb_func
 213              		.type	extChannelEnable, %function
 214              	extChannelEnable:
 215              	.LFB115:
 216              		.loc 1 130 0
 217              		.cfi_startproc
 218              		@ args = 0, pretend = 0, frame = 0
 219              		@ frame_needed = 0, uses_anonymous_args = 0
 220              	.LVL5:
 221 0000 38B5     		push	{r3, r4, r5, lr}
 222              	.LCFI2:
ARM GAS  /tmp/ccniBS8F.s 			page 5


 223              		.cfi_def_cfa_offset 16
 224              		.cfi_offset 14, -4
 225              		.cfi_offset 5, -8
 226              		.cfi_offset 4, -12
 227              		.cfi_offset 3, -16
 228              		.loc 1 132 0
 229 0002 D0F10103 		rsbs	r3, r0, #1
 230 0006 38BF     		it	cc
 231 0008 0023     		movcc	r3, #0
 232 000a 1629     		cmp	r1, #22
 233 000c 88BF     		it	hi
 234 000e 43F00103 		orrhi	r3, r3, #1
 235 0012 0446     		mov	r4, r0
 236              		.loc 1 130 0
 237 0014 0D46     		mov	r5, r1
 238              		.loc 1 132 0
 239 0016 1BBB     		cbnz	r3, .L17
 240              	.LVL6:
 241              	.L13:
 242              		.loc 1 135 0
 243              	@ 135 "../../../os/hal/src/ext.c" 1
 244 0018 FFF7FEFF 		bl      _port_lock
 245              	@ 0 "" 2
 246              		.thumb
 247 001c FFF7FEFF 		bl	dbg_check_lock
 248              		.loc 1 136 0
 249 0020 2078     		ldrb	r0, [r4, #0]	@ zero_extendqisi2
 250 0022 0228     		cmp	r0, #2
 251 0024 0ED0     		beq	.L18
 252              	.L14:
 253              		.loc 1 136 0 is_stmt 0 discriminator 1
 254 0026 40F20000 		movw	r0, #:lower16:.LC5
 255 002a C0F20000 		movt	r0, #:upper16:.LC5
 256 002e FFF7FEFF 		bl	chDbgPanic
 257              		.loc 1 140 0 is_stmt 1 discriminator 1
 258 0032 2046     		mov	r0, r4
 259 0034 2946     		mov	r1, r5
 260 0036 FFF7FEFF 		bl	ext_lld_channel_enable
 261              		.loc 1 141 0 discriminator 1
 262 003a FFF7FEFF 		bl	dbg_check_unlock
 263              	@ 141 "../../../os/hal/src/ext.c" 1
 264 003e FFF7FEFF 		bl      _port_unlock
 265              	@ 0 "" 2
 266              		.loc 1 142 0 discriminator 1
 267              		.thumb
 268 0042 38BD     		pop	{r3, r4, r5, pc}
 269              	.L18:
 270              		.loc 1 136 0 discriminator 2
 271 0044 6268     		ldr	r2, [r4, #4]
 272 0046 52F83510 		ldr	r1, [r2, r5, lsl #3]
 273 004a 8B07     		lsls	r3, r1, #30
 274 004c EBD0     		beq	.L14
 275              		.loc 1 140 0
 276 004e 2046     		mov	r0, r4
 277 0050 2946     		mov	r1, r5
 278 0052 FFF7FEFF 		bl	ext_lld_channel_enable
 279              		.loc 1 141 0
ARM GAS  /tmp/ccniBS8F.s 			page 6


 280 0056 FFF7FEFF 		bl	dbg_check_unlock
 281              	@ 141 "../../../os/hal/src/ext.c" 1
 282 005a FFF7FEFF 		bl      _port_unlock
 283              	@ 0 "" 2
 284              		.loc 1 142 0
 285              		.thumb
 286 005e 38BD     		pop	{r3, r4, r5, pc}
 287              	.L17:
 288              		.loc 1 132 0 discriminator 1
 289 0060 40F20000 		movw	r0, #:lower16:.LC4
 290 0064 C0F20000 		movt	r0, #:upper16:.LC4
 291 0068 FFF7FEFF 		bl	chDbgPanic
 292 006c D4E7     		b	.L13
 293              		.cfi_endproc
 294              	.LFE115:
 295              		.size	extChannelEnable, .-extChannelEnable
 296 006e 00BF     		.section	.text.extChannelDisable,"ax",%progbits
 297              		.align	2
 298              		.p2align 4,,15
 299              		.global	extChannelDisable
 300              		.thumb
 301              		.thumb_func
 302              		.type	extChannelDisable, %function
 303              	extChannelDisable:
 304              	.LFB116:
 305              		.loc 1 153 0
 306              		.cfi_startproc
 307              		@ args = 0, pretend = 0, frame = 0
 308              		@ frame_needed = 0, uses_anonymous_args = 0
 309              	.LVL7:
 310 0000 38B5     		push	{r3, r4, r5, lr}
 311              	.LCFI3:
 312              		.cfi_def_cfa_offset 16
 313              		.cfi_offset 14, -4
 314              		.cfi_offset 5, -8
 315              		.cfi_offset 4, -12
 316              		.cfi_offset 3, -16
 317              		.loc 1 155 0
 318 0002 D0F10103 		rsbs	r3, r0, #1
 319 0006 38BF     		it	cc
 320 0008 0023     		movcc	r3, #0
 321 000a 1629     		cmp	r1, #22
 322 000c 88BF     		it	hi
 323 000e 43F00103 		orrhi	r3, r3, #1
 324 0012 0446     		mov	r4, r0
 325              		.loc 1 153 0
 326 0014 0D46     		mov	r5, r1
 327              		.loc 1 155 0
 328 0016 1BBB     		cbnz	r3, .L24
 329              	.LVL8:
 330              	.L20:
 331              		.loc 1 158 0
 332              	@ 158 "../../../os/hal/src/ext.c" 1
 333 0018 FFF7FEFF 		bl      _port_lock
 334              	@ 0 "" 2
 335              		.thumb
 336 001c FFF7FEFF 		bl	dbg_check_lock
ARM GAS  /tmp/ccniBS8F.s 			page 7


 337              		.loc 1 159 0
 338 0020 2078     		ldrb	r0, [r4, #0]	@ zero_extendqisi2
 339 0022 0228     		cmp	r0, #2
 340 0024 0ED0     		beq	.L25
 341              	.L21:
 342              		.loc 1 159 0 is_stmt 0 discriminator 1
 343 0026 40F20000 		movw	r0, #:lower16:.LC7
 344 002a C0F20000 		movt	r0, #:upper16:.LC7
 345 002e FFF7FEFF 		bl	chDbgPanic
 346              		.loc 1 163 0 is_stmt 1 discriminator 1
 347 0032 2046     		mov	r0, r4
 348 0034 2946     		mov	r1, r5
 349 0036 FFF7FEFF 		bl	ext_lld_channel_disable
 350              		.loc 1 164 0 discriminator 1
 351 003a FFF7FEFF 		bl	dbg_check_unlock
 352              	@ 164 "../../../os/hal/src/ext.c" 1
 353 003e FFF7FEFF 		bl      _port_unlock
 354              	@ 0 "" 2
 355              		.loc 1 165 0 discriminator 1
 356              		.thumb
 357 0042 38BD     		pop	{r3, r4, r5, pc}
 358              	.L25:
 359              		.loc 1 159 0 discriminator 2
 360 0044 6268     		ldr	r2, [r4, #4]
 361 0046 52F83510 		ldr	r1, [r2, r5, lsl #3]
 362 004a 8A07     		lsls	r2, r1, #30
 363 004c EBD0     		beq	.L21
 364              		.loc 1 163 0
 365 004e 2046     		mov	r0, r4
 366 0050 2946     		mov	r1, r5
 367 0052 FFF7FEFF 		bl	ext_lld_channel_disable
 368              		.loc 1 164 0
 369 0056 FFF7FEFF 		bl	dbg_check_unlock
 370              	@ 164 "../../../os/hal/src/ext.c" 1
 371 005a FFF7FEFF 		bl      _port_unlock
 372              	@ 0 "" 2
 373              		.loc 1 165 0
 374              		.thumb
 375 005e 38BD     		pop	{r3, r4, r5, pc}
 376              	.L24:
 377              		.loc 1 155 0 discriminator 1
 378 0060 40F20000 		movw	r0, #:lower16:.LC6
 379 0064 C0F20000 		movt	r0, #:upper16:.LC6
 380 0068 FFF7FEFF 		bl	chDbgPanic
 381 006c D4E7     		b	.L20
 382              		.cfi_endproc
 383              	.LFE116:
 384              		.size	extChannelDisable, .-extChannelDisable
 385 006e 00BF     		.section	.text.extSetChannelModeI,"ax",%progbits
 386              		.align	2
 387              		.p2align 4,,15
 388              		.global	extSetChannelModeI
 389              		.thumb
 390              		.thumb_func
 391              		.type	extSetChannelModeI, %function
 392              	extSetChannelModeI:
 393              	.LFB117:
ARM GAS  /tmp/ccniBS8F.s 			page 8


 394              		.loc 1 186 0
 395              		.cfi_startproc
 396              		@ args = 0, pretend = 0, frame = 0
 397              		@ frame_needed = 0, uses_anonymous_args = 0
 398              	.LVL9:
 399              		.loc 1 189 0
 400 0000 D0F10103 		rsbs	r3, r0, #1
 401 0004 38BF     		it	cc
 402 0006 0023     		movcc	r3, #0
 403 0008 1629     		cmp	r1, #22
 404 000a 88BF     		it	hi
 405 000c 43F00103 		orrhi	r3, r3, #1
 406              		.loc 1 186 0
 407 0010 70B5     		push	{r4, r5, r6, lr}
 408              	.LCFI4:
 409              		.cfi_def_cfa_offset 16
 410              		.cfi_offset 14, -4
 411              		.cfi_offset 6, -8
 412              		.cfi_offset 5, -12
 413              		.cfi_offset 4, -16
 414              		.loc 1 189 0
 415 0012 0446     		mov	r4, r0
 416              		.loc 1 186 0
 417 0014 0D46     		mov	r5, r1
 418 0016 1646     		mov	r6, r2
 419              		.loc 1 189 0
 420 0018 B3B9     		cbnz	r3, .L27
 421              		.loc 1 189 0 is_stmt 0 discriminator 2
 422 001a AAB1     		cbz	r2, .L27
 423              	.LVL10:
 424              	.L28:
 425              		.loc 1 192 0 is_stmt 1
 426 001c 2078     		ldrb	r0, [r4, #0]	@ zero_extendqisi2
 427 001e 0228     		cmp	r0, #2
 428 0020 05D0     		beq	.L29
 429              		.loc 1 192 0 is_stmt 0 discriminator 1
 430 0022 40F20000 		movw	r0, #:lower16:.LC9
 431 0026 C0F20000 		movt	r0, #:upper16:.LC9
 432 002a FFF7FEFF 		bl	chDbgPanic
 433              	.L29:
 434              	.LVL11:
 435              		.loc 1 201 0 is_stmt 1
 436 002e 96E80300 		ldmia	r6, {r0, r1}
 437 0032 6368     		ldr	r3, [r4, #4]
 438 0034 03EBC502 		add	r2, r3, r5, lsl #3
 439 0038 82E80300 		stmia	r2, {r0, r1}
 440              		.loc 1 202 0
 441 003c 2046     		mov	r0, r4
 442 003e 2946     		mov	r1, r5
 443              		.loc 1 203 0
 444 0040 BDE87040 		pop	{r4, r5, r6, lr}
 445              		.loc 1 202 0
 446 0044 FFF7FEBF 		b	ext_lld_channel_enable
 447              	.LVL12:
 448              	.L27:
 449              		.loc 1 189 0 discriminator 1
 450 0048 40F20000 		movw	r0, #:lower16:.LC8
ARM GAS  /tmp/ccniBS8F.s 			page 9


 451 004c C0F20000 		movt	r0, #:upper16:.LC8
 452 0050 FFF7FEFF 		bl	chDbgPanic
 453 0054 E2E7     		b	.L28
 454              		.cfi_endproc
 455              	.LFE117:
 456              		.size	extSetChannelModeI, .-extSetChannelModeI
 457 0056 00BFAFF3 		.section	.rodata.str1.4,"aMS",%progbits,1
 457      0080AFF3 
 457      0080
 458              		.align	2
 459              	.LC0:
 460 0000 22657874 		.ascii	"\"extStart\"()\000"
 460      53746172 
 460      74222829 
 460      00
 461 000d 000000   		.space	3
 462              	.LC1:
 463 0010 65787453 		.ascii	"extStart(), #1\000"
 463      74617274 
 463      28292C20 
 463      233100
 464 001f 00       		.space	1
 465              	.LC2:
 466 0020 22657874 		.ascii	"\"extStop\"()\000"
 466      53746F70 
 466      22282900 
 467              	.LC3:
 468 002c 65787453 		.ascii	"extStop(), #1\000"
 468      746F7028 
 468      292C2023 
 468      3100
 469 003a 0000     		.space	2
 470              	.LC4:
 471 003c 22657874 		.ascii	"\"extChannelEnable\"()\000"
 471      4368616E 
 471      6E656C45 
 471      6E61626C 
 471      65222829 
 472 0051 000000   		.space	3
 473              	.LC5:
 474 0054 65787443 		.ascii	"extChannelEnable(), #1\000"
 474      68616E6E 
 474      656C456E 
 474      61626C65 
 474      28292C20 
 475 006b 00       		.space	1
 476              	.LC6:
 477 006c 22657874 		.ascii	"\"extChannelDisable\"()\000"
 477      4368616E 
 477      6E656C44 
 477      69736162 
 477      6C652228 
 478 0082 0000     		.space	2
 479              	.LC7:
 480 0084 65787443 		.ascii	"extChannelDisable(), #1\000"
 480      68616E6E 
 480      656C4469 
ARM GAS  /tmp/ccniBS8F.s 			page 10


 480      7361626C 
 480      6528292C 
 481              	.LC8:
 482 009c 22657874 		.ascii	"\"extSetChannelModeI\"()\000"
 482      53657443 
 482      68616E6E 
 482      656C4D6F 
 482      64654922 
 483 00b3 00       		.space	1
 484              	.LC9:
 485 00b4 65787453 		.ascii	"extSetChannelModeI(), #1\000"
 485      65744368 
 485      616E6E65 
 485      6C4D6F64 
 485      65492829 
 486 00cd 000000   		.text
 487              	.Letext0:
 488              		.file 2 "/home/prana/CodeSourcery/ARM_EABI/bin/../lib/gcc/arm-none-eabi/4.6.3/../../../../arm-none
 489              		.file 3 "../../../os/hal/include/ext.h"
 490              		.file 4 "../../../os/hal/platforms/STM32/ext_lld.h"
 491              		.file 5 "../../../os/ports/common/ARMCMx/CMSIS/include/core_cm4.h"