ARM GAS  /tmp/cc1l8JQI.s 			page 1


   1              		.syntax unified
   2              		.cpu cortex-m4
   3              		.fpu softvfp
   4              		.eabi_attribute 20, 1
   5              		.eabi_attribute 21, 1
   6              		.eabi_attribute 23, 3
   7              		.eabi_attribute 24, 1
   8              		.eabi_attribute 25, 1
   9              		.eabi_attribute 26, 1
  10              		.eabi_attribute 30, 2
  11              		.eabi_attribute 34, 1
  12              		.eabi_attribute 18, 4
  13              		.thumb
  14              		.file	"ext_lld_isr.c"
  15              		.text
  16              	.Ltext0:
  17              		.cfi_sections	.debug_frame
  18              		.section	.text.Vector58,"ax",%progbits
  19              		.align	2
  20              		.p2align 4,,15
  21              		.global	Vector58
  22              		.thumb
  23              		.thumb_func
  24              		.type	Vector58, %function
  25              	Vector58:
  26              	.LFB111:
  27              		.file 1 "../../../os/hal/platforms/STM32F4xx/ext_lld_isr.c"
  28              		.loc 1 61 0
  29              		.cfi_startproc
  30              		@ args = 0, pretend = 0, frame = 0
  31              		@ frame_needed = 0, uses_anonymous_args = 0
  32 0000 10B5     		push	{r4, lr}
  33              	.LCFI0:
  34              		.cfi_def_cfa_offset 8
  35              		.cfi_offset 14, -4
  36              		.cfi_offset 4, -8
  37              		.loc 1 63 0
  38 0002 FFF7FEFF 		bl	dbg_check_enter_isr
  39              		.loc 1 66 0
  40 0006 40F20000 		movw	r0, #:lower16:EXTD1
  41 000a C0F20000 		movt	r0, #:upper16:EXTD1
  42              		.loc 1 65 0
  43 000e 4FF4705C 		mov	ip, #15360
  44              		.loc 1 66 0
  45 0012 4268     		ldr	r2, [r0, #4]
  46              		.loc 1 65 0
  47 0014 C4F2010C 		movt	ip, 16385
  48 0018 0124     		movs	r4, #1
  49              		.loc 1 66 0
  50 001a 0021     		movs	r1, #0
  51              		.loc 1 65 0
  52 001c CCF81440 		str	r4, [ip, #20]
  53              		.loc 1 66 0
  54 0020 5368     		ldr	r3, [r2, #4]
  55 0022 9847     		blx	r3
  56              		.loc 1 68 0
  57 0024 FFF7FEFF 		bl	dbg_check_leave_isr
ARM GAS  /tmp/cc1l8JQI.s 			page 2


  58              		.loc 1 69 0
  59 0028 BDE81040 		pop	{r4, lr}
  60              		.loc 1 68 0
  61 002c FFF7FEBF 		b	_port_irq_epilogue
  62              		.cfi_endproc
  63              	.LFE111:
  64              		.size	Vector58, .-Vector58
  65              		.section	.text.Vector5C,"ax",%progbits
  66              		.align	2
  67              		.p2align 4,,15
  68              		.global	Vector5C
  69              		.thumb
  70              		.thumb_func
  71              		.type	Vector5C, %function
  72              	Vector5C:
  73              	.LFB112:
  74              		.loc 1 76 0
  75              		.cfi_startproc
  76              		@ args = 0, pretend = 0, frame = 0
  77              		@ frame_needed = 0, uses_anonymous_args = 0
  78 0000 10B5     		push	{r4, lr}
  79              	.LCFI1:
  80              		.cfi_def_cfa_offset 8
  81              		.cfi_offset 14, -4
  82              		.cfi_offset 4, -8
  83              		.loc 1 78 0
  84 0002 FFF7FEFF 		bl	dbg_check_enter_isr
  85              		.loc 1 81 0
  86 0006 40F20000 		movw	r0, #:lower16:EXTD1
  87 000a C0F20000 		movt	r0, #:upper16:EXTD1
  88              		.loc 1 80 0
  89 000e 4FF4705C 		mov	ip, #15360
  90              		.loc 1 81 0
  91 0012 4268     		ldr	r2, [r0, #4]
  92              		.loc 1 80 0
  93 0014 C4F2010C 		movt	ip, 16385
  94 0018 0224     		movs	r4, #2
  95              		.loc 1 81 0
  96 001a 0121     		movs	r1, #1
  97              		.loc 1 80 0
  98 001c CCF81440 		str	r4, [ip, #20]
  99              		.loc 1 81 0
 100 0020 D368     		ldr	r3, [r2, #12]
 101 0022 9847     		blx	r3
 102              		.loc 1 83 0
 103 0024 FFF7FEFF 		bl	dbg_check_leave_isr
 104              		.loc 1 84 0
 105 0028 BDE81040 		pop	{r4, lr}
 106              		.loc 1 83 0
 107 002c FFF7FEBF 		b	_port_irq_epilogue
 108              		.cfi_endproc
 109              	.LFE112:
 110              		.size	Vector5C, .-Vector5C
 111              		.section	.text.Vector60,"ax",%progbits
 112              		.align	2
 113              		.p2align 4,,15
 114              		.global	Vector60
ARM GAS  /tmp/cc1l8JQI.s 			page 3


 115              		.thumb
 116              		.thumb_func
 117              		.type	Vector60, %function
 118              	Vector60:
 119              	.LFB113:
 120              		.loc 1 91 0
 121              		.cfi_startproc
 122              		@ args = 0, pretend = 0, frame = 0
 123              		@ frame_needed = 0, uses_anonymous_args = 0
 124 0000 10B5     		push	{r4, lr}
 125              	.LCFI2:
 126              		.cfi_def_cfa_offset 8
 127              		.cfi_offset 14, -4
 128              		.cfi_offset 4, -8
 129              		.loc 1 93 0
 130 0002 FFF7FEFF 		bl	dbg_check_enter_isr
 131              		.loc 1 96 0
 132 0006 40F20000 		movw	r0, #:lower16:EXTD1
 133 000a C0F20000 		movt	r0, #:upper16:EXTD1
 134              		.loc 1 95 0
 135 000e 4FF4705C 		mov	ip, #15360
 136              		.loc 1 96 0
 137 0012 4268     		ldr	r2, [r0, #4]
 138              		.loc 1 95 0
 139 0014 C4F2010C 		movt	ip, 16385
 140 0018 0424     		movs	r4, #4
 141              		.loc 1 96 0
 142 001a 0221     		movs	r1, #2
 143              		.loc 1 95 0
 144 001c CCF81440 		str	r4, [ip, #20]
 145              		.loc 1 96 0
 146 0020 5369     		ldr	r3, [r2, #20]
 147 0022 9847     		blx	r3
 148              		.loc 1 98 0
 149 0024 FFF7FEFF 		bl	dbg_check_leave_isr
 150              		.loc 1 99 0
 151 0028 BDE81040 		pop	{r4, lr}
 152              		.loc 1 98 0
 153 002c FFF7FEBF 		b	_port_irq_epilogue
 154              		.cfi_endproc
 155              	.LFE113:
 156              		.size	Vector60, .-Vector60
 157              		.section	.text.Vector64,"ax",%progbits
 158              		.align	2
 159              		.p2align 4,,15
 160              		.global	Vector64
 161              		.thumb
 162              		.thumb_func
 163              		.type	Vector64, %function
 164              	Vector64:
 165              	.LFB114:
 166              		.loc 1 106 0
 167              		.cfi_startproc
 168              		@ args = 0, pretend = 0, frame = 0
 169              		@ frame_needed = 0, uses_anonymous_args = 0
 170 0000 10B5     		push	{r4, lr}
 171              	.LCFI3:
ARM GAS  /tmp/cc1l8JQI.s 			page 4


 172              		.cfi_def_cfa_offset 8
 173              		.cfi_offset 14, -4
 174              		.cfi_offset 4, -8
 175              		.loc 1 108 0
 176 0002 FFF7FEFF 		bl	dbg_check_enter_isr
 177              		.loc 1 111 0
 178 0006 40F20000 		movw	r0, #:lower16:EXTD1
 179 000a C0F20000 		movt	r0, #:upper16:EXTD1
 180              		.loc 1 110 0
 181 000e 4FF4705C 		mov	ip, #15360
 182              		.loc 1 111 0
 183 0012 4268     		ldr	r2, [r0, #4]
 184              		.loc 1 110 0
 185 0014 C4F2010C 		movt	ip, 16385
 186 0018 0824     		movs	r4, #8
 187              		.loc 1 111 0
 188 001a 0321     		movs	r1, #3
 189              		.loc 1 110 0
 190 001c CCF81440 		str	r4, [ip, #20]
 191              		.loc 1 111 0
 192 0020 D369     		ldr	r3, [r2, #28]
 193 0022 9847     		blx	r3
 194              		.loc 1 113 0
 195 0024 FFF7FEFF 		bl	dbg_check_leave_isr
 196              		.loc 1 114 0
 197 0028 BDE81040 		pop	{r4, lr}
 198              		.loc 1 113 0
 199 002c FFF7FEBF 		b	_port_irq_epilogue
 200              		.cfi_endproc
 201              	.LFE114:
 202              		.size	Vector64, .-Vector64
 203              		.section	.text.Vector68,"ax",%progbits
 204              		.align	2
 205              		.p2align 4,,15
 206              		.global	Vector68
 207              		.thumb
 208              		.thumb_func
 209              		.type	Vector68, %function
 210              	Vector68:
 211              	.LFB115:
 212              		.loc 1 121 0
 213              		.cfi_startproc
 214              		@ args = 0, pretend = 0, frame = 0
 215              		@ frame_needed = 0, uses_anonymous_args = 0
 216 0000 10B5     		push	{r4, lr}
 217              	.LCFI4:
 218              		.cfi_def_cfa_offset 8
 219              		.cfi_offset 14, -4
 220              		.cfi_offset 4, -8
 221              		.loc 1 123 0
 222 0002 FFF7FEFF 		bl	dbg_check_enter_isr
 223              		.loc 1 126 0
 224 0006 40F20000 		movw	r0, #:lower16:EXTD1
 225 000a C0F20000 		movt	r0, #:upper16:EXTD1
 226              		.loc 1 125 0
 227 000e 4FF4705C 		mov	ip, #15360
 228              		.loc 1 126 0
ARM GAS  /tmp/cc1l8JQI.s 			page 5


 229 0012 4268     		ldr	r2, [r0, #4]
 230              		.loc 1 125 0
 231 0014 C4F2010C 		movt	ip, 16385
 232 0018 1024     		movs	r4, #16
 233              		.loc 1 126 0
 234 001a 0421     		movs	r1, #4
 235              		.loc 1 125 0
 236 001c CCF81440 		str	r4, [ip, #20]
 237              		.loc 1 126 0
 238 0020 536A     		ldr	r3, [r2, #36]
 239 0022 9847     		blx	r3
 240              		.loc 1 128 0
 241 0024 FFF7FEFF 		bl	dbg_check_leave_isr
 242              		.loc 1 129 0
 243 0028 BDE81040 		pop	{r4, lr}
 244              		.loc 1 128 0
 245 002c FFF7FEBF 		b	_port_irq_epilogue
 246              		.cfi_endproc
 247              	.LFE115:
 248              		.size	Vector68, .-Vector68
 249              		.section	.text.Vector9C,"ax",%progbits
 250              		.align	2
 251              		.p2align 4,,15
 252              		.global	Vector9C
 253              		.thumb
 254              		.thumb_func
 255              		.type	Vector9C, %function
 256              	Vector9C:
 257              	.LFB116:
 258              		.loc 1 136 0
 259              		.cfi_startproc
 260              		@ args = 0, pretend = 0, frame = 0
 261              		@ frame_needed = 0, uses_anonymous_args = 0
 262 0000 10B5     		push	{r4, lr}
 263              	.LCFI5:
 264              		.cfi_def_cfa_offset 8
 265              		.cfi_offset 14, -4
 266              		.cfi_offset 4, -8
 267              		.loc 1 139 0
 268 0002 FFF7FEFF 		bl	dbg_check_enter_isr
 269              		.loc 1 141 0
 270 0006 4FF47053 		mov	r3, #15360
 271 000a C4F20103 		movt	r3, 16385
 272 000e 5A69     		ldr	r2, [r3, #20]
 273 0010 02F47874 		and	r4, r2, #992
 274              	.LVL0:
 275              		.loc 1 142 0
 276 0014 5C61     		str	r4, [r3, #20]
 277              		.loc 1 143 0
 278 0016 9306     		lsls	r3, r2, #26
 279 0018 37D4     		bmi	.L13
 280              	.L7:
 281              		.loc 1 145 0
 282 001a 6006     		lsls	r0, r4, #25
 283 001c 2AD4     		bmi	.L14
 284              	.L8:
 285              		.loc 1 147 0
ARM GAS  /tmp/cc1l8JQI.s 			page 6


 286 001e 2106     		lsls	r1, r4, #24
 287 0020 1DD4     		bmi	.L15
 288              	.L9:
 289              		.loc 1 149 0
 290 0022 E205     		lsls	r2, r4, #23
 291 0024 11D4     		bmi	.L16
 292              	.L10:
 293              		.loc 1 151 0
 294 0026 A305     		lsls	r3, r4, #22
 295 0028 09D5     		bpl	.L11
 296              		.loc 1 152 0
 297 002a 40F2000C 		movw	ip, #:lower16:EXTD1
 298 002e C0F2000C 		movt	ip, #:upper16:EXTD1
 299 0032 6046     		mov	r0, ip
 300 0034 DCF80430 		ldr	r3, [ip, #4]
 301 0038 0921     		movs	r1, #9
 302 003a DA6C     		ldr	r2, [r3, #76]
 303 003c 9047     		blx	r2
 304              	.L11:
 305              		.loc 1 154 0
 306 003e FFF7FEFF 		bl	dbg_check_leave_isr
 307              		.loc 1 155 0
 308 0042 BDE81040 		pop	{r4, lr}
 309              		.loc 1 154 0
 310 0046 FFF7FEBF 		b	_port_irq_epilogue
 311              	.L16:
 312              		.loc 1 150 0
 313 004a 40F20001 		movw	r1, #:lower16:EXTD1
 314 004e C0F20001 		movt	r1, #:upper16:EXTD1
 315 0052 0846     		mov	r0, r1
 316 0054 4B68     		ldr	r3, [r1, #4]
 317 0056 0821     		movs	r1, #8
 318 0058 5A6C     		ldr	r2, [r3, #68]
 319 005a 9047     		blx	r2
 320 005c E3E7     		b	.L10
 321              	.L15:
 322              		.loc 1 148 0
 323 005e 40F2000E 		movw	lr, #:lower16:EXTD1
 324 0062 C0F2000E 		movt	lr, #:upper16:EXTD1
 325 0066 7046     		mov	r0, lr
 326 0068 DEF80430 		ldr	r3, [lr, #4]
 327 006c 0721     		movs	r1, #7
 328 006e DA6B     		ldr	r2, [r3, #60]
 329 0070 9047     		blx	r2
 330 0072 D6E7     		b	.L9
 331              	.L14:
 332              		.loc 1 146 0
 333 0074 40F2000C 		movw	ip, #:lower16:EXTD1
 334 0078 C0F2000C 		movt	ip, #:upper16:EXTD1
 335 007c 6046     		mov	r0, ip
 336 007e DCF80430 		ldr	r3, [ip, #4]
 337 0082 0621     		movs	r1, #6
 338 0084 5A6B     		ldr	r2, [r3, #52]
 339 0086 9047     		blx	r2
 340 0088 C9E7     		b	.L8
 341              	.L13:
 342              		.loc 1 144 0
ARM GAS  /tmp/cc1l8JQI.s 			page 7


 343 008a 40F20001 		movw	r1, #:lower16:EXTD1
 344 008e C0F20001 		movt	r1, #:upper16:EXTD1
 345 0092 0846     		mov	r0, r1
 346 0094 4B68     		ldr	r3, [r1, #4]
 347 0096 0521     		movs	r1, #5
 348 0098 DA6A     		ldr	r2, [r3, #44]
 349 009a 9047     		blx	r2
 350 009c BDE7     		b	.L7
 351              		.cfi_endproc
 352              	.LFE116:
 353              		.size	Vector9C, .-Vector9C
 354 009e 00BF     		.section	.text.VectorE0,"ax",%progbits
 355              		.align	2
 356              		.p2align 4,,15
 357              		.global	VectorE0
 358              		.thumb
 359              		.thumb_func
 360              		.type	VectorE0, %function
 361              	VectorE0:
 362              	.LFB117:
 363              		.loc 1 162 0
 364              		.cfi_startproc
 365              		@ args = 0, pretend = 0, frame = 0
 366              		@ frame_needed = 0, uses_anonymous_args = 0
 367 0000 10B5     		push	{r4, lr}
 368              	.LCFI6:
 369              		.cfi_def_cfa_offset 8
 370              		.cfi_offset 14, -4
 371              		.cfi_offset 4, -8
 372              		.loc 1 165 0
 373 0002 FFF7FEFF 		bl	dbg_check_enter_isr
 374              		.loc 1 167 0
 375 0006 4FF47053 		mov	r3, #15360
 376 000a C4F20103 		movt	r3, 16385
 377 000e 5A69     		ldr	r2, [r3, #20]
 378 0010 02F47C44 		and	r4, r2, #64512
 379              	.LVL1:
 380              		.loc 1 170 0
 381 0014 5105     		lsls	r1, r2, #21
 382              		.loc 1 169 0
 383 0016 5C61     		str	r4, [r3, #20]
 384              		.loc 1 170 0
 385 0018 44D4     		bmi	.L24
 386              	.L18:
 387              		.loc 1 172 0
 388 001a 2205     		lsls	r2, r4, #20
 389 001c 37D4     		bmi	.L25
 390              	.L19:
 391              		.loc 1 174 0
 392 001e E304     		lsls	r3, r4, #19
 393 0020 2AD4     		bmi	.L26
 394              	.L20:
 395              		.loc 1 176 0
 396 0022 A004     		lsls	r0, r4, #18
 397 0024 1ED4     		bmi	.L27
 398              	.L21:
 399              		.loc 1 178 0
ARM GAS  /tmp/cc1l8JQI.s 			page 8


 400 0026 6104     		lsls	r1, r4, #17
 401 0028 11D4     		bmi	.L28
 402              	.L22:
 403              		.loc 1 180 0
 404 002a 2204     		lsls	r2, r4, #16
 405 002c 09D5     		bpl	.L23
 406              		.loc 1 181 0
 407 002e 40F2000E 		movw	lr, #:lower16:EXTD1
 408 0032 C0F2000E 		movt	lr, #:upper16:EXTD1
 409 0036 7046     		mov	r0, lr
 410 0038 DEF80430 		ldr	r3, [lr, #4]
 411 003c 0F21     		movs	r1, #15
 412 003e DA6F     		ldr	r2, [r3, #124]
 413 0040 9047     		blx	r2
 414              	.L23:
 415              		.loc 1 183 0
 416 0042 FFF7FEFF 		bl	dbg_check_leave_isr
 417              		.loc 1 184 0
 418 0046 BDE81040 		pop	{r4, lr}
 419              		.loc 1 183 0
 420 004a FFF7FEBF 		b	_port_irq_epilogue
 421              	.L28:
 422              		.loc 1 179 0
 423 004e 40F2000C 		movw	ip, #:lower16:EXTD1
 424 0052 C0F2000C 		movt	ip, #:upper16:EXTD1
 425 0056 6046     		mov	r0, ip
 426 0058 DCF80430 		ldr	r3, [ip, #4]
 427 005c 0E21     		movs	r1, #14
 428 005e 5A6F     		ldr	r2, [r3, #116]
 429 0060 9047     		blx	r2
 430 0062 E2E7     		b	.L22
 431              	.L27:
 432              		.loc 1 177 0
 433 0064 40F20001 		movw	r1, #:lower16:EXTD1
 434 0068 C0F20001 		movt	r1, #:upper16:EXTD1
 435 006c 0846     		mov	r0, r1
 436 006e 4B68     		ldr	r3, [r1, #4]
 437 0070 0D21     		movs	r1, #13
 438 0072 DA6E     		ldr	r2, [r3, #108]
 439 0074 9047     		blx	r2
 440 0076 D6E7     		b	.L21
 441              	.L26:
 442              		.loc 1 175 0
 443 0078 40F2000E 		movw	lr, #:lower16:EXTD1
 444 007c C0F2000E 		movt	lr, #:upper16:EXTD1
 445 0080 7046     		mov	r0, lr
 446 0082 DEF80430 		ldr	r3, [lr, #4]
 447 0086 0C21     		movs	r1, #12
 448 0088 5A6E     		ldr	r2, [r3, #100]
 449 008a 9047     		blx	r2
 450 008c C9E7     		b	.L20
 451              	.L25:
 452              		.loc 1 173 0
 453 008e 40F2000C 		movw	ip, #:lower16:EXTD1
 454 0092 C0F2000C 		movt	ip, #:upper16:EXTD1
 455 0096 6046     		mov	r0, ip
 456 0098 DCF80430 		ldr	r3, [ip, #4]
ARM GAS  /tmp/cc1l8JQI.s 			page 9


 457 009c 0B21     		movs	r1, #11
 458 009e DA6D     		ldr	r2, [r3, #92]
 459 00a0 9047     		blx	r2
 460 00a2 BCE7     		b	.L19
 461              	.L24:
 462              		.loc 1 171 0
 463 00a4 40F20001 		movw	r1, #:lower16:EXTD1
 464 00a8 C0F20001 		movt	r1, #:upper16:EXTD1
 465 00ac 0846     		mov	r0, r1
 466 00ae 4B68     		ldr	r3, [r1, #4]
 467 00b0 0A21     		movs	r1, #10
 468 00b2 5A6D     		ldr	r2, [r3, #84]
 469 00b4 9047     		blx	r2
 470 00b6 B0E7     		b	.L18
 471              		.cfi_endproc
 472              	.LFE117:
 473              		.size	VectorE0, .-VectorE0
 474 00b8 AFF30080 		.section	.text.Vector44,"ax",%progbits
 474      AFF30080 
 475              		.align	2
 476              		.p2align 4,,15
 477              		.global	Vector44
 478              		.thumb
 479              		.thumb_func
 480              		.type	Vector44, %function
 481              	Vector44:
 482              	.LFB118:
 483              		.loc 1 191 0
 484              		.cfi_startproc
 485              		@ args = 0, pretend = 0, frame = 0
 486              		@ frame_needed = 0, uses_anonymous_args = 0
 487 0000 10B5     		push	{r4, lr}
 488              	.LCFI7:
 489              		.cfi_def_cfa_offset 8
 490              		.cfi_offset 14, -4
 491              		.cfi_offset 4, -8
 492              		.loc 1 193 0
 493 0002 FFF7FEFF 		bl	dbg_check_enter_isr
 494              		.loc 1 196 0
 495 0006 40F20000 		movw	r0, #:lower16:EXTD1
 496 000a C0F20000 		movt	r0, #:upper16:EXTD1
 497              		.loc 1 195 0
 498 000e 4FF4705C 		mov	ip, #15360
 499              		.loc 1 196 0
 500 0012 4268     		ldr	r2, [r0, #4]
 501              		.loc 1 195 0
 502 0014 C4F2010C 		movt	ip, 16385
 503 0018 4FF48034 		mov	r4, #65536
 504              		.loc 1 196 0
 505 001c 1021     		movs	r1, #16
 506              		.loc 1 195 0
 507 001e CCF81440 		str	r4, [ip, #20]
 508              		.loc 1 196 0
 509 0022 D2F88430 		ldr	r3, [r2, #132]
 510 0026 9847     		blx	r3
 511              		.loc 1 198 0
 512 0028 FFF7FEFF 		bl	dbg_check_leave_isr
ARM GAS  /tmp/cc1l8JQI.s 			page 10


 513              		.loc 1 199 0
 514 002c BDE81040 		pop	{r4, lr}
 515              		.loc 1 198 0
 516 0030 FFF7FEBF 		b	_port_irq_epilogue
 517              		.cfi_endproc
 518              	.LFE118:
 519              		.size	Vector44, .-Vector44
 520 0034 AFF30080 		.section	.text.RTCAlarm_IRQHandler,"ax",%progbits
 520      AFF30080 
 520      AFF30080 
 521              		.align	2
 522              		.p2align 4,,15
 523              		.global	RTCAlarm_IRQHandler
 524              		.thumb
 525              		.thumb_func
 526              		.type	RTCAlarm_IRQHandler, %function
 527              	RTCAlarm_IRQHandler:
 528              	.LFB119:
 529              		.loc 1 206 0
 530              		.cfi_startproc
 531              		@ args = 0, pretend = 0, frame = 0
 532              		@ frame_needed = 0, uses_anonymous_args = 0
 533 0000 10B5     		push	{r4, lr}
 534              	.LCFI8:
 535              		.cfi_def_cfa_offset 8
 536              		.cfi_offset 14, -4
 537              		.cfi_offset 4, -8
 538              		.loc 1 208 0
 539 0002 FFF7FEFF 		bl	dbg_check_enter_isr
 540              		.loc 1 211 0
 541 0006 40F20000 		movw	r0, #:lower16:EXTD1
 542 000a C0F20000 		movt	r0, #:upper16:EXTD1
 543              		.loc 1 210 0
 544 000e 4FF4705C 		mov	ip, #15360
 545              		.loc 1 211 0
 546 0012 4268     		ldr	r2, [r0, #4]
 547              		.loc 1 210 0
 548 0014 C4F2010C 		movt	ip, 16385
 549 0018 4FF40034 		mov	r4, #131072
 550              		.loc 1 211 0
 551 001c 1121     		movs	r1, #17
 552              		.loc 1 210 0
 553 001e CCF81440 		str	r4, [ip, #20]
 554              		.loc 1 211 0
 555 0022 D2F88C30 		ldr	r3, [r2, #140]
 556 0026 9847     		blx	r3
 557              		.loc 1 213 0
 558 0028 FFF7FEFF 		bl	dbg_check_leave_isr
 559              		.loc 1 214 0
 560 002c BDE81040 		pop	{r4, lr}
 561              		.loc 1 213 0
 562 0030 FFF7FEBF 		b	_port_irq_epilogue
 563              		.cfi_endproc
 564              	.LFE119:
 565              		.size	RTCAlarm_IRQHandler, .-RTCAlarm_IRQHandler
 566 0034 AFF30080 		.section	.text.VectorE8,"ax",%progbits
 566      AFF30080 
ARM GAS  /tmp/cc1l8JQI.s 			page 11


 566      AFF30080 
 567              		.align	2
 568              		.p2align 4,,15
 569              		.global	VectorE8
 570              		.thumb
 571              		.thumb_func
 572              		.type	VectorE8, %function
 573              	VectorE8:
 574              	.LFB120:
 575              		.loc 1 221 0
 576              		.cfi_startproc
 577              		@ args = 0, pretend = 0, frame = 0
 578              		@ frame_needed = 0, uses_anonymous_args = 0
 579 0000 10B5     		push	{r4, lr}
 580              	.LCFI9:
 581              		.cfi_def_cfa_offset 8
 582              		.cfi_offset 14, -4
 583              		.cfi_offset 4, -8
 584              		.loc 1 223 0
 585 0002 FFF7FEFF 		bl	dbg_check_enter_isr
 586              		.loc 1 226 0
 587 0006 40F20000 		movw	r0, #:lower16:EXTD1
 588 000a C0F20000 		movt	r0, #:upper16:EXTD1
 589              		.loc 1 225 0
 590 000e 4FF4705C 		mov	ip, #15360
 591              		.loc 1 226 0
 592 0012 4268     		ldr	r2, [r0, #4]
 593              		.loc 1 225 0
 594 0014 C4F2010C 		movt	ip, 16385
 595 0018 4FF48024 		mov	r4, #262144
 596              		.loc 1 226 0
 597 001c 1221     		movs	r1, #18
 598              		.loc 1 225 0
 599 001e CCF81440 		str	r4, [ip, #20]
 600              		.loc 1 226 0
 601 0022 D2F89430 		ldr	r3, [r2, #148]
 602 0026 9847     		blx	r3
 603              		.loc 1 228 0
 604 0028 FFF7FEFF 		bl	dbg_check_leave_isr
 605              		.loc 1 229 0
 606 002c BDE81040 		pop	{r4, lr}
 607              		.loc 1 228 0
 608 0030 FFF7FEBF 		b	_port_irq_epilogue
 609              		.cfi_endproc
 610              	.LFE120:
 611              		.size	VectorE8, .-VectorE8
 612 0034 AFF30080 		.section	.text.Vector138,"ax",%progbits
 612      AFF30080 
 612      AFF30080 
 613              		.align	2
 614              		.p2align 4,,15
 615              		.global	Vector138
 616              		.thumb
 617              		.thumb_func
 618              		.type	Vector138, %function
 619              	Vector138:
 620              	.LFB121:
ARM GAS  /tmp/cc1l8JQI.s 			page 12


 621              		.loc 1 236 0
 622              		.cfi_startproc
 623              		@ args = 0, pretend = 0, frame = 0
 624              		@ frame_needed = 0, uses_anonymous_args = 0
 625 0000 10B5     		push	{r4, lr}
 626              	.LCFI10:
 627              		.cfi_def_cfa_offset 8
 628              		.cfi_offset 14, -4
 629              		.cfi_offset 4, -8
 630              		.loc 1 238 0
 631 0002 FFF7FEFF 		bl	dbg_check_enter_isr
 632              		.loc 1 241 0
 633 0006 40F20000 		movw	r0, #:lower16:EXTD1
 634 000a C0F20000 		movt	r0, #:upper16:EXTD1
 635              		.loc 1 240 0
 636 000e 4FF4705C 		mov	ip, #15360
 637              		.loc 1 241 0
 638 0012 4268     		ldr	r2, [r0, #4]
 639              		.loc 1 240 0
 640 0014 C4F2010C 		movt	ip, 16385
 641 0018 4FF40024 		mov	r4, #524288
 642              		.loc 1 241 0
 643 001c 1321     		movs	r1, #19
 644              		.loc 1 240 0
 645 001e CCF81440 		str	r4, [ip, #20]
 646              		.loc 1 241 0
 647 0022 D2F89C30 		ldr	r3, [r2, #156]
 648 0026 9847     		blx	r3
 649              		.loc 1 243 0
 650 0028 FFF7FEFF 		bl	dbg_check_leave_isr
 651              		.loc 1 244 0
 652 002c BDE81040 		pop	{r4, lr}
 653              		.loc 1 243 0
 654 0030 FFF7FEBF 		b	_port_irq_epilogue
 655              		.cfi_endproc
 656              	.LFE121:
 657              		.size	Vector138, .-Vector138
 658 0034 AFF30080 		.section	.text.Vector170,"ax",%progbits
 658      AFF30080 
 658      AFF30080 
 659              		.align	2
 660              		.p2align 4,,15
 661              		.global	Vector170
 662              		.thumb
 663              		.thumb_func
 664              		.type	Vector170, %function
 665              	Vector170:
 666              	.LFB122:
 667              		.loc 1 251 0
 668              		.cfi_startproc
 669              		@ args = 0, pretend = 0, frame = 0
 670              		@ frame_needed = 0, uses_anonymous_args = 0
 671 0000 10B5     		push	{r4, lr}
 672              	.LCFI11:
 673              		.cfi_def_cfa_offset 8
 674              		.cfi_offset 14, -4
 675              		.cfi_offset 4, -8
ARM GAS  /tmp/cc1l8JQI.s 			page 13


 676              		.loc 1 253 0
 677 0002 FFF7FEFF 		bl	dbg_check_enter_isr
 678              		.loc 1 256 0
 679 0006 40F20000 		movw	r0, #:lower16:EXTD1
 680 000a C0F20000 		movt	r0, #:upper16:EXTD1
 681              		.loc 1 255 0
 682 000e 4FF4705C 		mov	ip, #15360
 683              		.loc 1 256 0
 684 0012 4268     		ldr	r2, [r0, #4]
 685              		.loc 1 255 0
 686 0014 C4F2010C 		movt	ip, 16385
 687 0018 4FF48014 		mov	r4, #1048576
 688              		.loc 1 256 0
 689 001c 1421     		movs	r1, #20
 690              		.loc 1 255 0
 691 001e CCF81440 		str	r4, [ip, #20]
 692              		.loc 1 256 0
 693 0022 D2F8A430 		ldr	r3, [r2, #164]
 694 0026 9847     		blx	r3
 695              		.loc 1 258 0
 696 0028 FFF7FEFF 		bl	dbg_check_leave_isr
 697              		.loc 1 259 0
 698 002c BDE81040 		pop	{r4, lr}
 699              		.loc 1 258 0
 700 0030 FFF7FEBF 		b	_port_irq_epilogue
 701              		.cfi_endproc
 702              	.LFE122:
 703              		.size	Vector170, .-Vector170
 704 0034 AFF30080 		.section	.text.TAMPER_STAMP_IRQHandler,"ax",%progbits
 704      AFF30080 
 704      AFF30080 
 705              		.align	2
 706              		.p2align 4,,15
 707              		.global	TAMPER_STAMP_IRQHandler
 708              		.thumb
 709              		.thumb_func
 710              		.type	TAMPER_STAMP_IRQHandler, %function
 711              	TAMPER_STAMP_IRQHandler:
 712              	.LFB123:
 713              		.loc 1 266 0
 714              		.cfi_startproc
 715              		@ args = 0, pretend = 0, frame = 0
 716              		@ frame_needed = 0, uses_anonymous_args = 0
 717 0000 10B5     		push	{r4, lr}
 718              	.LCFI12:
 719              		.cfi_def_cfa_offset 8
 720              		.cfi_offset 14, -4
 721              		.cfi_offset 4, -8
 722              		.loc 1 268 0
 723 0002 FFF7FEFF 		bl	dbg_check_enter_isr
 724              		.loc 1 271 0
 725 0006 40F20000 		movw	r0, #:lower16:EXTD1
 726 000a C0F20000 		movt	r0, #:upper16:EXTD1
 727              		.loc 1 270 0
 728 000e 4FF4705C 		mov	ip, #15360
 729              		.loc 1 271 0
 730 0012 4268     		ldr	r2, [r0, #4]
ARM GAS  /tmp/cc1l8JQI.s 			page 14


 731              		.loc 1 270 0
 732 0014 C4F2010C 		movt	ip, 16385
 733 0018 4FF40014 		mov	r4, #2097152
 734              		.loc 1 271 0
 735 001c 1521     		movs	r1, #21
 736              		.loc 1 270 0
 737 001e CCF81440 		str	r4, [ip, #20]
 738              		.loc 1 271 0
 739 0022 D2F8AC30 		ldr	r3, [r2, #172]
 740 0026 9847     		blx	r3
 741              		.loc 1 273 0
 742 0028 FFF7FEFF 		bl	dbg_check_leave_isr
 743              		.loc 1 274 0
 744 002c BDE81040 		pop	{r4, lr}
 745              		.loc 1 273 0
 746 0030 FFF7FEBF 		b	_port_irq_epilogue
 747              		.cfi_endproc
 748              	.LFE123:
 749              		.size	TAMPER_STAMP_IRQHandler, .-TAMPER_STAMP_IRQHandler
 750 0034 AFF30080 		.section	.text.Vector4C,"ax",%progbits
 750      AFF30080 
 750      AFF30080 
 751              		.align	2
 752              		.p2align 4,,15
 753              		.global	Vector4C
 754              		.thumb
 755              		.thumb_func
 756              		.type	Vector4C, %function
 757              	Vector4C:
 758              	.LFB124:
 759              		.loc 1 281 0
 760              		.cfi_startproc
 761              		@ args = 0, pretend = 0, frame = 0
 762              		@ frame_needed = 0, uses_anonymous_args = 0
 763 0000 10B5     		push	{r4, lr}
 764              	.LCFI13:
 765              		.cfi_def_cfa_offset 8
 766              		.cfi_offset 14, -4
 767              		.cfi_offset 4, -8
 768              		.loc 1 283 0
 769 0002 FFF7FEFF 		bl	dbg_check_enter_isr
 770              		.loc 1 286 0
 771 0006 40F20000 		movw	r0, #:lower16:EXTD1
 772 000a C0F20000 		movt	r0, #:upper16:EXTD1
 773              		.loc 1 285 0
 774 000e 4FF4705C 		mov	ip, #15360
 775              		.loc 1 286 0
 776 0012 4268     		ldr	r2, [r0, #4]
 777              		.loc 1 285 0
 778 0014 C4F2010C 		movt	ip, 16385
 779 0018 4FF48004 		mov	r4, #4194304
 780              		.loc 1 286 0
 781 001c 1621     		movs	r1, #22
 782              		.loc 1 285 0
 783 001e CCF81440 		str	r4, [ip, #20]
 784              		.loc 1 286 0
 785 0022 D2F8B430 		ldr	r3, [r2, #180]
ARM GAS  /tmp/cc1l8JQI.s 			page 15


 786 0026 9847     		blx	r3
 787              		.loc 1 288 0
 788 0028 FFF7FEFF 		bl	dbg_check_leave_isr
 789              		.loc 1 289 0
 790 002c BDE81040 		pop	{r4, lr}
 791              		.loc 1 288 0
 792 0030 FFF7FEBF 		b	_port_irq_epilogue
 793              		.cfi_endproc
 794              	.LFE124:
 795              		.size	Vector4C, .-Vector4C
 796 0034 AFF30080 		.section	.text.ext_lld_exti_irq_enable,"ax",%progbits
 796      AFF30080 
 796      AFF30080 
 797              		.align	2
 798              		.p2align 4,,15
 799              		.global	ext_lld_exti_irq_enable
 800              		.thumb
 801              		.thumb_func
 802              		.type	ext_lld_exti_irq_enable, %function
 803              	ext_lld_exti_irq_enable:
 804              	.LFB125:
 805              		.loc 1 300 0
 806              		.cfi_startproc
 807              		@ args = 0, pretend = 0, frame = 0
 808              		@ frame_needed = 0, uses_anonymous_args = 0
 809 0000 08B5     		push	{r3, lr}
 810              	.LCFI14:
 811              		.cfi_def_cfa_offset 8
 812              		.cfi_offset 14, -4
 813              		.cfi_offset 3, -8
 814              		.loc 1 302 0
 815 0002 0620     		movs	r0, #6
 816 0004 6021     		movs	r1, #96
 817 0006 FFF7FEFF 		bl	nvicEnableVector
 818              		.loc 1 304 0
 819 000a 0720     		movs	r0, #7
 820 000c 6021     		movs	r1, #96
 821 000e FFF7FEFF 		bl	nvicEnableVector
 822              		.loc 1 306 0
 823 0012 0820     		movs	r0, #8
 824 0014 6021     		movs	r1, #96
 825 0016 FFF7FEFF 		bl	nvicEnableVector
 826              		.loc 1 308 0
 827 001a 0920     		movs	r0, #9
 828 001c 6021     		movs	r1, #96
 829 001e FFF7FEFF 		bl	nvicEnableVector
 830              		.loc 1 310 0
 831 0022 0A20     		movs	r0, #10
 832 0024 6021     		movs	r1, #96
 833 0026 FFF7FEFF 		bl	nvicEnableVector
 834              		.loc 1 312 0
 835 002a 1720     		movs	r0, #23
 836 002c 6021     		movs	r1, #96
 837 002e FFF7FEFF 		bl	nvicEnableVector
 838              		.loc 1 314 0
 839 0032 2820     		movs	r0, #40
 840 0034 6021     		movs	r1, #96
ARM GAS  /tmp/cc1l8JQI.s 			page 16


 841 0036 FFF7FEFF 		bl	nvicEnableVector
 842              		.loc 1 316 0
 843 003a 0120     		movs	r0, #1
 844 003c 6021     		movs	r1, #96
 845 003e FFF7FEFF 		bl	nvicEnableVector
 846              		.loc 1 318 0
 847 0042 2920     		movs	r0, #41
 848 0044 F021     		movs	r1, #240
 849 0046 FFF7FEFF 		bl	nvicEnableVector
 850              		.loc 1 320 0
 851 004a 2A20     		movs	r0, #42
 852 004c 6021     		movs	r1, #96
 853 004e FFF7FEFF 		bl	nvicEnableVector
 854              		.loc 1 322 0
 855 0052 6021     		movs	r1, #96
 856 0054 3E20     		movs	r0, #62
 857 0056 FFF7FEFF 		bl	nvicEnableVector
 858              		.loc 1 324 0
 859 005a 4C20     		movs	r0, #76
 860 005c 6021     		movs	r1, #96
 861 005e FFF7FEFF 		bl	nvicEnableVector
 862              		.loc 1 326 0
 863 0062 0220     		movs	r0, #2
 864 0064 F021     		movs	r1, #240
 865 0066 FFF7FEFF 		bl	nvicEnableVector
 866              		.loc 1 328 0
 867 006a 0320     		movs	r0, #3
 868 006c F021     		movs	r1, #240
 869              		.loc 1 330 0
 870 006e BDE80840 		pop	{r3, lr}
 871              		.loc 1 328 0
 872 0072 FFF7FEBF 		b	nvicEnableVector
 873              		.cfi_endproc
 874              	.LFE125:
 875              		.size	ext_lld_exti_irq_enable, .-ext_lld_exti_irq_enable
 876 0076 00BFAFF3 		.section	.text.ext_lld_exti_irq_disable,"ax",%progbits
 876      0080AFF3 
 876      0080
 877              		.align	2
 878              		.p2align 4,,15
 879              		.global	ext_lld_exti_irq_disable
 880              		.thumb
 881              		.thumb_func
 882              		.type	ext_lld_exti_irq_disable, %function
 883              	ext_lld_exti_irq_disable:
 884              	.LFB126:
 885              		.loc 1 337 0
 886              		.cfi_startproc
 887              		@ args = 0, pretend = 0, frame = 0
 888              		@ frame_needed = 0, uses_anonymous_args = 0
 889 0000 08B5     		push	{r3, lr}
 890              	.LCFI15:
 891              		.cfi_def_cfa_offset 8
 892              		.cfi_offset 14, -4
 893              		.cfi_offset 3, -8
 894              		.loc 1 339 0
 895 0002 0620     		movs	r0, #6
ARM GAS  /tmp/cc1l8JQI.s 			page 17


 896 0004 FFF7FEFF 		bl	nvicDisableVector
 897              		.loc 1 340 0
 898 0008 0720     		movs	r0, #7
 899 000a FFF7FEFF 		bl	nvicDisableVector
 900              		.loc 1 341 0
 901 000e 0820     		movs	r0, #8
 902 0010 FFF7FEFF 		bl	nvicDisableVector
 903              		.loc 1 342 0
 904 0014 0920     		movs	r0, #9
 905 0016 FFF7FEFF 		bl	nvicDisableVector
 906              		.loc 1 343 0
 907 001a 0A20     		movs	r0, #10
 908 001c FFF7FEFF 		bl	nvicDisableVector
 909              		.loc 1 344 0
 910 0020 1720     		movs	r0, #23
 911 0022 FFF7FEFF 		bl	nvicDisableVector
 912              		.loc 1 345 0
 913 0026 2820     		movs	r0, #40
 914 0028 FFF7FEFF 		bl	nvicDisableVector
 915              		.loc 1 346 0
 916 002c 0120     		movs	r0, #1
 917 002e FFF7FEFF 		bl	nvicDisableVector
 918              		.loc 1 347 0
 919 0032 2920     		movs	r0, #41
 920 0034 FFF7FEFF 		bl	nvicDisableVector
 921              		.loc 1 348 0
 922 0038 2A20     		movs	r0, #42
 923 003a FFF7FEFF 		bl	nvicDisableVector
 924              		.loc 1 349 0
 925 003e 3E20     		movs	r0, #62
 926 0040 FFF7FEFF 		bl	nvicDisableVector
 927              		.loc 1 350 0
 928 0044 4C20     		movs	r0, #76
 929 0046 FFF7FEFF 		bl	nvicDisableVector
 930              		.loc 1 351 0
 931 004a 0220     		movs	r0, #2
 932 004c FFF7FEFF 		bl	nvicDisableVector
 933              		.loc 1 352 0
 934 0050 0320     		movs	r0, #3
 935              		.loc 1 353 0
 936 0052 BDE80840 		pop	{r3, lr}
 937              		.loc 1 352 0
 938 0056 FFF7FEBF 		b	nvicDisableVector
 939              		.cfi_endproc
 940              	.LFE126:
 941              		.size	ext_lld_exti_irq_disable, .-ext_lld_exti_irq_disable
 942 005a 00BFAFF3 		.text
 942      0080
 943              	.Letext0:
 944              		.file 2 "/home/prana/CodeSourcery/ARM_EABI/bin/../lib/gcc/arm-none-eabi/4.6.3/../../../../arm-none
 945              		.file 3 "../../../os/hal/platforms/STM32F4xx/stm32f4xx.h"
 946              		.file 4 "../../../os/hal/include/ext.h"
 947              		.file 5 "../../../os/hal/platforms/STM32/ext_lld.h"
 948              		.file 6 "../../../os/ports/common/ARMCMx/CMSIS/include/core_cm4.h"
 949              		.section	.debug_info,"",%progbits
 950              	.Ldebug_info0:
 951 0000 C7050000 		.4byte	0x5c7
ARM GAS  /tmp/cc1l8JQI.s 			page 18


 952 0004 0200     		.2byte	0x2
 953 0006 00000000 		.4byte	.Ldebug_abbrev0
 954 000a 04       		.byte	0x4
 955 000b 01       		.uleb128 0x1
 956 000c E8050000 		.4byte	.LASF137
 957 0010 01       		.byte	0x1
 958 0011 2B010000 		.4byte	.LASF138
 959 0015 CA020000 		.4byte	.LASF139
 960 0019 00000000 		.4byte	0
 961 001d 00000000 		.4byte	0
 962 0021 00000000 		.4byte	.Ldebug_ranges0+0
 963 0025 00000000 		.4byte	.Ldebug_line0
 964 0029 02       		.uleb128 0x2
 965 002a 04       		.byte	0x4
 966 002b 05       		.byte	0x5
 967 002c 696E7400 		.ascii	"int\000"
 968 0030 03       		.uleb128 0x3
 969 0031 04       		.byte	0x4
 970 0032 07       		.byte	0x7
 971 0033 42020000 		.4byte	.LASF0
 972 0037 03       		.uleb128 0x3
 973 0038 01       		.byte	0x1
 974 0039 06       		.byte	0x6
 975 003a FF000000 		.4byte	.LASF1
 976 003e 03       		.uleb128 0x3
 977 003f 01       		.byte	0x1
 978 0040 08       		.byte	0x8
 979 0041 29050000 		.4byte	.LASF2
 980 0045 03       		.uleb128 0x3
 981 0046 02       		.byte	0x2
 982 0047 05       		.byte	0x5
 983 0048 80050000 		.4byte	.LASF3
 984 004c 03       		.uleb128 0x3
 985 004d 02       		.byte	0x2
 986 004e 07       		.byte	0x7
 987 004f FD020000 		.4byte	.LASF4
 988 0053 04       		.uleb128 0x4
 989 0054 21050000 		.4byte	.LASF6
 990 0058 02       		.byte	0x2
 991 0059 4F       		.byte	0x4f
 992 005a 5E000000 		.4byte	0x5e
 993 005e 03       		.uleb128 0x3
 994 005f 04       		.byte	0x4
 995 0060 05       		.byte	0x5
 996 0061 6C010000 		.4byte	.LASF5
 997 0065 04       		.uleb128 0x4
 998 0066 C3050000 		.4byte	.LASF7
 999 006a 02       		.byte	0x2
 1000 006b 50       		.byte	0x50
 1001 006c 70000000 		.4byte	0x70
 1002 0070 03       		.uleb128 0x3
 1003 0071 04       		.byte	0x4
 1004 0072 07       		.byte	0x7
 1005 0073 9B020000 		.4byte	.LASF8
 1006 0077 03       		.uleb128 0x3
 1007 0078 08       		.byte	0x8
 1008 0079 05       		.byte	0x5
ARM GAS  /tmp/cc1l8JQI.s 			page 19


 1009 007a F1000000 		.4byte	.LASF9
 1010 007e 03       		.uleb128 0x3
 1011 007f 08       		.byte	0x8
 1012 0080 07       		.byte	0x7
 1013 0081 85000000 		.4byte	.LASF10
 1014 0085 05       		.uleb128 0x5
 1015 0086 65000000 		.4byte	0x65
 1016 008a 03       		.uleb128 0x3
 1017 008b 01       		.byte	0x1
 1018 008c 08       		.byte	0x8
 1019 008d 1B060000 		.4byte	.LASF11
 1020 0091 06       		.uleb128 0x6
 1021 0092 C3030000 		.4byte	.LASF140
 1022 0096 01       		.byte	0x1
 1023 0097 03       		.byte	0x3
 1024 0098 8C       		.byte	0x8c
 1025 0099 CC020000 		.4byte	0x2cc
 1026 009d 07       		.uleb128 0x7
 1027 009e 61060000 		.4byte	.LASF12
 1028 00a2 72       		.sleb128 -14
 1029 00a3 07       		.uleb128 0x7
 1030 00a4 78020000 		.4byte	.LASF13
 1031 00a8 74       		.sleb128 -12
 1032 00a9 07       		.uleb128 0x7
 1033 00aa F8010000 		.4byte	.LASF14
 1034 00ae 75       		.sleb128 -11
 1035 00af 07       		.uleb128 0x7
 1036 00b0 D8050000 		.4byte	.LASF15
 1037 00b4 76       		.sleb128 -10
 1038 00b5 07       		.uleb128 0x7
 1039 00b6 0F060000 		.4byte	.LASF16
 1040 00ba 7B       		.sleb128 -5
 1041 00bb 07       		.uleb128 0x7
 1042 00bc 82060000 		.4byte	.LASF17
 1043 00c0 7C       		.sleb128 -4
 1044 00c1 07       		.uleb128 0x7
 1045 00c2 D9010000 		.4byte	.LASF18
 1046 00c6 7E       		.sleb128 -2
 1047 00c7 07       		.uleb128 0x7
 1048 00c8 74030000 		.4byte	.LASF19
 1049 00cc 7F       		.sleb128 -1
 1050 00cd 07       		.uleb128 0x7
 1051 00ce D0000000 		.4byte	.LASF20
 1052 00d2 00       		.sleb128 0
 1053 00d3 07       		.uleb128 0x7
 1054 00d4 0E000000 		.4byte	.LASF21
 1055 00d8 01       		.sleb128 1
 1056 00d9 07       		.uleb128 0x7
 1057 00da A5040000 		.4byte	.LASF22
 1058 00de 02       		.sleb128 2
 1059 00df 07       		.uleb128 0x7
 1060 00e0 C2000000 		.4byte	.LASF23
 1061 00e4 03       		.sleb128 3
 1062 00e5 07       		.uleb128 0x7
 1063 00e6 B8050000 		.4byte	.LASF24
 1064 00ea 04       		.sleb128 4
 1065 00eb 07       		.uleb128 0x7
ARM GAS  /tmp/cc1l8JQI.s 			page 20


 1066 00ec 4C070000 		.4byte	.LASF25
 1067 00f0 05       		.sleb128 5
 1068 00f1 07       		.uleb128 0x7
 1069 00f2 C6060000 		.4byte	.LASF26
 1070 00f6 06       		.sleb128 6
 1071 00f7 07       		.uleb128 0x7
 1072 00f8 70070000 		.4byte	.LASF27
 1073 00fc 07       		.sleb128 7
 1074 00fd 07       		.uleb128 0x7
 1075 00fe AD050000 		.4byte	.LASF28
 1076 0102 08       		.sleb128 8
 1077 0103 07       		.uleb128 0x7
 1078 0104 53040000 		.4byte	.LASF29
 1079 0108 09       		.sleb128 9
 1080 0109 07       		.uleb128 0x7
 1081 010a 67050000 		.4byte	.LASF30
 1082 010e 0A       		.sleb128 10
 1083 010f 07       		.uleb128 0x7
 1084 0110 7B070000 		.4byte	.LASF31
 1085 0114 0B       		.sleb128 11
 1086 0115 07       		.uleb128 0x7
 1087 0116 4E030000 		.4byte	.LASF32
 1088 011a 0C       		.sleb128 12
 1089 011b 07       		.uleb128 0x7
 1090 011c 68040000 		.4byte	.LASF33
 1091 0120 0D       		.sleb128 13
 1092 0121 07       		.uleb128 0x7
 1093 0122 4F020000 		.4byte	.LASF34
 1094 0126 0E       		.sleb128 14
 1095 0127 07       		.uleb128 0x7
 1096 0128 19040000 		.4byte	.LASF35
 1097 012c 0F       		.sleb128 15
 1098 012d 07       		.uleb128 0x7
 1099 012e 82010000 		.4byte	.LASF36
 1100 0132 10       		.sleb128 16
 1101 0133 07       		.uleb128 0x7
 1102 0134 61020000 		.4byte	.LASF37
 1103 0138 11       		.sleb128 17
 1104 0139 07       		.uleb128 0x7
 1105 013a 0F070000 		.4byte	.LASF38
 1106 013e 12       		.sleb128 18
 1107 013f 07       		.uleb128 0x7
 1108 0140 28030000 		.4byte	.LASF39
 1109 0144 13       		.sleb128 19
 1110 0145 07       		.uleb128 0x7
 1111 0146 00000000 		.4byte	.LASF40
 1112 014a 14       		.sleb128 20
 1113 014b 07       		.uleb128 0x7
 1114 014c 77000000 		.4byte	.LASF41
 1115 0150 15       		.sleb128 21
 1116 0151 07       		.uleb128 0x7
 1117 0152 30070000 		.4byte	.LASF42
 1118 0156 16       		.sleb128 22
 1119 0157 07       		.uleb128 0x7
 1120 0158 94010000 		.4byte	.LASF43
 1121 015c 17       		.sleb128 23
 1122 015d 07       		.uleb128 0x7
ARM GAS  /tmp/cc1l8JQI.s 			page 21


 1123 015e 42050000 		.4byte	.LASF44
 1124 0162 18       		.sleb128 24
 1125 0163 07       		.uleb128 0x7
 1126 0164 DC030000 		.4byte	.LASF45
 1127 0168 19       		.sleb128 25
 1128 0169 07       		.uleb128 0x7
 1129 016a 95050000 		.4byte	.LASF46
 1130 016e 1A       		.sleb128 26
 1131 016f 07       		.uleb128 0x7
 1132 0170 81030000 		.4byte	.LASF47
 1133 0174 1B       		.sleb128 27
 1134 0175 07       		.uleb128 0x7
 1135 0176 BC060000 		.4byte	.LASF48
 1136 017a 1C       		.sleb128 28
 1137 017b 07       		.uleb128 0x7
 1138 017c 66070000 		.4byte	.LASF49
 1139 0180 1D       		.sleb128 29
 1140 0181 07       		.uleb128 0x7
 1141 0182 B8000000 		.4byte	.LASF50
 1142 0186 1E       		.sleb128 30
 1143 0187 07       		.uleb128 0x7
 1144 0188 3B000000 		.4byte	.LASF51
 1145 018c 1F       		.sleb128 31
 1146 018d 07       		.uleb128 0x7
 1147 018e 75060000 		.4byte	.LASF52
 1148 0192 20       		.sleb128 32
 1149 0193 07       		.uleb128 0x7
 1150 0194 75010000 		.4byte	.LASF53
 1151 0198 21       		.sleb128 33
 1152 0199 07       		.uleb128 0x7
 1153 019a AB000000 		.4byte	.LASF54
 1154 019e 22       		.sleb128 34
 1155 019f 07       		.uleb128 0x7
 1156 01a0 44030000 		.4byte	.LASF55
 1157 01a4 23       		.sleb128 35
 1158 01a5 07       		.uleb128 0x7
 1159 01a6 5E040000 		.4byte	.LASF56
 1160 01aa 24       		.sleb128 36
 1161 01ab 07       		.uleb128 0x7
 1162 01ac EF040000 		.4byte	.LASF57
 1163 01b0 25       		.sleb128 37
 1164 01b1 07       		.uleb128 0x7
 1165 01b2 CC050000 		.4byte	.LASF58
 1166 01b6 26       		.sleb128 38
 1167 01b7 07       		.uleb128 0x7
 1168 01b8 A6060000 		.4byte	.LASF59
 1169 01bc 27       		.sleb128 39
 1170 01bd 07       		.uleb128 0x7
 1171 01be 35030000 		.4byte	.LASF60
 1172 01c2 28       		.sleb128 40
 1173 01c3 07       		.uleb128 0x7
 1174 01c4 9C000000 		.4byte	.LASF61
 1175 01c8 29       		.sleb128 41
 1176 01c9 07       		.uleb128 0x7
 1177 01ca 06020000 		.4byte	.LASF62
 1178 01ce 2A       		.sleb128 42
 1179 01cf 07       		.uleb128 0x7
ARM GAS  /tmp/cc1l8JQI.s 			page 22


 1180 01d0 60030000 		.4byte	.LASF63
 1181 01d4 2B       		.sleb128 43
 1182 01d5 07       		.uleb128 0x7
 1183 01d6 E5010000 		.4byte	.LASF64
 1184 01da 2C       		.sleb128 44
 1185 01db 07       		.uleb128 0x7
 1186 01dc 8E030000 		.4byte	.LASF65
 1187 01e0 2D       		.sleb128 45
 1188 01e1 07       		.uleb128 0x7
 1189 01e2 E4000000 		.4byte	.LASF66
 1190 01e6 2E       		.sleb128 46
 1191 01e7 07       		.uleb128 0x7
 1192 01e8 F4050000 		.4byte	.LASF67
 1193 01ec 2F       		.sleb128 47
 1194 01ed 07       		.uleb128 0x7
 1195 01ee 17050000 		.4byte	.LASF68
 1196 01f2 30       		.sleb128 48
 1197 01f3 07       		.uleb128 0x7
 1198 01f4 DA000000 		.4byte	.LASF69
 1199 01f8 31       		.sleb128 49
 1200 01f9 07       		.uleb128 0x7
 1201 01fa 49040000 		.4byte	.LASF70
 1202 01fe 32       		.sleb128 50
 1203 01ff 07       		.uleb128 0x7
 1204 0200 FB040000 		.4byte	.LASF71
 1205 0204 33       		.sleb128 51
 1206 0205 07       		.uleb128 0x7
 1207 0206 BD010000 		.4byte	.LASF72
 1208 020a 34       		.sleb128 52
 1209 020b 07       		.uleb128 0x7
 1210 020c 8A050000 		.4byte	.LASF73
 1211 0210 35       		.sleb128 53
 1212 0211 07       		.uleb128 0x7
 1213 0212 AF010000 		.4byte	.LASF74
 1214 0216 36       		.sleb128 54
 1215 0217 07       		.uleb128 0x7
 1216 0218 44060000 		.4byte	.LASF75
 1217 021c 37       		.sleb128 55
 1218 021d 07       		.uleb128 0x7
 1219 021e 94060000 		.4byte	.LASF76
 1220 0222 38       		.sleb128 56
 1221 0223 07       		.uleb128 0x7
 1222 0224 18070000 		.4byte	.LASF77
 1223 0228 39       		.sleb128 57
 1224 0229 07       		.uleb128 0x7
 1225 022a 2B040000 		.4byte	.LASF78
 1226 022e 3A       		.sleb128 58
 1227 022f 07       		.uleb128 0x7
 1228 0230 07040000 		.4byte	.LASF79
 1229 0234 3B       		.sleb128 59
 1230 0235 07       		.uleb128 0x7
 1231 0236 05050000 		.4byte	.LASF80
 1232 023a 3C       		.sleb128 60
 1233 023b 07       		.uleb128 0x7
 1234 023c BA030000 		.4byte	.LASF81
 1235 0240 3D       		.sleb128 61
 1236 0241 07       		.uleb128 0x7
ARM GAS  /tmp/cc1l8JQI.s 			page 23


 1237 0242 A1010000 		.4byte	.LASF82
 1238 0246 3E       		.sleb128 62
 1239 0247 07       		.uleb128 0x7
 1240 0248 7A040000 		.4byte	.LASF83
 1241 024c 3F       		.sleb128 63
 1242 024d 07       		.uleb128 0x7
 1243 024e 17000000 		.4byte	.LASF84
 1244 0252 C000     		.sleb128 64
 1245 0254 07       		.uleb128 0x7
 1246 0255 0B010000 		.4byte	.LASF85
 1247 0259 C100     		.sleb128 65
 1248 025b 07       		.uleb128 0x7
 1249 025c 3E070000 		.4byte	.LASF86
 1250 0260 C200     		.sleb128 66
 1251 0262 07       		.uleb128 0x7
 1252 0263 87040000 		.4byte	.LASF87
 1253 0267 C300     		.sleb128 67
 1254 0269 07       		.uleb128 0x7
 1255 026a 55000000 		.4byte	.LASF88
 1256 026e C400     		.sleb128 68
 1257 0270 07       		.uleb128 0x7
 1258 0271 19010000 		.4byte	.LASF89
 1259 0275 C500     		.sleb128 69
 1260 0277 07       		.uleb128 0x7
 1261 0278 17020000 		.4byte	.LASF90
 1262 027c C600     		.sleb128 70
 1263 027e 07       		.uleb128 0x7
 1264 027f 3D040000 		.4byte	.LASF91
 1265 0283 C700     		.sleb128 71
 1266 0285 07       		.uleb128 0x7
 1267 0286 8E020000 		.4byte	.LASF92
 1268 028a C800     		.sleb128 72
 1269 028c 07       		.uleb128 0x7
 1270 028d 2E000000 		.4byte	.LASF93
 1271 0291 C900     		.sleb128 73
 1272 0293 07       		.uleb128 0x7
 1273 0294 B6020000 		.4byte	.LASF94
 1274 0298 CA00     		.sleb128 74
 1275 029a 07       		.uleb128 0x7
 1276 029b 4E060000 		.4byte	.LASF95
 1277 029f CB00     		.sleb128 75
 1278 02a1 07       		.uleb128 0x7
 1279 02a2 55070000 		.4byte	.LASF96
 1280 02a6 CC00     		.sleb128 76
 1281 02a8 07       		.uleb128 0x7
 1282 02a9 B5040000 		.4byte	.LASF97
 1283 02ad CD00     		.sleb128 77
 1284 02af 07       		.uleb128 0x7
 1285 02b0 D1060000 		.4byte	.LASF98
 1286 02b4 CE00     		.sleb128 78
 1287 02b6 07       		.uleb128 0x7
 1288 02b7 25060000 		.4byte	.LASF99
 1289 02bb CF00     		.sleb128 79
 1290 02bd 07       		.uleb128 0x7
 1291 02be 72050000 		.4byte	.LASF100
 1292 02c2 D000     		.sleb128 80
 1293 02c4 07       		.uleb128 0x7
ARM GAS  /tmp/cc1l8JQI.s 			page 24


 1294 02c5 E5060000 		.4byte	.LASF101
 1295 02c9 D100     		.sleb128 81
 1296 02cb 00       		.byte	0
 1297 02cc 05       		.uleb128 0x5
 1298 02cd 53000000 		.4byte	0x53
 1299 02d1 08       		.uleb128 0x8
 1300 02d2 18       		.byte	0x18
 1301 02d3 03       		.byte	0x3
 1302 02d4 3302     		.2byte	0x233
 1303 02d6 34030000 		.4byte	0x334
 1304 02da 09       		.uleb128 0x9
 1305 02db 494D5200 		.ascii	"IMR\000"
 1306 02df 03       		.byte	0x3
 1307 02e0 3502     		.2byte	0x235
 1308 02e2 85000000 		.4byte	0x85
 1309 02e6 02       		.byte	0x2
 1310 02e7 23       		.byte	0x23
 1311 02e8 00       		.uleb128 0
 1312 02e9 09       		.uleb128 0x9
 1313 02ea 454D5200 		.ascii	"EMR\000"
 1314 02ee 03       		.byte	0x3
 1315 02ef 3602     		.2byte	0x236
 1316 02f1 85000000 		.4byte	0x85
 1317 02f5 02       		.byte	0x2
 1318 02f6 23       		.byte	0x23
 1319 02f7 04       		.uleb128 0x4
 1320 02f8 0A       		.uleb128 0xa
 1321 02f9 73020000 		.4byte	.LASF102
 1322 02fd 03       		.byte	0x3
 1323 02fe 3702     		.2byte	0x237
 1324 0300 85000000 		.4byte	0x85
 1325 0304 02       		.byte	0x2
 1326 0305 23       		.byte	0x23
 1327 0306 08       		.uleb128 0x8
 1328 0307 0A       		.uleb128 0xa
 1329 0308 62050000 		.4byte	.LASF103
 1330 030c 03       		.byte	0x3
 1331 030d 3802     		.2byte	0x238
 1332 030f 85000000 		.4byte	0x85
 1333 0313 02       		.byte	0x2
 1334 0314 23       		.byte	0x23
 1335 0315 0C       		.uleb128 0xc
 1336 0316 0A       		.uleb128 0xa
 1337 0317 67000000 		.4byte	.LASF104
 1338 031b 03       		.byte	0x3
 1339 031c 3902     		.2byte	0x239
 1340 031e 85000000 		.4byte	0x85
 1341 0322 02       		.byte	0x2
 1342 0323 23       		.byte	0x23
 1343 0324 10       		.uleb128 0x10
 1344 0325 09       		.uleb128 0x9
 1345 0326 505200   		.ascii	"PR\000"
 1346 0329 03       		.byte	0x3
 1347 032a 3A02     		.2byte	0x23a
 1348 032c 85000000 		.4byte	0x85
 1349 0330 02       		.byte	0x2
 1350 0331 23       		.byte	0x23
ARM GAS  /tmp/cc1l8JQI.s 			page 25


 1351 0332 14       		.uleb128 0x14
 1352 0333 00       		.byte	0
 1353 0334 0B       		.uleb128 0xb
 1354 0335 02070000 		.4byte	.LASF105
 1355 0339 03       		.byte	0x3
 1356 033a 3B02     		.2byte	0x23b
 1357 033c D1020000 		.4byte	0x2d1
 1358 0340 0C       		.uleb128 0xc
 1359 0341 01       		.byte	0x1
 1360 0342 04       		.byte	0x4
 1361 0343 43       		.byte	0x43
 1362 0344 5B030000 		.4byte	0x35b
 1363 0348 07       		.uleb128 0x7
 1364 0349 37050000 		.4byte	.LASF106
 1365 034d 00       		.sleb128 0
 1366 034e 07       		.uleb128 0x7
 1367 034f 06060000 		.4byte	.LASF107
 1368 0353 01       		.sleb128 1
 1369 0354 07       		.uleb128 0x7
 1370 0355 A6030000 		.4byte	.LASF108
 1371 0359 02       		.sleb128 2
 1372 035a 00       		.byte	0
 1373 035b 04       		.uleb128 0x4
 1374 035c D1030000 		.4byte	.LASF109
 1375 0360 04       		.byte	0x4
 1376 0361 47       		.byte	0x47
 1377 0362 40030000 		.4byte	0x340
 1378 0366 04       		.uleb128 0x4
 1379 0367 B2060000 		.4byte	.LASF110
 1380 036b 04       		.byte	0x4
 1381 036c 4C       		.byte	0x4c
 1382 036d 71030000 		.4byte	0x371
 1383 0371 0D       		.uleb128 0xd
 1384 0372 B2060000 		.4byte	.LASF110
 1385 0376 08       		.byte	0x8
 1386 0377 05       		.byte	0x5
 1387 0378 7A       		.byte	0x7a
 1388 0379 9A030000 		.4byte	0x39a
 1389 037d 0E       		.uleb128 0xe
 1390 037e 5D010000 		.4byte	.LASF111
 1391 0382 05       		.byte	0x5
 1392 0383 7E       		.byte	0x7e
 1393 0384 5B030000 		.4byte	0x35b
 1394 0388 02       		.byte	0x2
 1395 0389 23       		.byte	0x23
 1396 038a 00       		.uleb128 0
 1397 038b 0E       		.uleb128 0xe
 1398 038c 2F060000 		.4byte	.LASF112
 1399 0390 05       		.byte	0x5
 1400 0391 82       		.byte	0x82
 1401 0392 2E040000 		.4byte	0x42e
 1402 0396 02       		.byte	0x2
 1403 0397 23       		.byte	0x23
 1404 0398 04       		.uleb128 0x4
 1405 0399 00       		.byte	0
 1406 039a 04       		.uleb128 0x4
 1407 039b 48000000 		.4byte	.LASF113
ARM GAS  /tmp/cc1l8JQI.s 			page 26


 1408 039f 05       		.byte	0x5
 1409 03a0 50       		.byte	0x50
 1410 03a1 65000000 		.4byte	0x65
 1411 03a5 04       		.uleb128 0x4
 1412 03a6 36060000 		.4byte	.LASF114
 1413 03aa 05       		.byte	0x5
 1414 03ab 58       		.byte	0x58
 1415 03ac B0030000 		.4byte	0x3b0
 1416 03b0 0F       		.uleb128 0xf
 1417 03b1 04       		.byte	0x4
 1418 03b2 B6030000 		.4byte	0x3b6
 1419 03b6 10       		.uleb128 0x10
 1420 03b7 01       		.byte	0x1
 1421 03b8 C7030000 		.4byte	0x3c7
 1422 03bc 11       		.uleb128 0x11
 1423 03bd C7030000 		.4byte	0x3c7
 1424 03c1 11       		.uleb128 0x11
 1425 03c2 9A030000 		.4byte	0x39a
 1426 03c6 00       		.byte	0
 1427 03c7 0F       		.uleb128 0xf
 1428 03c8 04       		.byte	0x4
 1429 03c9 66030000 		.4byte	0x366
 1430 03cd 12       		.uleb128 0x12
 1431 03ce 08       		.byte	0x8
 1432 03cf 05       		.byte	0x5
 1433 03d0 5D       		.byte	0x5d
 1434 03d1 F1030000 		.4byte	0x3f1
 1435 03d5 0E       		.uleb128 0xe
 1436 03d6 20060000 		.4byte	.LASF115
 1437 03da 05       		.byte	0x5
 1438 03db 61       		.byte	0x61
 1439 03dc 65000000 		.4byte	0x65
 1440 03e0 02       		.byte	0x2
 1441 03e1 23       		.byte	0x23
 1442 03e2 00       		.uleb128 0
 1443 03e3 13       		.uleb128 0x13
 1444 03e4 636200   		.ascii	"cb\000"
 1445 03e7 05       		.byte	0x5
 1446 03e8 68       		.byte	0x68
 1447 03e9 A5030000 		.4byte	0x3a5
 1448 03ed 02       		.byte	0x2
 1449 03ee 23       		.byte	0x23
 1450 03ef 04       		.uleb128 0x4
 1451 03f0 00       		.byte	0
 1452 03f1 04       		.uleb128 0x4
 1453 03f2 C8010000 		.4byte	.LASF116
 1454 03f6 05       		.byte	0x5
 1455 03f7 69       		.byte	0x69
 1456 03f8 CD030000 		.4byte	0x3cd
 1457 03fc 12       		.uleb128 0x12
 1458 03fd B8       		.byte	0xb8
 1459 03fe 05       		.byte	0x5
 1460 03ff 6F       		.byte	0x6f
 1461 0400 13040000 		.4byte	0x413
 1462 0404 0E       		.uleb128 0xe
 1463 0405 63010000 		.4byte	.LASF117
 1464 0409 05       		.byte	0x5
ARM GAS  /tmp/cc1l8JQI.s 			page 27


 1465 040a 73       		.byte	0x73
 1466 040b 13040000 		.4byte	0x413
 1467 040f 02       		.byte	0x2
 1468 0410 23       		.byte	0x23
 1469 0411 00       		.uleb128 0
 1470 0412 00       		.byte	0
 1471 0413 14       		.uleb128 0x14
 1472 0414 F1030000 		.4byte	0x3f1
 1473 0418 23040000 		.4byte	0x423
 1474 041c 15       		.uleb128 0x15
 1475 041d 30000000 		.4byte	0x30
 1476 0421 16       		.byte	0x16
 1477 0422 00       		.byte	0
 1478 0423 04       		.uleb128 0x4
 1479 0424 DB060000 		.4byte	.LASF118
 1480 0428 05       		.byte	0x5
 1481 0429 75       		.byte	0x75
 1482 042a FC030000 		.4byte	0x3fc
 1483 042e 0F       		.uleb128 0xf
 1484 042f 04       		.byte	0x4
 1485 0430 34040000 		.4byte	0x434
 1486 0434 16       		.uleb128 0x16
 1487 0435 23040000 		.4byte	0x423
 1488 0439 17       		.uleb128 0x17
 1489 043a 01       		.byte	0x1
 1490 043b B1030000 		.4byte	.LASF119
 1491 043f 01       		.byte	0x1
 1492 0440 3D       		.byte	0x3d
 1493 0441 01       		.byte	0x1
 1494 0442 00000000 		.4byte	.LFB111
 1495 0446 30000000 		.4byte	.LFE111
 1496 044a 00000000 		.4byte	.LLST0
 1497 044e 17       		.uleb128 0x17
 1498 044f 01       		.byte	0x1
 1499 0450 C8030000 		.4byte	.LASF120
 1500 0454 01       		.byte	0x1
 1501 0455 4C       		.byte	0x4c
 1502 0456 01       		.byte	0x1
 1503 0457 00000000 		.4byte	.LFB112
 1504 045b 30000000 		.4byte	.LFE112
 1505 045f 20000000 		.4byte	.LLST1
 1506 0463 17       		.uleb128 0x17
 1507 0464 01       		.byte	0x1
 1508 0465 D4040000 		.4byte	.LASF121
 1509 0469 01       		.byte	0x1
 1510 046a 5B       		.byte	0x5b
 1511 046b 01       		.byte	0x1
 1512 046c 00000000 		.4byte	.LFB113
 1513 0470 30000000 		.4byte	.LFE113
 1514 0474 40000000 		.4byte	.LLST2
 1515 0478 17       		.uleb128 0x17
 1516 0479 01       		.byte	0x1
 1517 047a DD040000 		.4byte	.LASF122
 1518 047e 01       		.byte	0x1
 1519 047f 6A       		.byte	0x6a
 1520 0480 01       		.byte	0x1
 1521 0481 00000000 		.4byte	.LFB114
ARM GAS  /tmp/cc1l8JQI.s 			page 28


 1522 0485 30000000 		.4byte	.LFE114
 1523 0489 60000000 		.4byte	.LLST3
 1524 048d 17       		.uleb128 0x17
 1525 048e 01       		.byte	0x1
 1526 048f E6040000 		.4byte	.LASF123
 1527 0493 01       		.byte	0x1
 1528 0494 79       		.byte	0x79
 1529 0495 01       		.byte	0x1
 1530 0496 00000000 		.4byte	.LFB115
 1531 049a 30000000 		.4byte	.LFE115
 1532 049e 80000000 		.4byte	.LLST4
 1533 04a2 18       		.uleb128 0x18
 1534 04a3 01       		.byte	0x1
 1535 04a4 25000000 		.4byte	.LASF124
 1536 04a8 01       		.byte	0x1
 1537 04a9 88       		.byte	0x88
 1538 04aa 01       		.byte	0x1
 1539 04ab 00000000 		.4byte	.LFB116
 1540 04af 9E000000 		.4byte	.LFE116
 1541 04b3 A0000000 		.4byte	.LLST5
 1542 04b7 C8040000 		.4byte	0x4c8
 1543 04bb 19       		.uleb128 0x19
 1544 04bc 707200   		.ascii	"pr\000"
 1545 04bf 01       		.byte	0x1
 1546 04c0 89       		.byte	0x89
 1547 04c1 65000000 		.4byte	0x65
 1548 04c5 01       		.byte	0x1
 1549 04c6 54       		.byte	0x54
 1550 04c7 00       		.byte	0
 1551 04c8 18       		.uleb128 0x18
 1552 04c9 01       		.byte	0x1
 1553 04ca 9C040000 		.4byte	.LASF125
 1554 04ce 01       		.byte	0x1
 1555 04cf A2       		.byte	0xa2
 1556 04d0 01       		.byte	0x1
 1557 04d1 00000000 		.4byte	.LFB117
 1558 04d5 B8000000 		.4byte	.LFE117
 1559 04d9 C0000000 		.4byte	.LLST6
 1560 04dd EE040000 		.4byte	0x4ee
 1561 04e1 19       		.uleb128 0x19
 1562 04e2 707200   		.ascii	"pr\000"
 1563 04e5 01       		.byte	0x1
 1564 04e6 A3       		.byte	0xa3
 1565 04e7 65000000 		.4byte	0x65
 1566 04eb 01       		.byte	0x1
 1567 04ec 54       		.byte	0x54
 1568 04ed 00       		.byte	0
 1569 04ee 17       		.uleb128 0x17
 1570 04ef 01       		.byte	0x1
 1571 04f0 93040000 		.4byte	.LASF126
 1572 04f4 01       		.byte	0x1
 1573 04f5 BF       		.byte	0xbf
 1574 04f6 01       		.byte	0x1
 1575 04f7 00000000 		.4byte	.LFB118
 1576 04fb 34000000 		.4byte	.LFE118
 1577 04ff E0000000 		.4byte	.LLST7
 1578 0503 17       		.uleb128 0x17
ARM GAS  /tmp/cc1l8JQI.s 			page 29


 1579 0504 01       		.byte	0x1
 1580 0505 EE060000 		.4byte	.LASF127
 1581 0509 01       		.byte	0x1
 1582 050a CE       		.byte	0xce
 1583 050b 01       		.byte	0x1
 1584 050c 00000000 		.4byte	.LFB119
 1585 0510 34000000 		.4byte	.LFE119
 1586 0514 00010000 		.4byte	.LLST8
 1587 0518 17       		.uleb128 0x17
 1588 0519 01       		.byte	0x1
 1589 051a C1040000 		.4byte	.LASF128
 1590 051e 01       		.byte	0x1
 1591 051f DD       		.byte	0xdd
 1592 0520 01       		.byte	0x1
 1593 0521 00000000 		.4byte	.LFB120
 1594 0525 34000000 		.4byte	.LFE120
 1595 0529 20010000 		.4byte	.LLST9
 1596 052d 17       		.uleb128 0x17
 1597 052e 01       		.byte	0x1
 1598 052f 6D000000 		.4byte	.LASF129
 1599 0533 01       		.byte	0x1
 1600 0534 EC       		.byte	0xec
 1601 0535 01       		.byte	0x1
 1602 0536 00000000 		.4byte	.LFB121
 1603 053a 34000000 		.4byte	.LFE121
 1604 053e 40010000 		.4byte	.LLST10
 1605 0542 17       		.uleb128 0x17
 1606 0543 01       		.byte	0x1
 1607 0544 CA040000 		.4byte	.LASF130
 1608 0548 01       		.byte	0x1
 1609 0549 FB       		.byte	0xfb
 1610 054a 01       		.byte	0x1
 1611 054b 00000000 		.4byte	.LFB122
 1612 054f 34000000 		.4byte	.LFE122
 1613 0553 60010000 		.4byte	.LLST11
 1614 0557 1A       		.uleb128 0x1a
 1615 0558 01       		.byte	0x1
 1616 0559 EF030000 		.4byte	.LASF131
 1617 055d 01       		.byte	0x1
 1618 055e 0A01     		.2byte	0x10a
 1619 0560 01       		.byte	0x1
 1620 0561 00000000 		.4byte	.LFB123
 1621 0565 34000000 		.4byte	.LFE123
 1622 0569 80010000 		.4byte	.LLST12
 1623 056d 1A       		.uleb128 0x1a
 1624 056e 01       		.byte	0x1
 1625 056f AD020000 		.4byte	.LASF132
 1626 0573 01       		.byte	0x1
 1627 0574 1901     		.2byte	0x119
 1628 0576 01       		.byte	0x1
 1629 0577 00000000 		.4byte	.LFB124
 1630 057b 34000000 		.4byte	.LFE124
 1631 057f A0010000 		.4byte	.LLST13
 1632 0583 1A       		.uleb128 0x1a
 1633 0584 01       		.byte	0x1
 1634 0585 10030000 		.4byte	.LASF133
 1635 0589 01       		.byte	0x1
ARM GAS  /tmp/cc1l8JQI.s 			page 30


 1636 058a 2C01     		.2byte	0x12c
 1637 058c 01       		.byte	0x1
 1638 058d 00000000 		.4byte	.LFB125
 1639 0591 76000000 		.4byte	.LFE125
 1640 0595 C0010000 		.4byte	.LLST14
 1641 0599 1A       		.uleb128 0x1a
 1642 059a 01       		.byte	0x1
 1643 059b 29020000 		.4byte	.LASF134
 1644 059f 01       		.byte	0x1
 1645 05a0 5101     		.2byte	0x151
 1646 05a2 01       		.byte	0x1
 1647 05a3 00000000 		.4byte	.LFB126
 1648 05a7 5A000000 		.4byte	.LFE126
 1649 05ab E0010000 		.4byte	.LLST15
 1650 05af 1B       		.uleb128 0x1b
 1651 05b0 55050000 		.4byte	.LASF135
 1652 05b4 06       		.byte	0x6
 1653 05b5 9806     		.2byte	0x698
 1654 05b7 CC020000 		.4byte	0x2cc
 1655 05bb 01       		.byte	0x1
 1656 05bc 01       		.byte	0x1
 1657 05bd 1C       		.uleb128 0x1c
 1658 05be 2A070000 		.4byte	.LASF136
 1659 05c2 05       		.byte	0x5
 1660 05c3 8F       		.byte	0x8f
 1661 05c4 66030000 		.4byte	0x366
 1662 05c8 01       		.byte	0x1
 1663 05c9 01       		.byte	0x1
 1664 05ca 00       		.byte	0
 1665              		.section	.debug_abbrev,"",%progbits
 1666              	.Ldebug_abbrev0:
 1667 0000 01       		.uleb128 0x1
 1668 0001 11       		.uleb128 0x11
 1669 0002 01       		.byte	0x1
 1670 0003 25       		.uleb128 0x25
 1671 0004 0E       		.uleb128 0xe
 1672 0005 13       		.uleb128 0x13
 1673 0006 0B       		.uleb128 0xb
 1674 0007 03       		.uleb128 0x3
 1675 0008 0E       		.uleb128 0xe
 1676 0009 1B       		.uleb128 0x1b
 1677 000a 0E       		.uleb128 0xe
 1678 000b 11       		.uleb128 0x11
 1679 000c 01       		.uleb128 0x1
 1680 000d 52       		.uleb128 0x52
 1681 000e 01       		.uleb128 0x1
 1682 000f 55       		.uleb128 0x55
 1683 0010 06       		.uleb128 0x6
 1684 0011 10       		.uleb128 0x10
 1685 0012 06       		.uleb128 0x6
 1686 0013 00       		.byte	0
 1687 0014 00       		.byte	0
 1688 0015 02       		.uleb128 0x2
 1689 0016 24       		.uleb128 0x24
 1690 0017 00       		.byte	0
 1691 0018 0B       		.uleb128 0xb
 1692 0019 0B       		.uleb128 0xb
ARM GAS  /tmp/cc1l8JQI.s 			page 31


 1693 001a 3E       		.uleb128 0x3e
 1694 001b 0B       		.uleb128 0xb
 1695 001c 03       		.uleb128 0x3
 1696 001d 08       		.uleb128 0x8
 1697 001e 00       		.byte	0
 1698 001f 00       		.byte	0
 1699 0020 03       		.uleb128 0x3
 1700 0021 24       		.uleb128 0x24
 1701 0022 00       		.byte	0
 1702 0023 0B       		.uleb128 0xb
 1703 0024 0B       		.uleb128 0xb
 1704 0025 3E       		.uleb128 0x3e
 1705 0026 0B       		.uleb128 0xb
 1706 0027 03       		.uleb128 0x3
 1707 0028 0E       		.uleb128 0xe
 1708 0029 00       		.byte	0
 1709 002a 00       		.byte	0
 1710 002b 04       		.uleb128 0x4
 1711 002c 16       		.uleb128 0x16
 1712 002d 00       		.byte	0
 1713 002e 03       		.uleb128 0x3
 1714 002f 0E       		.uleb128 0xe
 1715 0030 3A       		.uleb128 0x3a
 1716 0031 0B       		.uleb128 0xb
 1717 0032 3B       		.uleb128 0x3b
 1718 0033 0B       		.uleb128 0xb
 1719 0034 49       		.uleb128 0x49
 1720 0035 13       		.uleb128 0x13
 1721 0036 00       		.byte	0
 1722 0037 00       		.byte	0
 1723 0038 05       		.uleb128 0x5
 1724 0039 35       		.uleb128 0x35
 1725 003a 00       		.byte	0
 1726 003b 49       		.uleb128 0x49
 1727 003c 13       		.uleb128 0x13
 1728 003d 00       		.byte	0
 1729 003e 00       		.byte	0
 1730 003f 06       		.uleb128 0x6
 1731 0040 04       		.uleb128 0x4
 1732 0041 01       		.byte	0x1
 1733 0042 03       		.uleb128 0x3
 1734 0043 0E       		.uleb128 0xe
 1735 0044 0B       		.uleb128 0xb
 1736 0045 0B       		.uleb128 0xb
 1737 0046 3A       		.uleb128 0x3a
 1738 0047 0B       		.uleb128 0xb
 1739 0048 3B       		.uleb128 0x3b
 1740 0049 0B       		.uleb128 0xb
 1741 004a 01       		.uleb128 0x1
 1742 004b 13       		.uleb128 0x13
 1743 004c 00       		.byte	0
 1744 004d 00       		.byte	0
 1745 004e 07       		.uleb128 0x7
 1746 004f 28       		.uleb128 0x28
 1747 0050 00       		.byte	0
 1748 0051 03       		.uleb128 0x3
 1749 0052 0E       		.uleb128 0xe
ARM GAS  /tmp/cc1l8JQI.s 			page 32


 1750 0053 1C       		.uleb128 0x1c
 1751 0054 0D       		.uleb128 0xd
 1752 0055 00       		.byte	0
 1753 0056 00       		.byte	0
 1754 0057 08       		.uleb128 0x8
 1755 0058 13       		.uleb128 0x13
 1756 0059 01       		.byte	0x1
 1757 005a 0B       		.uleb128 0xb
 1758 005b 0B       		.uleb128 0xb
 1759 005c 3A       		.uleb128 0x3a
 1760 005d 0B       		.uleb128 0xb
 1761 005e 3B       		.uleb128 0x3b
 1762 005f 05       		.uleb128 0x5
 1763 0060 01       		.uleb128 0x1
 1764 0061 13       		.uleb128 0x13
 1765 0062 00       		.byte	0
 1766 0063 00       		.byte	0
 1767 0064 09       		.uleb128 0x9
 1768 0065 0D       		.uleb128 0xd
 1769 0066 00       		.byte	0
 1770 0067 03       		.uleb128 0x3
 1771 0068 08       		.uleb128 0x8
 1772 0069 3A       		.uleb128 0x3a
 1773 006a 0B       		.uleb128 0xb
 1774 006b 3B       		.uleb128 0x3b
 1775 006c 05       		.uleb128 0x5
 1776 006d 49       		.uleb128 0x49
 1777 006e 13       		.uleb128 0x13
 1778 006f 38       		.uleb128 0x38
 1779 0070 0A       		.uleb128 0xa
 1780 0071 00       		.byte	0
 1781 0072 00       		.byte	0
 1782 0073 0A       		.uleb128 0xa
 1783 0074 0D       		.uleb128 0xd
 1784 0075 00       		.byte	0
 1785 0076 03       		.uleb128 0x3
 1786 0077 0E       		.uleb128 0xe
 1787 0078 3A       		.uleb128 0x3a
 1788 0079 0B       		.uleb128 0xb
 1789 007a 3B       		.uleb128 0x3b
 1790 007b 05       		.uleb128 0x5
 1791 007c 49       		.uleb128 0x49
 1792 007d 13       		.uleb128 0x13
 1793 007e 38       		.uleb128 0x38
 1794 007f 0A       		.uleb128 0xa
 1795 0080 00       		.byte	0
 1796 0081 00       		.byte	0
 1797 0082 0B       		.uleb128 0xb
 1798 0083 16       		.uleb128 0x16
 1799 0084 00       		.byte	0
 1800 0085 03       		.uleb128 0x3
 1801 0086 0E       		.uleb128 0xe
 1802 0087 3A       		.uleb128 0x3a
 1803 0088 0B       		.uleb128 0xb
 1804 0089 3B       		.uleb128 0x3b
 1805 008a 05       		.uleb128 0x5
 1806 008b 49       		.uleb128 0x49
ARM GAS  /tmp/cc1l8JQI.s 			page 33


 1807 008c 13       		.uleb128 0x13
 1808 008d 00       		.byte	0
 1809 008e 00       		.byte	0
 1810 008f 0C       		.uleb128 0xc
 1811 0090 04       		.uleb128 0x4
 1812 0091 01       		.byte	0x1
 1813 0092 0B       		.uleb128 0xb
 1814 0093 0B       		.uleb128 0xb
 1815 0094 3A       		.uleb128 0x3a
 1816 0095 0B       		.uleb128 0xb
 1817 0096 3B       		.uleb128 0x3b
 1818 0097 0B       		.uleb128 0xb
 1819 0098 01       		.uleb128 0x1
 1820 0099 13       		.uleb128 0x13
 1821 009a 00       		.byte	0
 1822 009b 00       		.byte	0
 1823 009c 0D       		.uleb128 0xd
 1824 009d 13       		.uleb128 0x13
 1825 009e 01       		.byte	0x1
 1826 009f 03       		.uleb128 0x3
 1827 00a0 0E       		.uleb128 0xe
 1828 00a1 0B       		.uleb128 0xb
 1829 00a2 0B       		.uleb128 0xb
 1830 00a3 3A       		.uleb128 0x3a
 1831 00a4 0B       		.uleb128 0xb
 1832 00a5 3B       		.uleb128 0x3b
 1833 00a6 0B       		.uleb128 0xb
 1834 00a7 01       		.uleb128 0x1
 1835 00a8 13       		.uleb128 0x13
 1836 00a9 00       		.byte	0
 1837 00aa 00       		.byte	0
 1838 00ab 0E       		.uleb128 0xe
 1839 00ac 0D       		.uleb128 0xd
 1840 00ad 00       		.byte	0
 1841 00ae 03       		.uleb128 0x3
 1842 00af 0E       		.uleb128 0xe
 1843 00b0 3A       		.uleb128 0x3a
 1844 00b1 0B       		.uleb128 0xb
 1845 00b2 3B       		.uleb128 0x3b
 1846 00b3 0B       		.uleb128 0xb
 1847 00b4 49       		.uleb128 0x49
 1848 00b5 13       		.uleb128 0x13
 1849 00b6 38       		.uleb128 0x38
 1850 00b7 0A       		.uleb128 0xa
 1851 00b8 00       		.byte	0
 1852 00b9 00       		.byte	0
 1853 00ba 0F       		.uleb128 0xf
 1854 00bb 0F       		.uleb128 0xf
 1855 00bc 00       		.byte	0
 1856 00bd 0B       		.uleb128 0xb
 1857 00be 0B       		.uleb128 0xb
 1858 00bf 49       		.uleb128 0x49
 1859 00c0 13       		.uleb128 0x13
 1860 00c1 00       		.byte	0
 1861 00c2 00       		.byte	0
 1862 00c3 10       		.uleb128 0x10
 1863 00c4 15       		.uleb128 0x15
ARM GAS  /tmp/cc1l8JQI.s 			page 34


 1864 00c5 01       		.byte	0x1
 1865 00c6 27       		.uleb128 0x27
 1866 00c7 0C       		.uleb128 0xc
 1867 00c8 01       		.uleb128 0x1
 1868 00c9 13       		.uleb128 0x13
 1869 00ca 00       		.byte	0
 1870 00cb 00       		.byte	0
 1871 00cc 11       		.uleb128 0x11
 1872 00cd 05       		.uleb128 0x5
 1873 00ce 00       		.byte	0
 1874 00cf 49       		.uleb128 0x49
 1875 00d0 13       		.uleb128 0x13
 1876 00d1 00       		.byte	0
 1877 00d2 00       		.byte	0
 1878 00d3 12       		.uleb128 0x12
 1879 00d4 13       		.uleb128 0x13
 1880 00d5 01       		.byte	0x1
 1881 00d6 0B       		.uleb128 0xb
 1882 00d7 0B       		.uleb128 0xb
 1883 00d8 3A       		.uleb128 0x3a
 1884 00d9 0B       		.uleb128 0xb
 1885 00da 3B       		.uleb128 0x3b
 1886 00db 0B       		.uleb128 0xb
 1887 00dc 01       		.uleb128 0x1
 1888 00dd 13       		.uleb128 0x13
 1889 00de 00       		.byte	0
 1890 00df 00       		.byte	0
 1891 00e0 13       		.uleb128 0x13
 1892 00e1 0D       		.uleb128 0xd
 1893 00e2 00       		.byte	0
 1894 00e3 03       		.uleb128 0x3
 1895 00e4 08       		.uleb128 0x8
 1896 00e5 3A       		.uleb128 0x3a
 1897 00e6 0B       		.uleb128 0xb
 1898 00e7 3B       		.uleb128 0x3b
 1899 00e8 0B       		.uleb128 0xb
 1900 00e9 49       		.uleb128 0x49
 1901 00ea 13       		.uleb128 0x13
 1902 00eb 38       		.uleb128 0x38
 1903 00ec 0A       		.uleb128 0xa
 1904 00ed 00       		.byte	0
 1905 00ee 00       		.byte	0
 1906 00ef 14       		.uleb128 0x14
 1907 00f0 01       		.uleb128 0x1
 1908 00f1 01       		.byte	0x1
 1909 00f2 49       		.uleb128 0x49
 1910 00f3 13       		.uleb128 0x13
 1911 00f4 01       		.uleb128 0x1
 1912 00f5 13       		.uleb128 0x13
 1913 00f6 00       		.byte	0
 1914 00f7 00       		.byte	0
 1915 00f8 15       		.uleb128 0x15
 1916 00f9 21       		.uleb128 0x21
 1917 00fa 00       		.byte	0
 1918 00fb 49       		.uleb128 0x49
 1919 00fc 13       		.uleb128 0x13
 1920 00fd 2F       		.uleb128 0x2f
ARM GAS  /tmp/cc1l8JQI.s 			page 35


 1921 00fe 0B       		.uleb128 0xb
 1922 00ff 00       		.byte	0
 1923 0100 00       		.byte	0
 1924 0101 16       		.uleb128 0x16
 1925 0102 26       		.uleb128 0x26
 1926 0103 00       		.byte	0
 1927 0104 49       		.uleb128 0x49
 1928 0105 13       		.uleb128 0x13
 1929 0106 00       		.byte	0
 1930 0107 00       		.byte	0
 1931 0108 17       		.uleb128 0x17
 1932 0109 2E       		.uleb128 0x2e
 1933 010a 00       		.byte	0
 1934 010b 3F       		.uleb128 0x3f
 1935 010c 0C       		.uleb128 0xc
 1936 010d 03       		.uleb128 0x3
 1937 010e 0E       		.uleb128 0xe
 1938 010f 3A       		.uleb128 0x3a
 1939 0110 0B       		.uleb128 0xb
 1940 0111 3B       		.uleb128 0x3b
 1941 0112 0B       		.uleb128 0xb
 1942 0113 27       		.uleb128 0x27
 1943 0114 0C       		.uleb128 0xc
 1944 0115 11       		.uleb128 0x11
 1945 0116 01       		.uleb128 0x1
 1946 0117 12       		.uleb128 0x12
 1947 0118 01       		.uleb128 0x1
 1948 0119 40       		.uleb128 0x40
 1949 011a 06       		.uleb128 0x6
 1950 011b 00       		.byte	0
 1951 011c 00       		.byte	0
 1952 011d 18       		.uleb128 0x18
 1953 011e 2E       		.uleb128 0x2e
 1954 011f 01       		.byte	0x1
 1955 0120 3F       		.uleb128 0x3f
 1956 0121 0C       		.uleb128 0xc
 1957 0122 03       		.uleb128 0x3
 1958 0123 0E       		.uleb128 0xe
 1959 0124 3A       		.uleb128 0x3a
 1960 0125 0B       		.uleb128 0xb
 1961 0126 3B       		.uleb128 0x3b
 1962 0127 0B       		.uleb128 0xb
 1963 0128 27       		.uleb128 0x27
 1964 0129 0C       		.uleb128 0xc
 1965 012a 11       		.uleb128 0x11
 1966 012b 01       		.uleb128 0x1
 1967 012c 12       		.uleb128 0x12
 1968 012d 01       		.uleb128 0x1
 1969 012e 40       		.uleb128 0x40
 1970 012f 06       		.uleb128 0x6
 1971 0130 01       		.uleb128 0x1
 1972 0131 13       		.uleb128 0x13
 1973 0132 00       		.byte	0
 1974 0133 00       		.byte	0
 1975 0134 19       		.uleb128 0x19
 1976 0135 34       		.uleb128 0x34
 1977 0136 00       		.byte	0
ARM GAS  /tmp/cc1l8JQI.s 			page 36


 1978 0137 03       		.uleb128 0x3
 1979 0138 08       		.uleb128 0x8
 1980 0139 3A       		.uleb128 0x3a
 1981 013a 0B       		.uleb128 0xb
 1982 013b 3B       		.uleb128 0x3b
 1983 013c 0B       		.uleb128 0xb
 1984 013d 49       		.uleb128 0x49
 1985 013e 13       		.uleb128 0x13
 1986 013f 02       		.uleb128 0x2
 1987 0140 0A       		.uleb128 0xa
 1988 0141 00       		.byte	0
 1989 0142 00       		.byte	0
 1990 0143 1A       		.uleb128 0x1a
 1991 0144 2E       		.uleb128 0x2e
 1992 0145 00       		.byte	0
 1993 0146 3F       		.uleb128 0x3f
 1994 0147 0C       		.uleb128 0xc
 1995 0148 03       		.uleb128 0x3
 1996 0149 0E       		.uleb128 0xe
 1997 014a 3A       		.uleb128 0x3a
 1998 014b 0B       		.uleb128 0xb
 1999 014c 3B       		.uleb128 0x3b
 2000 014d 05       		.uleb128 0x5
 2001 014e 27       		.uleb128 0x27
 2002 014f 0C       		.uleb128 0xc
 2003 0150 11       		.uleb128 0x11
 2004 0151 01       		.uleb128 0x1
 2005 0152 12       		.uleb128 0x12
 2006 0153 01       		.uleb128 0x1
 2007 0154 40       		.uleb128 0x40
 2008 0155 06       		.uleb128 0x6
 2009 0156 00       		.byte	0
 2010 0157 00       		.byte	0
 2011 0158 1B       		.uleb128 0x1b
 2012 0159 34       		.uleb128 0x34
 2013 015a 00       		.byte	0
 2014 015b 03       		.uleb128 0x3
 2015 015c 0E       		.uleb128 0xe
 2016 015d 3A       		.uleb128 0x3a
 2017 015e 0B       		.uleb128 0xb
 2018 015f 3B       		.uleb128 0x3b
 2019 0160 05       		.uleb128 0x5
 2020 0161 49       		.uleb128 0x49
 2021 0162 13       		.uleb128 0x13
 2022 0163 3F       		.uleb128 0x3f
 2023 0164 0C       		.uleb128 0xc
 2024 0165 3C       		.uleb128 0x3c
 2025 0166 0C       		.uleb128 0xc
 2026 0167 00       		.byte	0
 2027 0168 00       		.byte	0
 2028 0169 1C       		.uleb128 0x1c
 2029 016a 34       		.uleb128 0x34
 2030 016b 00       		.byte	0
 2031 016c 03       		.uleb128 0x3
 2032 016d 0E       		.uleb128 0xe
 2033 016e 3A       		.uleb128 0x3a
 2034 016f 0B       		.uleb128 0xb
ARM GAS  /tmp/cc1l8JQI.s 			page 37


 2035 0170 3B       		.uleb128 0x3b
 2036 0171 0B       		.uleb128 0xb
 2037 0172 49       		.uleb128 0x49
 2038 0173 13       		.uleb128 0x13
 2039 0174 3F       		.uleb128 0x3f
 2040 0175 0C       		.uleb128 0xc
 2041 0176 3C       		.uleb128 0x3c
 2042 0177 0C       		.uleb128 0xc
 2043 0178 00       		.byte	0
 2044 0179 00       		.byte	0
 2045 017a 00       		.byte	0
 2046              		.section	.debug_loc,"",%progbits
 2047              	.Ldebug_loc0:
 2048              	.LLST0:
 2049 0000 00000000 		.4byte	.LFB111
 2050 0004 02000000 		.4byte	.LCFI0
 2051 0008 0200     		.2byte	0x2
 2052 000a 7D       		.byte	0x7d
 2053 000b 00       		.sleb128 0
 2054 000c 02000000 		.4byte	.LCFI0
 2055 0010 30000000 		.4byte	.LFE111
 2056 0014 0200     		.2byte	0x2
 2057 0016 7D       		.byte	0x7d
 2058 0017 08       		.sleb128 8
 2059 0018 00000000 		.4byte	0
 2060 001c 00000000 		.4byte	0
 2061              	.LLST1:
 2062 0020 00000000 		.4byte	.LFB112
 2063 0024 02000000 		.4byte	.LCFI1
 2064 0028 0200     		.2byte	0x2
 2065 002a 7D       		.byte	0x7d
 2066 002b 00       		.sleb128 0
 2067 002c 02000000 		.4byte	.LCFI1
 2068 0030 30000000 		.4byte	.LFE112
 2069 0034 0200     		.2byte	0x2
 2070 0036 7D       		.byte	0x7d
 2071 0037 08       		.sleb128 8
 2072 0038 00000000 		.4byte	0
 2073 003c 00000000 		.4byte	0
 2074              	.LLST2:
 2075 0040 00000000 		.4byte	.LFB113
 2076 0044 02000000 		.4byte	.LCFI2
 2077 0048 0200     		.2byte	0x2
 2078 004a 7D       		.byte	0x7d
 2079 004b 00       		.sleb128 0
 2080 004c 02000000 		.4byte	.LCFI2
 2081 0050 30000000 		.4byte	.LFE113
 2082 0054 0200     		.2byte	0x2
 2083 0056 7D       		.byte	0x7d
 2084 0057 08       		.sleb128 8
 2085 0058 00000000 		.4byte	0
 2086 005c 00000000 		.4byte	0
 2087              	.LLST3:
 2088 0060 00000000 		.4byte	.LFB114
 2089 0064 02000000 		.4byte	.LCFI3
 2090 0068 0200     		.2byte	0x2
 2091 006a 7D       		.byte	0x7d
ARM GAS  /tmp/cc1l8JQI.s 			page 38


 2092 006b 00       		.sleb128 0
 2093 006c 02000000 		.4byte	.LCFI3
 2094 0070 30000000 		.4byte	.LFE114
 2095 0074 0200     		.2byte	0x2
 2096 0076 7D       		.byte	0x7d
 2097 0077 08       		.sleb128 8
 2098 0078 00000000 		.4byte	0
 2099 007c 00000000 		.4byte	0
 2100              	.LLST4:
 2101 0080 00000000 		.4byte	.LFB115
 2102 0084 02000000 		.4byte	.LCFI4
 2103 0088 0200     		.2byte	0x2
 2104 008a 7D       		.byte	0x7d
 2105 008b 00       		.sleb128 0
 2106 008c 02000000 		.4byte	.LCFI4
 2107 0090 30000000 		.4byte	.LFE115
 2108 0094 0200     		.2byte	0x2
 2109 0096 7D       		.byte	0x7d
 2110 0097 08       		.sleb128 8
 2111 0098 00000000 		.4byte	0
 2112 009c 00000000 		.4byte	0
 2113              	.LLST5:
 2114 00a0 00000000 		.4byte	.LFB116
 2115 00a4 02000000 		.4byte	.LCFI5
 2116 00a8 0200     		.2byte	0x2
 2117 00aa 7D       		.byte	0x7d
 2118 00ab 00       		.sleb128 0
 2119 00ac 02000000 		.4byte	.LCFI5
 2120 00b0 9E000000 		.4byte	.LFE116
 2121 00b4 0200     		.2byte	0x2
 2122 00b6 7D       		.byte	0x7d
 2123 00b7 08       		.sleb128 8
 2124 00b8 00000000 		.4byte	0
 2125 00bc 00000000 		.4byte	0
 2126              	.LLST6:
 2127 00c0 00000000 		.4byte	.LFB117
 2128 00c4 02000000 		.4byte	.LCFI6
 2129 00c8 0200     		.2byte	0x2
 2130 00ca 7D       		.byte	0x7d
 2131 00cb 00       		.sleb128 0
 2132 00cc 02000000 		.4byte	.LCFI6
 2133 00d0 B8000000 		.4byte	.LFE117
 2134 00d4 0200     		.2byte	0x2
 2135 00d6 7D       		.byte	0x7d
 2136 00d7 08       		.sleb128 8
 2137 00d8 00000000 		.4byte	0
 2138 00dc 00000000 		.4byte	0
 2139              	.LLST7:
 2140 00e0 00000000 		.4byte	.LFB118
 2141 00e4 02000000 		.4byte	.LCFI7
 2142 00e8 0200     		.2byte	0x2
 2143 00ea 7D       		.byte	0x7d
 2144 00eb 00       		.sleb128 0
 2145 00ec 02000000 		.4byte	.LCFI7
 2146 00f0 34000000 		.4byte	.LFE118
 2147 00f4 0200     		.2byte	0x2
 2148 00f6 7D       		.byte	0x7d
ARM GAS  /tmp/cc1l8JQI.s 			page 39


 2149 00f7 08       		.sleb128 8
 2150 00f8 00000000 		.4byte	0
 2151 00fc 00000000 		.4byte	0
 2152              	.LLST8:
 2153 0100 00000000 		.4byte	.LFB119
 2154 0104 02000000 		.4byte	.LCFI8
 2155 0108 0200     		.2byte	0x2
 2156 010a 7D       		.byte	0x7d
 2157 010b 00       		.sleb128 0
 2158 010c 02000000 		.4byte	.LCFI8
 2159 0110 34000000 		.4byte	.LFE119
 2160 0114 0200     		.2byte	0x2
 2161 0116 7D       		.byte	0x7d
 2162 0117 08       		.sleb128 8
 2163 0118 00000000 		.4byte	0
 2164 011c 00000000 		.4byte	0
 2165              	.LLST9:
 2166 0120 00000000 		.4byte	.LFB120
 2167 0124 02000000 		.4byte	.LCFI9
 2168 0128 0200     		.2byte	0x2
 2169 012a 7D       		.byte	0x7d
 2170 012b 00       		.sleb128 0
 2171 012c 02000000 		.4byte	.LCFI9
 2172 0130 34000000 		.4byte	.LFE120
 2173 0134 0200     		.2byte	0x2
 2174 0136 7D       		.byte	0x7d
 2175 0137 08       		.sleb128 8
 2176 0138 00000000 		.4byte	0
 2177 013c 00000000 		.4byte	0
 2178              	.LLST10:
 2179 0140 00000000 		.4byte	.LFB121
 2180 0144 02000000 		.4byte	.LCFI10
 2181 0148 0200     		.2byte	0x2
 2182 014a 7D       		.byte	0x7d
 2183 014b 00       		.sleb128 0
 2184 014c 02000000 		.4byte	.LCFI10
 2185 0150 34000000 		.4byte	.LFE121
 2186 0154 0200     		.2byte	0x2
 2187 0156 7D       		.byte	0x7d
 2188 0157 08       		.sleb128 8
 2189 0158 00000000 		.4byte	0
 2190 015c 00000000 		.4byte	0
 2191              	.LLST11:
 2192 0160 00000000 		.4byte	.LFB122
 2193 0164 02000000 		.4byte	.LCFI11
 2194 0168 0200     		.2byte	0x2
 2195 016a 7D       		.byte	0x7d
 2196 016b 00       		.sleb128 0
 2197 016c 02000000 		.4byte	.LCFI11
 2198 0170 34000000 		.4byte	.LFE122
 2199 0174 0200     		.2byte	0x2
 2200 0176 7D       		.byte	0x7d
 2201 0177 08       		.sleb128 8
 2202 0178 00000000 		.4byte	0
 2203 017c 00000000 		.4byte	0
 2204              	.LLST12:
 2205 0180 00000000 		.4byte	.LFB123
ARM GAS  /tmp/cc1l8JQI.s 			page 40


 2206 0184 02000000 		.4byte	.LCFI12
 2207 0188 0200     		.2byte	0x2
 2208 018a 7D       		.byte	0x7d
 2209 018b 00       		.sleb128 0
 2210 018c 02000000 		.4byte	.LCFI12
 2211 0190 34000000 		.4byte	.LFE123
 2212 0194 0200     		.2byte	0x2
 2213 0196 7D       		.byte	0x7d
 2214 0197 08       		.sleb128 8
 2215 0198 00000000 		.4byte	0
 2216 019c 00000000 		.4byte	0
 2217              	.LLST13:
 2218 01a0 00000000 		.4byte	.LFB124
 2219 01a4 02000000 		.4byte	.LCFI13
 2220 01a8 0200     		.2byte	0x2
 2221 01aa 7D       		.byte	0x7d
 2222 01ab 00       		.sleb128 0
 2223 01ac 02000000 		.4byte	.LCFI13
 2224 01b0 34000000 		.4byte	.LFE124
 2225 01b4 0200     		.2byte	0x2
 2226 01b6 7D       		.byte	0x7d
 2227 01b7 08       		.sleb128 8
 2228 01b8 00000000 		.4byte	0
 2229 01bc 00000000 		.4byte	0
 2230              	.LLST14:
 2231 01c0 00000000 		.4byte	.LFB125
 2232 01c4 02000000 		.4byte	.LCFI14
 2233 01c8 0200     		.2byte	0x2
 2234 01ca 7D       		.byte	0x7d
 2235 01cb 00       		.sleb128 0
 2236 01cc 02000000 		.4byte	.LCFI14
 2237 01d0 76000000 		.4byte	.LFE125
 2238 01d4 0200     		.2byte	0x2
 2239 01d6 7D       		.byte	0x7d
 2240 01d7 08       		.sleb128 8
 2241 01d8 00000000 		.4byte	0
 2242 01dc 00000000 		.4byte	0
 2243              	.LLST15:
 2244 01e0 00000000 		.4byte	.LFB126
 2245 01e4 02000000 		.4byte	.LCFI15
 2246 01e8 0200     		.2byte	0x2
 2247 01ea 7D       		.byte	0x7d
 2248 01eb 00       		.sleb128 0
 2249 01ec 02000000 		.4byte	.LCFI15
 2250 01f0 5A000000 		.4byte	.LFE126
 2251 01f4 0200     		.2byte	0x2
 2252 01f6 7D       		.byte	0x7d
 2253 01f7 08       		.sleb128 8
 2254 01f8 00000000 		.4byte	0
 2255 01fc 00000000 		.4byte	0
 2256              		.section	.debug_aranges,"",%progbits
 2257 0000 94000000 		.4byte	0x94
 2258 0004 0200     		.2byte	0x2
 2259 0006 00000000 		.4byte	.Ldebug_info0
 2260 000a 04       		.byte	0x4
 2261 000b 00       		.byte	0
 2262 000c 0000     		.2byte	0
ARM GAS  /tmp/cc1l8JQI.s 			page 41


 2263 000e 0000     		.2byte	0
 2264 0010 00000000 		.4byte	.LFB111
 2265 0014 30000000 		.4byte	.LFE111-.LFB111
 2266 0018 00000000 		.4byte	.LFB112
 2267 001c 30000000 		.4byte	.LFE112-.LFB112
 2268 0020 00000000 		.4byte	.LFB113
 2269 0024 30000000 		.4byte	.LFE113-.LFB113
 2270 0028 00000000 		.4byte	.LFB114
 2271 002c 30000000 		.4byte	.LFE114-.LFB114
 2272 0030 00000000 		.4byte	.LFB115
 2273 0034 30000000 		.4byte	.LFE115-.LFB115
 2274 0038 00000000 		.4byte	.LFB116
 2275 003c 9E000000 		.4byte	.LFE116-.LFB116
 2276 0040 00000000 		.4byte	.LFB117
 2277 0044 B8000000 		.4byte	.LFE117-.LFB117
 2278 0048 00000000 		.4byte	.LFB118
 2279 004c 34000000 		.4byte	.LFE118-.LFB118
 2280 0050 00000000 		.4byte	.LFB119
 2281 0054 34000000 		.4byte	.LFE119-.LFB119
 2282 0058 00000000 		.4byte	.LFB120
 2283 005c 34000000 		.4byte	.LFE120-.LFB120
 2284 0060 00000000 		.4byte	.LFB121
 2285 0064 34000000 		.4byte	.LFE121-.LFB121
 2286 0068 00000000 		.4byte	.LFB122
 2287 006c 34000000 		.4byte	.LFE122-.LFB122
 2288 0070 00000000 		.4byte	.LFB123
 2289 0074 34000000 		.4byte	.LFE123-.LFB123
 2290 0078 00000000 		.4byte	.LFB124
 2291 007c 34000000 		.4byte	.LFE124-.LFB124
 2292 0080 00000000 		.4byte	.LFB125
 2293 0084 76000000 		.4byte	.LFE125-.LFB125
 2294 0088 00000000 		.4byte	.LFB126
 2295 008c 5A000000 		.4byte	.LFE126-.LFB126
 2296 0090 00000000 		.4byte	0
 2297 0094 00000000 		.4byte	0
 2298              		.section	.debug_ranges,"",%progbits
 2299              	.Ldebug_ranges0:
 2300 0000 00000000 		.4byte	.LFB111
 2301 0004 30000000 		.4byte	.LFE111
 2302 0008 00000000 		.4byte	.LFB112
 2303 000c 30000000 		.4byte	.LFE112
 2304 0010 00000000 		.4byte	.LFB113
 2305 0014 30000000 		.4byte	.LFE113
 2306 0018 00000000 		.4byte	.LFB114
 2307 001c 30000000 		.4byte	.LFE114
 2308 0020 00000000 		.4byte	.LFB115
 2309 0024 30000000 		.4byte	.LFE115
 2310 0028 00000000 		.4byte	.LFB116
 2311 002c 9E000000 		.4byte	.LFE116
 2312 0030 00000000 		.4byte	.LFB117
 2313 0034 B8000000 		.4byte	.LFE117
 2314 0038 00000000 		.4byte	.LFB118
 2315 003c 34000000 		.4byte	.LFE118
 2316 0040 00000000 		.4byte	.LFB119
 2317 0044 34000000 		.4byte	.LFE119
 2318 0048 00000000 		.4byte	.LFB120
 2319 004c 34000000 		.4byte	.LFE120
ARM GAS  /tmp/cc1l8JQI.s 			page 42


 2320 0050 00000000 		.4byte	.LFB121
 2321 0054 34000000 		.4byte	.LFE121
 2322 0058 00000000 		.4byte	.LFB122
 2323 005c 34000000 		.4byte	.LFE122
 2324 0060 00000000 		.4byte	.LFB123
 2325 0064 34000000 		.4byte	.LFE123
 2326 0068 00000000 		.4byte	.LFB124
 2327 006c 34000000 		.4byte	.LFE124
 2328 0070 00000000 		.4byte	.LFB125
 2329 0074 76000000 		.4byte	.LFE125
 2330 0078 00000000 		.4byte	.LFB126
 2331 007c 5A000000 		.4byte	.LFE126
 2332 0080 00000000 		.4byte	0
 2333 0084 00000000 		.4byte	0
 2334              		.section	.debug_line,"",%progbits
 2335              	.Ldebug_line0:
 2336 0000 20030000 		.section	.debug_str,"MS",%progbits,1
 2336      02005401 
 2336      00000201 
 2336      FB0E0D00 
 2336      01010101 
 2337              	.LASF40:
 2338 0000 43414E31 		.ascii	"CAN1_RX0_IRQn\000"
 2338      5F525830 
 2338      5F495251 
 2338      6E00
 2339              	.LASF21:
 2340 000e 5056445F 		.ascii	"PVD_IRQn\000"
 2340      4952516E 
 2340      00
 2341              	.LASF84:
 2342 0017 43414E32 		.ascii	"CAN2_RX0_IRQn\000"
 2342      5F525830 
 2342      5F495251 
 2342      6E00
 2343              	.LASF124:
 2344 0025 56656374 		.ascii	"Vector9C\000"
 2344      6F723943 
 2344      00
 2345              	.LASF93:
 2346 002e 49324333 		.ascii	"I2C3_ER_IRQn\000"
 2346      5F45525F 
 2346      4952516E 
 2346      00
 2347              	.LASF51:
 2348 003b 49324331 		.ascii	"I2C1_EV_IRQn\000"
 2348      5F45565F 
 2348      4952516E 
 2348      00
 2349              	.LASF113:
 2350 0048 65787063 		.ascii	"expchannel_t\000"
 2350      68616E6E 
 2350      656C5F74 
 2350      00
 2351              	.LASF88:
 2352 0055 444D4132 		.ascii	"DMA2_Stream5_IRQn\000"
 2352      5F537472 
ARM GAS  /tmp/cc1l8JQI.s 			page 43


 2352      65616D35 
 2352      5F495251 
 2352      6E00
 2353              	.LASF104:
 2354 0067 53574945 		.ascii	"SWIER\000"
 2354      5200
 2355              	.LASF129:
 2356 006d 56656374 		.ascii	"Vector138\000"
 2356      6F723133 
 2356      3800
 2357              	.LASF41:
 2358 0077 43414E31 		.ascii	"CAN1_RX1_IRQn\000"
 2358      5F525831 
 2358      5F495251 
 2358      6E00
 2359              	.LASF10:
 2360 0085 6C6F6E67 		.ascii	"long long unsigned int\000"
 2360      206C6F6E 
 2360      6720756E 
 2360      7369676E 
 2360      65642069 
 2361              	.LASF61:
 2362 009c 5254435F 		.ascii	"RTC_Alarm_IRQn\000"
 2362      416C6172 
 2362      6D5F4952 
 2362      516E00
 2363              	.LASF54:
 2364 00ab 49324332 		.ascii	"I2C2_ER_IRQn\000"
 2364      5F45525F 
 2364      4952516E 
 2364      00
 2365              	.LASF50:
 2366 00b8 54494D34 		.ascii	"TIM4_IRQn\000"
 2366      5F495251 
 2366      6E00
 2367              	.LASF23:
 2368 00c2 5254435F 		.ascii	"RTC_WKUP_IRQn\000"
 2368      574B5550 
 2368      5F495251 
 2368      6E00
 2369              	.LASF20:
 2370 00d0 57574447 		.ascii	"WWDG_IRQn\000"
 2370      5F495251 
 2370      6E00
 2371              	.LASF69:
 2372 00da 5344494F 		.ascii	"SDIO_IRQn\000"
 2372      5F495251 
 2372      6E00
 2373              	.LASF66:
 2374 00e4 54494D38 		.ascii	"TIM8_CC_IRQn\000"
 2374      5F43435F 
 2374      4952516E 
 2374      00
 2375              	.LASF9:
 2376 00f1 6C6F6E67 		.ascii	"long long int\000"
 2376      206C6F6E 
 2376      6720696E 
ARM GAS  /tmp/cc1l8JQI.s 			page 44


 2376      7400
 2377              	.LASF1:
 2378 00ff 7369676E 		.ascii	"signed char\000"
 2378      65642063 
 2378      68617200 
 2379              	.LASF85:
 2380 010b 43414E32 		.ascii	"CAN2_RX1_IRQn\000"
 2380      5F525831 
 2380      5F495251 
 2380      6E00
 2381              	.LASF89:
 2382 0119 444D4132 		.ascii	"DMA2_Stream6_IRQn\000"
 2382      5F537472 
 2382      65616D36 
 2382      5F495251 
 2382      6E00
 2383              	.LASF138:
 2384 012b 2E2E2F2E 		.ascii	"../../../os/hal/platforms/STM32F4xx/ext_lld_isr.c\000"
 2384      2E2F2E2E 
 2384      2F6F732F 
 2384      68616C2F 
 2384      706C6174 
 2385              	.LASF111:
 2386 015d 73746174 		.ascii	"state\000"
 2386      6500
 2387              	.LASF117:
 2388 0163 6368616E 		.ascii	"channels\000"
 2388      6E656C73 
 2388      00
 2389              	.LASF5:
 2390 016c 6C6F6E67 		.ascii	"long int\000"
 2390      20696E74 
 2390      00
 2391              	.LASF53:
 2392 0175 49324332 		.ascii	"I2C2_EV_IRQn\000"
 2392      5F45565F 
 2392      4952516E 
 2392      00
 2393              	.LASF36:
 2394 0182 444D4131 		.ascii	"DMA1_Stream5_IRQn\000"
 2394      5F537472 
 2394      65616D35 
 2394      5F495251 
 2394      6E00
 2395              	.LASF43:
 2396 0194 45585449 		.ascii	"EXTI9_5_IRQn\000"
 2396      395F355F 
 2396      4952516E 
 2396      00
 2397              	.LASF82:
 2398 01a1 4554485F 		.ascii	"ETH_WKUP_IRQn\000"
 2398      574B5550 
 2398      5F495251 
 2398      6E00
 2399              	.LASF74:
 2400 01af 54494D36 		.ascii	"TIM6_DAC_IRQn\000"
 2400      5F444143 
ARM GAS  /tmp/cc1l8JQI.s 			page 45


 2400      5F495251 
 2400      6E00
 2401              	.LASF72:
 2402 01bd 55415254 		.ascii	"UART4_IRQn\000"
 2402      345F4952 
 2402      516E00
 2403              	.LASF116:
 2404 01c8 45585443 		.ascii	"EXTChannelConfig\000"
 2404      68616E6E 
 2404      656C436F 
 2404      6E666967 
 2404      00
 2405              	.LASF18:
 2406 01d9 50656E64 		.ascii	"PendSV_IRQn\000"
 2406      53565F49 
 2406      52516E00 
 2407              	.LASF64:
 2408 01e5 54494D38 		.ascii	"TIM8_UP_TIM13_IRQn\000"
 2408      5F55505F 
 2408      54494D31 
 2408      335F4952 
 2408      516E00
 2409              	.LASF14:
 2410 01f8 42757346 		.ascii	"BusFault_IRQn\000"
 2410      61756C74 
 2410      5F495251 
 2410      6E00
 2411              	.LASF62:
 2412 0206 4F54475F 		.ascii	"OTG_FS_WKUP_IRQn\000"
 2412      46535F57 
 2412      4B55505F 
 2412      4952516E 
 2412      00
 2413              	.LASF90:
 2414 0217 444D4132 		.ascii	"DMA2_Stream7_IRQn\000"
 2414      5F537472 
 2414      65616D37 
 2414      5F495251 
 2414      6E00
 2415              	.LASF134:
 2416 0229 6578745F 		.ascii	"ext_lld_exti_irq_disable\000"
 2416      6C6C645F 
 2416      65787469 
 2416      5F697271 
 2416      5F646973 
 2417              	.LASF0:
 2418 0242 756E7369 		.ascii	"unsigned int\000"
 2418      676E6564 
 2418      20696E74 
 2418      00
 2419              	.LASF34:
 2420 024f 444D4131 		.ascii	"DMA1_Stream3_IRQn\000"
 2420      5F537472 
 2420      65616D33 
 2420      5F495251 
 2420      6E00
 2421              	.LASF37:
ARM GAS  /tmp/cc1l8JQI.s 			page 46


 2422 0261 444D4131 		.ascii	"DMA1_Stream6_IRQn\000"
 2422      5F537472 
 2422      65616D36 
 2422      5F495251 
 2422      6E00
 2423              	.LASF102:
 2424 0273 52545352 		.ascii	"RTSR\000"
 2424      00
 2425              	.LASF13:
 2426 0278 4D656D6F 		.ascii	"MemoryManagement_IRQn\000"
 2426      72794D61 
 2426      6E616765 
 2426      6D656E74 
 2426      5F495251 
 2427              	.LASF92:
 2428 028e 49324333 		.ascii	"I2C3_EV_IRQn\000"
 2428      5F45565F 
 2428      4952516E 
 2428      00
 2429              	.LASF8:
 2430 029b 6C6F6E67 		.ascii	"long unsigned int\000"
 2430      20756E73 
 2430      69676E65 
 2430      6420696E 
 2430      7400
 2431              	.LASF132:
 2432 02ad 56656374 		.ascii	"Vector4C\000"
 2432      6F723443 
 2432      00
 2433              	.LASF94:
 2434 02b6 4F54475F 		.ascii	"OTG_HS_EP1_OUT_IRQn\000"
 2434      48535F45 
 2434      50315F4F 
 2434      55545F49 
 2434      52516E00 
 2435              	.LASF139:
 2436 02ca 2F686F6D 		.ascii	"/home/prana/workspace/eth/ch/testhal/STM32F4xx/RTC\000"
 2436      652F7072 
 2436      616E612F 
 2436      776F726B 
 2436      73706163 
 2437              	.LASF4:
 2438 02fd 73686F72 		.ascii	"short unsigned int\000"
 2438      7420756E 
 2438      7369676E 
 2438      65642069 
 2438      6E7400
 2439              	.LASF133:
 2440 0310 6578745F 		.ascii	"ext_lld_exti_irq_enable\000"
 2440      6C6C645F 
 2440      65787469 
 2440      5F697271 
 2440      5F656E61 
 2441              	.LASF39:
 2442 0328 43414E31 		.ascii	"CAN1_TX_IRQn\000"
 2442      5F54585F 
 2442      4952516E 
ARM GAS  /tmp/cc1l8JQI.s 			page 47


 2442      00
 2443              	.LASF60:
 2444 0335 45585449 		.ascii	"EXTI15_10_IRQn\000"
 2444      31355F31 
 2444      305F4952 
 2444      516E00
 2445              	.LASF55:
 2446 0344 53504931 		.ascii	"SPI1_IRQn\000"
 2446      5F495251 
 2446      6E00
 2447              	.LASF32:
 2448 034e 444D4131 		.ascii	"DMA1_Stream1_IRQn\000"
 2448      5F537472 
 2448      65616D31 
 2448      5F495251 
 2448      6E00
 2449              	.LASF63:
 2450 0360 54494D38 		.ascii	"TIM8_BRK_TIM12_IRQn\000"
 2450      5F42524B 
 2450      5F54494D 
 2450      31325F49 
 2450      52516E00 
 2451              	.LASF19:
 2452 0374 53797354 		.ascii	"SysTick_IRQn\000"
 2452      69636B5F 
 2452      4952516E 
 2452      00
 2453              	.LASF47:
 2454 0381 54494D31 		.ascii	"TIM1_CC_IRQn\000"
 2454      5F43435F 
 2454      4952516E 
 2454      00
 2455              	.LASF65:
 2456 038e 54494D38 		.ascii	"TIM8_TRG_COM_TIM14_IRQn\000"
 2456      5F545247 
 2456      5F434F4D 
 2456      5F54494D 
 2456      31345F49 
 2457              	.LASF108:
 2458 03a6 4558545F 		.ascii	"EXT_ACTIVE\000"
 2458      41435449 
 2458      564500
 2459              	.LASF119:
 2460 03b1 56656374 		.ascii	"Vector58\000"
 2460      6F723538 
 2460      00
 2461              	.LASF81:
 2462 03ba 4554485F 		.ascii	"ETH_IRQn\000"
 2462      4952516E 
 2462      00
 2463              	.LASF140:
 2464 03c3 4952516E 		.ascii	"IRQn\000"
 2464      00
 2465              	.LASF120:
 2466 03c8 56656374 		.ascii	"Vector5C\000"
 2466      6F723543 
 2466      00
ARM GAS  /tmp/cc1l8JQI.s 			page 48


 2467              	.LASF109:
 2468 03d1 65787473 		.ascii	"extstate_t\000"
 2468      74617465 
 2468      5F7400
 2469              	.LASF45:
 2470 03dc 54494D31 		.ascii	"TIM1_UP_TIM10_IRQn\000"
 2470      5F55505F 
 2470      54494D31 
 2470      305F4952 
 2470      516E00
 2471              	.LASF131:
 2472 03ef 54414D50 		.ascii	"TAMPER_STAMP_IRQHandler\000"
 2472      45525F53 
 2472      54414D50 
 2472      5F495251 
 2472      48616E64 
 2473              	.LASF79:
 2474 0407 444D4132 		.ascii	"DMA2_Stream3_IRQn\000"
 2474      5F537472 
 2474      65616D33 
 2474      5F495251 
 2474      6E00
 2475              	.LASF35:
 2476 0419 444D4131 		.ascii	"DMA1_Stream4_IRQn\000"
 2476      5F537472 
 2476      65616D34 
 2476      5F495251 
 2476      6E00
 2477              	.LASF78:
 2478 042b 444D4132 		.ascii	"DMA2_Stream2_IRQn\000"
 2478      5F537472 
 2478      65616D32 
 2478      5F495251 
 2478      6E00
 2479              	.LASF91:
 2480 043d 55534152 		.ascii	"USART6_IRQn\000"
 2480      54365F49 
 2480      52516E00 
 2481              	.LASF70:
 2482 0449 54494D35 		.ascii	"TIM5_IRQn\000"
 2482      5F495251 
 2482      6E00
 2483              	.LASF29:
 2484 0453 45585449 		.ascii	"EXTI3_IRQn\000"
 2484      335F4952 
 2484      516E00
 2485              	.LASF56:
 2486 045e 53504932 		.ascii	"SPI2_IRQn\000"
 2486      5F495251 
 2486      6E00
 2487              	.LASF33:
 2488 0468 444D4131 		.ascii	"DMA1_Stream2_IRQn\000"
 2488      5F537472 
 2488      65616D32 
 2488      5F495251 
 2488      6E00
 2489              	.LASF83:
ARM GAS  /tmp/cc1l8JQI.s 			page 49


 2490 047a 43414E32 		.ascii	"CAN2_TX_IRQn\000"
 2490      5F54585F 
 2490      4952516E 
 2490      00
 2491              	.LASF87:
 2492 0487 4F54475F 		.ascii	"OTG_FS_IRQn\000"
 2492      46535F49 
 2492      52516E00 
 2493              	.LASF126:
 2494 0493 56656374 		.ascii	"Vector44\000"
 2494      6F723434 
 2494      00
 2495              	.LASF125:
 2496 049c 56656374 		.ascii	"VectorE0\000"
 2496      6F724530 
 2496      00
 2497              	.LASF22:
 2498 04a5 54414D50 		.ascii	"TAMP_STAMP_IRQn\000"
 2498      5F535441 
 2498      4D505F49 
 2498      52516E00 
 2499              	.LASF97:
 2500 04b5 4F54475F 		.ascii	"OTG_HS_IRQn\000"
 2500      48535F49 
 2500      52516E00 
 2501              	.LASF128:
 2502 04c1 56656374 		.ascii	"VectorE8\000"
 2502      6F724538 
 2502      00
 2503              	.LASF130:
 2504 04ca 56656374 		.ascii	"Vector170\000"
 2504      6F723137 
 2504      3000
 2505              	.LASF121:
 2506 04d4 56656374 		.ascii	"Vector60\000"
 2506      6F723630 
 2506      00
 2507              	.LASF122:
 2508 04dd 56656374 		.ascii	"Vector64\000"
 2508      6F723634 
 2508      00
 2509              	.LASF123:
 2510 04e6 56656374 		.ascii	"Vector68\000"
 2510      6F723638 
 2510      00
 2511              	.LASF57:
 2512 04ef 55534152 		.ascii	"USART1_IRQn\000"
 2512      54315F49 
 2512      52516E00 
 2513              	.LASF71:
 2514 04fb 53504933 		.ascii	"SPI3_IRQn\000"
 2514      5F495251 
 2514      6E00
 2515              	.LASF80:
 2516 0505 444D4132 		.ascii	"DMA2_Stream4_IRQn\000"
 2516      5F537472 
 2516      65616D34 
ARM GAS  /tmp/cc1l8JQI.s 			page 50


 2516      5F495251 
 2516      6E00
 2517              	.LASF68:
 2518 0517 46534D43 		.ascii	"FSMC_IRQn\000"
 2518      5F495251 
 2518      6E00
 2519              	.LASF6:
 2520 0521 696E7433 		.ascii	"int32_t\000"
 2520      325F7400 
 2521              	.LASF2:
 2522 0529 756E7369 		.ascii	"unsigned char\000"
 2522      676E6564 
 2522      20636861 
 2522      7200
 2523              	.LASF106:
 2524 0537 4558545F 		.ascii	"EXT_UNINIT\000"
 2524      554E494E 
 2524      495400
 2525              	.LASF44:
 2526 0542 54494D31 		.ascii	"TIM1_BRK_TIM9_IRQn\000"
 2526      5F42524B 
 2526      5F54494D 
 2526      395F4952 
 2526      516E00
 2527              	.LASF135:
 2528 0555 49544D5F 		.ascii	"ITM_RxBuffer\000"
 2528      52784275 
 2528      66666572 
 2528      00
 2529              	.LASF103:
 2530 0562 46545352 		.ascii	"FTSR\000"
 2530      00
 2531              	.LASF30:
 2532 0567 45585449 		.ascii	"EXTI4_IRQn\000"
 2532      345F4952 
 2532      516E00
 2533              	.LASF100:
 2534 0572 48415348 		.ascii	"HASH_RNG_IRQn\000"
 2534      5F524E47 
 2534      5F495251 
 2534      6E00
 2535              	.LASF3:
 2536 0580 73686F72 		.ascii	"short int\000"
 2536      7420696E 
 2536      7400
 2537              	.LASF73:
 2538 058a 55415254 		.ascii	"UART5_IRQn\000"
 2538      355F4952 
 2538      516E00
 2539              	.LASF46:
 2540 0595 54494D31 		.ascii	"TIM1_TRG_COM_TIM11_IRQn\000"
 2540      5F545247 
 2540      5F434F4D 
 2540      5F54494D 
 2540      31315F49 
 2541              	.LASF28:
 2542 05ad 45585449 		.ascii	"EXTI2_IRQn\000"
ARM GAS  /tmp/cc1l8JQI.s 			page 51


 2542      325F4952 
 2542      516E00
 2543              	.LASF24:
 2544 05b8 464C4153 		.ascii	"FLASH_IRQn\000"
 2544      485F4952 
 2544      516E00
 2545              	.LASF7:
 2546 05c3 75696E74 		.ascii	"uint32_t\000"
 2546      33325F74 
 2546      00
 2547              	.LASF58:
 2548 05cc 55534152 		.ascii	"USART2_IRQn\000"
 2548      54325F49 
 2548      52516E00 
 2549              	.LASF15:
 2550 05d8 55736167 		.ascii	"UsageFault_IRQn\000"
 2550      65466175 
 2550      6C745F49 
 2550      52516E00 
 2551              	.LASF137:
 2552 05e8 474E5520 		.ascii	"GNU C 4.6.3\000"
 2552      4320342E 
 2552      362E3300 
 2553              	.LASF67:
 2554 05f4 444D4131 		.ascii	"DMA1_Stream7_IRQn\000"
 2554      5F537472 
 2554      65616D37 
 2554      5F495251 
 2554      6E00
 2555              	.LASF107:
 2556 0606 4558545F 		.ascii	"EXT_STOP\000"
 2556      53544F50 
 2556      00
 2557              	.LASF16:
 2558 060f 53564361 		.ascii	"SVCall_IRQn\000"
 2558      6C6C5F49 
 2558      52516E00 
 2559              	.LASF11:
 2560 061b 63686172 		.ascii	"char\000"
 2560      00
 2561              	.LASF115:
 2562 0620 6D6F6465 		.ascii	"mode\000"
 2562      00
 2563              	.LASF99:
 2564 0625 43525950 		.ascii	"CRYP_IRQn\000"
 2564      5F495251 
 2564      6E00
 2565              	.LASF112:
 2566 062f 636F6E66 		.ascii	"config\000"
 2566      696700
 2567              	.LASF114:
 2568 0636 65787463 		.ascii	"extcallback_t\000"
 2568      616C6C62 
 2568      61636B5F 
 2568      7400
 2569              	.LASF75:
 2570 0644 54494D37 		.ascii	"TIM7_IRQn\000"
ARM GAS  /tmp/cc1l8JQI.s 			page 52


 2570      5F495251 
 2570      6E00
 2571              	.LASF95:
 2572 064e 4F54475F 		.ascii	"OTG_HS_EP1_IN_IRQn\000"
 2572      48535F45 
 2572      50315F49 
 2572      4E5F4952 
 2572      516E00
 2573              	.LASF12:
 2574 0661 4E6F6E4D 		.ascii	"NonMaskableInt_IRQn\000"
 2574      61736B61 
 2574      626C6549 
 2574      6E745F49 
 2574      52516E00 
 2575              	.LASF52:
 2576 0675 49324331 		.ascii	"I2C1_ER_IRQn\000"
 2576      5F45525F 
 2576      4952516E 
 2576      00
 2577              	.LASF17:
 2578 0682 44656275 		.ascii	"DebugMonitor_IRQn\000"
 2578      674D6F6E 
 2578      69746F72 
 2578      5F495251 
 2578      6E00
 2579              	.LASF76:
 2580 0694 444D4132 		.ascii	"DMA2_Stream0_IRQn\000"
 2580      5F537472 
 2580      65616D30 
 2580      5F495251 
 2580      6E00
 2581              	.LASF59:
 2582 06a6 55534152 		.ascii	"USART3_IRQn\000"
 2582      54335F49 
 2582      52516E00 
 2583              	.LASF110:
 2584 06b2 45585444 		.ascii	"EXTDriver\000"
 2584      72697665 
 2584      7200
 2585              	.LASF48:
 2586 06bc 54494D32 		.ascii	"TIM2_IRQn\000"
 2586      5F495251 
 2586      6E00
 2587              	.LASF26:
 2588 06c6 45585449 		.ascii	"EXTI0_IRQn\000"
 2588      305F4952 
 2588      516E00
 2589              	.LASF98:
 2590 06d1 44434D49 		.ascii	"DCMI_IRQn\000"
 2590      5F495251 
 2590      6E00
 2591              	.LASF118:
 2592 06db 45585443 		.ascii	"EXTConfig\000"
 2592      6F6E6669 
 2592      6700
 2593              	.LASF101:
 2594 06e5 4650555F 		.ascii	"FPU_IRQn\000"
ARM GAS  /tmp/cc1l8JQI.s 			page 53


 2594      4952516E 
 2594      00
 2595              	.LASF127:
 2596 06ee 52544341 		.ascii	"RTCAlarm_IRQHandler\000"
 2596      6C61726D 
 2596      5F495251 
 2596      48616E64 
 2596      6C657200 
 2597              	.LASF105:
 2598 0702 45585449 		.ascii	"EXTI_TypeDef\000"
 2598      5F547970 
 2598      65446566 
 2598      00
 2599              	.LASF38:
 2600 070f 4144435F 		.ascii	"ADC_IRQn\000"
 2600      4952516E 
 2600      00
 2601              	.LASF77:
 2602 0718 444D4132 		.ascii	"DMA2_Stream1_IRQn\000"
 2602      5F537472 
 2602      65616D31 
 2602      5F495251 
 2602      6E00
 2603              	.LASF136:
 2604 072a 45585444 		.ascii	"EXTD1\000"
 2604      3100
 2605              	.LASF42:
 2606 0730 43414E31 		.ascii	"CAN1_SCE_IRQn\000"
 2606      5F534345 
 2606      5F495251 
 2606      6E00
 2607              	.LASF86:
 2608 073e 43414E32 		.ascii	"CAN2_SCE_IRQn\000"
 2608      5F534345 
 2608      5F495251 
 2608      6E00
 2609              	.LASF25:
 2610 074c 5243435F 		.ascii	"RCC_IRQn\000"
 2610      4952516E 
 2610      00
 2611              	.LASF96:
 2612 0755 4F54475F 		.ascii	"OTG_HS_WKUP_IRQn\000"
 2612      48535F57 
 2612      4B55505F 
 2612      4952516E 
 2612      00
 2613              	.LASF49:
 2614 0766 54494D33 		.ascii	"TIM3_IRQn\000"
 2614      5F495251 
 2614      6E00
 2615              	.LASF27:
 2616 0770 45585449 		.ascii	"EXTI1_IRQn\000"
 2616      315F4952 
 2616      516E00
 2617              	.LASF31:
 2618 077b 444D4131 		.ascii	"DMA1_Stream0_IRQn\000"
 2618      5F537472 
ARM GAS  /tmp/cc1l8JQI.s 			page 54


 2618      65616D30 
 2618      5F495251 
 2618      6E00
 2619              		.ident	"GCC: (Sourcery CodeBench Lite 2012.03-56) 4.6.3"
ARM GAS  /tmp/cc1l8JQI.s 			page 55


DEFINED SYMBOLS
                            *ABS*:00000000 ext_lld_isr.c
     /tmp/cc1l8JQI.s:19     .text.Vector58:00000000 $t
     /tmp/cc1l8JQI.s:25     .text.Vector58:00000000 Vector58
     /tmp/cc1l8JQI.s:66     .text.Vector5C:00000000 $t
     /tmp/cc1l8JQI.s:72     .text.Vector5C:00000000 Vector5C
     /tmp/cc1l8JQI.s:112    .text.Vector60:00000000 $t
     /tmp/cc1l8JQI.s:118    .text.Vector60:00000000 Vector60
     /tmp/cc1l8JQI.s:158    .text.Vector64:00000000 $t
     /tmp/cc1l8JQI.s:164    .text.Vector64:00000000 Vector64
     /tmp/cc1l8JQI.s:204    .text.Vector68:00000000 $t
     /tmp/cc1l8JQI.s:210    .text.Vector68:00000000 Vector68
     /tmp/cc1l8JQI.s:250    .text.Vector9C:00000000 $t
     /tmp/cc1l8JQI.s:256    .text.Vector9C:00000000 Vector9C
     /tmp/cc1l8JQI.s:355    .text.VectorE0:00000000 $t
     /tmp/cc1l8JQI.s:361    .text.VectorE0:00000000 VectorE0
     /tmp/cc1l8JQI.s:475    .text.Vector44:00000000 $t
     /tmp/cc1l8JQI.s:481    .text.Vector44:00000000 Vector44
     /tmp/cc1l8JQI.s:521    .text.RTCAlarm_IRQHandler:00000000 $t
     /tmp/cc1l8JQI.s:527    .text.RTCAlarm_IRQHandler:00000000 RTCAlarm_IRQHandler
     /tmp/cc1l8JQI.s:567    .text.VectorE8:00000000 $t
     /tmp/cc1l8JQI.s:573    .text.VectorE8:00000000 VectorE8
     /tmp/cc1l8JQI.s:613    .text.Vector138:00000000 $t
     /tmp/cc1l8JQI.s:619    .text.Vector138:00000000 Vector138
     /tmp/cc1l8JQI.s:659    .text.Vector170:00000000 $t
     /tmp/cc1l8JQI.s:665    .text.Vector170:00000000 Vector170
     /tmp/cc1l8JQI.s:705    .text.TAMPER_STAMP_IRQHandler:00000000 $t
     /tmp/cc1l8JQI.s:711    .text.TAMPER_STAMP_IRQHandler:00000000 TAMPER_STAMP_IRQHandler
     /tmp/cc1l8JQI.s:751    .text.Vector4C:00000000 $t
     /tmp/cc1l8JQI.s:757    .text.Vector4C:00000000 Vector4C
     /tmp/cc1l8JQI.s:797    .text.ext_lld_exti_irq_enable:00000000 $t
     /tmp/cc1l8JQI.s:803    .text.ext_lld_exti_irq_enable:00000000 ext_lld_exti_irq_enable
     /tmp/cc1l8JQI.s:877    .text.ext_lld_exti_irq_disable:00000000 $t
     /tmp/cc1l8JQI.s:883    .text.ext_lld_exti_irq_disable:00000000 ext_lld_exti_irq_disable
                     .debug_frame:00000010 $d

UNDEFINED SYMBOLS
dbg_check_enter_isr
EXTD1
dbg_check_leave_isr
_port_irq_epilogue
nvicEnableVector
nvicDisableVector
