ARM GAS  /tmp/ccNrY8sH.s 			page 1


   1              		.syntax unified
   2              		.cpu cortex-m4
   3              		.fpu softvfp
   4              		.eabi_attribute 20, 1
   5              		.eabi_attribute 21, 1
   6              		.eabi_attribute 23, 3
   7              		.eabi_attribute 24, 1
   8              		.eabi_attribute 25, 1
   9              		.eabi_attribute 26, 1
  10              		.eabi_attribute 30, 2
  11              		.eabi_attribute 34, 1
  12              		.eabi_attribute 18, 4
  13              		.thumb
  14              		.file	"ext_lld.c"
  15              		.text
  16              	.Ltext0:
  17              		.cfi_sections	.debug_frame
  18              		.section	.text.ext_lld_init,"ax",%progbits
  19              		.align	2
  20              		.p2align 4,,15
  21              		.global	ext_lld_init
  22              		.thumb
  23              		.thumb_func
  24              		.type	ext_lld_init, %function
  25              	ext_lld_init:
  26              	.LFB111:
  27              		.file 1 "../../../os/hal/platforms/STM32/ext_lld.c"
  28              		.loc 1 70 0
  29              		.cfi_startproc
  30              		@ args = 0, pretend = 0, frame = 0
  31              		@ frame_needed = 0, uses_anonymous_args = 0
  32              		@ link register save eliminated.
  33              		.loc 1 73 0
  34 0000 40F20000 		movw	r0, #:lower16:.LANCHOR0
  35 0004 C0F20000 		movt	r0, #:upper16:.LANCHOR0
  36              		.loc 1 74 0
  37              		.loc 1 73 0
  38 0008 FFF7FEBF 		b	extObjectInit
  39              		.cfi_endproc
  40              	.LFE111:
  41              		.size	ext_lld_init, .-ext_lld_init
  42 000c AFF30080 		.section	.text.ext_lld_stop,"ax",%progbits
  43              		.align	2
  44              		.p2align 4,,15
  45              		.global	ext_lld_stop
  46              		.thumb
  47              		.thumb_func
  48              		.type	ext_lld_stop, %function
  49              	ext_lld_stop:
  50              	.LFB113:
  51              		.loc 1 104 0
  52              		.cfi_startproc
  53              		@ args = 0, pretend = 0, frame = 0
  54              		@ frame_needed = 0, uses_anonymous_args = 0
  55              	.LVL0:
  56 0000 08B5     		push	{r3, lr}
  57              	.LCFI0:
ARM GAS  /tmp/ccNrY8sH.s 			page 2


  58              		.cfi_def_cfa_offset 8
  59              		.cfi_offset 14, -4
  60              		.cfi_offset 3, -8
  61              		.loc 1 106 0
  62 0002 0378     		ldrb	r3, [r0, #0]	@ zero_extendqisi2
  63 0004 022B     		cmp	r3, #2
  64 0006 0CD0     		beq	.L5
  65              	.LVL1:
  66              	.L3:
  67              		.loc 1 109 0
  68 0008 4FF47050 		mov	r0, #15360
  69 000c C4F20100 		movt	r0, 16385
  70              		.loc 1 111 0
  71 0010 4FF6FF72 		movw	r2, #65535
  72              		.loc 1 109 0
  73 0014 0021     		movs	r1, #0
  74              		.loc 1 111 0
  75 0016 C0F27F02 		movt	r2, 127
  76              		.loc 1 109 0
  77 001a 4160     		str	r1, [r0, #4]
  78              		.loc 1 110 0
  79 001c 0160     		str	r1, [r0, #0]
  80              		.loc 1 111 0
  81 001e 4261     		str	r2, [r0, #20]
  82              		.loc 1 112 0
  83 0020 08BD     		pop	{r3, pc}
  84              	.LVL2:
  85              	.L5:
  86              		.loc 1 107 0
  87 0022 FFF7FEFF 		bl	ext_lld_exti_irq_disable
  88              	.LVL3:
  89 0026 EFE7     		b	.L3
  90              		.cfi_endproc
  91              	.LFE113:
  92              		.size	ext_lld_stop, .-ext_lld_stop
  93 0028 AFF30080 		.section	.text.ext_lld_channel_enable,"ax",%progbits
  93      AFF30080 
  94              		.align	2
  95              		.p2align 4,,15
  96              		.global	ext_lld_channel_enable
  97              		.thumb
  98              		.thumb_func
  99              		.type	ext_lld_channel_enable, %function
 100              	ext_lld_channel_enable:
 101              	.LFB114:
 102              		.loc 1 122 0
 103              		.cfi_startproc
 104              		@ args = 0, pretend = 0, frame = 0
 105              		@ frame_needed = 0, uses_anonymous_args = 0
 106              		@ link register save eliminated.
 107              	.LVL4:
 108              		.loc 1 125 0
 109 0000 4268     		ldr	r2, [r0, #4]
 110 0002 52F83130 		ldr	r3, [r2, r1, lsl #3]
 111 0006 D807     		lsls	r0, r3, #31
 112              	.LVL5:
 113              		.loc 1 122 0
ARM GAS  /tmp/ccNrY8sH.s 			page 3


 114 0008 70B4     		push	{r4, r5, r6}
 115              	.LCFI1:
 116              		.cfi_def_cfa_offset 12
 117              		.cfi_offset 6, -4
 118              		.cfi_offset 5, -8
 119              		.cfi_offset 4, -12
 120              		.loc 1 125 0
 121 000a 49D5     		bpl	.L7
 122              		.loc 1 126 0
 123 000c 4FF47054 		mov	r4, #15360
 124 0010 C4F20104 		movt	r4, 16385
 125 0014 0120     		movs	r0, #1
 126 0016 A568     		ldr	r5, [r4, #8]
 127 0018 00FA01F0 		lsl	r0, r0, r1
 128 001c 0543     		orrs	r5, r5, r0
 129 001e A560     		str	r5, [r4, #8]
 130 0020 C443     		mvns	r4, r0
 131              	.L8:
 132              		.loc 1 130 0
 133 0022 4FF4705C 		mov	ip, #15360
 134 0026 C4F2010C 		movt	ip, 16385
 135              		.loc 1 129 0
 136 002a 13F0020F 		tst	r3, #2
 137              		.loc 1 130 0
 138 002e DCF80C30 		ldr	r3, [ip, #12]
 139              		.loc 1 135 0
 140 0032 02EBC105 		add	r5, r2, r1, lsl #3
 141              		.loc 1 130 0
 142 0036 14BF     		ite	ne
 143 0038 0343     		orrne	r3, r0, r3
 144              		.loc 1 132 0
 145 003a 2340     		andeq	r3, r4, r3
 146 003c CCF80C30 		str	r3, [ip, #12]
 147              		.loc 1 135 0
 148 0040 6B68     		ldr	r3, [r5, #4]
 149 0042 002B     		cmp	r3, #0
 150 0044 3AD0     		beq	.L11
 151              		.loc 1 136 0
 152 0046 4FF4705C 		mov	ip, #15360
 153 004a C4F2010C 		movt	ip, 16385
 154 004e DCF80050 		ldr	r5, [ip, #0]
 155 0052 40EA0503 		orr	r3, r0, r5
 156 0056 CCF80030 		str	r3, [ip, #0]
 157              		.loc 1 137 0
 158 005a DCF80400 		ldr	r0, [ip, #4]
 159 005e 0440     		ands	r4, r4, r0
 160 0060 CCF80440 		str	r4, [ip, #4]
 161              	.L12:
 162              		.loc 1 145 0
 163 0064 0F29     		cmp	r1, #15
 164 0066 19D8     		bhi	.L6
 165              	.LBB2:
 166              		.loc 1 146 0
 167 0068 8D08     		lsrs	r5, r1, #2
 168              	.LVL6:
 169              		.loc 1 154 0
 170 006a 4FF4605C 		mov	ip, #14336
ARM GAS  /tmp/ccNrY8sH.s 			page 4


 171 006e C4F2010C 		movt	ip, 16385
 172 0072 A81C     		adds	r0, r5, #2
 173              		.loc 1 148 0
 174 0074 52F83140 		ldr	r4, [r2, r1, lsl #3]
 175              		.loc 1 154 0
 176 0078 5CF82050 		ldr	r5, [ip, r0, lsl #2]
 177              	.LVL7:
 178              		.loc 1 147 0
 179 007c 01F00301 		and	r1, r1, #3
 180              	.LVL8:
 181 0080 8900     		lsls	r1, r1, #2
 182              	.LVL9:
 183 0082 0F22     		movs	r2, #15
 184 0084 02FA01F3 		lsl	r3, r2, r1
 185              		.loc 1 149 0
 186 0088 C4F30314 		ubfx	r4, r4, #4, #4
 187              		.loc 1 154 0
 188 008c 25EA0302 		bic	r2, r5, r3
 189              		.loc 1 148 0
 190 0090 04FA01F3 		lsl	r3, r4, r1
 191              		.loc 1 154 0
 192 0094 42EA0301 		orr	r1, r2, r3
 193              	.LVL10:
 194 0098 4CF82010 		str	r1, [ip, r0, lsl #2]
 195              	.LVL11:
 196              	.L6:
 197              	.LBE2:
 198              		.loc 1 159 0
 199 009c 70BC     		pop	{r4, r5, r6}
 200 009e 7047     		bx	lr
 201              	.LVL12:
 202              	.L7:
 203              		.loc 1 128 0
 204 00a0 4FF4705C 		mov	ip, #15360
 205 00a4 C4F2010C 		movt	ip, 16385
 206 00a8 0124     		movs	r4, #1
 207 00aa DCF80860 		ldr	r6, [ip, #8]
 208 00ae 04FA01F0 		lsl	r0, r4, r1
 209 00b2 C443     		mvns	r4, r0
 210 00b4 2640     		ands	r6, r6, r4
 211 00b6 CCF80860 		str	r6, [ip, #8]
 212 00ba B2E7     		b	.L8
 213              	.L11:
 214              		.loc 1 140 0
 215 00bc 4FF4705C 		mov	ip, #15360
 216 00c0 C4F2010C 		movt	ip, 16385
 217 00c4 DCF80450 		ldr	r5, [ip, #4]
 218 00c8 40EA0503 		orr	r3, r0, r5
 219 00cc CCF80430 		str	r3, [ip, #4]
 220              		.loc 1 141 0
 221 00d0 DCF80000 		ldr	r0, [ip, #0]
 222 00d4 0440     		ands	r4, r4, r0
 223 00d6 CCF80040 		str	r4, [ip, #0]
 224 00da C3E7     		b	.L12
 225              		.cfi_endproc
 226              	.LFE114:
 227              		.size	ext_lld_channel_enable, .-ext_lld_channel_enable
ARM GAS  /tmp/ccNrY8sH.s 			page 5


 228 00dc AFF30080 		.section	.text.ext_lld_channel_disable,"ax",%progbits
 229              		.align	2
 230              		.p2align 4,,15
 231              		.global	ext_lld_channel_disable
 232              		.thumb
 233              		.thumb_func
 234              		.type	ext_lld_channel_disable, %function
 235              	ext_lld_channel_disable:
 236              	.LFB115:
 237              		.loc 1 169 0
 238              		.cfi_startproc
 239              		@ args = 0, pretend = 0, frame = 0
 240              		@ frame_needed = 0, uses_anonymous_args = 0
 241              		@ link register save eliminated.
 242              	.LVL13:
 243              		.loc 1 173 0
 244 0000 4FF47053 		mov	r3, #15360
 245 0004 C4F20103 		movt	r3, 16385
 246              		.loc 1 169 0
 247 0008 10B4     		push	{r4}
 248              	.LCFI2:
 249              		.cfi_def_cfa_offset 4
 250              		.cfi_offset 4, -4
 251              		.loc 1 173 0
 252 000a 0124     		movs	r4, #1
 253 000c 1A68     		ldr	r2, [r3, #0]
 254 000e 04FA01F1 		lsl	r1, r4, r1
 255              	.LVL14:
 256 0012 CC43     		mvns	r4, r1
 257 0014 04EA0200 		and	r0, r4, r2
 258              	.LVL15:
 259 0018 1860     		str	r0, [r3, #0]
 260              		.loc 1 174 0
 261 001a 5A68     		ldr	r2, [r3, #4]
 262 001c 04EA0200 		and	r0, r4, r2
 263 0020 5860     		str	r0, [r3, #4]
 264              		.loc 1 175 0
 265 0022 9A68     		ldr	r2, [r3, #8]
 266 0024 04EA0200 		and	r0, r4, r2
 267 0028 9860     		str	r0, [r3, #8]
 268              		.loc 1 176 0
 269 002a DA68     		ldr	r2, [r3, #12]
 270 002c 1440     		ands	r4, r4, r2
 271 002e DC60     		str	r4, [r3, #12]
 272              		.loc 1 177 0
 273 0030 5961     		str	r1, [r3, #20]
 274              		.loc 1 178 0
 275 0032 10BC     		pop	{r4}
 276 0034 7047     		bx	lr
 277              		.cfi_endproc
 278              	.LFE115:
 279              		.size	ext_lld_channel_disable, .-ext_lld_channel_disable
 280 0036 00BFAFF3 		.section	.text.ext_lld_start,"ax",%progbits
 280      0080AFF3 
 280      0080
 281              		.align	2
 282              		.p2align 4,,15
ARM GAS  /tmp/ccNrY8sH.s 			page 6


 283              		.global	ext_lld_start
 284              		.thumb
 285              		.thumb_func
 286              		.type	ext_lld_start, %function
 287              	ext_lld_start:
 288              	.LFB112:
 289              		.loc 1 83 0
 290              		.cfi_startproc
 291              		@ args = 0, pretend = 0, frame = 0
 292              		@ frame_needed = 0, uses_anonymous_args = 0
 293              	.LVL16:
 294 0000 38B5     		push	{r3, r4, r5, lr}
 295              	.LCFI3:
 296              		.cfi_def_cfa_offset 16
 297              		.cfi_offset 14, -4
 298              		.cfi_offset 5, -8
 299              		.cfi_offset 4, -12
 300              		.cfi_offset 3, -16
 301              		.loc 1 86 0
 302 0002 0378     		ldrb	r3, [r0, #0]	@ zero_extendqisi2
 303 0004 012B     		cmp	r3, #1
 304              		.loc 1 83 0
 305 0006 0546     		mov	r5, r0
 306              		.loc 1 86 0
 307 0008 34D0     		beq	.L30
 308              	.LVL17:
 309              	.L16:
 310              		.loc 1 91 0 discriminator 1
 311 000a 6868     		ldr	r0, [r5, #4]
 312 000c 0168     		ldr	r1, [r0, #0]
 313 000e 11F00401 		ands	r1, r1, #4
 314 0012 2BD0     		beq	.L21
 315              		.loc 1 92 0
 316 0014 2846     		mov	r0, r5
 317 0016 0021     		movs	r1, #0
 318 0018 FFF7FEFF 		bl	ext_lld_channel_enable
 319              	.L27:
 320              		.loc 1 90 0
 321 001c 0124     		movs	r4, #1
 322              	.LVL18:
 323 001e 0EE0     		b	.L19
 324              	.L32:
 325              		.loc 1 92 0
 326 0020 FFF7FEFF 		bl	ext_lld_channel_enable
 327              		.loc 1 90 0
 328 0024 0134     		adds	r4, r4, #1
 329              		.loc 1 91 0
 330 0026 6868     		ldr	r0, [r5, #4]
 331 0028 50F83410 		ldr	r1, [r0, r4, lsl #3]
 332 002c 4B07     		lsls	r3, r1, #29
 333 002e 15D5     		bpl	.L23
 334              	.L33:
 335              		.loc 1 92 0
 336 0030 2146     		mov	r1, r4
 337 0032 2846     		mov	r0, r5
 338              		.loc 1 90 0
 339 0034 0134     		adds	r4, r4, #1
ARM GAS  /tmp/ccNrY8sH.s 			page 7


 340              		.loc 1 92 0
 341 0036 FFF7FEFF 		bl	ext_lld_channel_enable
 342              		.loc 1 90 0
 343 003a 172C     		cmp	r4, #23
 344 003c 15D0     		beq	.L31
 345              	.L19:
 346              		.loc 1 91 0
 347 003e 6B68     		ldr	r3, [r5, #4]
 348 0040 53F83420 		ldr	r2, [r3, r4, lsl #3]
 349 0044 5207     		lsls	r2, r2, #29
 350              		.loc 1 92 0
 351 0046 2846     		mov	r0, r5
 352 0048 2146     		mov	r1, r4
 353              		.loc 1 91 0
 354 004a E9D4     		bmi	.L32
 355              		.loc 1 94 0
 356 004c FFF7FEFF 		bl	ext_lld_channel_disable
 357              		.loc 1 90 0
 358 0050 0134     		adds	r4, r4, #1
 359              		.loc 1 91 0
 360 0052 6868     		ldr	r0, [r5, #4]
 361 0054 50F83410 		ldr	r1, [r0, r4, lsl #3]
 362 0058 4B07     		lsls	r3, r1, #29
 363 005a E9D4     		bmi	.L33
 364              	.L23:
 365              		.loc 1 94 0
 366 005c 2146     		mov	r1, r4
 367 005e 2846     		mov	r0, r5
 368              		.loc 1 90 0
 369 0060 0134     		adds	r4, r4, #1
 370              		.loc 1 94 0
 371 0062 FFF7FEFF 		bl	ext_lld_channel_disable
 372              		.loc 1 90 0
 373 0066 172C     		cmp	r4, #23
 374 0068 E9D1     		bne	.L19
 375              	.L31:
 376 006a 38BD     		pop	{r3, r4, r5, pc}
 377              	.LVL19:
 378              	.L21:
 379              		.loc 1 94 0
 380 006c 2846     		mov	r0, r5
 381 006e FFF7FEFF 		bl	ext_lld_channel_disable
 382 0072 D3E7     		b	.L27
 383              	.LVL20:
 384              	.L30:
 385              		.loc 1 87 0
 386 0074 FFF7FEFF 		bl	ext_lld_exti_irq_enable
 387 0078 C7E7     		b	.L16
 388              		.cfi_endproc
 389              	.LFE112:
 390              		.size	ext_lld_start, .-ext_lld_start
 391              		.global	EXTD1
 392 007a 00BFAFF3 		.section	.bss.EXTD1,"aw",%nobits
 392      0080
 393              		.align	2
 394              		.set	.LANCHOR0,. + 0
 395              		.type	EXTD1, %object
ARM GAS  /tmp/ccNrY8sH.s 			page 8


 396              		.size	EXTD1, 8
 397              	EXTD1:
 398 0000 00000000 		.space	8
 398      00000000 
 399              		.text
 400              	.Letext0:
 401              		.file 2 "/home/prana/CodeSourcery/ARM_EABI/bin/../lib/gcc/arm-none-eabi/4.6.3/../../../../arm-none
 402              		.file 3 "../../../os/hal/platforms/STM32F4xx/stm32f4xx.h"
 403              		.file 4 "../../../os/hal/include/ext.h"
 404              		.file 5 "../../../os/hal/platforms/STM32/ext_lld.h"
 405              		.file 6 "../../../os/ports/common/ARMCMx/CMSIS/include/core_cm4.h"