ARM GAS  /tmp/cc1l8JQI.s 			page 1


   1              		.syntax unified
   2              		.cpu cortex-m4
   3              		.fpu softvfp
   4              		.eabi_attribute 20, 1
   5              		.eabi_attribute 21, 1
   6              		.eabi_attribute 23, 3
   7              		.eabi_attribute 24, 1
   8              		.eabi_attribute 25, 1
   9              		.eabi_attribute 26, 1
  10              		.eabi_attribute 30, 2
  11              		.eabi_attribute 34, 1
  12              		.eabi_attribute 18, 4
  13              		.thumb
  14              		.file	"ext_lld_isr.c"
  15              		.text
  16              	.Ltext0:
  17              		.cfi_sections	.debug_frame
  18              		.section	.text.Vector58,"ax",%progbits
  19              		.align	2
  20              		.p2align 4,,15
  21              		.global	Vector58
  22              		.thumb
  23              		.thumb_func
  24              		.type	Vector58, %function
  25              	Vector58:
  26              	.LFB111:
  27              		.file 1 "../../../os/hal/platforms/STM32F4xx/ext_lld_isr.c"
  28              		.loc 1 61 0
  29              		.cfi_startproc
  30              		@ args = 0, pretend = 0, frame = 0
  31              		@ frame_needed = 0, uses_anonymous_args = 0
  32 0000 10B5     		push	{r4, lr}
  33              	.LCFI0:
  34              		.cfi_def_cfa_offset 8
  35              		.cfi_offset 14, -4
  36              		.cfi_offset 4, -8
  37              		.loc 1 63 0
  38 0002 FFF7FEFF 		bl	dbg_check_enter_isr
  39              		.loc 1 66 0
  40 0006 40F20000 		movw	r0, #:lower16:EXTD1
  41 000a C0F20000 		movt	r0, #:upper16:EXTD1
  42              		.loc 1 65 0
  43 000e 4FF4705C 		mov	ip, #15360
  44              		.loc 1 66 0
  45 0012 4268     		ldr	r2, [r0, #4]
  46              		.loc 1 65 0
  47 0014 C4F2010C 		movt	ip, 16385
  48 0018 0124     		movs	r4, #1
  49              		.loc 1 66 0
  50 001a 0021     		movs	r1, #0
  51              		.loc 1 65 0
  52 001c CCF81440 		str	r4, [ip, #20]
  53              		.loc 1 66 0
  54 0020 5368     		ldr	r3, [r2, #4]
  55 0022 9847     		blx	r3
  56              		.loc 1 68 0
  57 0024 FFF7FEFF 		bl	dbg_check_leave_isr
ARM GAS  /tmp/cc1l8JQI.s 			page 2


  58              		.loc 1 69 0
  59 0028 BDE81040 		pop	{r4, lr}
  60              		.loc 1 68 0
  61 002c FFF7FEBF 		b	_port_irq_epilogue
  62              		.cfi_endproc
  63              	.LFE111:
  64              		.size	Vector58, .-Vector58
  65              		.section	.text.Vector5C,"ax",%progbits
  66              		.align	2
  67              		.p2align 4,,15
  68              		.global	Vector5C
  69              		.thumb
  70              		.thumb_func
  71              		.type	Vector5C, %function
  72              	Vector5C:
  73              	.LFB112:
  74              		.loc 1 76 0
  75              		.cfi_startproc
  76              		@ args = 0, pretend = 0, frame = 0
  77              		@ frame_needed = 0, uses_anonymous_args = 0
  78 0000 10B5     		push	{r4, lr}
  79              	.LCFI1:
  80              		.cfi_def_cfa_offset 8
  81              		.cfi_offset 14, -4
  82              		.cfi_offset 4, -8
  83              		.loc 1 78 0
  84 0002 FFF7FEFF 		bl	dbg_check_enter_isr
  85              		.loc 1 81 0
  86 0006 40F20000 		movw	r0, #:lower16:EXTD1
  87 000a C0F20000 		movt	r0, #:upper16:EXTD1
  88              		.loc 1 80 0
  89 000e 4FF4705C 		mov	ip, #15360
  90              		.loc 1 81 0
  91 0012 4268     		ldr	r2, [r0, #4]
  92              		.loc 1 80 0
  93 0014 C4F2010C 		movt	ip, 16385
  94 0018 0224     		movs	r4, #2
  95              		.loc 1 81 0
  96 001a 0121     		movs	r1, #1
  97              		.loc 1 80 0
  98 001c CCF81440 		str	r4, [ip, #20]
  99              		.loc 1 81 0
 100 0020 D368     		ldr	r3, [r2, #12]
 101 0022 9847     		blx	r3
 102              		.loc 1 83 0
 103 0024 FFF7FEFF 		bl	dbg_check_leave_isr
 104              		.loc 1 84 0
 105 0028 BDE81040 		pop	{r4, lr}
 106              		.loc 1 83 0
 107 002c FFF7FEBF 		b	_port_irq_epilogue
 108              		.cfi_endproc
 109              	.LFE112:
 110              		.size	Vector5C, .-Vector5C
 111              		.section	.text.Vector60,"ax",%progbits
 112              		.align	2
 113              		.p2align 4,,15
 114              		.global	Vector60
ARM GAS  /tmp/cc1l8JQI.s 			page 3


 115              		.thumb
 116              		.thumb_func
 117              		.type	Vector60, %function
 118              	Vector60:
 119              	.LFB113:
 120              		.loc 1 91 0
 121              		.cfi_startproc
 122              		@ args = 0, pretend = 0, frame = 0
 123              		@ frame_needed = 0, uses_anonymous_args = 0
 124 0000 10B5     		push	{r4, lr}
 125              	.LCFI2:
 126              		.cfi_def_cfa_offset 8
 127              		.cfi_offset 14, -4
 128              		.cfi_offset 4, -8
 129              		.loc 1 93 0
 130 0002 FFF7FEFF 		bl	dbg_check_enter_isr
 131              		.loc 1 96 0
 132 0006 40F20000 		movw	r0, #:lower16:EXTD1
 133 000a C0F20000 		movt	r0, #:upper16:EXTD1
 134              		.loc 1 95 0
 135 000e 4FF4705C 		mov	ip, #15360
 136              		.loc 1 96 0
 137 0012 4268     		ldr	r2, [r0, #4]
 138              		.loc 1 95 0
 139 0014 C4F2010C 		movt	ip, 16385
 140 0018 0424     		movs	r4, #4
 141              		.loc 1 96 0
 142 001a 0221     		movs	r1, #2
 143              		.loc 1 95 0
 144 001c CCF81440 		str	r4, [ip, #20]
 145              		.loc 1 96 0
 146 0020 5369     		ldr	r3, [r2, #20]
 147 0022 9847     		blx	r3
 148              		.loc 1 98 0
 149 0024 FFF7FEFF 		bl	dbg_check_leave_isr
 150              		.loc 1 99 0
 151 0028 BDE81040 		pop	{r4, lr}
 152              		.loc 1 98 0
 153 002c FFF7FEBF 		b	_port_irq_epilogue
 154              		.cfi_endproc
 155              	.LFE113:
 156              		.size	Vector60, .-Vector60
 157              		.section	.text.Vector64,"ax",%progbits
 158              		.align	2
 159              		.p2align 4,,15
 160              		.global	Vector64
 161              		.thumb
 162              		.thumb_func
 163              		.type	Vector64, %function
 164              	Vector64:
 165              	.LFB114:
 166              		.loc 1 106 0
 167              		.cfi_startproc
 168              		@ args = 0, pretend = 0, frame = 0
 169              		@ frame_needed = 0, uses_anonymous_args = 0
 170 0000 10B5     		push	{r4, lr}
 171              	.LCFI3:
ARM GAS  /tmp/cc1l8JQI.s 			page 4


 172              		.cfi_def_cfa_offset 8
 173              		.cfi_offset 14, -4
 174              		.cfi_offset 4, -8
 175              		.loc 1 108 0
 176 0002 FFF7FEFF 		bl	dbg_check_enter_isr
 177              		.loc 1 111 0
 178 0006 40F20000 		movw	r0, #:lower16:EXTD1
 179 000a C0F20000 		movt	r0, #:upper16:EXTD1
 180              		.loc 1 110 0
 181 000e 4FF4705C 		mov	ip, #15360
 182              		.loc 1 111 0
 183 0012 4268     		ldr	r2, [r0, #4]
 184              		.loc 1 110 0
 185 0014 C4F2010C 		movt	ip, 16385
 186 0018 0824     		movs	r4, #8
 187              		.loc 1 111 0
 188 001a 0321     		movs	r1, #3
 189              		.loc 1 110 0
 190 001c CCF81440 		str	r4, [ip, #20]
 191              		.loc 1 111 0
 192 0020 D369     		ldr	r3, [r2, #28]
 193 0022 9847     		blx	r3
 194              		.loc 1 113 0
 195 0024 FFF7FEFF 		bl	dbg_check_leave_isr
 196              		.loc 1 114 0
 197 0028 BDE81040 		pop	{r4, lr}
 198              		.loc 1 113 0
 199 002c FFF7FEBF 		b	_port_irq_epilogue
 200              		.cfi_endproc
 201              	.LFE114:
 202              		.size	Vector64, .-Vector64
 203              		.section	.text.Vector68,"ax",%progbits
 204              		.align	2
 205              		.p2align 4,,15
 206              		.global	Vector68
 207              		.thumb
 208              		.thumb_func
 209              		.type	Vector68, %function
 210              	Vector68:
 211              	.LFB115:
 212              		.loc 1 121 0
 213              		.cfi_startproc
 214              		@ args = 0, pretend = 0, frame = 0
 215              		@ frame_needed = 0, uses_anonymous_args = 0
 216 0000 10B5     		push	{r4, lr}
 217              	.LCFI4:
 218              		.cfi_def_cfa_offset 8
 219              		.cfi_offset 14, -4
 220              		.cfi_offset 4, -8
 221              		.loc 1 123 0
 222 0002 FFF7FEFF 		bl	dbg_check_enter_isr
 223              		.loc 1 126 0
 224 0006 40F20000 		movw	r0, #:lower16:EXTD1
 225 000a C0F20000 		movt	r0, #:upper16:EXTD1
 226              		.loc 1 125 0
 227 000e 4FF4705C 		mov	ip, #15360
 228              		.loc 1 126 0
ARM GAS  /tmp/cc1l8JQI.s 			page 5


 229 0012 4268     		ldr	r2, [r0, #4]
 230              		.loc 1 125 0
 231 0014 C4F2010C 		movt	ip, 16385
 232 0018 1024     		movs	r4, #16
 233              		.loc 1 126 0
 234 001a 0421     		movs	r1, #4
 235              		.loc 1 125 0
 236 001c CCF81440 		str	r4, [ip, #20]
 237              		.loc 1 126 0
 238 0020 536A     		ldr	r3, [r2, #36]
 239 0022 9847     		blx	r3
 240              		.loc 1 128 0
 241 0024 FFF7FEFF 		bl	dbg_check_leave_isr
 242              		.loc 1 129 0
 243 0028 BDE81040 		pop	{r4, lr}
 244              		.loc 1 128 0
 245 002c FFF7FEBF 		b	_port_irq_epilogue
 246              		.cfi_endproc
 247              	.LFE115:
 248              		.size	Vector68, .-Vector68
 249              		.section	.text.Vector9C,"ax",%progbits
 250              		.align	2
 251              		.p2align 4,,15
 252              		.global	Vector9C
 253              		.thumb
 254              		.thumb_func
 255              		.type	Vector9C, %function
 256              	Vector9C:
 257              	.LFB116:
 258              		.loc 1 136 0
 259              		.cfi_startproc
 260              		@ args = 0, pretend = 0, frame = 0
 261              		@ frame_needed = 0, uses_anonymous_args = 0
 262 0000 10B5     		push	{r4, lr}
 263              	.LCFI5:
 264              		.cfi_def_cfa_offset 8
 265              		.cfi_offset 14, -4
 266              		.cfi_offset 4, -8
 267              		.loc 1 139 0
 268 0002 FFF7FEFF 		bl	dbg_check_enter_isr
 269              		.loc 1 141 0
 270 0006 4FF47053 		mov	r3, #15360
 271 000a C4F20103 		movt	r3, 16385
 272 000e 5A69     		ldr	r2, [r3, #20]
 273 0010 02F47874 		and	r4, r2, #992
 274              	.LVL0:
 275              		.loc 1 142 0
 276 0014 5C61     		str	r4, [r3, #20]
 277              		.loc 1 143 0
 278 0016 9306     		lsls	r3, r2, #26
 279 0018 37D4     		bmi	.L13
 280              	.L7:
 281              		.loc 1 145 0
 282 001a 6006     		lsls	r0, r4, #25
 283 001c 2AD4     		bmi	.L14
 284              	.L8:
 285              		.loc 1 147 0
ARM GAS  /tmp/cc1l8JQI.s 			page 6


 286 001e 2106     		lsls	r1, r4, #24
 287 0020 1DD4     		bmi	.L15
 288              	.L9:
 289              		.loc 1 149 0
 290 0022 E205     		lsls	r2, r4, #23
 291 0024 11D4     		bmi	.L16
 292              	.L10:
 293              		.loc 1 151 0
 294 0026 A305     		lsls	r3, r4, #22
 295 0028 09D5     		bpl	.L11
 296              		.loc 1 152 0
 297 002a 40F2000C 		movw	ip, #:lower16:EXTD1
 298 002e C0F2000C 		movt	ip, #:upper16:EXTD1
 299 0032 6046     		mov	r0, ip
 300 0034 DCF80430 		ldr	r3, [ip, #4]
 301 0038 0921     		movs	r1, #9
 302 003a DA6C     		ldr	r2, [r3, #76]
 303 003c 9047     		blx	r2
 304              	.L11:
 305              		.loc 1 154 0
 306 003e FFF7FEFF 		bl	dbg_check_leave_isr
 307              		.loc 1 155 0
 308 0042 BDE81040 		pop	{r4, lr}
 309              		.loc 1 154 0
 310 0046 FFF7FEBF 		b	_port_irq_epilogue
 311              	.L16:
 312              		.loc 1 150 0
 313 004a 40F20001 		movw	r1, #:lower16:EXTD1
 314 004e C0F20001 		movt	r1, #:upper16:EXTD1
 315 0052 0846     		mov	r0, r1
 316 0054 4B68     		ldr	r3, [r1, #4]
 317 0056 0821     		movs	r1, #8
 318 0058 5A6C     		ldr	r2, [r3, #68]
 319 005a 9047     		blx	r2
 320 005c E3E7     		b	.L10
 321              	.L15:
 322              		.loc 1 148 0
 323 005e 40F2000E 		movw	lr, #:lower16:EXTD1
 324 0062 C0F2000E 		movt	lr, #:upper16:EXTD1
 325 0066 7046     		mov	r0, lr
 326 0068 DEF80430 		ldr	r3, [lr, #4]
 327 006c 0721     		movs	r1, #7
 328 006e DA6B     		ldr	r2, [r3, #60]
 329 0070 9047     		blx	r2
 330 0072 D6E7     		b	.L9
 331              	.L14:
 332              		.loc 1 146 0
 333 0074 40F2000C 		movw	ip, #:lower16:EXTD1
 334 0078 C0F2000C 		movt	ip, #:upper16:EXTD1
 335 007c 6046     		mov	r0, ip
 336 007e DCF80430 		ldr	r3, [ip, #4]
 337 0082 0621     		movs	r1, #6
 338 0084 5A6B     		ldr	r2, [r3, #52]
 339 0086 9047     		blx	r2
 340 0088 C9E7     		b	.L8
 341              	.L13:
 342              		.loc 1 144 0
ARM GAS  /tmp/cc1l8JQI.s 			page 7


 343 008a 40F20001 		movw	r1, #:lower16:EXTD1
 344 008e C0F20001 		movt	r1, #:upper16:EXTD1
 345 0092 0846     		mov	r0, r1
 346 0094 4B68     		ldr	r3, [r1, #4]
 347 0096 0521     		movs	r1, #5
 348 0098 DA6A     		ldr	r2, [r3, #44]
 349 009a 9047     		blx	r2
 350 009c BDE7     		b	.L7
 351              		.cfi_endproc
 352              	.LFE116:
 353              		.size	Vector9C, .-Vector9C
 354 009e 00BF     		.section	.text.VectorE0,"ax",%progbits
 355              		.align	2
 356              		.p2align 4,,15
 357              		.global	VectorE0
 358              		.thumb
 359              		.thumb_func
 360              		.type	VectorE0, %function
 361              	VectorE0:
 362              	.LFB117:
 363              		.loc 1 162 0
 364              		.cfi_startproc
 365              		@ args = 0, pretend = 0, frame = 0
 366              		@ frame_needed = 0, uses_anonymous_args = 0
 367 0000 10B5     		push	{r4, lr}
 368              	.LCFI6:
 369              		.cfi_def_cfa_offset 8
 370              		.cfi_offset 14, -4
 371              		.cfi_offset 4, -8
 372              		.loc 1 165 0
 373 0002 FFF7FEFF 		bl	dbg_check_enter_isr
 374              		.loc 1 167 0
 375 0006 4FF47053 		mov	r3, #15360
 376 000a C4F20103 		movt	r3, 16385
 377 000e 5A69     		ldr	r2, [r3, #20]
 378 0010 02F47C44 		and	r4, r2, #64512
 379              	.LVL1:
 380              		.loc 1 170 0
 381 0014 5105     		lsls	r1, r2, #21
 382              		.loc 1 169 0
 383 0016 5C61     		str	r4, [r3, #20]
 384              		.loc 1 170 0
 385 0018 44D4     		bmi	.L24
 386              	.L18:
 387              		.loc 1 172 0
 388 001a 2205     		lsls	r2, r4, #20
 389 001c 37D4     		bmi	.L25
 390              	.L19:
 391              		.loc 1 174 0
 392 001e E304     		lsls	r3, r4, #19
 393 0020 2AD4     		bmi	.L26
 394              	.L20:
 395              		.loc 1 176 0
 396 0022 A004     		lsls	r0, r4, #18
 397 0024 1ED4     		bmi	.L27
 398              	.L21:
 399              		.loc 1 178 0
ARM GAS  /tmp/cc1l8JQI.s 			page 8


 400 0026 6104     		lsls	r1, r4, #17
 401 0028 11D4     		bmi	.L28
 402              	.L22:
 403              		.loc 1 180 0
 404 002a 2204     		lsls	r2, r4, #16
 405 002c 09D5     		bpl	.L23
 406              		.loc 1 181 0
 407 002e 40F2000E 		movw	lr, #:lower16:EXTD1
 408 0032 C0F2000E 		movt	lr, #:upper16:EXTD1
 409 0036 7046     		mov	r0, lr
 410 0038 DEF80430 		ldr	r3, [lr, #4]
 411 003c 0F21     		movs	r1, #15
 412 003e DA6F     		ldr	r2, [r3, #124]
 413 0040 9047     		blx	r2
 414              	.L23:
 415              		.loc 1 183 0
 416 0042 FFF7FEFF 		bl	dbg_check_leave_isr
 417              		.loc 1 184 0
 418 0046 BDE81040 		pop	{r4, lr}
 419              		.loc 1 183 0
 420 004a FFF7FEBF 		b	_port_irq_epilogue
 421              	.L28:
 422              		.loc 1 179 0
 423 004e 40F2000C 		movw	ip, #:lower16:EXTD1
 424 0052 C0F2000C 		movt	ip, #:upper16:EXTD1
 425 0056 6046     		mov	r0, ip
 426 0058 DCF80430 		ldr	r3, [ip, #4]
 427 005c 0E21     		movs	r1, #14
 428 005e 5A6F     		ldr	r2, [r3, #116]
 429 0060 9047     		blx	r2
 430 0062 E2E7     		b	.L22
 431              	.L27:
 432              		.loc 1 177 0
 433 0064 40F20001 		movw	r1, #:lower16:EXTD1
 434 0068 C0F20001 		movt	r1, #:upper16:EXTD1
 435 006c 0846     		mov	r0, r1
 436 006e 4B68     		ldr	r3, [r1, #4]
 437 0070 0D21     		movs	r1, #13
 438 0072 DA6E     		ldr	r2, [r3, #108]
 439 0074 9047     		blx	r2
 440 0076 D6E7     		b	.L21
 441              	.L26:
 442              		.loc 1 175 0
 443 0078 40F2000E 		movw	lr, #:lower16:EXTD1
 444 007c C0F2000E 		movt	lr, #:upper16:EXTD1
 445 0080 7046     		mov	r0, lr
 446 0082 DEF80430 		ldr	r3, [lr, #4]
 447 0086 0C21     		movs	r1, #12
 448 0088 5A6E     		ldr	r2, [r3, #100]
 449 008a 9047     		blx	r2
 450 008c C9E7     		b	.L20
 451              	.L25:
 452              		.loc 1 173 0
 453 008e 40F2000C 		movw	ip, #:lower16:EXTD1
 454 0092 C0F2000C 		movt	ip, #:upper16:EXTD1
 455 0096 6046     		mov	r0, ip
 456 0098 DCF80430 		ldr	r3, [ip, #4]
ARM GAS  /tmp/cc1l8JQI.s 			page 9


 457 009c 0B21     		movs	r1, #11
 458 009e DA6D     		ldr	r2, [r3, #92]
 459 00a0 9047     		blx	r2
 460 00a2 BCE7     		b	.L19
 461              	.L24:
 462              		.loc 1 171 0
 463 00a4 40F20001 		movw	r1, #:lower16:EXTD1
 464 00a8 C0F20001 		movt	r1, #:upper16:EXTD1
 465 00ac 0846     		mov	r0, r1
 466 00ae 4B68     		ldr	r3, [r1, #4]
 467 00b0 0A21     		movs	r1, #10
 468 00b2 5A6D     		ldr	r2, [r3, #84]
 469 00b4 9047     		blx	r2
 470 00b6 B0E7     		b	.L18
 471              		.cfi_endproc
 472              	.LFE117:
 473              		.size	VectorE0, .-VectorE0
 474 00b8 AFF30080 		.section	.text.Vector44,"ax",%progbits
 474      AFF30080 
 475              		.align	2
 476              		.p2align 4,,15
 477              		.global	Vector44
 478              		.thumb
 479              		.thumb_func
 480              		.type	Vector44, %function
 481              	Vector44:
 482              	.LFB118:
 483              		.loc 1 191 0
 484              		.cfi_startproc
 485              		@ args = 0, pretend = 0, frame = 0
 486              		@ frame_needed = 0, uses_anonymous_args = 0
 487 0000 10B5     		push	{r4, lr}
 488              	.LCFI7:
 489              		.cfi_def_cfa_offset 8
 490              		.cfi_offset 14, -4
 491              		.cfi_offset 4, -8
 492              		.loc 1 193 0
 493 0002 FFF7FEFF 		bl	dbg_check_enter_isr
 494              		.loc 1 196 0
 495 0006 40F20000 		movw	r0, #:lower16:EXTD1
 496 000a C0F20000 		movt	r0, #:upper16:EXTD1
 497              		.loc 1 195 0
 498 000e 4FF4705C 		mov	ip, #15360
 499              		.loc 1 196 0
 500 0012 4268     		ldr	r2, [r0, #4]
 501              		.loc 1 195 0
 502 0014 C4F2010C 		movt	ip, 16385
 503 0018 4FF48034 		mov	r4, #65536
 504              		.loc 1 196 0
 505 001c 1021     		movs	r1, #16
 506              		.loc 1 195 0
 507 001e CCF81440 		str	r4, [ip, #20]
 508              		.loc 1 196 0
 509 0022 D2F88430 		ldr	r3, [r2, #132]
 510 0026 9847     		blx	r3
 511              		.loc 1 198 0
 512 0028 FFF7FEFF 		bl	dbg_check_leave_isr
ARM GAS  /tmp/cc1l8JQI.s 			page 10


 513              		.loc 1 199 0
 514 002c BDE81040 		pop	{r4, lr}
 515              		.loc 1 198 0
 516 0030 FFF7FEBF 		b	_port_irq_epilogue
 517              		.cfi_endproc
 518              	.LFE118:
 519              		.size	Vector44, .-Vector44
 520 0034 AFF30080 		.section	.text.RTCAlarm_IRQHandler,"ax",%progbits
 520      AFF30080 
 520      AFF30080 
 521              		.align	2
 522              		.p2align 4,,15
 523              		.global	RTCAlarm_IRQHandler
 524              		.thumb
 525              		.thumb_func
 526              		.type	RTCAlarm_IRQHandler, %function
 527              	RTCAlarm_IRQHandler:
 528              	.LFB119:
 529              		.loc 1 206 0
 530              		.cfi_startproc
 531              		@ args = 0, pretend = 0, frame = 0
 532              		@ frame_needed = 0, uses_anonymous_args = 0
 533 0000 10B5     		push	{r4, lr}
 534              	.LCFI8:
 535              		.cfi_def_cfa_offset 8
 536              		.cfi_offset 14, -4
 537              		.cfi_offset 4, -8
 538              		.loc 1 208 0
 539 0002 FFF7FEFF 		bl	dbg_check_enter_isr
 540              		.loc 1 211 0
 541 0006 40F20000 		movw	r0, #:lower16:EXTD1
 542 000a C0F20000 		movt	r0, #:upper16:EXTD1
 543              		.loc 1 210 0
 544 000e 4FF4705C 		mov	ip, #15360
 545              		.loc 1 211 0
 546 0012 4268     		ldr	r2, [r0, #4]
 547              		.loc 1 210 0
 548 0014 C4F2010C 		movt	ip, 16385
 549 0018 4FF40034 		mov	r4, #131072
 550              		.loc 1 211 0
 551 001c 1121     		movs	r1, #17
 552              		.loc 1 210 0
 553 001e CCF81440 		str	r4, [ip, #20]
 554              		.loc 1 211 0
 555 0022 D2F88C30 		ldr	r3, [r2, #140]
 556 0026 9847     		blx	r3
 557              		.loc 1 213 0
 558 0028 FFF7FEFF 		bl	dbg_check_leave_isr
 559              		.loc 1 214 0
 560 002c BDE81040 		pop	{r4, lr}
 561              		.loc 1 213 0
 562 0030 FFF7FEBF 		b	_port_irq_epilogue
 563              		.cfi_endproc
 564              	.LFE119:
 565              		.size	RTCAlarm_IRQHandler, .-RTCAlarm_IRQHandler
 566 0034 AFF30080 		.section	.text.VectorE8,"ax",%progbits
 566      AFF30080 
ARM GAS  /tmp/cc1l8JQI.s 			page 11


 566      AFF30080 
 567              		.align	2
 568              		.p2align 4,,15
 569              		.global	VectorE8
 570              		.thumb
 571              		.thumb_func
 572              		.type	VectorE8, %function
 573              	VectorE8:
 574              	.LFB120:
 575              		.loc 1 221 0
 576              		.cfi_startproc
 577              		@ args = 0, pretend = 0, frame = 0
 578              		@ frame_needed = 0, uses_anonymous_args = 0
 579 0000 10B5     		push	{r4, lr}
 580              	.LCFI9:
 581              		.cfi_def_cfa_offset 8
 582              		.cfi_offset 14, -4
 583              		.cfi_offset 4, -8
 584              		.loc 1 223 0
 585 0002 FFF7FEFF 		bl	dbg_check_enter_isr
 586              		.loc 1 226 0
 587 0006 40F20000 		movw	r0, #:lower16:EXTD1
 588 000a C0F20000 		movt	r0, #:upper16:EXTD1
 589              		.loc 1 225 0
 590 000e 4FF4705C 		mov	ip, #15360
 591              		.loc 1 226 0
 592 0012 4268     		ldr	r2, [r0, #4]
 593              		.loc 1 225 0
 594 0014 C4F2010C 		movt	ip, 16385
 595 0018 4FF48024 		mov	r4, #262144
 596              		.loc 1 226 0
 597 001c 1221     		movs	r1, #18
 598              		.loc 1 225 0
 599 001e CCF81440 		str	r4, [ip, #20]
 600              		.loc 1 226 0
 601 0022 D2F89430 		ldr	r3, [r2, #148]
 602 0026 9847     		blx	r3
 603              		.loc 1 228 0
 604 0028 FFF7FEFF 		bl	dbg_check_leave_isr
 605              		.loc 1 229 0
 606 002c BDE81040 		pop	{r4, lr}
 607              		.loc 1 228 0
 608 0030 FFF7FEBF 		b	_port_irq_epilogue
 609              		.cfi_endproc
 610              	.LFE120:
 611              		.size	VectorE8, .-VectorE8
 612 0034 AFF30080 		.section	.text.Vector138,"ax",%progbits
 612      AFF30080 
 612      AFF30080 
 613              		.align	2
 614              		.p2align 4,,15
 615              		.global	Vector138
 616              		.thumb
 617              		.thumb_func
 618              		.type	Vector138, %function
 619              	Vector138:
 620              	.LFB121:
ARM GAS  /tmp/cc1l8JQI.s 			page 12


 621              		.loc 1 236 0
 622              		.cfi_startproc
 623              		@ args = 0, pretend = 0, frame = 0
 624              		@ frame_needed = 0, uses_anonymous_args = 0
 625 0000 10B5     		push	{r4, lr}
 626              	.LCFI10:
 627              		.cfi_def_cfa_offset 8
 628              		.cfi_offset 14, -4
 629              		.cfi_offset 4, -8
 630              		.loc 1 238 0
 631 0002 FFF7FEFF 		bl	dbg_check_enter_isr
 632              		.loc 1 241 0
 633 0006 40F20000 		movw	r0, #:lower16:EXTD1
 634 000a C0F20000 		movt	r0, #:upper16:EXTD1
 635              		.loc 1 240 0
 636 000e 4FF4705C 		mov	ip, #15360
 637              		.loc 1 241 0
 638 0012 4268     		ldr	r2, [r0, #4]
 639              		.loc 1 240 0
 640 0014 C4F2010C 		movt	ip, 16385
 641 0018 4FF40024 		mov	r4, #524288
 642              		.loc 1 241 0
 643 001c 1321     		movs	r1, #19
 644              		.loc 1 240 0
 645 001e CCF81440 		str	r4, [ip, #20]
 646              		.loc 1 241 0
 647 0022 D2F89C30 		ldr	r3, [r2, #156]
 648 0026 9847     		blx	r3
 649              		.loc 1 243 0
 650 0028 FFF7FEFF 		bl	dbg_check_leave_isr
 651              		.loc 1 244 0
 652 002c BDE81040 		pop	{r4, lr}
 653              		.loc 1 243 0
 654 0030 FFF7FEBF 		b	_port_irq_epilogue
 655              		.cfi_endproc
 656              	.LFE121:
 657              		.size	Vector138, .-Vector138
 658 0034 AFF30080 		.section	.text.Vector170,"ax",%progbits
 658      AFF30080 
 658      AFF30080 
 659              		.align	2
 660              		.p2align 4,,15
 661              		.global	Vector170
 662              		.thumb
 663              		.thumb_func
 664              		.type	Vector170, %function
 665              	Vector170:
 666              	.LFB122:
 667              		.loc 1 251 0
 668              		.cfi_startproc
 669              		@ args = 0, pretend = 0, frame = 0
 670              		@ frame_needed = 0, uses_anonymous_args = 0
 671 0000 10B5     		push	{r4, lr}
 672              	.LCFI11:
 673              		.cfi_def_cfa_offset 8
 674              		.cfi_offset 14, -4
 675              		.cfi_offset 4, -8
ARM GAS  /tmp/cc1l8JQI.s 			page 13


 676              		.loc 1 253 0
 677 0002 FFF7FEFF 		bl	dbg_check_enter_isr
 678              		.loc 1 256 0
 679 0006 40F20000 		movw	r0, #:lower16:EXTD1
 680 000a C0F20000 		movt	r0, #:upper16:EXTD1
 681              		.loc 1 255 0
 682 000e 4FF4705C 		mov	ip, #15360
 683              		.loc 1 256 0
 684 0012 4268     		ldr	r2, [r0, #4]
 685              		.loc 1 255 0
 686 0014 C4F2010C 		movt	ip, 16385
 687 0018 4FF48014 		mov	r4, #1048576
 688              		.loc 1 256 0
 689 001c 1421     		movs	r1, #20
 690              		.loc 1 255 0
 691 001e CCF81440 		str	r4, [ip, #20]
 692              		.loc 1 256 0
 693 0022 D2F8A430 		ldr	r3, [r2, #164]
 694 0026 9847     		blx	r3
 695              		.loc 1 258 0
 696 0028 FFF7FEFF 		bl	dbg_check_leave_isr
 697              		.loc 1 259 0
 698 002c BDE81040 		pop	{r4, lr}
 699              		.loc 1 258 0
 700 0030 FFF7FEBF 		b	_port_irq_epilogue
 701              		.cfi_endproc
 702              	.LFE122:
 703              		.size	Vector170, .-Vector170
 704 0034 AFF30080 		.section	.text.TAMPER_STAMP_IRQHandler,"ax",%progbits
 704      AFF30080 
 704      AFF30080 
 705              		.align	2
 706              		.p2align 4,,15
 707              		.global	TAMPER_STAMP_IRQHandler
 708              		.thumb
 709              		.thumb_func
 710              		.type	TAMPER_STAMP_IRQHandler, %function
 711              	TAMPER_STAMP_IRQHandler:
 712              	.LFB123:
 713              		.loc 1 266 0
 714              		.cfi_startproc
 715              		@ args = 0, pretend = 0, frame = 0
 716              		@ frame_needed = 0, uses_anonymous_args = 0
 717 0000 10B5     		push	{r4, lr}
 718              	.LCFI12:
 719              		.cfi_def_cfa_offset 8
 720              		.cfi_offset 14, -4
 721              		.cfi_offset 4, -8
 722              		.loc 1 268 0
 723 0002 FFF7FEFF 		bl	dbg_check_enter_isr
 724              		.loc 1 271 0
 725 0006 40F20000 		movw	r0, #:lower16:EXTD1
 726 000a C0F20000 		movt	r0, #:upper16:EXTD1
 727              		.loc 1 270 0
 728 000e 4FF4705C 		mov	ip, #15360
 729              		.loc 1 271 0
 730 0012 4268     		ldr	r2, [r0, #4]
ARM GAS  /tmp/cc1l8JQI.s 			page 14


 731              		.loc 1 270 0
 732 0014 C4F2010C 		movt	ip, 16385
 733 0018 4FF40014 		mov	r4, #2097152
 734              		.loc 1 271 0
 735 001c 1521     		movs	r1, #21
 736              		.loc 1 270 0
 737 001e CCF81440 		str	r4, [ip, #20]
 738              		.loc 1 271 0
 739 0022 D2F8AC30 		ldr	r3, [r2, #172]
 740 0026 9847     		blx	r3
 741              		.loc 1 273 0
 742 0028 FFF7FEFF 		bl	dbg_check_leave_isr
 743              		.loc 1 274 0
 744 002c BDE81040 		pop	{r4, lr}
 745              		.loc 1 273 0
 746 0030 FFF7FEBF 		b	_port_irq_epilogue
 747              		.cfi_endproc
 748              	.LFE123:
 749              		.size	TAMPER_STAMP_IRQHandler, .-TAMPER_STAMP_IRQHandler
 750 0034 AFF30080 		.section	.text.Vector4C,"ax",%progbits
 750      AFF30080 
 750      AFF30080 
 751              		.align	2
 752              		.p2align 4,,15
 753              		.global	Vector4C
 754              		.thumb
 755              		.thumb_func
 756              		.type	Vector4C, %function
 757              	Vector4C:
 758              	.LFB124:
 759              		.loc 1 281 0
 760              		.cfi_startproc
 761              		@ args = 0, pretend = 0, frame = 0
 762              		@ frame_needed = 0, uses_anonymous_args = 0
 763 0000 10B5     		push	{r4, lr}
 764              	.LCFI13:
 765              		.cfi_def_cfa_offset 8
 766              		.cfi_offset 14, -4
 767              		.cfi_offset 4, -8
 768              		.loc 1 283 0
 769 0002 FFF7FEFF 		bl	dbg_check_enter_isr
 770              		.loc 1 286 0
 771 0006 40F20000 		movw	r0, #:lower16:EXTD1
 772 000a C0F20000 		movt	r0, #:upper16:EXTD1
 773              		.loc 1 285 0
 774 000e 4FF4705C 		mov	ip, #15360
 775              		.loc 1 286 0
 776 0012 4268     		ldr	r2, [r0, #4]
 777              		.loc 1 285 0
 778 0014 C4F2010C 		movt	ip, 16385
 779 0018 4FF48004 		mov	r4, #4194304
 780              		.loc 1 286 0
 781 001c 1621     		movs	r1, #22
 782              		.loc 1 285 0
 783 001e CCF81440 		str	r4, [ip, #20]
 784              		.loc 1 286 0
 785 0022 D2F8B430 		ldr	r3, [r2, #180]
ARM GAS  /tmp/cc1l8JQI.s 			page 15


 786 0026 9847     		blx	r3
 787              		.loc 1 288 0
 788 0028 FFF7FEFF 		bl	dbg_check_leave_isr
 789              		.loc 1 289 0
 790 002c BDE81040 		pop	{r4, lr}
 791              		.loc 1 288 0
 792 0030 FFF7FEBF 		b	_port_irq_epilogue
 793              		.cfi_endproc
 794              	.LFE124:
 795              		.size	Vector4C, .-Vector4C
 796 0034 AFF30080 		.section	.text.ext_lld_exti_irq_enable,"ax",%progbits
 796      AFF30080 
 796      AFF30080 
 797              		.align	2
 798              		.p2align 4,,15
 799              		.global	ext_lld_exti_irq_enable
 800              		.thumb
 801              		.thumb_func
 802              		.type	ext_lld_exti_irq_enable, %function
 803              	ext_lld_exti_irq_enable:
 804              	.LFB125:
 805              		.loc 1 300 0
 806              		.cfi_startproc
 807              		@ args = 0, pretend = 0, frame = 0
 808              		@ frame_needed = 0, uses_anonymous_args = 0
 809 0000 08B5     		push	{r3, lr}
 810              	.LCFI14:
 811              		.cfi_def_cfa_offset 8
 812              		.cfi_offset 14, -4
 813              		.cfi_offset 3, -8
 814              		.loc 1 302 0
 815 0002 0620     		movs	r0, #6
 816 0004 6021     		movs	r1, #96
 817 0006 FFF7FEFF 		bl	nvicEnableVector
 818              		.loc 1 304 0
 819 000a 0720     		movs	r0, #7
 820 000c 6021     		movs	r1, #96
 821 000e FFF7FEFF 		bl	nvicEnableVector
 822              		.loc 1 306 0
 823 0012 0820     		movs	r0, #8
 824 0014 6021     		movs	r1, #96
 825 0016 FFF7FEFF 		bl	nvicEnableVector
 826              		.loc 1 308 0
 827 001a 0920     		movs	r0, #9
 828 001c 6021     		movs	r1, #96
 829 001e FFF7FEFF 		bl	nvicEnableVector
 830              		.loc 1 310 0
 831 0022 0A20     		movs	r0, #10
 832 0024 6021     		movs	r1, #96
 833 0026 FFF7FEFF 		bl	nvicEnableVector
 834              		.loc 1 312 0
 835 002a 1720     		movs	r0, #23
 836 002c 6021     		movs	r1, #96
 837 002e FFF7FEFF 		bl	nvicEnableVector
 838              		.loc 1 314 0
 839 0032 2820     		movs	r0, #40
 840 0034 6021     		movs	r1, #96
ARM GAS  /tmp/cc1l8JQI.s 			page 16


 841 0036 FFF7FEFF 		bl	nvicEnableVector
 842              		.loc 1 316 0
 843 003a 0120     		movs	r0, #1
 844 003c 6021     		movs	r1, #96
 845 003e FFF7FEFF 		bl	nvicEnableVector
 846              		.loc 1 318 0
 847 0042 2920     		movs	r0, #41
 848 0044 F021     		movs	r1, #240
 849 0046 FFF7FEFF 		bl	nvicEnableVector
 850              		.loc 1 320 0
 851 004a 2A20     		movs	r0, #42
 852 004c 6021     		movs	r1, #96
 853 004e FFF7FEFF 		bl	nvicEnableVector
 854              		.loc 1 322 0
 855 0052 6021     		movs	r1, #96
 856 0054 3E20     		movs	r0, #62
 857 0056 FFF7FEFF 		bl	nvicEnableVector
 858              		.loc 1 324 0
 859 005a 4C20     		movs	r0, #76
 860 005c 6021     		movs	r1, #96
 861 005e FFF7FEFF 		bl	nvicEnableVector
 862              		.loc 1 326 0
 863 0062 0220     		movs	r0, #2
 864 0064 F021     		movs	r1, #240
 865 0066 FFF7FEFF 		bl	nvicEnableVector
 866              		.loc 1 328 0
 867 006a 0320     		movs	r0, #3
 868 006c F021     		movs	r1, #240
 869              		.loc 1 330 0
 870 006e BDE80840 		pop	{r3, lr}
 871              		.loc 1 328 0
 872 0072 FFF7FEBF 		b	nvicEnableVector
 873              		.cfi_endproc
 874              	.LFE125:
 875              		.size	ext_lld_exti_irq_enable, .-ext_lld_exti_irq_enable
 876 0076 00BFAFF3 		.section	.text.ext_lld_exti_irq_disable,"ax",%progbits
 876      0080AFF3 
 876      0080
 877              		.align	2
 878              		.p2align 4,,15
 879              		.global	ext_lld_exti_irq_disable
 880              		.thumb
 881              		.thumb_func
 882              		.type	ext_lld_exti_irq_disable, %function
 883              	ext_lld_exti_irq_disable:
 884              	.LFB126:
 885              		.loc 1 337 0
 886              		.cfi_startproc
 887              		@ args = 0, pretend = 0, frame = 0
 888              		@ frame_needed = 0, uses_anonymous_args = 0
 889 0000 08B5     		push	{r3, lr}
 890              	.LCFI15:
 891              		.cfi_def_cfa_offset 8
 892              		.cfi_offset 14, -4
 893              		.cfi_offset 3, -8
 894              		.loc 1 339 0
 895 0002 0620     		movs	r0, #6
ARM GAS  /tmp/cc1l8JQI.s 			page 17


 896 0004 FFF7FEFF 		bl	nvicDisableVector
 897              		.loc 1 340 0
 898 0008 0720     		movs	r0, #7
 899 000a FFF7FEFF 		bl	nvicDisableVector
 900              		.loc 1 341 0
 901 000e 0820     		movs	r0, #8
 902 0010 FFF7FEFF 		bl	nvicDisableVector
 903              		.loc 1 342 0
 904 0014 0920     		movs	r0, #9
 905 0016 FFF7FEFF 		bl	nvicDisableVector
 906              		.loc 1 343 0
 907 001a 0A20     		movs	r0, #10
 908 001c FFF7FEFF 		bl	nvicDisableVector
 909              		.loc 1 344 0
 910 0020 1720     		movs	r0, #23
 911 0022 FFF7FEFF 		bl	nvicDisableVector
 912              		.loc 1 345 0
 913 0026 2820     		movs	r0, #40
 914 0028 FFF7FEFF 		bl	nvicDisableVector
 915              		.loc 1 346 0
 916 002c 0120     		movs	r0, #1
 917 002e FFF7FEFF 		bl	nvicDisableVector
 918              		.loc 1 347 0
 919 0032 2920     		movs	r0, #41
 920 0034 FFF7FEFF 		bl	nvicDisableVector
 921              		.loc 1 348 0
 922 0038 2A20     		movs	r0, #42
 923 003a FFF7FEFF 		bl	nvicDisableVector
 924              		.loc 1 349 0
 925 003e 3E20     		movs	r0, #62
 926 0040 FFF7FEFF 		bl	nvicDisableVector
 927              		.loc 1 350 0
 928 0044 4C20     		movs	r0, #76
 929 0046 FFF7FEFF 		bl	nvicDisableVector
 930              		.loc 1 351 0
 931 004a 0220     		movs	r0, #2
 932 004c FFF7FEFF 		bl	nvicDisableVector
 933              		.loc 1 352 0
 934 0050 0320     		movs	r0, #3
 935              		.loc 1 353 0
 936 0052 BDE80840 		pop	{r3, lr}
 937              		.loc 1 352 0
 938 0056 FFF7FEBF 		b	nvicDisableVector
 939              		.cfi_endproc
 940              	.LFE126:
 941              		.size	ext_lld_exti_irq_disable, .-ext_lld_exti_irq_disable
 942 005a 00BFAFF3 		.text
 942      0080
 943              	.Letext0:
 944              		.file 2 "/home/prana/CodeSourcery/ARM_EABI/bin/../lib/gcc/arm-none-eabi/4.6.3/../../../../arm-none
 945              		.file 3 "../../../os/hal/platforms/STM32F4xx/stm32f4xx.h"
 946              		.file 4 "../../../os/hal/include/ext.h"
 947              		.file 5 "../../../os/hal/platforms/STM32/ext_lld.h"
 948              		.file 6 "../../../os/ports/common/ARMCMx/CMSIS/include/core_cm4.h"