ARM GAS  /tmp/cc9NnKyC.s 			page 1


   1              		.syntax unified
   2              		.cpu cortex-m4
   3              		.fpu softvfp
   4              		.eabi_attribute 20, 1
   5              		.eabi_attribute 21, 1
   6              		.eabi_attribute 23, 3
   7              		.eabi_attribute 24, 1
   8              		.eabi_attribute 25, 1
   9              		.eabi_attribute 26, 1
  10              		.eabi_attribute 30, 2
  11              		.eabi_attribute 34, 1
  12              		.eabi_attribute 18, 4
  13              		.thumb
  14              		.file	"hal.c"
  15              		.text
  16              	.Ltext0:
  17              		.cfi_sections	.debug_frame
  18              		.section	.text.halInit,"ax",%progbits
  19              		.align	2
  20              		.p2align 4,,15
  21              		.global	halInit
  22              		.thumb
  23              		.thumb_func
  24              		.type	halInit, %function
  25              	halInit:
  26              	.LFB111:
  27              		.file 1 "../../../os/hal/src/hal.c"
  28              		.loc 1 61 0
  29              		.cfi_startproc
  30              		@ args = 0, pretend = 0, frame = 0
  31              		@ frame_needed = 0, uses_anonymous_args = 0
  32 0000 08B5     		push	{r3, lr}
  33              	.LCFI0:
  34              		.cfi_def_cfa_offset 8
  35              		.cfi_offset 14, -4
  36              		.cfi_offset 3, -8
  37              		.loc 1 63 0
  38 0002 FFF7FEFF 		bl	hal_lld_init
  39              		.loc 1 66 0
  40 0006 FFF7FEFF 		bl	tmInit
  41              		.loc 1 69 0
  42 000a 40F20000 		movw	r0, #:lower16:pal_default_config
  43 000e C0F20000 		movt	r0, #:upper16:pal_default_config
  44 0012 FFF7FEFF 		bl	_pal_lld_init
  45              		.loc 1 78 0
  46 0016 FFF7FEFF 		bl	extInit
  47              		.loc 1 96 0
  48 001a FFF7FEFF 		bl	sdInit
  49              		.loc 1 117 0
  50 001e FFF7FEFF 		bl	rtcInit
  51              		.loc 1 121 0
  52 0022 BDE80840 		pop	{r3, lr}
  53              		.loc 1 120 0
  54 0026 FFF7FEBF 		b	boardInit
  55              		.cfi_endproc
  56              	.LFE111:
  57              		.size	halInit, .-halInit
ARM GAS  /tmp/cc9NnKyC.s 			page 2


  58 002a 00BFAFF3 		.section	.text.halIsCounterWithin,"ax",%progbits
  58      0080
  59              		.align	2
  60              		.p2align 4,,15
  61              		.global	halIsCounterWithin
  62              		.thumb
  63              		.thumb_func
  64              		.type	halIsCounterWithin, %function
  65              	halIsCounterWithin:
  66              	.LFB112:
  67              		.loc 1 167 0
  68              		.cfi_startproc
  69              		@ args = 0, pretend = 0, frame = 0
  70              		@ frame_needed = 0, uses_anonymous_args = 0
  71              		@ link register save eliminated.
  72              	.LVL0:
  73              		.loc 1 168 0
  74 0000 4FF48053 		mov	r3, #4096
  75 0004 CEF20003 		movt	r3, 57344
  76              		.loc 1 170 0
  77 0008 8142     		cmp	r1, r0
  78              		.loc 1 168 0
  79 000a 5B68     		ldr	r3, [r3, #4]
  80              	.LVL1:
  81              		.loc 1 170 0
  82 000c 08D8     		bhi	.L6
  83              		.loc 1 171 0 discriminator 2
  84 000e 8342     		cmp	r3, r0
  85 0010 34BF     		ite	cc
  86 0012 0020     		movcc	r0, #0
  87              	.LVL2:
  88 0014 0120     		movcs	r0, #1
  89              		.loc 1 170 0 discriminator 2
  90 0016 8B42     		cmp	r3, r1
  91 0018 38BF     		it	cc
  92 001a 40F00100 		orrcc	r0, r0, #1
  93              		.loc 1 172 0 discriminator 2
  94 001e 7047     		bx	lr
  95              	.LVL3:
  96              	.L6:
  97              		.loc 1 170 0 discriminator 1
  98 0020 8342     		cmp	r3, r0
  99 0022 34BF     		ite	cc
 100 0024 0020     		movcc	r0, #0
 101              	.LVL4:
 102 0026 0120     		movcs	r0, #1
 103 0028 8B42     		cmp	r3, r1
 104 002a 2CBF     		ite	cs
 105 002c 0020     		movcs	r0, #0
 106 002e 00F00100 		andcc	r0, r0, #1
 107 0032 7047     		bx	lr
 108              		.cfi_endproc
 109              	.LFE112:
 110              		.size	halIsCounterWithin, .-halIsCounterWithin
 111 0034 AFF30080 		.section	.text.halPolledDelay,"ax",%progbits
 111      AFF30080 
 111      AFF30080 
ARM GAS  /tmp/cc9NnKyC.s 			page 3


 112              		.align	2
 113              		.p2align 4,,15
 114              		.global	halPolledDelay
 115              		.thumb
 116              		.thumb_func
 117              		.type	halPolledDelay, %function
 118              	halPolledDelay:
 119              	.LFB113:
 120              		.loc 1 186 0
 121              		.cfi_startproc
 122              		@ args = 0, pretend = 0, frame = 0
 123              		@ frame_needed = 0, uses_anonymous_args = 0
 124              		@ link register save eliminated.
 125              	.LVL5:
 126              		.loc 1 187 0
 127 0000 4FF48053 		mov	r3, #4096
 128 0004 CEF20003 		movt	r3, 57344
 129              		.loc 1 186 0
 130 0008 10B4     		push	{r4}
 131              	.LCFI1:
 132              		.cfi_def_cfa_offset 4
 133              		.cfi_offset 4, -4
 134              	.LBB4:
 135              	.LBB5:
 136              		.loc 1 168 0
 137 000a 1A46     		mov	r2, r3
 138              	.LBE5:
 139              	.LBE4:
 140              		.loc 1 187 0
 141 000c 5B68     		ldr	r3, [r3, #4]
 142              	.LVL6:
 143              		.loc 1 188 0
 144 000e C018     		adds	r0, r0, r3
 145              	.LVL7:
 146              	.L10:
 147              	.LBB8:
 148              	.LBB6:
 149              		.loc 1 168 0 discriminator 1
 150 0010 5168     		ldr	r1, [r2, #4]
 151              	.LVL8:
 152              		.loc 1 170 0 discriminator 1
 153 0012 8B42     		cmp	r3, r1
 154 0014 8CBF     		ite	hi
 155 0016 0024     		movhi	r4, #0
 156 0018 0124     		movls	r4, #1
 157 001a 8342     		cmp	r3, r0
 158 001c 08D2     		bcs	.L8
 159              		.loc 1 170 0 is_stmt 0
 160 001e 8842     		cmp	r0, r1
 161 0020 94BF     		ite	ls
 162 0022 0021     		movls	r1, #0
 163 0024 04F00101 		andhi	r1, r4, #1
 164              	.LVL9:
 165              	.LBE6:
 166              	.LBE8:
 167              		.loc 1 189 0 is_stmt 1
 168 0028 0029     		cmp	r1, #0
ARM GAS  /tmp/cc9NnKyC.s 			page 4


 169 002a F1D1     		bne	.L10
 170              	.L12:
 171              		.loc 1 191 0
 172 002c 10BC     		pop	{r4}
 173 002e 7047     		bx	lr
 174              	.LVL10:
 175              	.L8:
 176              	.LBB9:
 177              	.LBB7:
 178              		.loc 1 170 0
 179 0030 8842     		cmp	r0, r1
 180 0032 94BF     		ite	ls
 181 0034 2146     		movls	r1, r4
 182 0036 44F00101 		orrhi	r1, r4, #1
 183              	.LVL11:
 184              	.LBE7:
 185              	.LBE9:
 186              		.loc 1 189 0
 187 003a 0029     		cmp	r1, #0
 188 003c E8D1     		bne	.L10
 189 003e F5E7     		b	.L12
 190              		.cfi_endproc
 191              	.LFE113:
 192              		.size	halPolledDelay, .-halPolledDelay
 193              		.text
 194              	.Letext0:
 195              		.file 2 "/home/prana/CodeSourcery/ARM_EABI/bin/../lib/gcc/arm-none-eabi/4.6.3/../../../../arm-none
 196              		.file 3 "../../../os/ports/GCC/ARMCMx/chtypes.h"
 197              		.file 4 "../../../os/ports/common/ARMCMx/nvic.h"
 198              		.file 5 "../../../os/hal/platforms/STM32F4xx/hal_lld.h"
 199              		.file 6 "../../../os/hal/platforms/STM32/GPIOv2/pal_lld.h"
 200              		.file 7 "../../../os/ports/common/ARMCMx/CMSIS/include/core_cm4.h"