ARM GAS  /tmp/ccl05z6I.s 			page 1


   1              		.syntax unified
   2              		.cpu cortex-m4
   3              		.fpu softvfp
   4              		.eabi_attribute 20, 1
   5              		.eabi_attribute 21, 1
   6              		.eabi_attribute 23, 3
   7              		.eabi_attribute 24, 1
   8              		.eabi_attribute 25, 1
   9              		.eabi_attribute 26, 1
  10              		.eabi_attribute 30, 2
  11              		.eabi_attribute 34, 1
  12              		.eabi_attribute 18, 4
  13              		.thumb
  14              		.file	"hal_lld.c"
  15              		.text
  16              	.Ltext0:
  17              		.cfi_sections	.debug_frame
  18              		.section	.text.hal_lld_init,"ax",%progbits
  19              		.align	2
  20              		.p2align 4,,15
  21              		.global	hal_lld_init
  22              		.thumb
  23              		.thumb_func
  24              		.type	hal_lld_init, %function
  25              	hal_lld_init:
  26              	.LFB112:
  27              		.file 1 "../../../os/hal/platforms/STM32F4xx/hal_lld.c"
  28              		.loc 1 94 0
  29              		.cfi_startproc
  30              		@ args = 0, pretend = 0, frame = 0
  31              		@ frame_needed = 0, uses_anonymous_args = 0
  32              		@ link register save eliminated.
  33              		.loc 1 98 0
  34 0000 4FF4605C 		mov	ip, #14336
  35 0004 C4F2020C 		movt	ip, 16386
  36 0008 0022     		movs	r2, #0
  37 000a DCF81010 		ldr	r1, [ip, #16]
  38 000e 41F00100 		orr	r0, r1, #1
  39              		.loc 1 94 0
  40 0012 30B4     		push	{r4, r5}
  41              	.LCFI0:
  42              		.cfi_def_cfa_offset 8
  43              		.cfi_offset 5, -4
  44              		.cfi_offset 4, -8
  45              		.loc 1 98 0
  46 0014 CCF81000 		str	r0, [ip, #16]
  47 0018 CCF81020 		str	r2, [ip, #16]
  48              		.loc 1 99 0
  49 001c DCF81450 		ldr	r5, [ip, #20]
  50 0020 45F00104 		orr	r4, r5, #1
  51 0024 CCF81440 		str	r4, [ip, #20]
  52 0028 CCF81420 		str	r2, [ip, #20]
  53              		.loc 1 100 0
  54 002c DCF81830 		ldr	r3, [ip, #24]
  55 0030 43F00101 		orr	r1, r3, #1
  56 0034 CCF81810 		str	r1, [ip, #24]
  57 0038 CCF81820 		str	r2, [ip, #24]
ARM GAS  /tmp/ccl05z6I.s 			page 2


  58              		.loc 1 101 0
  59 003c DCF82000 		ldr	r0, [ip, #32]
  60 0040 CCF82000 		str	r0, [ip, #32]
  61 0044 CCF82020 		str	r2, [ip, #32]
  62              		.loc 1 102 0
  63 0048 DCF82450 		ldr	r5, [ip, #36]
  64              		.loc 1 105 0
  65 004c 4EF21001 		movw	r1, #57360
  66 0050 CEF20001 		movt	r1, 57344
  67 0054 49F23F04 		movw	r4, #36927
  68              		.loc 1 112 0
  69 0058 4EF6F050 		movw	r0, #60912
  70 005c CEF20000 		movt	r0, 57344
  71              		.loc 1 107 0
  72 0060 0723     		movs	r3, #7
  73              		.loc 1 105 0
  74 0062 C0F20204 		movt	r4, 2
  75              		.loc 1 102 0
  76 0066 45F00105 		orr	r5, r5, #1
  77 006a CCF82450 		str	r5, [ip, #36]
  78 006e CCF82420 		str	r2, [ip, #36]
  79              		.loc 1 105 0
  80 0072 4C60     		str	r4, [r1, #4]
  81              		.loc 1 106 0
  82 0074 8A60     		str	r2, [r1, #8]
  83              		.loc 1 107 0
  84 0076 0B60     		str	r3, [r1, #0]
  85              		.loc 1 112 0
  86 0078 C468     		ldr	r4, [r0, #12]
  87              		.loc 1 113 0
  88 007a 4FF48051 		mov	r1, #4096
  89 007e CEF20001 		movt	r1, 57344
  90              		.loc 1 112 0
  91 0082 44F08074 		orr	r4, r4, #16777216
  92 0086 C460     		str	r4, [r0, #12]
  93              		.loc 1 113 0
  94 0088 0B68     		ldr	r3, [r1, #0]
  95 008a 43F00100 		orr	r0, r3, #1
  96 008e 0860     		str	r0, [r1, #0]
  97              		.loc 1 116 0
  98 0090 DCF84030 		ldr	r3, [ip, #64]
  99              	.LBB4:
 100              	.LBB5:
 101              		.loc 1 52 0
 102 0094 4FF4E041 		mov	r1, #28672
 103 0098 C4F20001 		movt	r1, 16384
 104              	.LBE5:
 105              	.LBE4:
 106              		.loc 1 116 0
 107 009c 43F08050 		orr	r0, r3, #268435456
 108 00a0 CCF84000 		str	r0, [ip, #64]
 109              	.LBB7:
 110              	.LBB6:
 111              		.loc 1 52 0
 112 00a4 0B68     		ldr	r3, [r1, #0]
 113 00a6 43F48070 		orr	r0, r3, #256
 114 00aa 0860     		str	r0, [r1, #0]
ARM GAS  /tmp/ccl05z6I.s 			page 3


 115              		.loc 1 55 0
 116 00ac DCF87030 		ldr	r3, [ip, #112]
 117 00b0 03F44071 		and	r1, r3, #768
 118 00b4 B1F5807F 		cmp	r1, #256
 119              		.loc 1 63 0
 120 00b8 4FF46053 		mov	r3, #14336
 121 00bc C4F20203 		movt	r3, 16386
 122              		.loc 1 57 0
 123 00c0 1EBF     		ittt	ne
 124 00c2 4FF48031 		movne	r1, #65536
 125 00c6 CCF87010 		strne	r1, [ip, #112]
 126              		.loc 1 58 0
 127 00ca CCF87020 		strne	r2, [ip, #112]
 128              		.loc 1 63 0
 129 00ce 186F     		ldr	r0, [r3, #112]
 130 00d0 40F00102 		orr	r2, r0, #1
 131              		.loc 1 64 0
 132 00d4 1946     		mov	r1, r3
 133              		.loc 1 63 0
 134 00d6 1A67     		str	r2, [r3, #112]
 135              	.L3:
 136              		.loc 1 64 0
 137 00d8 0A6F     		ldr	r2, [r1, #112]
 138 00da 4FF46053 		mov	r3, #14336
 139 00de 9007     		lsls	r0, r2, #30
 140 00e0 C4F20203 		movt	r3, 16386
 141 00e4 F8D5     		bpl	.L3
 142              		.loc 1 71 0
 143 00e6 186F     		ldr	r0, [r3, #112]
 144 00e8 0204     		lsls	r2, r0, #16
 145 00ea 07D4     		bmi	.L1
 146              		.loc 1 73 0
 147 00ec 196F     		ldr	r1, [r3, #112]
 148 00ee 41F48070 		orr	r0, r1, #256
 149 00f2 1867     		str	r0, [r3, #112]
 150              		.loc 1 76 0
 151 00f4 1A6F     		ldr	r2, [r3, #112]
 152 00f6 42F40041 		orr	r1, r2, #32768
 153 00fa 1967     		str	r1, [r3, #112]
 154              	.L1:
 155              	.LBE6:
 156              	.LBE7:
 157              		.loc 1 129 0
 158 00fc 30BC     		pop	{r4, r5}
 159 00fe 7047     		bx	lr
 160              		.cfi_endproc
 161              	.LFE112:
 162              		.size	hal_lld_init, .-hal_lld_init
 163              		.section	.text.stm32_clock_init,"ax",%progbits
 164              		.align	2
 165              		.p2align 4,,15
 166              		.global	stm32_clock_init
 167              		.thumb
 168              		.thumb_func
 169              		.type	stm32_clock_init, %function
 170              	stm32_clock_init:
 171              	.LFB113:
ARM GAS  /tmp/ccl05z6I.s 			page 4


 172              		.loc 1 138 0
 173              		.cfi_startproc
 174              		@ args = 0, pretend = 0, frame = 0
 175              		@ frame_needed = 0, uses_anonymous_args = 0
 176              		@ link register save eliminated.
 177              		.loc 1 142 0
 178 0000 4FF46052 		mov	r2, #14336
 179              		.loc 1 146 0
 180 0004 4FF4E043 		mov	r3, #28672
 181 0008 C4F20003 		movt	r3, 16384
 182              		.loc 1 142 0
 183 000c C4F20202 		movt	r2, 16386
 184 0010 4FF08050 		mov	r0, #268435456
 185              		.loc 1 146 0
 186 0014 4FF48041 		mov	r1, #16384
 187              		.loc 1 142 0
 188 0018 1064     		str	r0, [r2, #64]
 189              		.loc 1 147 0
 190 001a 1A46     		mov	r2, r3
 191              		.loc 1 146 0
 192 001c 1960     		str	r1, [r3, #0]
 193              	.L8:
 194              		.loc 1 147 0 discriminator 1
 195 001e 5168     		ldr	r1, [r2, #4]
 196 0020 4904     		lsls	r1, r1, #17
 197 0022 FCD5     		bpl	.L8
 198              		.loc 1 155 0
 199 0024 4FF4605C 		mov	ip, #14336
 200 0028 C4F2020C 		movt	ip, 16386
 201              		.loc 1 156 0
 202 002c 6146     		mov	r1, ip
 203              		.loc 1 155 0
 204 002e DCF80030 		ldr	r3, [ip, #0]
 205 0032 43F00100 		orr	r0, r3, #1
 206 0036 CCF80000 		str	r0, [ip, #0]
 207              	.L9:
 208              		.loc 1 156 0 discriminator 1
 209 003a 0A68     		ldr	r2, [r1, #0]
 210 003c 4FF46053 		mov	r3, #14336
 211 0040 9207     		lsls	r2, r2, #30
 212 0042 C4F20203 		movt	r3, 16386
 213 0046 F8D5     		bpl	.L9
 214              		.loc 1 166 0
 215 0048 1868     		ldr	r0, [r3, #0]
 216 004a 40F48031 		orr	r1, r0, #65536
 217 004e 1960     		str	r1, [r3, #0]
 218              		.loc 1 168 0
 219 0050 1946     		mov	r1, r3
 220              	.L10:
 221              		.loc 1 168 0 is_stmt 0 discriminator 1
 222 0052 0A68     		ldr	r2, [r1, #0]
 223 0054 4FF46053 		mov	r3, #14336
 224 0058 9003     		lsls	r0, r2, #14
 225 005a C4F20203 		movt	r3, 16386
 226 005e F8D5     		bpl	.L10
 227              		.loc 1 174 0 is_stmt 1
 228 0060 586F     		ldr	r0, [r3, #116]
ARM GAS  /tmp/ccl05z6I.s 			page 5


 229 0062 40F00101 		orr	r1, r0, #1
 230 0066 5967     		str	r1, [r3, #116]
 231              	.L11:
 232              		.loc 1 175 0 discriminator 1
 233 0068 596F     		ldr	r1, [r3, #116]
 234 006a 4FF46052 		mov	r2, #14336
 235 006e 8907     		lsls	r1, r1, #30
 236 0070 C4F20202 		movt	r2, 16386
 237 0074 F8D5     		bpl	.L11
 238              		.loc 1 181 0
 239 0076 136F     		ldr	r3, [r2, #112]
 240 0078 DB07     		lsls	r3, r3, #31
 241 007a 13D4     		bmi	.L13
 242              		.loc 1 182 0
 243 007c 4FF4E04C 		mov	ip, #28672
 244 0080 C4F2000C 		movt	ip, 16384
 245 0084 DCF80010 		ldr	r1, [ip, #0]
 246 0088 41F48070 		orr	r0, r1, #256
 247 008c CCF80000 		str	r0, [ip, #0]
 248              		.loc 1 183 0
 249 0090 136F     		ldr	r3, [r2, #112]
 250 0092 43F00101 		orr	r1, r3, #1
 251 0096 1167     		str	r1, [r2, #112]
 252              		.loc 1 184 0
 253 0098 DCF80000 		ldr	r0, [ip, #0]
 254 009c 20F48072 		bic	r2, r0, #256
 255 00a0 CCF80020 		str	r2, [ip, #0]
 256              	.L13:
 257              		.loc 1 186 0 discriminator 1
 258 00a4 4FF46051 		mov	r1, #14336
 259 00a8 C4F20201 		movt	r1, 16386
 260              	.L18:
 261 00ac 0A6F     		ldr	r2, [r1, #112]
 262 00ae 4FF46053 		mov	r3, #14336
 263 00b2 9007     		lsls	r0, r2, #30
 264 00b4 C4F20203 		movt	r3, 16386
 265 00b8 F8D5     		bpl	.L18
 266              		.loc 1 192 0
 267 00ba 45F20842 		movw	r2, #21512
 268 00be C0F24072 		movt	r2, 1856
 269 00c2 5A60     		str	r2, [r3, #4]
 270              		.loc 1 194 0
 271 00c4 1968     		ldr	r1, [r3, #0]
 272 00c6 41F08070 		orr	r0, r1, #16777216
 273 00ca 1860     		str	r0, [r3, #0]
 274              	.L14:
 275              		.loc 1 195 0 discriminator 1
 276 00cc 1868     		ldr	r0, [r3, #0]
 277 00ce 4FF46052 		mov	r2, #14336
 278 00d2 8101     		lsls	r1, r0, #6
 279 00d4 C4F20202 		movt	r2, 16386
 280 00d8 F8D5     		bpl	.L14
 281              		.loc 1 208 0
 282 00da 9068     		ldr	r0, [r2, #8]
 283 00dc 4FF4144C 		mov	ip, #37888
 284 00e0 C3F6080C 		movt	ip, 14344
 285              		.loc 1 214 0
ARM GAS  /tmp/ccl05z6I.s 			page 6


 286 00e4 4FF40051 		mov	r1, #8192
 287              		.loc 1 208 0
 288 00e8 40EA0C03 		orr	r3, r0, ip
 289              		.loc 1 214 0
 290 00ec CEF20401 		movt	r1, 57348
 291              		.loc 1 208 0
 292 00f0 9360     		str	r3, [r2, #8]
 293              		.loc 1 214 0
 294 00f2 0968     		ldr	r1, [r1, #0]
 295 00f4 46F2114C 		movw	ip, #25617
 296 00f8 C2F2000C 		movt	ip, 8192
 297 00fc 6145     		cmp	r1, ip
 298 00fe 21D0     		beq	.L26
 299              	.L15:
 300              		.loc 1 217 0
 301 0100 4FF47051 		mov	r1, #15360
 302 0104 C4F20201 		movt	r1, 16386
 303 0108 40F20572 		movw	r2, #1797
 304 010c 0A60     		str	r2, [r1, #0]
 305              	.L16:
 306              		.loc 1 222 0
 307 010e 4FF46053 		mov	r3, #14336
 308 0112 C4F20203 		movt	r3, 16386
 309              		.loc 1 223 0
 310 0116 1946     		mov	r1, r3
 311              		.loc 1 222 0
 312 0118 9A68     		ldr	r2, [r3, #8]
 313 011a 42F00200 		orr	r0, r2, #2
 314 011e 9860     		str	r0, [r3, #8]
 315              	.L17:
 316              		.loc 1 223 0 discriminator 1
 317 0120 8A68     		ldr	r2, [r1, #8]
 318 0122 02F00C00 		and	r0, r2, #12
 319 0126 4FF46053 		mov	r3, #14336
 320 012a 0828     		cmp	r0, #8
 321 012c C4F20203 		movt	r3, 16386
 322 0130 F6D1     		bne	.L17
 323              		.loc 1 230 0
 324 0132 596C     		ldr	r1, [r3, #68]
 325 0134 41F48042 		orr	r2, r1, #16384
 326 0138 5A64     		str	r2, [r3, #68]
 327 013a 586E     		ldr	r0, [r3, #100]
 328 013c 40F48041 		orr	r1, r0, #16384
 329 0140 5966     		str	r1, [r3, #100]
 330              		.loc 1 231 0
 331 0142 7047     		bx	lr
 332              	.L26:
 333              		.loc 1 214 0 discriminator 1
 334 0144 4FF46D43 		mov	r3, #60672
 335 0148 CEF20003 		movt	r3, 57344
 336 014c 4CF24121 		movw	r1, #49729
 337 0150 1A68     		ldr	r2, [r3, #0]
 338 0152 C4F20F11 		movt	r1, 16655
 339 0156 8A42     		cmp	r2, r1
 340 0158 D2D1     		bne	.L15
 341              		.loc 1 215 0
 342 015a 4FF4705C 		mov	ip, #15360
ARM GAS  /tmp/ccl05z6I.s 			page 7


 343 015e C4F2020C 		movt	ip, 16386
 344 0162 40F20510 		movw	r0, #261
 345 0166 CCF80000 		str	r0, [ip, #0]
 346 016a D0E7     		b	.L16
 347              		.cfi_endproc
 348              	.LFE113:
 349              		.size	stm32_clock_init, .-stm32_clock_init
 350 016c AFF30080 		.text
 351              	.Letext0:
 352              		.file 2 "/home/prana/CodeSourcery/ARM_EABI/bin/../lib/gcc/arm-none-eabi/4.6.3/../../../../arm-none
 353              		.file 3 "../../../os/ports/common/ARMCMx/nvic.h"
 354              		.file 4 "../../../os/ports/common/ARMCMx/CMSIS/include/core_cm4.h"
 355              		.file 5 "../../../os/hal/platforms/STM32F4xx/stm32f4xx.h"
 356              		.section	.debug_info,"",%progbits
 357              	.Ldebug_info0:
 358 0000 B2060000 		.4byte	0x6b2
 359 0004 0200     		.2byte	0x2
 360 0006 00000000 		.4byte	.Ldebug_abbrev0
 361 000a 04       		.byte	0x4
 362 000b 01       		.uleb128 0x1
 363 000c A4020000 		.4byte	.LASF83
 364 0010 01       		.byte	0x1
 365 0011 C1010000 		.4byte	.LASF84
 366 0015 4B020000 		.4byte	.LASF85
 367 0019 00000000 		.4byte	0
 368 001d 00000000 		.4byte	0
 369 0021 18000000 		.4byte	.Ldebug_ranges0+0x18
 370 0025 00000000 		.4byte	.Ldebug_line0
 371 0029 02       		.uleb128 0x2
 372 002a 04       		.byte	0x4
 373 002b 05       		.byte	0x5
 374 002c 696E7400 		.ascii	"int\000"
 375 0030 03       		.uleb128 0x3
 376 0031 04       		.byte	0x4
 377 0032 07       		.byte	0x7
 378 0033 AB010000 		.4byte	.LASF0
 379 0037 03       		.uleb128 0x3
 380 0038 01       		.byte	0x1
 381 0039 06       		.byte	0x6
 382 003a 82010000 		.4byte	.LASF1
 383 003e 04       		.uleb128 0x4
 384 003f 8B000000 		.4byte	.LASF4
 385 0043 02       		.byte	0x2
 386 0044 2A       		.byte	0x2a
 387 0045 49000000 		.4byte	0x49
 388 0049 03       		.uleb128 0x3
 389 004a 01       		.byte	0x1
 390 004b 08       		.byte	0x8
 391 004c 6C010000 		.4byte	.LASF2
 392 0050 03       		.uleb128 0x3
 393 0051 02       		.byte	0x2
 394 0052 05       		.byte	0x5
 395 0053 21000000 		.4byte	.LASF3
 396 0057 04       		.uleb128 0x4
 397 0058 B8010000 		.4byte	.LASF5
 398 005c 02       		.byte	0x2
 399 005d 36       		.byte	0x36
ARM GAS  /tmp/ccl05z6I.s 			page 8


 400 005e 62000000 		.4byte	0x62
 401 0062 03       		.uleb128 0x3
 402 0063 02       		.byte	0x2
 403 0064 07       		.byte	0x7
 404 0065 29020000 		.4byte	.LASF6
 405 0069 04       		.uleb128 0x4
 406 006a 83020000 		.4byte	.LASF7
 407 006e 02       		.byte	0x2
 408 006f 4F       		.byte	0x4f
 409 0070 74000000 		.4byte	0x74
 410 0074 03       		.uleb128 0x3
 411 0075 04       		.byte	0x4
 412 0076 05       		.byte	0x5
 413 0077 0E010000 		.4byte	.LASF8
 414 007b 04       		.uleb128 0x4
 415 007c AA000000 		.4byte	.LASF9
 416 0080 02       		.byte	0x2
 417 0081 50       		.byte	0x50
 418 0082 86000000 		.4byte	0x86
 419 0086 03       		.uleb128 0x3
 420 0087 04       		.byte	0x4
 421 0088 07       		.byte	0x7
 422 0089 EF010000 		.4byte	.LASF10
 423 008d 03       		.uleb128 0x3
 424 008e 08       		.byte	0x8
 425 008f 05       		.byte	0x5
 426 0090 E8000000 		.4byte	.LASF11
 427 0094 03       		.uleb128 0x3
 428 0095 08       		.byte	0x8
 429 0096 07       		.byte	0x7
 430 0097 8E010000 		.4byte	.LASF12
 431 009b 05       		.uleb128 0x5
 432 009c 7B000000 		.4byte	0x7b
 433 00a0 05       		.uleb128 0x5
 434 00a1 86000000 		.4byte	0x86
 435 00a5 06       		.uleb128 0x6
 436 00a6 10       		.byte	0x10
 437 00a7 03       		.byte	0x3
 438 00a8 EA       		.byte	0xea
 439 00a9 E6000000 		.4byte	0xe6
 440 00ad 07       		.uleb128 0x7
 441 00ae 08010000 		.4byte	.LASF13
 442 00b2 03       		.byte	0x3
 443 00b3 EB       		.byte	0xeb
 444 00b4 A0000000 		.4byte	0xa0
 445 00b8 02       		.byte	0x2
 446 00b9 23       		.byte	0x23
 447 00ba 00       		.uleb128 0
 448 00bb 07       		.uleb128 0x7
 449 00bc A4000000 		.4byte	.LASF14
 450 00c0 03       		.byte	0x3
 451 00c1 EC       		.byte	0xec
 452 00c2 A0000000 		.4byte	0xa0
 453 00c6 02       		.byte	0x2
 454 00c7 23       		.byte	0x23
 455 00c8 04       		.uleb128 0x4
 456 00c9 07       		.uleb128 0x7
ARM GAS  /tmp/ccl05z6I.s 			page 9


 457 00ca D5000000 		.4byte	.LASF15
 458 00ce 03       		.byte	0x3
 459 00cf ED       		.byte	0xed
 460 00d0 A0000000 		.4byte	0xa0
 461 00d4 02       		.byte	0x2
 462 00d5 23       		.byte	0x23
 463 00d6 08       		.uleb128 0x8
 464 00d7 07       		.uleb128 0x7
 465 00d8 1B000000 		.4byte	.LASF16
 466 00dc 03       		.byte	0x3
 467 00dd EE       		.byte	0xee
 468 00de A0000000 		.4byte	0xa0
 469 00e2 02       		.byte	0x2
 470 00e3 23       		.byte	0x23
 471 00e4 0C       		.uleb128 0xc
 472 00e5 00       		.byte	0
 473 00e6 04       		.uleb128 0x4
 474 00e7 30000000 		.4byte	.LASF17
 475 00eb 03       		.byte	0x3
 476 00ec EF       		.byte	0xef
 477 00ed A5000000 		.4byte	0xa5
 478 00f1 06       		.uleb128 0x6
 479 00f2 20       		.byte	0x20
 480 00f3 03       		.byte	0x3
 481 00f4 FF       		.byte	0xff
 482 00f5 72010000 		.4byte	0x172
 483 00f9 08       		.uleb128 0x8
 484 00fa 70000000 		.4byte	.LASF18
 485 00fe 03       		.byte	0x3
 486 00ff 0001     		.2byte	0x100
 487 0101 A0000000 		.4byte	0xa0
 488 0105 02       		.byte	0x2
 489 0106 23       		.byte	0x23
 490 0107 00       		.uleb128 0
 491 0108 08       		.uleb128 0x8
 492 0109 F6000000 		.4byte	.LASF19
 493 010d 03       		.byte	0x3
 494 010e 0101     		.2byte	0x101
 495 0110 A0000000 		.4byte	0xa0
 496 0114 02       		.byte	0x2
 497 0115 23       		.byte	0x23
 498 0116 04       		.uleb128 0x4
 499 0117 08       		.uleb128 0x8
 500 0118 84000000 		.4byte	.LASF20
 501 011c 03       		.byte	0x3
 502 011d 0201     		.2byte	0x102
 503 011f A0000000 		.4byte	0xa0
 504 0123 02       		.byte	0x2
 505 0124 23       		.byte	0x23
 506 0125 08       		.uleb128 0x8
 507 0126 08       		.uleb128 0x8
 508 0127 5F010000 		.4byte	.LASF21
 509 012b 03       		.byte	0x3
 510 012c 0301     		.2byte	0x103
 511 012e A0000000 		.4byte	0xa0
 512 0132 02       		.byte	0x2
 513 0133 23       		.byte	0x23
ARM GAS  /tmp/ccl05z6I.s 			page 10


 514 0134 0C       		.uleb128 0xc
 515 0135 08       		.uleb128 0x8
 516 0136 12030000 		.4byte	.LASF22
 517 013a 03       		.byte	0x3
 518 013b 0401     		.2byte	0x104
 519 013d A0000000 		.4byte	0xa0
 520 0141 02       		.byte	0x2
 521 0142 23       		.byte	0x23
 522 0143 10       		.uleb128 0x10
 523 0144 08       		.uleb128 0x8
 524 0145 22030000 		.4byte	.LASF23
 525 0149 03       		.byte	0x3
 526 014a 0501     		.2byte	0x105
 527 014c A0000000 		.4byte	0xa0
 528 0150 02       		.byte	0x2
 529 0151 23       		.byte	0x23
 530 0152 14       		.uleb128 0x14
 531 0153 08       		.uleb128 0x8
 532 0154 3D000000 		.4byte	.LASF24
 533 0158 03       		.byte	0x3
 534 0159 0601     		.2byte	0x106
 535 015b A0000000 		.4byte	0xa0
 536 015f 02       		.byte	0x2
 537 0160 23       		.byte	0x23
 538 0161 18       		.uleb128 0x18
 539 0162 08       		.uleb128 0x8
 540 0163 38000000 		.4byte	.LASF25
 541 0167 03       		.byte	0x3
 542 0168 0701     		.2byte	0x107
 543 016a A0000000 		.4byte	0xa0
 544 016e 02       		.byte	0x2
 545 016f 23       		.byte	0x23
 546 0170 1C       		.uleb128 0x1c
 547 0171 00       		.byte	0
 548 0172 09       		.uleb128 0x9
 549 0173 BF020000 		.4byte	.LASF26
 550 0177 03       		.byte	0x3
 551 0178 0801     		.2byte	0x108
 552 017a F1000000 		.4byte	0xf1
 553 017e 03       		.uleb128 0x3
 554 017f 01       		.byte	0x1
 555 0180 08       		.byte	0x8
 556 0181 46020000 		.4byte	.LASF27
 557 0185 0A       		.uleb128 0xa
 558 0186 8C       		.byte	0x8c
 559 0187 04       		.byte	0x4
 560 0188 6101     		.2byte	0x161
 561 018a CB020000 		.4byte	0x2cb
 562 018e 08       		.uleb128 0x8
 563 018f 6A000000 		.4byte	.LASF28
 564 0193 04       		.byte	0x4
 565 0194 6301     		.2byte	0x163
 566 0196 CB020000 		.4byte	0x2cb
 567 019a 02       		.byte	0x2
 568 019b 23       		.byte	0x23
 569 019c 00       		.uleb128 0
 570 019d 08       		.uleb128 0x8
ARM GAS  /tmp/ccl05z6I.s 			page 11


 571 019e DB000000 		.4byte	.LASF29
 572 01a2 04       		.byte	0x4
 573 01a3 6401     		.2byte	0x164
 574 01a5 9B000000 		.4byte	0x9b
 575 01a9 02       		.byte	0x2
 576 01aa 23       		.byte	0x23
 577 01ab 04       		.uleb128 0x4
 578 01ac 08       		.uleb128 0x8
 579 01ad 7E020000 		.4byte	.LASF30
 580 01b1 04       		.byte	0x4
 581 01b2 6501     		.2byte	0x165
 582 01b4 9B000000 		.4byte	0x9b
 583 01b8 02       		.byte	0x2
 584 01b9 23       		.byte	0x23
 585 01ba 08       		.uleb128 0x8
 586 01bb 08       		.uleb128 0x8
 587 01bc 66010000 		.4byte	.LASF31
 588 01c0 04       		.byte	0x4
 589 01c1 6601     		.2byte	0x166
 590 01c3 9B000000 		.4byte	0x9b
 591 01c7 02       		.byte	0x2
 592 01c8 23       		.byte	0x23
 593 01c9 0C       		.uleb128 0xc
 594 01ca 0B       		.uleb128 0xb
 595 01cb 53435200 		.ascii	"SCR\000"
 596 01cf 04       		.byte	0x4
 597 01d0 6701     		.2byte	0x167
 598 01d2 9B000000 		.4byte	0x9b
 599 01d6 02       		.byte	0x2
 600 01d7 23       		.byte	0x23
 601 01d8 10       		.uleb128 0x10
 602 01d9 0B       		.uleb128 0xb
 603 01da 43435200 		.ascii	"CCR\000"
 604 01de 04       		.byte	0x4
 605 01df 6801     		.2byte	0x168
 606 01e1 9B000000 		.4byte	0x9b
 607 01e5 02       		.byte	0x2
 608 01e6 23       		.byte	0x23
 609 01e7 14       		.uleb128 0x14
 610 01e8 0B       		.uleb128 0xb
 611 01e9 53485000 		.ascii	"SHP\000"
 612 01ed 04       		.byte	0x4
 613 01ee 6901     		.2byte	0x169
 614 01f0 E0020000 		.4byte	0x2e0
 615 01f4 02       		.byte	0x2
 616 01f5 23       		.byte	0x23
 617 01f6 18       		.uleb128 0x18
 618 01f7 08       		.uleb128 0x8
 619 01f8 A5010000 		.4byte	.LASF32
 620 01fc 04       		.byte	0x4
 621 01fd 6A01     		.2byte	0x16a
 622 01ff 9B000000 		.4byte	0x9b
 623 0203 02       		.byte	0x2
 624 0204 23       		.byte	0x23
 625 0205 24       		.uleb128 0x24
 626 0206 08       		.uleb128 0x8
 627 0207 44010000 		.4byte	.LASF33
ARM GAS  /tmp/ccl05z6I.s 			page 12


 628 020b 04       		.byte	0x4
 629 020c 6B01     		.2byte	0x16b
 630 020e 9B000000 		.4byte	0x9b
 631 0212 02       		.byte	0x2
 632 0213 23       		.byte	0x23
 633 0214 28       		.uleb128 0x28
 634 0215 08       		.uleb128 0x8
 635 0216 B0020000 		.4byte	.LASF34
 636 021a 04       		.byte	0x4
 637 021b 6C01     		.2byte	0x16c
 638 021d 9B000000 		.4byte	0x9b
 639 0221 02       		.byte	0x2
 640 0222 23       		.byte	0x23
 641 0223 2C       		.uleb128 0x2c
 642 0224 08       		.uleb128 0x8
 643 0225 9F020000 		.4byte	.LASF35
 644 0229 04       		.byte	0x4
 645 022a 6D01     		.2byte	0x16d
 646 022c 9B000000 		.4byte	0x9b
 647 0230 02       		.byte	0x2
 648 0231 23       		.byte	0x23
 649 0232 30       		.uleb128 0x30
 650 0233 08       		.uleb128 0x8
 651 0234 01020000 		.4byte	.LASF36
 652 0238 04       		.byte	0x4
 653 0239 6E01     		.2byte	0x16e
 654 023b 9B000000 		.4byte	0x9b
 655 023f 02       		.byte	0x2
 656 0240 23       		.byte	0x23
 657 0241 34       		.uleb128 0x34
 658 0242 08       		.uleb128 0x8
 659 0243 03010000 		.4byte	.LASF37
 660 0247 04       		.byte	0x4
 661 0248 6F01     		.2byte	0x16f
 662 024a 9B000000 		.4byte	0x9b
 663 024e 02       		.byte	0x2
 664 024f 23       		.byte	0x23
 665 0250 38       		.uleb128 0x38
 666 0251 08       		.uleb128 0x8
 667 0252 37030000 		.4byte	.LASF38
 668 0256 04       		.byte	0x4
 669 0257 7001     		.2byte	0x170
 670 0259 9B000000 		.4byte	0x9b
 671 025d 02       		.byte	0x2
 672 025e 23       		.byte	0x23
 673 025f 3C       		.uleb128 0x3c
 674 0260 0B       		.uleb128 0xb
 675 0261 50465200 		.ascii	"PFR\000"
 676 0265 04       		.byte	0x4
 677 0266 7101     		.2byte	0x171
 678 0268 F5020000 		.4byte	0x2f5
 679 026c 02       		.byte	0x2
 680 026d 23       		.byte	0x23
 681 026e 40       		.uleb128 0x40
 682 026f 0B       		.uleb128 0xb
 683 0270 44465200 		.ascii	"DFR\000"
 684 0274 04       		.byte	0x4
ARM GAS  /tmp/ccl05z6I.s 			page 13


 685 0275 7201     		.2byte	0x172
 686 0277 CB020000 		.4byte	0x2cb
 687 027b 02       		.byte	0x2
 688 027c 23       		.byte	0x23
 689 027d 48       		.uleb128 0x48
 690 027e 0B       		.uleb128 0xb
 691 027f 41445200 		.ascii	"ADR\000"
 692 0283 04       		.byte	0x4
 693 0284 7301     		.2byte	0x173
 694 0286 CB020000 		.4byte	0x2cb
 695 028a 02       		.byte	0x2
 696 028b 23       		.byte	0x23
 697 028c 4C       		.uleb128 0x4c
 698 028d 08       		.uleb128 0x8
 699 028e C7020000 		.4byte	.LASF39
 700 0292 04       		.byte	0x4
 701 0293 7401     		.2byte	0x174
 702 0295 0F030000 		.4byte	0x30f
 703 0299 02       		.byte	0x2
 704 029a 23       		.byte	0x23
 705 029b 50       		.uleb128 0x50
 706 029c 08       		.uleb128 0x8
 707 029d 8B020000 		.4byte	.LASF40
 708 02a1 04       		.byte	0x4
 709 02a2 7501     		.2byte	0x175
 710 02a4 29030000 		.4byte	0x329
 711 02a8 02       		.byte	0x2
 712 02a9 23       		.byte	0x23
 713 02aa 60       		.uleb128 0x60
 714 02ab 08       		.uleb128 0x8
 715 02ac CC020000 		.4byte	.LASF41
 716 02b0 04       		.byte	0x4
 717 02b1 7601     		.2byte	0x176
 718 02b3 19030000 		.4byte	0x319
 719 02b7 02       		.byte	0x2
 720 02b8 23       		.byte	0x23
 721 02b9 74       		.uleb128 0x74
 722 02ba 08       		.uleb128 0x8
 723 02bb 60030000 		.4byte	.LASF42
 724 02bf 04       		.byte	0x4
 725 02c0 7701     		.2byte	0x177
 726 02c2 9B000000 		.4byte	0x9b
 727 02c6 03       		.byte	0x3
 728 02c7 23       		.byte	0x23
 729 02c8 8801     		.uleb128 0x88
 730 02ca 00       		.byte	0
 731 02cb 0C       		.uleb128 0xc
 732 02cc 9B000000 		.4byte	0x9b
 733 02d0 0D       		.uleb128 0xd
 734 02d1 3E000000 		.4byte	0x3e
 735 02d5 E0020000 		.4byte	0x2e0
 736 02d9 0E       		.uleb128 0xe
 737 02da 30000000 		.4byte	0x30
 738 02de 0B       		.byte	0xb
 739 02df 00       		.byte	0
 740 02e0 05       		.uleb128 0x5
 741 02e1 D0020000 		.4byte	0x2d0
ARM GAS  /tmp/ccl05z6I.s 			page 14


 742 02e5 0D       		.uleb128 0xd
 743 02e6 7B000000 		.4byte	0x7b
 744 02ea F5020000 		.4byte	0x2f5
 745 02ee 0E       		.uleb128 0xe
 746 02ef 30000000 		.4byte	0x30
 747 02f3 01       		.byte	0x1
 748 02f4 00       		.byte	0
 749 02f5 0C       		.uleb128 0xc
 750 02f6 FA020000 		.4byte	0x2fa
 751 02fa 05       		.uleb128 0x5
 752 02fb E5020000 		.4byte	0x2e5
 753 02ff 0D       		.uleb128 0xd
 754 0300 7B000000 		.4byte	0x7b
 755 0304 0F030000 		.4byte	0x30f
 756 0308 0E       		.uleb128 0xe
 757 0309 30000000 		.4byte	0x30
 758 030d 03       		.byte	0x3
 759 030e 00       		.byte	0
 760 030f 0C       		.uleb128 0xc
 761 0310 14030000 		.4byte	0x314
 762 0314 05       		.uleb128 0x5
 763 0315 FF020000 		.4byte	0x2ff
 764 0319 0D       		.uleb128 0xd
 765 031a 7B000000 		.4byte	0x7b
 766 031e 29030000 		.4byte	0x329
 767 0322 0E       		.uleb128 0xe
 768 0323 30000000 		.4byte	0x30
 769 0327 04       		.byte	0x4
 770 0328 00       		.byte	0
 771 0329 0C       		.uleb128 0xc
 772 032a 2E030000 		.4byte	0x32e
 773 032e 05       		.uleb128 0x5
 774 032f 19030000 		.4byte	0x319
 775 0333 09       		.uleb128 0x9
 776 0334 93000000 		.4byte	.LASF43
 777 0338 04       		.byte	0x4
 778 0339 7801     		.2byte	0x178
 779 033b 85010000 		.4byte	0x185
 780 033f 0A       		.uleb128 0xa
 781 0340 10       		.byte	0x10
 782 0341 04       		.byte	0x4
 783 0342 6002     		.2byte	0x260
 784 0344 85030000 		.4byte	0x385
 785 0348 08       		.uleb128 0x8
 786 0349 70000000 		.4byte	.LASF18
 787 034d 04       		.byte	0x4
 788 034e 6202     		.2byte	0x262
 789 0350 9B000000 		.4byte	0x9b
 790 0354 02       		.byte	0x2
 791 0355 23       		.byte	0x23
 792 0356 00       		.uleb128 0
 793 0357 08       		.uleb128 0x8
 794 0358 29030000 		.4byte	.LASF44
 795 035c 04       		.byte	0x4
 796 035d 6302     		.2byte	0x263
 797 035f 9B000000 		.4byte	0x9b
 798 0363 02       		.byte	0x2
ARM GAS  /tmp/ccl05z6I.s 			page 15


 799 0364 23       		.byte	0x23
 800 0365 04       		.uleb128 0x4
 801 0366 0B       		.uleb128 0xb
 802 0367 56414C00 		.ascii	"VAL\000"
 803 036b 04       		.byte	0x4
 804 036c 6402     		.2byte	0x264
 805 036e 9B000000 		.4byte	0x9b
 806 0372 02       		.byte	0x2
 807 0373 23       		.byte	0x23
 808 0374 08       		.uleb128 0x8
 809 0375 08       		.uleb128 0x8
 810 0376 FD000000 		.4byte	.LASF45
 811 037a 04       		.byte	0x4
 812 037b 6502     		.2byte	0x265
 813 037d CB020000 		.4byte	0x2cb
 814 0381 02       		.byte	0x2
 815 0382 23       		.byte	0x23
 816 0383 0C       		.uleb128 0xc
 817 0384 00       		.byte	0
 818 0385 09       		.uleb128 0x9
 819 0386 1C020000 		.4byte	.LASF46
 820 038a 04       		.byte	0x4
 821 038b 6602     		.2byte	0x266
 822 038d 3F030000 		.4byte	0x33f
 823 0391 05       		.uleb128 0x5
 824 0392 69000000 		.4byte	0x69
 825 0396 0A       		.uleb128 0xa
 826 0397 10       		.byte	0x10
 827 0398 05       		.byte	0x5
 828 0399 B401     		.2byte	0x1b4
 829 039b DB030000 		.4byte	0x3db
 830 039f 08       		.uleb128 0x8
 831 03a0 1B030000 		.4byte	.LASF47
 832 03a4 05       		.byte	0x5
 833 03a5 B601     		.2byte	0x1b6
 834 03a7 9B000000 		.4byte	0x9b
 835 03ab 02       		.byte	0x2
 836 03ac 23       		.byte	0x23
 837 03ad 00       		.uleb128 0
 838 03ae 0B       		.uleb128 0xb
 839 03af 435200   		.ascii	"CR\000"
 840 03b2 05       		.byte	0x5
 841 03b3 B701     		.2byte	0x1b7
 842 03b5 9B000000 		.4byte	0x9b
 843 03b9 02       		.byte	0x2
 844 03ba 23       		.byte	0x23
 845 03bb 04       		.uleb128 0x4
 846 03bc 08       		.uleb128 0x8
 847 03bd 2C010000 		.4byte	.LASF48
 848 03c1 05       		.byte	0x5
 849 03c2 B801     		.2byte	0x1b8
 850 03c4 9B000000 		.4byte	0x9b
 851 03c8 02       		.byte	0x2
 852 03c9 23       		.byte	0x23
 853 03ca 08       		.uleb128 0x8
 854 03cb 08       		.uleb128 0x8
 855 03cc CE000000 		.4byte	.LASF49
ARM GAS  /tmp/ccl05z6I.s 			page 16


 856 03d0 05       		.byte	0x5
 857 03d1 B901     		.2byte	0x1b9
 858 03d3 9B000000 		.4byte	0x9b
 859 03d7 02       		.byte	0x2
 860 03d8 23       		.byte	0x23
 861 03d9 0C       		.uleb128 0xc
 862 03da 00       		.byte	0
 863 03db 09       		.uleb128 0x9
 864 03dc 90020000 		.4byte	.LASF50
 865 03e0 05       		.byte	0x5
 866 03e1 BA01     		.2byte	0x1ba
 867 03e3 96030000 		.4byte	0x396
 868 03e7 0A       		.uleb128 0xa
 869 03e8 18       		.byte	0x18
 870 03e9 05       		.byte	0x5
 871 03ea 4102     		.2byte	0x241
 872 03ec 49040000 		.4byte	0x449
 873 03f0 0B       		.uleb128 0xb
 874 03f1 41435200 		.ascii	"ACR\000"
 875 03f5 05       		.byte	0x5
 876 03f6 4302     		.2byte	0x243
 877 03f8 9B000000 		.4byte	0x9b
 878 03fc 02       		.byte	0x2
 879 03fd 23       		.byte	0x23
 880 03fe 00       		.uleb128 0
 881 03ff 08       		.uleb128 0x8
 882 0400 5A010000 		.4byte	.LASF51
 883 0404 05       		.byte	0x5
 884 0405 4402     		.2byte	0x244
 885 0407 9B000000 		.4byte	0x9b
 886 040b 02       		.byte	0x2
 887 040c 23       		.byte	0x23
 888 040d 04       		.uleb128 0x4
 889 040e 08       		.uleb128 0x8
 890 040f E0000000 		.4byte	.LASF52
 891 0413 05       		.byte	0x5
 892 0414 4502     		.2byte	0x245
 893 0416 9B000000 		.4byte	0x9b
 894 041a 02       		.byte	0x2
 895 041b 23       		.byte	0x23
 896 041c 08       		.uleb128 0x8
 897 041d 0B       		.uleb128 0xb
 898 041e 535200   		.ascii	"SR\000"
 899 0421 05       		.byte	0x5
 900 0422 4602     		.2byte	0x246
 901 0424 9B000000 		.4byte	0x9b
 902 0428 02       		.byte	0x2
 903 0429 23       		.byte	0x23
 904 042a 0C       		.uleb128 0xc
 905 042b 0B       		.uleb128 0xb
 906 042c 435200   		.ascii	"CR\000"
 907 042f 05       		.byte	0x5
 908 0430 4702     		.2byte	0x247
 909 0432 9B000000 		.4byte	0x9b
 910 0436 02       		.byte	0x2
 911 0437 23       		.byte	0x23
 912 0438 10       		.uleb128 0x10
ARM GAS  /tmp/ccl05z6I.s 			page 17


 913 0439 08       		.uleb128 0x8
 914 043a 70030000 		.4byte	.LASF53
 915 043e 05       		.byte	0x5
 916 043f 4802     		.2byte	0x248
 917 0441 9B000000 		.4byte	0x9b
 918 0445 02       		.byte	0x2
 919 0446 23       		.byte	0x23
 920 0447 14       		.uleb128 0x14
 921 0448 00       		.byte	0
 922 0449 09       		.uleb128 0x9
 923 044a 45030000 		.4byte	.LASF54
 924 044e 05       		.byte	0x5
 925 044f 4902     		.2byte	0x249
 926 0451 E7030000 		.4byte	0x3e7
 927 0455 0A       		.uleb128 0xa
 928 0456 08       		.byte	0x8
 929 0457 05       		.byte	0x5
 930 0458 D102     		.2byte	0x2d1
 931 045a 7C040000 		.4byte	0x47c
 932 045e 0B       		.uleb128 0xb
 933 045f 435200   		.ascii	"CR\000"
 934 0462 05       		.byte	0x5
 935 0463 D302     		.2byte	0x2d3
 936 0465 9B000000 		.4byte	0x9b
 937 0469 02       		.byte	0x2
 938 046a 23       		.byte	0x23
 939 046b 00       		.uleb128 0
 940 046c 0B       		.uleb128 0xb
 941 046d 43535200 		.ascii	"CSR\000"
 942 0471 05       		.byte	0x5
 943 0472 D402     		.2byte	0x2d4
 944 0474 9B000000 		.4byte	0x9b
 945 0478 02       		.byte	0x2
 946 0479 23       		.byte	0x23
 947 047a 04       		.uleb128 0x4
 948 047b 00       		.byte	0
 949 047c 09       		.uleb128 0x9
 950 047d 50000000 		.4byte	.LASF55
 951 0481 05       		.byte	0x5
 952 0482 D502     		.2byte	0x2d5
 953 0484 55040000 		.4byte	0x455
 954 0488 0A       		.uleb128 0xa
 955 0489 88       		.byte	0x88
 956 048a 05       		.byte	0x5
 957 048b DB02     		.2byte	0x2db
 958 048d 55060000 		.4byte	0x655
 959 0491 0B       		.uleb128 0xb
 960 0492 435200   		.ascii	"CR\000"
 961 0495 05       		.byte	0x5
 962 0496 DD02     		.2byte	0x2dd
 963 0498 9B000000 		.4byte	0x9b
 964 049c 02       		.byte	0x2
 965 049d 23       		.byte	0x23
 966 049e 00       		.uleb128 0
 967 049f 08       		.uleb128 0x8
 968 04a0 14020000 		.4byte	.LASF56
 969 04a4 05       		.byte	0x5
ARM GAS  /tmp/ccl05z6I.s 			page 18


 970 04a5 DE02     		.2byte	0x2de
 971 04a7 9B000000 		.4byte	0x9b
 972 04ab 02       		.byte	0x2
 973 04ac 23       		.byte	0x23
 974 04ad 04       		.uleb128 0x4
 975 04ae 08       		.uleb128 0x8
 976 04af 7F000000 		.4byte	.LASF57
 977 04b3 05       		.byte	0x5
 978 04b4 DF02     		.2byte	0x2df
 979 04b6 9B000000 		.4byte	0x9b
 980 04ba 02       		.byte	0x2
 981 04bb 23       		.byte	0x23
 982 04bc 08       		.uleb128 0x8
 983 04bd 0B       		.uleb128 0xb
 984 04be 43495200 		.ascii	"CIR\000"
 985 04c2 05       		.byte	0x5
 986 04c3 E002     		.2byte	0x2e0
 987 04c5 9B000000 		.4byte	0x9b
 988 04c9 02       		.byte	0x2
 989 04ca 23       		.byte	0x23
 990 04cb 0C       		.uleb128 0xc
 991 04cc 08       		.uleb128 0x8
 992 04cd 2E030000 		.4byte	.LASF58
 993 04d1 05       		.byte	0x5
 994 04d2 E102     		.2byte	0x2e1
 995 04d4 9B000000 		.4byte	0x9b
 996 04d8 02       		.byte	0x2
 997 04d9 23       		.byte	0x23
 998 04da 10       		.uleb128 0x10
 999 04db 08       		.uleb128 0x8
 1000 04dc 49010000 		.4byte	.LASF59
 1001 04e0 05       		.byte	0x5
 1002 04e1 E202     		.2byte	0x2e2
 1003 04e3 9B000000 		.4byte	0x9b
 1004 04e7 02       		.byte	0x2
 1005 04e8 23       		.byte	0x23
 1006 04e9 14       		.uleb128 0x14
 1007 04ea 08       		.uleb128 0x8
 1008 04eb 3C030000 		.4byte	.LASF60
 1009 04ef 05       		.byte	0x5
 1010 04f0 E302     		.2byte	0x2e3
 1011 04f2 9B000000 		.4byte	0x9b
 1012 04f6 02       		.byte	0x2
 1013 04f7 23       		.byte	0x23
 1014 04f8 18       		.uleb128 0x18
 1015 04f9 08       		.uleb128 0x8
 1016 04fa CC020000 		.4byte	.LASF41
 1017 04fe 05       		.byte	0x5
 1018 04ff E402     		.2byte	0x2e4
 1019 0501 7B000000 		.4byte	0x7b
 1020 0505 02       		.byte	0x2
 1021 0506 23       		.byte	0x23
 1022 0507 1C       		.uleb128 0x1c
 1023 0508 08       		.uleb128 0x8
 1024 0509 0A000000 		.4byte	.LASF61
 1025 050d 05       		.byte	0x5
 1026 050e E502     		.2byte	0x2e5
ARM GAS  /tmp/ccl05z6I.s 			page 19


 1027 0510 9B000000 		.4byte	0x9b
 1028 0514 02       		.byte	0x2
 1029 0515 23       		.byte	0x23
 1030 0516 20       		.uleb128 0x20
 1031 0517 08       		.uleb128 0x8
 1032 0518 23010000 		.4byte	.LASF62
 1033 051c 05       		.byte	0x5
 1034 051d E602     		.2byte	0x2e6
 1035 051f 9B000000 		.4byte	0x9b
 1036 0523 02       		.byte	0x2
 1037 0524 23       		.byte	0x23
 1038 0525 24       		.uleb128 0x24
 1039 0526 08       		.uleb128 0x8
 1040 0527 D6020000 		.4byte	.LASF63
 1041 052b 05       		.byte	0x5
 1042 052c E702     		.2byte	0x2e7
 1043 052e E5020000 		.4byte	0x2e5
 1044 0532 02       		.byte	0x2
 1045 0533 23       		.byte	0x23
 1046 0534 28       		.uleb128 0x28
 1047 0535 08       		.uleb128 0x8
 1048 0536 5C000000 		.4byte	.LASF64
 1049 053a 05       		.byte	0x5
 1050 053b E802     		.2byte	0x2e8
 1051 053d 9B000000 		.4byte	0x9b
 1052 0541 02       		.byte	0x2
 1053 0542 23       		.byte	0x23
 1054 0543 30       		.uleb128 0x30
 1055 0544 08       		.uleb128 0x8
 1056 0545 13000000 		.4byte	.LASF65
 1057 0549 05       		.byte	0x5
 1058 054a E902     		.2byte	0x2e9
 1059 054c 9B000000 		.4byte	0x9b
 1060 0550 02       		.byte	0x2
 1061 0551 23       		.byte	0x23
 1062 0552 34       		.uleb128 0x34
 1063 0553 08       		.uleb128 0x8
 1064 0554 52010000 		.4byte	.LASF66
 1065 0558 05       		.byte	0x5
 1066 0559 EA02     		.2byte	0x2ea
 1067 055b 9B000000 		.4byte	0x9b
 1068 055f 02       		.byte	0x2
 1069 0560 23       		.byte	0x23
 1070 0561 38       		.uleb128 0x38
 1071 0562 08       		.uleb128 0x8
 1072 0563 E0020000 		.4byte	.LASF67
 1073 0567 05       		.byte	0x5
 1074 0568 EB02     		.2byte	0x2eb
 1075 056a 7B000000 		.4byte	0x7b
 1076 056e 02       		.byte	0x2
 1077 056f 23       		.byte	0x23
 1078 0570 3C       		.uleb128 0x3c
 1079 0571 08       		.uleb128 0x8
 1080 0572 9C000000 		.4byte	.LASF68
 1081 0576 05       		.byte	0x5
 1082 0577 EC02     		.2byte	0x2ec
 1083 0579 9B000000 		.4byte	0x9b
ARM GAS  /tmp/ccl05z6I.s 			page 20


 1084 057d 02       		.byte	0x2
 1085 057e 23       		.byte	0x23
 1086 057f 40       		.uleb128 0x40
 1087 0580 08       		.uleb128 0x8
 1088 0581 7A010000 		.4byte	.LASF69
 1089 0585 05       		.byte	0x5
 1090 0586 ED02     		.2byte	0x2ed
 1091 0588 9B000000 		.4byte	0x9b
 1092 058c 02       		.byte	0x2
 1093 058d 23       		.byte	0x23
 1094 058e 44       		.uleb128 0x44
 1095 058f 08       		.uleb128 0x8
 1096 0590 EA020000 		.4byte	.LASF70
 1097 0594 05       		.byte	0x5
 1098 0595 EE02     		.2byte	0x2ee
 1099 0597 E5020000 		.4byte	0x2e5
 1100 059b 02       		.byte	0x2
 1101 059c 23       		.byte	0x23
 1102 059d 48       		.uleb128 0x48
 1103 059e 08       		.uleb128 0x8
 1104 059f 00000000 		.4byte	.LASF71
 1105 05a3 05       		.byte	0x5
 1106 05a4 EF02     		.2byte	0x2ef
 1107 05a6 9B000000 		.4byte	0x9b
 1108 05aa 02       		.byte	0x2
 1109 05ab 23       		.byte	0x23
 1110 05ac 50       		.uleb128 0x50
 1111 05ad 08       		.uleb128 0x8
 1112 05ae B5020000 		.4byte	.LASF72
 1113 05b2 05       		.byte	0x5
 1114 05b3 F002     		.2byte	0x2f0
 1115 05b5 9B000000 		.4byte	0x9b
 1116 05b9 02       		.byte	0x2
 1117 05ba 23       		.byte	0x23
 1118 05bb 54       		.uleb128 0x54
 1119 05bc 08       		.uleb128 0x8
 1120 05bd 75000000 		.4byte	.LASF73
 1121 05c1 05       		.byte	0x5
 1122 05c2 F102     		.2byte	0x2f1
 1123 05c4 9B000000 		.4byte	0x9b
 1124 05c8 02       		.byte	0x2
 1125 05c9 23       		.byte	0x23
 1126 05ca 58       		.uleb128 0x58
 1127 05cb 08       		.uleb128 0x8
 1128 05cc F4020000 		.4byte	.LASF74
 1129 05d0 05       		.byte	0x5
 1130 05d1 F202     		.2byte	0x2f2
 1131 05d3 7B000000 		.4byte	0x7b
 1132 05d7 02       		.byte	0x2
 1133 05d8 23       		.byte	0x23
 1134 05d9 5C       		.uleb128 0x5c
 1135 05da 08       		.uleb128 0x8
 1136 05db 3C020000 		.4byte	.LASF75
 1137 05df 05       		.byte	0x5
 1138 05e0 F302     		.2byte	0x2f3
 1139 05e2 9B000000 		.4byte	0x9b
 1140 05e6 02       		.byte	0x2
ARM GAS  /tmp/ccl05z6I.s 			page 21


 1141 05e7 23       		.byte	0x23
 1142 05e8 60       		.uleb128 0x60
 1143 05e9 08       		.uleb128 0x8
 1144 05ea 66030000 		.4byte	.LASF76
 1145 05ee 05       		.byte	0x5
 1146 05ef F402     		.2byte	0x2f4
 1147 05f1 9B000000 		.4byte	0x9b
 1148 05f5 02       		.byte	0x2
 1149 05f6 23       		.byte	0x23
 1150 05f7 64       		.uleb128 0x64
 1151 05f8 08       		.uleb128 0x8
 1152 05f9 FE020000 		.4byte	.LASF77
 1153 05fd 05       		.byte	0x5
 1154 05fe F502     		.2byte	0x2f5
 1155 0600 E5020000 		.4byte	0x2e5
 1156 0604 02       		.byte	0x2
 1157 0605 23       		.byte	0x23
 1158 0606 68       		.uleb128 0x68
 1159 0607 08       		.uleb128 0x8
 1160 0608 2B000000 		.4byte	.LASF78
 1161 060c 05       		.byte	0x5
 1162 060d F602     		.2byte	0x2f6
 1163 060f 9B000000 		.4byte	0x9b
 1164 0613 02       		.byte	0x2
 1165 0614 23       		.byte	0x23
 1166 0615 70       		.uleb128 0x70
 1167 0616 0B       		.uleb128 0xb
 1168 0617 43535200 		.ascii	"CSR\000"
 1169 061b 05       		.byte	0x5
 1170 061c F702     		.2byte	0x2f7
 1171 061e 9B000000 		.4byte	0x9b
 1172 0622 02       		.byte	0x2
 1173 0623 23       		.byte	0x23
 1174 0624 74       		.uleb128 0x74
 1175 0625 08       		.uleb128 0x8
 1176 0626 08030000 		.4byte	.LASF79
 1177 062a 05       		.byte	0x5
 1178 062b F802     		.2byte	0x2f8
 1179 062d E5020000 		.4byte	0x2e5
 1180 0631 02       		.byte	0x2
 1181 0632 23       		.byte	0x23
 1182 0633 78       		.uleb128 0x78
 1183 0634 08       		.uleb128 0x8
 1184 0635 64000000 		.4byte	.LASF80
 1185 0639 05       		.byte	0x5
 1186 063a F902     		.2byte	0x2f9
 1187 063c 9B000000 		.4byte	0x9b
 1188 0640 03       		.byte	0x3
 1189 0641 23       		.byte	0x23
 1190 0642 8001     		.uleb128 0x80
 1191 0644 08       		.uleb128 0x8
 1192 0645 45000000 		.4byte	.LASF81
 1193 0649 05       		.byte	0x5
 1194 064a FA02     		.2byte	0x2fa
 1195 064c 9B000000 		.4byte	0x9b
 1196 0650 03       		.byte	0x3
 1197 0651 23       		.byte	0x23
ARM GAS  /tmp/ccl05z6I.s 			page 22


 1198 0652 8401     		.uleb128 0x84
 1199 0654 00       		.byte	0
 1200 0655 09       		.uleb128 0x9
 1201 0656 17010000 		.4byte	.LASF82
 1202 065a 05       		.byte	0x5
 1203 065b FB02     		.2byte	0x2fb
 1204 065d 88040000 		.4byte	0x488
 1205 0661 0F       		.uleb128 0xf
 1206 0662 B3000000 		.4byte	.LASF86
 1207 0666 01       		.byte	0x1
 1208 0667 31       		.byte	0x31
 1209 0668 01       		.byte	0x1
 1210 0669 01       		.byte	0x1
 1211 066a 10       		.uleb128 0x10
 1212 066b 01       		.byte	0x1
 1213 066c 07020000 		.4byte	.LASF87
 1214 0670 01       		.byte	0x1
 1215 0671 5E       		.byte	0x5e
 1216 0672 01       		.byte	0x1
 1217 0673 00000000 		.4byte	.LFB112
 1218 0677 00010000 		.4byte	.LFE112
 1219 067b 00000000 		.4byte	.LLST0
 1220 067f 93060000 		.4byte	0x693
 1221 0683 11       		.uleb128 0x11
 1222 0684 61060000 		.4byte	0x661
 1223 0688 94000000 		.4byte	.LBB4
 1224 068c 00000000 		.4byte	.Ldebug_ranges0+0
 1225 0690 01       		.byte	0x1
 1226 0691 77       		.byte	0x77
 1227 0692 00       		.byte	0
 1228 0693 12       		.uleb128 0x12
 1229 0694 01       		.byte	0x1
 1230 0695 33010000 		.4byte	.LASF88
 1231 0699 01       		.byte	0x1
 1232 069a 8A       		.byte	0x8a
 1233 069b 01       		.byte	0x1
 1234 069c 00000000 		.4byte	.LFB113
 1235 06a0 6C010000 		.4byte	.LFE113
 1236 06a4 02       		.byte	0x2
 1237 06a5 7D       		.byte	0x7d
 1238 06a6 00       		.sleb128 0
 1239 06a7 13       		.uleb128 0x13
 1240 06a8 53030000 		.4byte	.LASF89
 1241 06ac 04       		.byte	0x4
 1242 06ad 9806     		.2byte	0x698
 1243 06af 91030000 		.4byte	0x391
 1244 06b3 01       		.byte	0x1
 1245 06b4 01       		.byte	0x1
 1246 06b5 00       		.byte	0
 1247              		.section	.debug_abbrev,"",%progbits
 1248              	.Ldebug_abbrev0:
 1249 0000 01       		.uleb128 0x1
 1250 0001 11       		.uleb128 0x11
 1251 0002 01       		.byte	0x1
 1252 0003 25       		.uleb128 0x25
 1253 0004 0E       		.uleb128 0xe
 1254 0005 13       		.uleb128 0x13
ARM GAS  /tmp/ccl05z6I.s 			page 23


 1255 0006 0B       		.uleb128 0xb
 1256 0007 03       		.uleb128 0x3
 1257 0008 0E       		.uleb128 0xe
 1258 0009 1B       		.uleb128 0x1b
 1259 000a 0E       		.uleb128 0xe
 1260 000b 11       		.uleb128 0x11
 1261 000c 01       		.uleb128 0x1
 1262 000d 52       		.uleb128 0x52
 1263 000e 01       		.uleb128 0x1
 1264 000f 55       		.uleb128 0x55
 1265 0010 06       		.uleb128 0x6
 1266 0011 10       		.uleb128 0x10
 1267 0012 06       		.uleb128 0x6
 1268 0013 00       		.byte	0
 1269 0014 00       		.byte	0
 1270 0015 02       		.uleb128 0x2
 1271 0016 24       		.uleb128 0x24
 1272 0017 00       		.byte	0
 1273 0018 0B       		.uleb128 0xb
 1274 0019 0B       		.uleb128 0xb
 1275 001a 3E       		.uleb128 0x3e
 1276 001b 0B       		.uleb128 0xb
 1277 001c 03       		.uleb128 0x3
 1278 001d 08       		.uleb128 0x8
 1279 001e 00       		.byte	0
 1280 001f 00       		.byte	0
 1281 0020 03       		.uleb128 0x3
 1282 0021 24       		.uleb128 0x24
 1283 0022 00       		.byte	0
 1284 0023 0B       		.uleb128 0xb
 1285 0024 0B       		.uleb128 0xb
 1286 0025 3E       		.uleb128 0x3e
 1287 0026 0B       		.uleb128 0xb
 1288 0027 03       		.uleb128 0x3
 1289 0028 0E       		.uleb128 0xe
 1290 0029 00       		.byte	0
 1291 002a 00       		.byte	0
 1292 002b 04       		.uleb128 0x4
 1293 002c 16       		.uleb128 0x16
 1294 002d 00       		.byte	0
 1295 002e 03       		.uleb128 0x3
 1296 002f 0E       		.uleb128 0xe
 1297 0030 3A       		.uleb128 0x3a
 1298 0031 0B       		.uleb128 0xb
 1299 0032 3B       		.uleb128 0x3b
 1300 0033 0B       		.uleb128 0xb
 1301 0034 49       		.uleb128 0x49
 1302 0035 13       		.uleb128 0x13
 1303 0036 00       		.byte	0
 1304 0037 00       		.byte	0
 1305 0038 05       		.uleb128 0x5
 1306 0039 35       		.uleb128 0x35
 1307 003a 00       		.byte	0
 1308 003b 49       		.uleb128 0x49
 1309 003c 13       		.uleb128 0x13
 1310 003d 00       		.byte	0
 1311 003e 00       		.byte	0
ARM GAS  /tmp/ccl05z6I.s 			page 24


 1312 003f 06       		.uleb128 0x6
 1313 0040 13       		.uleb128 0x13
 1314 0041 01       		.byte	0x1
 1315 0042 0B       		.uleb128 0xb
 1316 0043 0B       		.uleb128 0xb
 1317 0044 3A       		.uleb128 0x3a
 1318 0045 0B       		.uleb128 0xb
 1319 0046 3B       		.uleb128 0x3b
 1320 0047 0B       		.uleb128 0xb
 1321 0048 01       		.uleb128 0x1
 1322 0049 13       		.uleb128 0x13
 1323 004a 00       		.byte	0
 1324 004b 00       		.byte	0
 1325 004c 07       		.uleb128 0x7
 1326 004d 0D       		.uleb128 0xd
 1327 004e 00       		.byte	0
 1328 004f 03       		.uleb128 0x3
 1329 0050 0E       		.uleb128 0xe
 1330 0051 3A       		.uleb128 0x3a
 1331 0052 0B       		.uleb128 0xb
 1332 0053 3B       		.uleb128 0x3b
 1333 0054 0B       		.uleb128 0xb
 1334 0055 49       		.uleb128 0x49
 1335 0056 13       		.uleb128 0x13
 1336 0057 38       		.uleb128 0x38
 1337 0058 0A       		.uleb128 0xa
 1338 0059 00       		.byte	0
 1339 005a 00       		.byte	0
 1340 005b 08       		.uleb128 0x8
 1341 005c 0D       		.uleb128 0xd
 1342 005d 00       		.byte	0
 1343 005e 03       		.uleb128 0x3
 1344 005f 0E       		.uleb128 0xe
 1345 0060 3A       		.uleb128 0x3a
 1346 0061 0B       		.uleb128 0xb
 1347 0062 3B       		.uleb128 0x3b
 1348 0063 05       		.uleb128 0x5
 1349 0064 49       		.uleb128 0x49
 1350 0065 13       		.uleb128 0x13
 1351 0066 38       		.uleb128 0x38
 1352 0067 0A       		.uleb128 0xa
 1353 0068 00       		.byte	0
 1354 0069 00       		.byte	0
 1355 006a 09       		.uleb128 0x9
 1356 006b 16       		.uleb128 0x16
 1357 006c 00       		.byte	0
 1358 006d 03       		.uleb128 0x3
 1359 006e 0E       		.uleb128 0xe
 1360 006f 3A       		.uleb128 0x3a
 1361 0070 0B       		.uleb128 0xb
 1362 0071 3B       		.uleb128 0x3b
 1363 0072 05       		.uleb128 0x5
 1364 0073 49       		.uleb128 0x49
 1365 0074 13       		.uleb128 0x13
 1366 0075 00       		.byte	0
 1367 0076 00       		.byte	0
 1368 0077 0A       		.uleb128 0xa
ARM GAS  /tmp/ccl05z6I.s 			page 25


 1369 0078 13       		.uleb128 0x13
 1370 0079 01       		.byte	0x1
 1371 007a 0B       		.uleb128 0xb
 1372 007b 0B       		.uleb128 0xb
 1373 007c 3A       		.uleb128 0x3a
 1374 007d 0B       		.uleb128 0xb
 1375 007e 3B       		.uleb128 0x3b
 1376 007f 05       		.uleb128 0x5
 1377 0080 01       		.uleb128 0x1
 1378 0081 13       		.uleb128 0x13
 1379 0082 00       		.byte	0
 1380 0083 00       		.byte	0
 1381 0084 0B       		.uleb128 0xb
 1382 0085 0D       		.uleb128 0xd
 1383 0086 00       		.byte	0
 1384 0087 03       		.uleb128 0x3
 1385 0088 08       		.uleb128 0x8
 1386 0089 3A       		.uleb128 0x3a
 1387 008a 0B       		.uleb128 0xb
 1388 008b 3B       		.uleb128 0x3b
 1389 008c 05       		.uleb128 0x5
 1390 008d 49       		.uleb128 0x49
 1391 008e 13       		.uleb128 0x13
 1392 008f 38       		.uleb128 0x38
 1393 0090 0A       		.uleb128 0xa
 1394 0091 00       		.byte	0
 1395 0092 00       		.byte	0
 1396 0093 0C       		.uleb128 0xc
 1397 0094 26       		.uleb128 0x26
 1398 0095 00       		.byte	0
 1399 0096 49       		.uleb128 0x49
 1400 0097 13       		.uleb128 0x13
 1401 0098 00       		.byte	0
 1402 0099 00       		.byte	0
 1403 009a 0D       		.uleb128 0xd
 1404 009b 01       		.uleb128 0x1
 1405 009c 01       		.byte	0x1
 1406 009d 49       		.uleb128 0x49
 1407 009e 13       		.uleb128 0x13
 1408 009f 01       		.uleb128 0x1
 1409 00a0 13       		.uleb128 0x13
 1410 00a1 00       		.byte	0
 1411 00a2 00       		.byte	0
 1412 00a3 0E       		.uleb128 0xe
 1413 00a4 21       		.uleb128 0x21
 1414 00a5 00       		.byte	0
 1415 00a6 49       		.uleb128 0x49
 1416 00a7 13       		.uleb128 0x13
 1417 00a8 2F       		.uleb128 0x2f
 1418 00a9 0B       		.uleb128 0xb
 1419 00aa 00       		.byte	0
 1420 00ab 00       		.byte	0
 1421 00ac 0F       		.uleb128 0xf
 1422 00ad 2E       		.uleb128 0x2e
 1423 00ae 00       		.byte	0
 1424 00af 03       		.uleb128 0x3
 1425 00b0 0E       		.uleb128 0xe
ARM GAS  /tmp/ccl05z6I.s 			page 26


 1426 00b1 3A       		.uleb128 0x3a
 1427 00b2 0B       		.uleb128 0xb
 1428 00b3 3B       		.uleb128 0x3b
 1429 00b4 0B       		.uleb128 0xb
 1430 00b5 27       		.uleb128 0x27
 1431 00b6 0C       		.uleb128 0xc
 1432 00b7 20       		.uleb128 0x20
 1433 00b8 0B       		.uleb128 0xb
 1434 00b9 00       		.byte	0
 1435 00ba 00       		.byte	0
 1436 00bb 10       		.uleb128 0x10
 1437 00bc 2E       		.uleb128 0x2e
 1438 00bd 01       		.byte	0x1
 1439 00be 3F       		.uleb128 0x3f
 1440 00bf 0C       		.uleb128 0xc
 1441 00c0 03       		.uleb128 0x3
 1442 00c1 0E       		.uleb128 0xe
 1443 00c2 3A       		.uleb128 0x3a
 1444 00c3 0B       		.uleb128 0xb
 1445 00c4 3B       		.uleb128 0x3b
 1446 00c5 0B       		.uleb128 0xb
 1447 00c6 27       		.uleb128 0x27
 1448 00c7 0C       		.uleb128 0xc
 1449 00c8 11       		.uleb128 0x11
 1450 00c9 01       		.uleb128 0x1
 1451 00ca 12       		.uleb128 0x12
 1452 00cb 01       		.uleb128 0x1
 1453 00cc 40       		.uleb128 0x40
 1454 00cd 06       		.uleb128 0x6
 1455 00ce 01       		.uleb128 0x1
 1456 00cf 13       		.uleb128 0x13
 1457 00d0 00       		.byte	0
 1458 00d1 00       		.byte	0
 1459 00d2 11       		.uleb128 0x11
 1460 00d3 1D       		.uleb128 0x1d
 1461 00d4 00       		.byte	0
 1462 00d5 31       		.uleb128 0x31
 1463 00d6 13       		.uleb128 0x13
 1464 00d7 52       		.uleb128 0x52
 1465 00d8 01       		.uleb128 0x1
 1466 00d9 55       		.uleb128 0x55
 1467 00da 06       		.uleb128 0x6
 1468 00db 58       		.uleb128 0x58
 1469 00dc 0B       		.uleb128 0xb
 1470 00dd 59       		.uleb128 0x59
 1471 00de 0B       		.uleb128 0xb
 1472 00df 00       		.byte	0
 1473 00e0 00       		.byte	0
 1474 00e1 12       		.uleb128 0x12
 1475 00e2 2E       		.uleb128 0x2e
 1476 00e3 00       		.byte	0
 1477 00e4 3F       		.uleb128 0x3f
 1478 00e5 0C       		.uleb128 0xc
 1479 00e6 03       		.uleb128 0x3
 1480 00e7 0E       		.uleb128 0xe
 1481 00e8 3A       		.uleb128 0x3a
 1482 00e9 0B       		.uleb128 0xb
ARM GAS  /tmp/ccl05z6I.s 			page 27


 1483 00ea 3B       		.uleb128 0x3b
 1484 00eb 0B       		.uleb128 0xb
 1485 00ec 27       		.uleb128 0x27
 1486 00ed 0C       		.uleb128 0xc
 1487 00ee 11       		.uleb128 0x11
 1488 00ef 01       		.uleb128 0x1
 1489 00f0 12       		.uleb128 0x12
 1490 00f1 01       		.uleb128 0x1
 1491 00f2 40       		.uleb128 0x40
 1492 00f3 0A       		.uleb128 0xa
 1493 00f4 00       		.byte	0
 1494 00f5 00       		.byte	0
 1495 00f6 13       		.uleb128 0x13
 1496 00f7 34       		.uleb128 0x34
 1497 00f8 00       		.byte	0
 1498 00f9 03       		.uleb128 0x3
 1499 00fa 0E       		.uleb128 0xe
 1500 00fb 3A       		.uleb128 0x3a
 1501 00fc 0B       		.uleb128 0xb
 1502 00fd 3B       		.uleb128 0x3b
 1503 00fe 05       		.uleb128 0x5
 1504 00ff 49       		.uleb128 0x49
 1505 0100 13       		.uleb128 0x13
 1506 0101 3F       		.uleb128 0x3f
 1507 0102 0C       		.uleb128 0xc
 1508 0103 3C       		.uleb128 0x3c
 1509 0104 0C       		.uleb128 0xc
 1510 0105 00       		.byte	0
 1511 0106 00       		.byte	0
 1512 0107 00       		.byte	0
 1513              		.section	.debug_loc,"",%progbits
 1514              	.Ldebug_loc0:
 1515              	.LLST0:
 1516 0000 00000000 		.4byte	.LFB112
 1517 0004 14000000 		.4byte	.LCFI0
 1518 0008 0200     		.2byte	0x2
 1519 000a 7D       		.byte	0x7d
 1520 000b 00       		.sleb128 0
 1521 000c 14000000 		.4byte	.LCFI0
 1522 0010 00010000 		.4byte	.LFE112
 1523 0014 0200     		.2byte	0x2
 1524 0016 7D       		.byte	0x7d
 1525 0017 08       		.sleb128 8
 1526 0018 00000000 		.4byte	0
 1527 001c 00000000 		.4byte	0
 1528              		.section	.debug_aranges,"",%progbits
 1529 0000 24000000 		.4byte	0x24
 1530 0004 0200     		.2byte	0x2
 1531 0006 00000000 		.4byte	.Ldebug_info0
 1532 000a 04       		.byte	0x4
 1533 000b 00       		.byte	0
 1534 000c 0000     		.2byte	0
 1535 000e 0000     		.2byte	0
 1536 0010 00000000 		.4byte	.LFB112
 1537 0014 00010000 		.4byte	.LFE112-.LFB112
 1538 0018 00000000 		.4byte	.LFB113
 1539 001c 6C010000 		.4byte	.LFE113-.LFB113
ARM GAS  /tmp/ccl05z6I.s 			page 28


 1540 0020 00000000 		.4byte	0
 1541 0024 00000000 		.4byte	0
 1542              		.section	.debug_ranges,"",%progbits
 1543              	.Ldebug_ranges0:
 1544 0000 94000000 		.4byte	.LBB4
 1545 0004 9C000000 		.4byte	.LBE4
 1546 0008 A4000000 		.4byte	.LBB7
 1547 000c FC000000 		.4byte	.LBE7
 1548 0010 00000000 		.4byte	0
 1549 0014 00000000 		.4byte	0
 1550 0018 00000000 		.4byte	.LFB112
 1551 001c 00010000 		.4byte	.LFE112
 1552 0020 00000000 		.4byte	.LFB113
 1553 0024 6C010000 		.4byte	.LFE113
 1554 0028 00000000 		.4byte	0
 1555 002c 00000000 		.4byte	0
 1556              		.section	.debug_line,"",%progbits
 1557              	.Ldebug_line0:
 1558 0000 D4010000 		.section	.debug_str,"MS",%progbits,1
 1558      02002C01 
 1558      00000201 
 1558      FB0E0D00 
 1558      01010101 
 1559              	.LASF71:
 1560 0000 41484231 		.ascii	"AHB1LPENR\000"
 1560      4C50454E 
 1560      5200
 1561              	.LASF61:
 1562 000a 41504231 		.ascii	"APB1RSTR\000"
 1562      52535452 
 1562      00
 1563              	.LASF65:
 1564 0013 41484232 		.ascii	"AHB2ENR\000"
 1564      454E5200 
 1565              	.LASF16:
 1566 001b 44454D43 		.ascii	"DEMCR\000"
 1566      5200
 1567              	.LASF3:
 1568 0021 73686F72 		.ascii	"short int\000"
 1568      7420696E 
 1568      7400
 1569              	.LASF78:
 1570 002b 42444352 		.ascii	"BDCR\000"
 1570      00
 1571              	.LASF17:
 1572 0030 434D785F 		.ascii	"CMx_SCS\000"
 1572      53435300 
 1573              	.LASF25:
 1574 0038 50435352 		.ascii	"PCSR\000"
 1574      00
 1575              	.LASF24:
 1576 003d 464F4C44 		.ascii	"FOLDCNT\000"
 1576      434E5400 
 1577              	.LASF81:
 1578 0045 504C4C49 		.ascii	"PLLI2SCFGR\000"
 1578      32534346 
 1578      475200
ARM GAS  /tmp/ccl05z6I.s 			page 29


 1579              	.LASF55:
 1580 0050 5057525F 		.ascii	"PWR_TypeDef\000"
 1580      54797065 
 1580      44656600 
 1581              	.LASF64:
 1582 005c 41484231 		.ascii	"AHB1ENR\000"
 1582      454E5200 
 1583              	.LASF80:
 1584 0064 53534347 		.ascii	"SSCGR\000"
 1584      5200
 1585              	.LASF28:
 1586 006a 43505549 		.ascii	"CPUID\000"
 1586      4400
 1587              	.LASF18:
 1588 0070 4354524C 		.ascii	"CTRL\000"
 1588      00
 1589              	.LASF73:
 1590 0075 41484233 		.ascii	"AHB3LPENR\000"
 1590      4C50454E 
 1590      5200
 1591              	.LASF57:
 1592 007f 43464752 		.ascii	"CFGR\000"
 1592      00
 1593              	.LASF20:
 1594 0084 43504943 		.ascii	"CPICNT\000"
 1594      4E5400
 1595              	.LASF4:
 1596 008b 75696E74 		.ascii	"uint8_t\000"
 1596      385F7400 
 1597              	.LASF43:
 1598 0093 5343425F 		.ascii	"SCB_Type\000"
 1598      54797065 
 1598      00
 1599              	.LASF68:
 1600 009c 41504231 		.ascii	"APB1ENR\000"
 1600      454E5200 
 1601              	.LASF14:
 1602 00a4 44435253 		.ascii	"DCRSR\000"
 1602      5200
 1603              	.LASF9:
 1604 00aa 75696E74 		.ascii	"uint32_t\000"
 1604      33325F74 
 1604      00
 1605              	.LASF86:
 1606 00b3 68616C5F 		.ascii	"hal_lld_backup_domain_init\000"
 1606      6C6C645F 
 1606      6261636B 
 1606      75705F64 
 1606      6F6D6169 
 1607              	.LASF49:
 1608 00ce 41504232 		.ascii	"APB2FZ\000"
 1608      465A00
 1609              	.LASF15:
 1610 00d5 44435244 		.ascii	"DCRDR\000"
 1610      5200
 1611              	.LASF29:
 1612 00db 49435352 		.ascii	"ICSR\000"
ARM GAS  /tmp/ccl05z6I.s 			page 30


 1612      00
 1613              	.LASF52:
 1614 00e0 4F50544B 		.ascii	"OPTKEYR\000"
 1614      45595200 
 1615              	.LASF11:
 1616 00e8 6C6F6E67 		.ascii	"long long int\000"
 1616      206C6F6E 
 1616      6720696E 
 1616      7400
 1617              	.LASF19:
 1618 00f6 43594343 		.ascii	"CYCCNT\000"
 1618      4E5400
 1619              	.LASF45:
 1620 00fd 43414C49 		.ascii	"CALIB\000"
 1620      4200
 1621              	.LASF37:
 1622 0103 42464152 		.ascii	"BFAR\000"
 1622      00
 1623              	.LASF13:
 1624 0108 44484353 		.ascii	"DHCSR\000"
 1624      5200
 1625              	.LASF8:
 1626 010e 6C6F6E67 		.ascii	"long int\000"
 1626      20696E74 
 1626      00
 1627              	.LASF82:
 1628 0117 5243435F 		.ascii	"RCC_TypeDef\000"
 1628      54797065 
 1628      44656600 
 1629              	.LASF62:
 1630 0123 41504232 		.ascii	"APB2RSTR\000"
 1630      52535452 
 1630      00
 1631              	.LASF48:
 1632 012c 41504231 		.ascii	"APB1FZ\000"
 1632      465A00
 1633              	.LASF88:
 1634 0133 73746D33 		.ascii	"stm32_clock_init\000"
 1634      325F636C 
 1634      6F636B5F 
 1634      696E6974 
 1634      00
 1635              	.LASF33:
 1636 0144 43465352 		.ascii	"CFSR\000"
 1636      00
 1637              	.LASF59:
 1638 0149 41484232 		.ascii	"AHB2RSTR\000"
 1638      52535452 
 1638      00
 1639              	.LASF66:
 1640 0152 41484233 		.ascii	"AHB3ENR\000"
 1640      454E5200 
 1641              	.LASF51:
 1642 015a 4B455952 		.ascii	"KEYR\000"
 1642      00
 1643              	.LASF21:
 1644 015f 45584343 		.ascii	"EXCCNT\000"
ARM GAS  /tmp/ccl05z6I.s 			page 31


 1644      4E5400
 1645              	.LASF31:
 1646 0166 41495243 		.ascii	"AIRCR\000"
 1646      5200
 1647              	.LASF2:
 1648 016c 756E7369 		.ascii	"unsigned char\000"
 1648      676E6564 
 1648      20636861 
 1648      7200
 1649              	.LASF69:
 1650 017a 41504232 		.ascii	"APB2ENR\000"
 1650      454E5200 
 1651              	.LASF1:
 1652 0182 7369676E 		.ascii	"signed char\000"
 1652      65642063 
 1652      68617200 
 1653              	.LASF12:
 1654 018e 6C6F6E67 		.ascii	"long long unsigned int\000"
 1654      206C6F6E 
 1654      6720756E 
 1654      7369676E 
 1654      65642069 
 1655              	.LASF32:
 1656 01a5 53484353 		.ascii	"SHCSR\000"
 1656      5200
 1657              	.LASF0:
 1658 01ab 756E7369 		.ascii	"unsigned int\000"
 1658      676E6564 
 1658      20696E74 
 1658      00
 1659              	.LASF5:
 1660 01b8 75696E74 		.ascii	"uint16_t\000"
 1660      31365F74 
 1660      00
 1661              	.LASF84:
 1662 01c1 2E2E2F2E 		.ascii	"../../../os/hal/platforms/STM32F4xx/hal_lld.c\000"
 1662      2E2F2E2E 
 1662      2F6F732F 
 1662      68616C2F 
 1662      706C6174 
 1663              	.LASF10:
 1664 01ef 6C6F6E67 		.ascii	"long unsigned int\000"
 1664      20756E73 
 1664      69676E65 
 1664      6420696E 
 1664      7400
 1665              	.LASF36:
 1666 0201 4D4D4641 		.ascii	"MMFAR\000"
 1666      5200
 1667              	.LASF87:
 1668 0207 68616C5F 		.ascii	"hal_lld_init\000"
 1668      6C6C645F 
 1668      696E6974 
 1668      00
 1669              	.LASF56:
 1670 0214 504C4C43 		.ascii	"PLLCFGR\000"
 1670      46475200 
ARM GAS  /tmp/ccl05z6I.s 			page 32


 1671              	.LASF46:
 1672 021c 53797354 		.ascii	"SysTick_Type\000"
 1672      69636B5F 
 1672      54797065 
 1672      00
 1673              	.LASF6:
 1674 0229 73686F72 		.ascii	"short unsigned int\000"
 1674      7420756E 
 1674      7369676E 
 1674      65642069 
 1674      6E7400
 1675              	.LASF75:
 1676 023c 41504231 		.ascii	"APB1LPENR\000"
 1676      4C50454E 
 1676      5200
 1677              	.LASF27:
 1678 0246 63686172 		.ascii	"char\000"
 1678      00
 1679              	.LASF85:
 1680 024b 2F686F6D 		.ascii	"/home/prana/workspace/eth/ch/testhal/STM32F4xx/RTC\000"
 1680      652F7072 
 1680      616E612F 
 1680      776F726B 
 1680      73706163 
 1681              	.LASF30:
 1682 027e 56544F52 		.ascii	"VTOR\000"
 1682      00
 1683              	.LASF7:
 1684 0283 696E7433 		.ascii	"int32_t\000"
 1684      325F7400 
 1685              	.LASF40:
 1686 028b 49534152 		.ascii	"ISAR\000"
 1686      00
 1687              	.LASF50:
 1688 0290 4442474D 		.ascii	"DBGMCU_TypeDef\000"
 1688      43555F54 
 1688      79706544 
 1688      656600
 1689              	.LASF35:
 1690 029f 44465352 		.ascii	"DFSR\000"
 1690      00
 1691              	.LASF83:
 1692 02a4 474E5520 		.ascii	"GNU C 4.6.3\000"
 1692      4320342E 
 1692      362E3300 
 1693              	.LASF34:
 1694 02b0 48465352 		.ascii	"HFSR\000"
 1694      00
 1695              	.LASF72:
 1696 02b5 41484232 		.ascii	"AHB2LPENR\000"
 1696      4C50454E 
 1696      5200
 1697              	.LASF26:
 1698 02bf 434D785F 		.ascii	"CMx_DWT\000"
 1698      44575400 
 1699              	.LASF39:
 1700 02c7 4D4D4652 		.ascii	"MMFR\000"
ARM GAS  /tmp/ccl05z6I.s 			page 33


 1700      00
 1701              	.LASF41:
 1702 02cc 52455345 		.ascii	"RESERVED0\000"
 1702      52564544 
 1702      3000
 1703              	.LASF63:
 1704 02d6 52455345 		.ascii	"RESERVED1\000"
 1704      52564544 
 1704      3100
 1705              	.LASF67:
 1706 02e0 52455345 		.ascii	"RESERVED2\000"
 1706      52564544 
 1706      3200
 1707              	.LASF70:
 1708 02ea 52455345 		.ascii	"RESERVED3\000"
 1708      52564544 
 1708      3300
 1709              	.LASF74:
 1710 02f4 52455345 		.ascii	"RESERVED4\000"
 1710      52564544 
 1710      3400
 1711              	.LASF77:
 1712 02fe 52455345 		.ascii	"RESERVED5\000"
 1712      52564544 
 1712      3500
 1713              	.LASF79:
 1714 0308 52455345 		.ascii	"RESERVED6\000"
 1714      52564544 
 1714      3600
 1715              	.LASF22:
 1716 0312 534C4545 		.ascii	"SLEEPCNT\000"
 1716      50434E54 
 1716      00
 1717              	.LASF47:
 1718 031b 4944434F 		.ascii	"IDCODE\000"
 1718      444500
 1719              	.LASF23:
 1720 0322 4C535543 		.ascii	"LSUCNT\000"
 1720      4E5400
 1721              	.LASF44:
 1722 0329 4C4F4144 		.ascii	"LOAD\000"
 1722      00
 1723              	.LASF58:
 1724 032e 41484231 		.ascii	"AHB1RSTR\000"
 1724      52535452 
 1724      00
 1725              	.LASF38:
 1726 0337 41465352 		.ascii	"AFSR\000"
 1726      00
 1727              	.LASF60:
 1728 033c 41484233 		.ascii	"AHB3RSTR\000"
 1728      52535452 
 1728      00
 1729              	.LASF54:
 1730 0345 464C4153 		.ascii	"FLASH_TypeDef\000"
 1730      485F5479 
 1730      70654465 
ARM GAS  /tmp/ccl05z6I.s 			page 34


 1730      6600
 1731              	.LASF89:
 1732 0353 49544D5F 		.ascii	"ITM_RxBuffer\000"
 1732      52784275 
 1732      66666572 
 1732      00
 1733              	.LASF42:
 1734 0360 43504143 		.ascii	"CPACR\000"
 1734      5200
 1735              	.LASF76:
 1736 0366 41504232 		.ascii	"APB2LPENR\000"
 1736      4C50454E 
 1736      5200
 1737              	.LASF53:
 1738 0370 4F505443 		.ascii	"OPTCR\000"
 1738      5200
 1739              		.ident	"GCC: (Sourcery CodeBench Lite 2012.03-56) 4.6.3"
ARM GAS  /tmp/ccl05z6I.s 			page 35


DEFINED SYMBOLS
                            *ABS*:00000000 hal_lld.c
     /tmp/ccl05z6I.s:19     .text.hal_lld_init:00000000 $t
     /tmp/ccl05z6I.s:25     .text.hal_lld_init:00000000 hal_lld_init
     /tmp/ccl05z6I.s:164    .text.stm32_clock_init:00000000 $t
     /tmp/ccl05z6I.s:170    .text.stm32_clock_init:00000000 stm32_clock_init
                     .debug_frame:00000010 $d

NO UNDEFINED SYMBOLS
