ARM GAS  /tmp/cct3EHuM.s 			page 1


   1              		.syntax unified
   2              		.cpu cortex-m4
   3              		.fpu softvfp
   4              		.eabi_attribute 20, 1
   5              		.eabi_attribute 21, 1
   6              		.eabi_attribute 23, 3
   7              		.eabi_attribute 24, 1
   8              		.eabi_attribute 25, 1
   9              		.eabi_attribute 26, 1
  10              		.eabi_attribute 30, 2
  11              		.eabi_attribute 34, 1
  12              		.eabi_attribute 18, 4
  13              		.thumb
  14              		.file	"main.c"
  15              		.text
  16              	.Ltext0:
  17              		.cfi_sections	.debug_frame
  18              		.section	.text.blink_thd,"ax",%progbits
  19              		.align	2
  20              		.p2align 4,,15
  21              		.thumb
  22              		.thumb_func
  23              		.type	blink_thd, %function
  24              	blink_thd:
  25              	.LFB114:
  26              		.file 1 "main.c"
  27              		.loc 1 72 0
  28              		.cfi_startproc
  29              		@ args = 0, pretend = 0, frame = 0
  30              		@ frame_needed = 0, uses_anonymous_args = 0
  31              	.LVL0:
  32 0000 10B5     		push	{r4, lr}
  33              	.LCFI0:
  34              		.cfi_def_cfa_offset 8
  35              		.cfi_offset 14, -4
  36              		.cfi_offset 4, -8
  37              		.loc 1 76 0
  38 0002 4FF48064 		mov	r4, #1024
  39 0006 C4F20204 		movt	r4, 16386
  40              	.LVL1:
  41              	.L2:
  42              		.loc 1 75 0 discriminator 1
  43 000a 6420     		movs	r0, #100
  44 000c FFF7FEFF 		bl	chThdSleep
  45              		.loc 1 76 0 discriminator 1
  46 0010 6069     		ldr	r0, [r4, #20]
  47 0012 80F04003 		eor	r3, r0, #64
  48 0016 6361     		str	r3, [r4, #20]
  49 0018 F7E7     		b	.L2
  50              		.cfi_endproc
  51              	.LFE114:
  52              		.size	blink_thd, .-blink_thd
  53 001a 00BFAFF3 		.section	.text.cmd_date,"ax",%progbits
  53      0080
  54              		.align	2
  55              		.p2align 4,,15
  56              		.thumb
ARM GAS  /tmp/cct3EHuM.s 			page 2


  57              		.thumb_func
  58              		.type	cmd_date, %function
  59              	cmd_date:
  60              	.LFB118:
  61              		.loc 1 141 0
  62              		.cfi_startproc
  63              		@ args = 0, pretend = 0, frame = 56
  64              		@ frame_needed = 0, uses_anonymous_args = 0
  65              	.LVL2:
  66 0000 10B5     		push	{r4, lr}
  67              	.LCFI1:
  68              		.cfi_def_cfa_offset 8
  69              		.cfi_offset 14, -4
  70              		.cfi_offset 4, -8
  71 0002 0446     		mov	r4, r0
  72 0004 8EB0     		sub	sp, sp, #56
  73              	.LCFI2:
  74              		.cfi_def_cfa_offset 64
  75              		.loc 1 145 0
  76 0006 19B1     		cbz	r1, .L5
  77              		.loc 1 149 0
  78 0008 0129     		cmp	r1, #1
  79 000a 47D0     		beq	.L9
  80              		.loc 1 163 0
  81 000c 0229     		cmp	r1, #2
  82 000e 28D0     		beq	.L10
  83              	.LVL3:
  84              	.L5:
  85              		.loc 1 178 0
  86 0010 40F20001 		movw	r1, #:lower16:.LC7
  87 0014 C0F20001 		movt	r1, #:upper16:.LC7
  88 0018 2046     		mov	r0, r4
  89 001a FFF7FEFF 		bl	chprintf
  90              		.loc 1 179 0
  91 001e 40F20001 		movw	r1, #:lower16:.LC8
  92 0022 2046     		mov	r0, r4
  93 0024 C0F20001 		movt	r1, #:upper16:.LC8
  94 0028 FFF7FEFF 		bl	chprintf
  95              		.loc 1 180 0
  96 002c 40F20001 		movw	r1, #:lower16:.LC9
  97 0030 2046     		mov	r0, r4
  98 0032 C0F20001 		movt	r1, #:upper16:.LC9
  99 0036 FFF7FEFF 		bl	chprintf
 100              		.loc 1 181 0
 101 003a 40F20001 		movw	r1, #:lower16:.LC10
 102 003e 2046     		mov	r0, r4
 103 0040 C0F20001 		movt	r1, #:upper16:.LC10
 104 0044 FFF7FEFF 		bl	chprintf
 105              		.loc 1 182 0
 106 0048 40F20001 		movw	r1, #:lower16:.LC11
 107 004c 40F20002 		movw	r2, #:lower16:.LC12
 108 0050 2046     		mov	r0, r4
 109 0052 C0F20001 		movt	r1, #:upper16:.LC11
 110 0056 C0F20002 		movt	r2, #:upper16:.LC12
 111 005a FFF7FEFF 		bl	chprintf
 112              	.L4:
 113              		.loc 1 184 0
ARM GAS  /tmp/cct3EHuM.s 			page 3


 114 005e 0EB0     		add	sp, sp, #56
 115 0060 10BD     		pop	{r4, pc}
 116              	.LVL4:
 117              	.L10:
 118              		.loc 1 163 0 discriminator 1
 119 0062 40F20001 		movw	r1, #:lower16:.LC6
 120              	.LVL5:
 121 0066 1068     		ldr	r0, [r2, #0]
 122 0068 0192     		str	r2, [sp, #4]
 123 006a C0F20001 		movt	r1, #:upper16:.LC6
 124 006e FFF7FEFF 		bl	strcmp
 125              	.LVL6:
 126 0072 019A     		ldr	r2, [sp, #4]
 127              	.LVL7:
 128 0074 0028     		cmp	r0, #0
 129 0076 CBD1     		bne	.L5
 130              		.loc 1 164 0
 131 0078 5068     		ldr	r0, [r2, #4]
 132 007a FFF7FEFF 		bl	atol
 133              	.LVL8:
 134 007e 40F20002 		movw	r2, #:lower16:.LANCHOR0
 135 0082 C0F20002 		movt	r2, #:upper16:.LANCHOR0
 136              		.loc 1 165 0
 137 0086 0028     		cmp	r0, #0
 138              		.loc 1 164 0
 139 0088 0146     		mov	r1, r0
 140 008a 1060     		str	r0, [r2, #0]
 141              		.loc 1 165 0
 142 008c C0DD     		ble	.L5
 143              		.loc 1 166 0
 144 008e 40F20000 		movw	r0, #:lower16:RTCD1
 145 0092 C0F20000 		movt	r0, #:upper16:RTCD1
 146 0096 FFF7FEFF 		bl	rtcSetTimeUnixSec
 147              		.loc 1 167 0
 148 009a E0E7     		b	.L4
 149              	.LVL9:
 150              	.L9:
 151              		.loc 1 149 0 discriminator 1
 152 009c 40F20001 		movw	r1, #:lower16:.LC0
 153              	.LVL10:
 154 00a0 1068     		ldr	r0, [r2, #0]
 155 00a2 C0F20001 		movt	r1, #:upper16:.LC0
 156 00a6 FFF7FEFF 		bl	strcmp
 157              	.LVL11:
 158 00aa 0028     		cmp	r0, #0
 159 00ac B0D1     		bne	.L5
 160              		.loc 1 150 0
 161 00ae 40F20000 		movw	r0, #:lower16:RTCD1
 162 00b2 C0F20000 		movt	r0, #:upper16:RTCD1
 163 00b6 FFF7FEFF 		bl	rtcGetTimeUnixSec
 164 00ba 40F20003 		movw	r3, #:lower16:.LANCHOR0
 165 00be C0F20003 		movt	r3, #:upper16:.LANCHOR0
 166 00c2 1860     		str	r0, [r3, #0]
 167              		.loc 1 152 0
 168 00c4 431C     		adds	r3, r0, #1
 169 00c6 22D0     		beq	.L11
 170              		.loc 1 156 0
ARM GAS  /tmp/cct3EHuM.s 			page 4


 171 00c8 40F20001 		movw	r1, #:lower16:.LC2
 172 00cc 40F20003 		movw	r3, #:lower16:.LC3
 173 00d0 0246     		mov	r2, r0
 174 00d2 C0F20003 		movt	r3, #:upper16:.LC3
 175 00d6 2046     		mov	r0, r4
 176 00d8 C0F20001 		movt	r1, #:upper16:.LC2
 177 00dc FFF7FEFF 		bl	chprintf
 178              		.loc 1 157 0
 179 00e0 40F20000 		movw	r0, #:lower16:RTCD1
 180 00e4 03A9     		add	r1, sp, #12
 181 00e6 C0F20000 		movt	r0, #:upper16:RTCD1
 182 00ea FFF7FEFF 		bl	rtcGetTimeTm
 183              		.loc 1 158 0
 184 00ee 03A8     		add	r0, sp, #12
 185 00f0 FFF7FEFF 		bl	asctime
 186 00f4 40F20001 		movw	r1, #:lower16:.LC4
 187 00f8 40F20003 		movw	r3, #:lower16:.LC5
 188 00fc 0246     		mov	r2, r0
 189 00fe C0F20001 		movt	r1, #:upper16:.LC4
 190 0102 2046     		mov	r0, r4
 191 0104 C0F20003 		movt	r3, #:upper16:.LC5
 192 0108 FFF7FEFF 		bl	chprintf
 193 010c A7E7     		b	.L4
 194              	.L11:
 195              		.loc 1 153 0
 196 010e 40F20001 		movw	r1, #:lower16:.LC1
 197 0112 2046     		mov	r0, r4
 198 0114 C0F20001 		movt	r1, #:upper16:.LC1
 199 0118 FFF7FEFF 		bl	chprintf
 200 011c 9FE7     		b	.L4
 201              		.cfi_endproc
 202              	.LFE118:
 203              		.size	cmd_date, .-cmd_date
 204 011e 00BF     		.section	.text.cmd_alarm,"ax",%progbits
 205              		.align	2
 206              		.p2align 4,,15
 207              		.thumb
 208              		.thumb_func
 209              		.type	cmd_alarm, %function
 210              	cmd_alarm:
 211              	.LFB117:
 212              		.loc 1 107 0
 213              		.cfi_startproc
 214              		@ args = 0, pretend = 0, frame = 0
 215              		@ frame_needed = 0, uses_anonymous_args = 0
 216              	.LVL12:
 217              		.loc 1 111 0
 218 0000 0029     		cmp	r1, #0
 219              		.loc 1 107 0
 220 0002 70B5     		push	{r4, r5, r6, lr}
 221              	.LCFI3:
 222              		.cfi_def_cfa_offset 16
 223              		.cfi_offset 14, -4
 224              		.cfi_offset 6, -8
 225              		.cfi_offset 5, -12
 226              		.cfi_offset 4, -16
 227              		.loc 1 107 0
ARM GAS  /tmp/cct3EHuM.s 			page 5


 228 0004 0546     		mov	r5, r0
 229 0006 1446     		mov	r4, r2
 230              		.loc 1 111 0
 231 0008 03DD     		ble	.L13
 232              		.loc 1 115 0
 233 000a 0129     		cmp	r1, #1
 234 000c 4AD0     		beq	.L15
 235              		.loc 1 121 0
 236 000e 0229     		cmp	r1, #2
 237 0010 16D0     		beq	.L16
 238              	.LVL13:
 239              	.L13:
 240              		.loc 1 133 0
 241 0012 40F20001 		movw	r1, #:lower16:.LC14
 242 0016 2846     		mov	r0, r5
 243 0018 C0F20001 		movt	r1, #:upper16:.LC14
 244 001c FFF7FEFF 		bl	chprintf
 245              		.loc 1 134 0
 246 0020 40F20001 		movw	r1, #:lower16:.LC15
 247 0024 2846     		mov	r0, r5
 248 0026 C0F20001 		movt	r1, #:upper16:.LC15
 249 002a FFF7FEFF 		bl	chprintf
 250              		.loc 1 135 0
 251 002e 40F20001 		movw	r1, #:lower16:.LC16
 252 0032 2846     		mov	r0, r5
 253 0034 C0F20001 		movt	r1, #:upper16:.LC16
 254              		.loc 1 136 0
 255 0038 BDE87040 		pop	{r4, r5, r6, lr}
 256              		.loc 1 135 0
 257 003c FFF7FEBF 		b	chprintf
 258              	.LVL14:
 259              	.L16:
 260              		.loc 1 121 0 discriminator 1
 261 0040 40F20001 		movw	r1, #:lower16:.LC6
 262              	.LVL15:
 263 0044 1068     		ldr	r0, [r2, #0]
 264 0046 C0F20001 		movt	r1, #:upper16:.LC6
 265 004a FFF7FEFF 		bl	strcmp
 266 004e 0646     		mov	r6, r0
 267 0050 0028     		cmp	r0, #0
 268 0052 DED1     		bne	.L13
 269              		.loc 1 122 0
 270 0054 6068     		ldr	r0, [r4, #4]
 271 0056 FFF7FEFF 		bl	atol
 272              	.LVL16:
 273              		.loc 1 123 0
 274 005a 46F26761 		movw	r1, #26215
 275 005e C6F26661 		movt	r1, 26214
 276 0062 81FB0032 		smull	r3, r2, r1, r0
 277 0066 C317     		asrs	r3, r0, #31
 278 0068 C3EBA204 		rsb	r4, r3, r2, asr #2
 279              	.LVL17:
 280 006c 04EB8401 		add	r1, r4, r4, lsl #2
 281 0070 04F0700C 		and	ip, r4, #112
 282 0074 A0EB4100 		sub	r0, r0, r1, lsl #1
 283              	.LVL18:
 284 0078 40F20003 		movw	r3, #:lower16:.LANCHOR1
ARM GAS  /tmp/cct3EHuM.s 			page 6


 285              		.loc 1 124 0
 286 007c 4FF40044 		mov	r4, #32768
 287              		.loc 1 123 0
 288 0080 4CEA0002 		orr	r2, ip, r0
 289 0084 C0F20003 		movt	r3, #:upper16:.LANCHOR1
 290              		.loc 1 124 0
 291 0088 C8F28004 		movt	r4, 32896
 292              		.loc 1 125 0
 293 008c 40F20000 		movw	r0, #:lower16:RTCD1
 294              		.loc 1 124 0
 295 0090 1443     		orrs	r4, r4, r2
 296              		.loc 1 125 0
 297 0092 C0F20000 		movt	r0, #:upper16:RTCD1
 298 0096 3146     		mov	r1, r6
 299 0098 1A46     		mov	r2, r3
 300              		.loc 1 123 0
 301 009a 1C60     		str	r4, [r3, #0]
 302              		.loc 1 136 0
 303 009c BDE87040 		pop	{r4, r5, r6, lr}
 304              		.loc 1 125 0
 305 00a0 FFF7FEBF 		b	rtcSetAlarm
 306              	.LVL19:
 307              	.L15:
 308              		.loc 1 115 0 discriminator 1
 309 00a4 40F20001 		movw	r1, #:lower16:.LC0
 310              	.LVL20:
 311 00a8 C0F20001 		movt	r1, #:upper16:.LC0
 312 00ac 1068     		ldr	r0, [r2, #0]
 313 00ae FFF7FEFF 		bl	strcmp
 314              	.LVL21:
 315 00b2 0146     		mov	r1, r0
 316 00b4 0028     		cmp	r0, #0
 317 00b6 ACD1     		bne	.L13
 318              		.loc 1 116 0
 319 00b8 40F20004 		movw	r4, #:lower16:.LANCHOR1
 320              	.LVL22:
 321 00bc C0F20004 		movt	r4, #:upper16:.LANCHOR1
 322 00c0 40F20000 		movw	r0, #:lower16:RTCD1
 323 00c4 2246     		mov	r2, r4
 324 00c6 C0F20000 		movt	r0, #:upper16:RTCD1
 325 00ca FFF7FEFF 		bl	rtcGetAlarm
 326              		.loc 1 117 0
 327 00ce 40F20001 		movw	r1, #:lower16:.LC2
 328 00d2 40F20003 		movw	r3, #:lower16:.LC13
 329 00d6 2268     		ldr	r2, [r4, #0]
 330 00d8 2846     		mov	r0, r5
 331 00da C0F20001 		movt	r1, #:upper16:.LC2
 332 00de C0F20003 		movt	r3, #:upper16:.LC13
 333              		.loc 1 136 0
 334 00e2 BDE87040 		pop	{r4, r5, r6, lr}
 335              		.loc 1 117 0
 336 00e6 FFF7FEBF 		b	chprintf
 337              		.cfi_endproc
 338              	.LFE117:
 339              		.size	cmd_alarm, .-cmd_alarm
 340 00ea 00BFAFF3 		.section	.text.cmd_sleep,"ax",%progbits
 340      0080
ARM GAS  /tmp/cct3EHuM.s 			page 7


 341              		.align	2
 342              		.p2align 4,,15
 343              		.thumb
 344              		.thumb_func
 345              		.type	cmd_sleep, %function
 346              	cmd_sleep:
 347              	.LFB116:
 348              		.loc 1 90 0
 349              		.cfi_startproc
 350              		@ args = 0, pretend = 0, frame = 0
 351              		@ frame_needed = 0, uses_anonymous_args = 0
 352              	.LVL23:
 353              		.loc 1 92 0
 354 0000 0029     		cmp	r1, #0
 355              		.loc 1 90 0
 356 0002 08B5     		push	{r3, lr}
 357              	.LCFI4:
 358              		.cfi_def_cfa_offset 8
 359              		.cfi_offset 14, -4
 360              		.cfi_offset 3, -8
 361              		.loc 1 92 0
 362 0004 07DD     		ble	.L18
 363              		.loc 1 93 0
 364 0006 40F20001 		movw	r1, #:lower16:.LC17
 365              	.LVL24:
 366 000a C0F20001 		movt	r1, #:upper16:.LC17
 367              		.loc 1 102 0
 368 000e BDE80840 		pop	{r3, lr}
 369              		.loc 1 93 0
 370 0012 FFF7FEBF 		b	chprintf
 371              	.LVL25:
 372              	.L18:
 373              	.LBB18:
 374              	.LBB19:
 375              		.loc 1 96 0
 376 0016 40F20001 		movw	r1, #:lower16:.LC18
 377              	.LVL26:
 378 001a C0F20001 		movt	r1, #:upper16:.LC18
 379 001e FFF7FEFF 		bl	chprintf
 380              	.LVL27:
 381              		.loc 1 98 0
 382 0022 C820     		movs	r0, #200
 383 0024 FFF7FEFF 		bl	chThdSleep
 384              	.LBB20:
 385              	.LBB21:
 386              		.loc 1 82 0
 387              	@ 82 "main.c" 1
 388 0028 FFF7FEFF 		bl      _port_lock
 389              	@ 0 "" 2
 390              		.thumb
 391 002c FFF7FEFF 		bl	dbg_check_lock
 392              		.loc 1 83 0
 393 0030 4FF46D43 		mov	r3, #60672
 394 0034 CEF20003 		movt	r3, 57344
 395              		.loc 1 84 0
 396 0038 4FF4E04C 		mov	ip, #28672
 397              		.loc 1 83 0
ARM GAS  /tmp/cct3EHuM.s 			page 8


 398 003c 1969     		ldr	r1, [r3, #16]
 399              		.loc 1 84 0
 400 003e C4F2000C 		movt	ip, 16384
 401              		.loc 1 83 0
 402 0042 41F00400 		orr	r0, r1, #4
 403 0046 1861     		str	r0, [r3, #16]
 404              		.loc 1 84 0
 405 0048 DCF80020 		ldr	r2, [ip, #0]
 406              		.loc 1 85 0
 407 004c 4FF42053 		mov	r3, #10240
 408 0050 C4F20003 		movt	r3, 16384
 409              		.loc 1 84 0
 410 0054 42F00F01 		orr	r1, r2, #15
 411 0058 CCF80010 		str	r1, [ip, #0]
 412              		.loc 1 85 0
 413 005c D868     		ldr	r0, [r3, #12]
 414 005e 20F47C52 		bic	r2, r0, #16128
 415 0062 DA60     		str	r2, [r3, #12]
 416              	.LBB22:
 417              	.LBB23:
 418              		.file 2 "../../../os/ports/common/ARMCMx/CMSIS/include/core_cmInstr.h"
 419              		.loc 2 299 0
 420              	@ 299 "../../../os/ports/common/ARMCMx/CMSIS/include/core_cmInstr.h" 1
 421 0064 30BF     		wfi
 422              	@ 0 "" 2
 423              		.thumb
 424              	.LBE23:
 425              	.LBE22:
 426              	.LBE21:
 427              	.LBE20:
 428              	.LBE19:
 429              	.LBE18:
 430              		.loc 1 102 0
 431 0066 08BD     		pop	{r3, pc}
 432              		.cfi_endproc
 433              	.LFE116:
 434              		.size	cmd_sleep, .-cmd_sleep
 435 0068 AFF30080 		.section	.text._getpid,"ax",%progbits
 435      AFF30080 
 436              		.align	2
 437              		.p2align 4,,15
 438              		.global	_getpid
 439              		.thumb
 440              		.thumb_func
 441              		.type	_getpid, %function
 442              	_getpid:
 443              	.LFB111:
 444              		.loc 1 55 0
 445              		.cfi_startproc
 446              		@ args = 0, pretend = 0, frame = 0
 447              		@ frame_needed = 0, uses_anonymous_args = 0
 448              		@ link register save eliminated.
 449              		.loc 1 55 0
 450 0000 0120     		movs	r0, #1
 451 0002 7047     		bx	lr
 452              		.cfi_endproc
 453              	.LFE111:
ARM GAS  /tmp/cct3EHuM.s 			page 9


 454              		.size	_getpid, .-_getpid
 455 0004 AFF30080 		.section	.text._exit,"ax",%progbits
 455      AFF30080 
 455      AFF30080 
 456              		.align	2
 457              		.p2align 4,,15
 458              		.global	_exit
 459              		.thumb
 460              		.thumb_func
 461              		.type	_exit, %function
 462              	_exit:
 463              	.LFB112:
 464              		.loc 1 57 0
 465              		.cfi_startproc
 466              		@ Volatile: function does not return.
 467              		@ args = 0, pretend = 0, frame = 0
 468              		@ frame_needed = 0, uses_anonymous_args = 0
 469              		@ link register save eliminated.
 470              	.LVL28:
 471              		.loc 1 57 0
 472 0000 7047     		bx	lr
 473              		.cfi_endproc
 474              	.LFE112:
 475              		.size	_exit, .-_exit
 476 0002 00BFAFF3 		.section	.text._kill,"ax",%progbits
 476      0080AFF3 
 476      0080AFF3 
 476      0080
 477              		.align	2
 478              		.p2align 4,,15
 479              		.global	_kill
 480              		.thumb
 481              		.thumb_func
 482              		.type	_kill, %function
 483              	_kill:
 484              	.LFB113:
 485              		.loc 1 62 0
 486              		.cfi_startproc
 487              		@ args = 0, pretend = 0, frame = 0
 488              		@ frame_needed = 0, uses_anonymous_args = 0
 489              		@ link register save eliminated.
 490              	.LVL29:
 491              		.loc 1 65 0
 492 0000 40F20003 		movw	r3, #:lower16:errno
 493 0004 C0F20003 		movt	r3, #:upper16:errno
 494 0008 1622     		movs	r2, #22
 495 000a 1A60     		str	r2, [r3, #0]
 496              		.loc 1 67 0
 497 000c 4FF0FF30 		mov	r0, #-1
 498              	.LVL30:
 499 0010 7047     		bx	lr
 500              		.cfi_endproc
 501              	.LFE113:
 502              		.size	_kill, .-_kill
 503 0012 00BFAFF3 		.section	.text.startup.main,"ax",%progbits
 503      0080AFF3 
 503      0080AFF3 
ARM GAS  /tmp/cct3EHuM.s 			page 10


 503      0080
 504              		.align	2
 505              		.p2align 4,,15
 506              		.global	main
 507              		.thumb
 508              		.thumb_func
 509              		.type	main, %function
 510              	main:
 511              	.LFB119:
 512              		.loc 1 209 0
 513              		.cfi_startproc
 514              		@ args = 0, pretend = 0, frame = 0
 515              		@ frame_needed = 0, uses_anonymous_args = 0
 516 0000 10B5     		push	{r4, lr}
 517              	.LCFI5:
 518              		.cfi_def_cfa_offset 8
 519              		.cfi_offset 14, -4
 520              		.cfi_offset 4, -8
 521 0002 82B0     		sub	sp, sp, #8
 522              	.LCFI6:
 523              		.cfi_def_cfa_offset 16
 524              		.loc 1 211 0
 525 0004 FFF7FEFF 		bl	halInit
 526              		.loc 1 212 0
 527 0008 FFF7FEFF 		bl	chSysInit
 528              		.loc 1 213 0
 529 000c 40F20000 		movw	r0, #:lower16:.LANCHOR2
 530 0010 40F20003 		movw	r3, #:lower16:blink_thd
 531 0014 4022     		movs	r2, #64
 532 0016 C0F20003 		movt	r3, #:upper16:blink_thd
 533 001a 0024     		movs	r4, #0
 534 001c 4FF49871 		mov	r1, #304
 535 0020 C0F20000 		movt	r0, #:upper16:.LANCHOR2
 536 0024 0094     		str	r4, [sp, #0]
 537 0026 FFF7FEFF 		bl	chThdCreateStatic
 538              		.loc 1 217 0
 539 002a 40F20000 		movw	r0, #:lower16:RTCD1
 540 002e C0F20000 		movt	r0, #:upper16:RTCD1
 541 0032 2146     		mov	r1, r4
 542 0034 FFF7FEFF 		bl	rtcSetPeriodicWakeup_v2
 543              		.loc 1 220 0
 544 0038 40F20000 		movw	r0, #:lower16:SD2
 545 003c 40F20001 		movw	r1, #:lower16:.LANCHOR3
 546 0040 C0F20000 		movt	r0, #:upper16:SD2
 547 0044 C0F20001 		movt	r1, #:upper16:.LANCHOR3
 548 0048 FFF7FEFF 		bl	sdStart
 549              		.loc 1 221 0
 550 004c FFF7FEFF 		bl	shellInit
 551              		.loc 1 223 0
 552 0050 40F20000 		movw	r0, #:lower16:.LANCHOR4
 553 0054 40F20001 		movw	r1, #:lower16:.LANCHOR5
 554 0058 C0F20000 		movt	r0, #:upper16:.LANCHOR4
 555 005c C0F20001 		movt	r1, #:upper16:.LANCHOR5
 556 0060 4FF49662 		mov	r2, #1200
 557 0064 4023     		movs	r3, #64
 558 0066 FFF7FEFF 		bl	shellCreateStatic
 559              	.L23:
ARM GAS  /tmp/cct3EHuM.s 			page 11


 560              		.loc 1 227 0 discriminator 1
 561 006a C820     		movs	r0, #200
 562 006c FFF7FEFF 		bl	chThdSleep
 563 0070 FBE7     		b	.L23
 564              		.cfi_endproc
 565              	.LFE119:
 566              		.size	main, .-main
 567 0072 00BFAFF3 		.section	.bss.waShell.7297,"aw",%nobits
 567      0080AFF3 
 567      0080AFF3 
 567      0080
 568              		.align	3
 569              		.set	.LANCHOR5,. + 0
 570              		.type	waShell.7297, %object
 571              		.size	waShell.7297, 1200
 572              	waShell.7297:
 573 0000 00000000 		.space	1200
 573      00000000 
 573      00000000 
 573      00000000 
 573      00000000 
 574              		.section	.bss.unix_time,"aw",%nobits
 575              		.align	2
 576              		.set	.LANCHOR0,. + 0
 577              		.type	unix_time, %object
 578              		.size	unix_time, 4
 579              	unix_time:
 580 0000 00000000 		.space	4
 581              		.section	.bss.blinkWA,"aw",%nobits
 582              		.align	3
 583              		.set	.LANCHOR2,. + 0
 584              		.type	blinkWA, %object
 585              		.size	blinkWA, 304
 586              	blinkWA:
 587 0000 00000000 		.space	304
 587      00000000 
 587      00000000 
 587      00000000 
 587      00000000 
 588              		.section	.bss.alarmspec,"aw",%nobits
 589              		.align	2
 590              		.set	.LANCHOR1,. + 0
 591              		.type	alarmspec, %object
 592              		.size	alarmspec, 4
 593              	alarmspec:
 594 0000 00000000 		.space	4
 595              		.section	.rodata.commands,"a",%progbits
 596              		.align	2
 597              		.type	commands, %object
 598              		.size	commands, 32
 599              	commands:
 600 0000 A4010000 		.word	.LC19
 601 0004 00000000 		.word	cmd_alarm
 602 0008 AC010000 		.word	.LC20
 603 000c 00000000 		.word	cmd_date
 604 0010 B4010000 		.word	.LC21
 605 0014 00000000 		.word	cmd_sleep
ARM GAS  /tmp/cct3EHuM.s 			page 12


 606 0018 00000000 		.word	0
 607 001c 00000000 		.word	0
 608              		.section	.rodata.str1.4,"aMS",%progbits,1
 609              		.align	2
 610              	.LC0:
 611 0000 67657400 		.ascii	"get\000"
 612              	.LC1:
 613 0004 696E636F 		.ascii	"incorrect time in RTC cell\015\012\000"
 613      72726563 
 613      74207469 
 613      6D652069 
 613      6E205254 
 614 0021 000000   		.space	3
 615              	.LC2:
 616 0024 25442573 		.ascii	"%D%s\000"
 616      00
 617 0029 000000   		.space	3
 618              	.LC3:
 619 002c 202D2075 		.ascii	" - unix time\015\012\000"
 619      6E697820 
 619      74696D65 
 619      0D0A00
 620 003b 00       		.space	1
 621              	.LC4:
 622 003c 25732573 		.ascii	"%s%s\000"
 622      00
 623 0041 000000   		.space	3
 624              	.LC5:
 625 0044 202D2066 		.ascii	" - formatted time string\015\012\000"
 625      6F726D61 
 625      74746564 
 625      2074696D 
 625      65207374 
 626 005f 00       		.space	1
 627              	.LC6:
 628 0060 73657400 		.ascii	"set\000"
 629              	.LC7:
 630 0064 55736167 		.ascii	"Usage: date get\015\012\000"
 630      653A2064 
 630      61746520 
 630      6765740D 
 630      0A00
 631 0076 0000     		.space	2
 632              	.LC8:
 633 0078 20202020 		.ascii	"       date set N\015\012\000"
 633      20202064 
 633      61746520 
 633      73657420 
 633      4E0D0A00 
 634              	.LC9:
 635 008c 77686572 		.ascii	"where N is time in seconds sins Unix epoch\015\012\000"
 635      65204E20 
 635      69732074 
 635      696D6520 
 635      696E2073 
 636 00b9 000000   		.space	3
 637              	.LC10:
ARM GAS  /tmp/cct3EHuM.s 			page 13


 638 00bc 796F7520 		.ascii	"you can get current N value from unix console by th"
 638      63616E20 
 638      67657420 
 638      63757272 
 638      656E7420 
 639 00ef 6520636F 		.ascii	"e command\015\012\000"
 639      6D6D616E 
 639      640D0A00 
 640 00fb 00       		.space	1
 641              	.LC11:
 642 00fc 257300   		.ascii	"%s\000"
 643 00ff 00       		.space	1
 644              	.LC12:
 645 0100 64617465 		.ascii	"date +%s\015\012\000"
 645      202B2573 
 645      0D0A00
 646 010b 00       		.space	1
 647              	.LC13:
 648 010c 202D2061 		.ascii	" - alarm in STM internal format\015\012\000"
 648      6C61726D 
 648      20696E20 
 648      53544D20 
 648      696E7465 
 649 012e 0000     		.space	2
 650              	.LC14:
 651 0130 55736167 		.ascii	"Usage: alarm get\015\012\000"
 651      653A2061 
 651      6C61726D 
 651      20676574 
 651      0D0A00
 652 0143 00       		.space	1
 653              	.LC15:
 654 0144 20202020 		.ascii	"       alarm set N\015\012\000"
 654      20202061 
 654      6C61726D 
 654      20736574 
 654      204E0D0A 
 655 0159 000000   		.space	3
 656              	.LC16:
 657 015c 77686572 		.ascii	"where N is alarm time in seconds\015\012\000"
 657      65204E20 
 657      69732061 
 657      6C61726D 
 657      2074696D 
 658 017f 00       		.space	1
 659              	.LC17:
 660 0180 55736167 		.ascii	"Usage: sleep\015\012\000"
 660      653A2073 
 660      6C656570 
 660      0D0A00
 661 018f 00       		.space	1
 662              	.LC18:
 663 0190 476F696E 		.ascii	"Going to sleep.\015\012\000"
 663      6720746F 
 663      20736C65 
 663      65702E0D 
 663      0A00
ARM GAS  /tmp/cct3EHuM.s 			page 14


 664 01a2 0000     		.space	2
 665              	.LC19:
 666 01a4 616C6172 		.ascii	"alarm\000"
 666      6D00
 667 01aa 0000     		.space	2
 668              	.LC20:
 669 01ac 64617465 		.ascii	"date\000"
 669      00
 670 01b1 000000   		.space	3
 671              	.LC21:
 672 01b4 736C6565 		.ascii	"sleep\000"
 672      7000
 673 01ba 0000     		.section	.rodata.shell_cfg1,"a",%progbits
 674              		.align	2
 675              		.set	.LANCHOR4,. + 0
 676              		.type	shell_cfg1, %object
 677              		.size	shell_cfg1, 8
 678              	shell_cfg1:
 679 0000 00000000 		.word	SD2
 680 0004 00000000 		.word	commands
 681              		.section	.data.ser_cfg,"aw",%progbits
 682              		.align	2
 683              		.set	.LANCHOR3,. + 0
 684              		.type	ser_cfg, %object
 685              		.size	ser_cfg, 12
 686              	ser_cfg:
 687 0000 00C20100 		.word	115200
 688 0004 0000     		.short	0
 689 0006 0000     		.short	0
 690 0008 0000     		.short	0
 691 000a 0000     		.space	2
 692              		.text
 693              	.Letext0:
 694              		.file 3 "/home/prana/CodeSourcery/ARM_EABI/bin/../lib/gcc/arm-none-eabi/4.6.3/include/stddef.h"
 695              		.file 4 "/home/prana/CodeSourcery/ARM_EABI/bin/../lib/gcc/arm-none-eabi/4.6.3/../../../../arm-none
 696              		.file 5 "/home/prana/CodeSourcery/ARM_EABI/bin/../lib/gcc/arm-none-eabi/4.6.3/../../../../arm-none
 697              		.file 6 "/home/prana/CodeSourcery/ARM_EABI/bin/../lib/gcc/arm-none-eabi/4.6.3/../../../../arm-none
 698              		.file 7 "../../../os/ports/GCC/ARMCMx/chtypes.h"
 699              		.file 8 "../../../os/kernel/include/chlists.h"
 700              		.file 9 "../../../os/kernel/include/chthreads.h"
 701              		.file 10 "../../../os/ports/GCC/ARMCMx/chcore_v7m.h"
 702              		.file 11 "../../../os/kernel/include/chmtx.h"
 703              		.file 12 "../../../os/kernel/include/chevents.h"
 704              		.file 13 "../../../os/kernel/include/chqueues.h"
 705              		.file 14 "../../../os/kernel/include/chstreams.h"
 706              		.file 15 "../../../os/ports/common/ARMCMx/CMSIS/include/core_cm4.h"
 707              		.file 16 "../../../os/hal/platforms/STM32F4xx/stm32f4xx.h"
 708              		.file 17 "../../../os/hal/platforms/STM32/GPIOv2/pal_lld.h"
 709              		.file 18 "../../../os/hal/include/rtc.h"
 710              		.file 19 "../../../os/hal/platforms/STM32/RTCv2/rtc_lld.h"
 711              		.file 20 "../../../os/hal/include/serial.h"
 712              		.file 21 "../../../os/hal/platforms/STM32/USARTv1/serial_lld.h"
 713              		.file 22 "../../../os/various/shell.h"