ARM GAS  /tmp/ccmwDivG.s 			page 1


   1              		.syntax unified
   2              		.cpu cortex-m4
   3              		.fpu softvfp
   4              		.eabi_attribute 20, 1
   5              		.eabi_attribute 21, 1
   6              		.eabi_attribute 23, 3
   7              		.eabi_attribute 24, 1
   8              		.eabi_attribute 25, 1
   9              		.eabi_attribute 26, 1
  10              		.eabi_attribute 30, 2
  11              		.eabi_attribute 34, 1
  12              		.eabi_attribute 18, 4
  13              		.thumb
  14              		.file	"pal.c"
  15              		.text
  16              	.Ltext0:
  17              		.cfi_sections	.debug_frame
  18              		.section	.text.palReadBus,"ax",%progbits
  19              		.align	2
  20              		.p2align 4,,15
  21              		.global	palReadBus
  22              		.thumb
  23              		.thumb_func
  24              		.type	palReadBus, %function
  25              	palReadBus:
  26              	.LFB111:
  27              		.file 1 "../../../os/hal/src/pal.c"
  28              		.loc 1 69 0
  29              		.cfi_startproc
  30              		@ args = 0, pretend = 0, frame = 0
  31              		@ frame_needed = 0, uses_anonymous_args = 0
  32              	.LVL0:
  33 0000 10B5     		push	{r4, lr}
  34              	.LCFI0:
  35              		.cfi_def_cfa_offset 8
  36              		.cfi_offset 14, -4
  37              		.cfi_offset 4, -8
  38              		.loc 1 71 0
  39 0002 0446     		mov	r4, r0
  40 0004 10B1     		cbz	r0, .L2
  41              		.loc 1 71 0 is_stmt 0 discriminator 2
  42 0006 8368     		ldr	r3, [r0, #8]
  43 0008 0F2B     		cmp	r3, #15
  44 000a 06D9     		bls	.L3
  45              	.L2:
  46              		.loc 1 71 0 discriminator 1
  47 000c 40F20000 		movw	r0, #:lower16:.LC0
  48              	.LVL1:
  49 0010 C0F20000 		movt	r0, #:upper16:.LC0
  50 0014 FFF7FEFF 		bl	chDbgPanic
  51 0018 A368     		ldr	r3, [r4, #8]
  52              	.L3:
  53              		.loc 1 74 0 is_stmt 1
  54 001a 94E80600 		ldmia	r4, {r1, r2}
  55 001e 0969     		ldr	r1, [r1, #16]
  56 0020 21FA03F3 		lsr	r3, r1, r3
  57              		.loc 1 75 0
ARM GAS  /tmp/ccmwDivG.s 			page 2


  58 0024 03EA0200 		and	r0, r3, r2
  59 0028 10BD     		pop	{r4, pc}
  60              		.cfi_endproc
  61              	.LFE111:
  62              		.size	palReadBus, .-palReadBus
  63 002a 00BFAFF3 		.section	.text.palWriteBus,"ax",%progbits
  63      0080
  64              		.align	2
  65              		.p2align 4,,15
  66              		.global	palWriteBus
  67              		.thumb
  68              		.thumb_func
  69              		.type	palWriteBus, %function
  70              	palWriteBus:
  71              	.LFB112:
  72              		.loc 1 94 0
  73              		.cfi_startproc
  74              		@ args = 0, pretend = 0, frame = 0
  75              		@ frame_needed = 0, uses_anonymous_args = 0
  76              	.LVL2:
  77 0000 38B5     		push	{r3, r4, r5, lr}
  78              	.LCFI1:
  79              		.cfi_def_cfa_offset 16
  80              		.cfi_offset 14, -4
  81              		.cfi_offset 5, -8
  82              		.cfi_offset 4, -12
  83              		.cfi_offset 3, -16
  84              		.loc 1 96 0
  85 0002 0446     		mov	r4, r0
  86              		.loc 1 94 0
  87 0004 0D46     		mov	r5, r1
  88              		.loc 1 96 0
  89 0006 10B1     		cbz	r0, .L6
  90              		.loc 1 96 0 is_stmt 0 discriminator 2
  91 0008 8368     		ldr	r3, [r0, #8]
  92 000a 0F2B     		cmp	r3, #15
  93 000c 06D9     		bls	.L7
  94              	.L6:
  95              		.loc 1 96 0 discriminator 1
  96 000e 40F20000 		movw	r0, #:lower16:.LC1
  97              	.LVL3:
  98 0012 C0F20000 		movt	r0, #:upper16:.LC1
  99 0016 FFF7FEFF 		bl	chDbgPanic
 100              	.LVL4:
 101 001a A368     		ldr	r3, [r4, #8]
 102              	.L7:
 103              		.loc 1 99 0 is_stmt 1
 104 001c 94E80600 		ldmia	r4, {r1, r2}
 105 0020 03F1100C 		add	ip, r3, #16
 106 0024 22EA0504 		bic	r4, r2, r5
 107              	.LVL5:
 108 0028 1540     		ands	r5, r5, r2
 109              	.LVL6:
 110 002a 04FA0CF0 		lsl	r0, r4, ip
 111 002e 05FA03F2 		lsl	r2, r5, r3
 112 0032 40EA0203 		orr	r3, r0, r2
 113 0036 8B61     		str	r3, [r1, #24]
ARM GAS  /tmp/ccmwDivG.s 			page 3


 114              		.loc 1 100 0
 115 0038 38BD     		pop	{r3, r4, r5, pc}
 116              		.cfi_endproc
 117              	.LFE112:
 118              		.size	palWriteBus, .-palWriteBus
 119 003a 00BFAFF3 		.section	.text.palSetBusMode,"ax",%progbits
 119      0080
 120              		.align	2
 121              		.p2align 4,,15
 122              		.global	palSetBusMode
 123              		.thumb
 124              		.thumb_func
 125              		.type	palSetBusMode, %function
 126              	palSetBusMode:
 127              	.LFB113:
 128              		.loc 1 117 0
 129              		.cfi_startproc
 130              		@ args = 0, pretend = 0, frame = 0
 131              		@ frame_needed = 0, uses_anonymous_args = 0
 132              	.LVL7:
 133 0000 38B5     		push	{r3, r4, r5, lr}
 134              	.LCFI2:
 135              		.cfi_def_cfa_offset 16
 136              		.cfi_offset 14, -4
 137              		.cfi_offset 5, -8
 138              		.cfi_offset 4, -12
 139              		.cfi_offset 3, -16
 140              		.loc 1 119 0
 141 0002 0446     		mov	r4, r0
 142              		.loc 1 117 0
 143 0004 0D46     		mov	r5, r1
 144              		.loc 1 119 0
 145 0006 10B1     		cbz	r0, .L9
 146              		.loc 1 119 0 is_stmt 0 discriminator 2
 147 0008 8368     		ldr	r3, [r0, #8]
 148 000a 0F2B     		cmp	r3, #15
 149 000c 06D9     		bls	.L10
 150              	.L9:
 151              		.loc 1 119 0 discriminator 1
 152 000e 40F20000 		movw	r0, #:lower16:.LC2
 153              	.LVL8:
 154 0012 C0F20000 		movt	r0, #:upper16:.LC2
 155 0016 FFF7FEFF 		bl	chDbgPanic
 156              	.LVL9:
 157 001a A368     		ldr	r3, [r4, #8]
 158              	.L10:
 159              		.loc 1 122 0 is_stmt 1
 160 001c 94E80300 		ldmia	r4, {r0, r1}
 161 0020 2A46     		mov	r2, r5
 162 0022 01FA03F1 		lsl	r1, r1, r3
 163              		.loc 1 123 0
 164 0026 BDE83840 		pop	{r3, r4, r5, lr}
 165              		.loc 1 122 0
 166 002a FFF7FEBF 		b	_pal_lld_setgroupmode
 167              		.cfi_endproc
 168              	.LFE113:
 169              		.size	palSetBusMode, .-palSetBusMode
ARM GAS  /tmp/ccmwDivG.s 			page 4


 170 002e 00BF     		.section	.rodata.str1.4,"aMS",%progbits,1
 171              		.align	2
 172              	.LC0:
 173 0000 2270616C 		.ascii	"\"palReadBus\"()\000"
 173      52656164 
 173      42757322 
 173      282900
 174 000f 00       		.space	1
 175              	.LC1:
 176 0010 2270616C 		.ascii	"\"palWriteBus\"()\000"
 176      57726974 
 176      65427573 
 176      22282900 
 177              	.LC2:
 178 0020 2270616C 		.ascii	"\"palSetBusMode\"()\000"
 178      53657442 
 178      75734D6F 
 178      64652228 
 178      2900
 179 0032 0000     		.text
 180              	.Letext0:
 181              		.file 2 "/home/prana/CodeSourcery/ARM_EABI/bin/../lib/gcc/arm-none-eabi/4.6.3/../../../../arm-none
 182              		.file 3 "../../../os/hal/platforms/STM32/GPIOv2/pal_lld.h"
 183              		.file 4 "../../../os/hal/include/pal.h"
 184              		.file 5 "../../../os/ports/common/ARMCMx/CMSIS/include/core_cm4.h"