ARM GAS  /tmp/ccEeUIGK.s 			page 1


   1              		.syntax unified
   2              		.cpu cortex-m4
   3              		.fpu softvfp
   4              		.eabi_attribute 20, 1
   5              		.eabi_attribute 21, 1
   6              		.eabi_attribute 23, 3
   7              		.eabi_attribute 24, 1
   8              		.eabi_attribute 25, 1
   9              		.eabi_attribute 26, 1
  10              		.eabi_attribute 30, 2
  11              		.eabi_attribute 34, 1
  12              		.eabi_attribute 18, 4
  13              		.thumb
  14              		.file	"pal_lld.c"
  15              		.text
  16              	.Ltext0:
  17              		.cfi_sections	.debug_frame
  18              		.section	.text._pal_lld_init,"ax",%progbits
  19              		.align	2
  20              		.p2align 4,,15
  21              		.global	_pal_lld_init
  22              		.thumb
  23              		.thumb_func
  24              		.type	_pal_lld_init, %function
  25              	_pal_lld_init:
  26              	.LFB112:
  27              		.file 1 "../../../os/hal/platforms/STM32/GPIOv2/pal_lld.c"
  28              		.loc 1 104 0
  29              		.cfi_startproc
  30              		@ args = 0, pretend = 0, frame = 0
  31              		@ frame_needed = 0, uses_anonymous_args = 0
  32              		@ link register save eliminated.
  33              	.LVL0:
  34              		.loc 1 117 0
  35 0000 4FF4605C 		mov	ip, #14336
  36 0004 C4F2020C 		movt	ip, 16386
  37 0008 DCF83020 		ldr	r2, [ip, #48]
  38 000c 6FEA5223 		mvn	r3, r2, lsr #9
  39 0010 6FEA4321 		mvn	r1, r3, lsl #9
  40 0014 CCF83010 		str	r1, [ip, #48]
  41              		.loc 1 118 0
  42 0018 DCF85020 		ldr	r2, [ip, #80]
  43 001c 6FEA5223 		mvn	r3, r2, lsr #9
  44 0020 6FEA4321 		mvn	r1, r3, lsl #9
  45 0024 CCF85010 		str	r1, [ip, #80]
  46              	.LVL1:
  47              	.LBB20:
  48              	.LBB21:
  49              		.loc 1 79 0
  50 0028 0023     		movs	r3, #0
  51 002a 4268     		ldr	r2, [r0, #4]
  52 002c C4F20203 		movt	r3, 16386
  53              	.LBE21:
  54              	.LBE20:
  55              	.LBB23:
  56              	.LBB24:
  57 0030 4FF4806C 		mov	ip, #1024
ARM GAS  /tmp/ccEeUIGK.s 			page 2


  58              	.LBE24:
  59              	.LBE23:
  60              	.LBB27:
  61              	.LBB22:
  62 0034 5A60     		str	r2, [r3, #4]
  63              		.loc 1 80 0
  64 0036 8168     		ldr	r1, [r0, #8]
  65 0038 9960     		str	r1, [r3, #8]
  66              		.loc 1 81 0
  67 003a C268     		ldr	r2, [r0, #12]
  68 003c DA60     		str	r2, [r3, #12]
  69              		.loc 1 82 0
  70 003e 0169     		ldr	r1, [r0, #16]
  71 0040 5961     		str	r1, [r3, #20]
  72              		.loc 1 83 0
  73 0042 4269     		ldr	r2, [r0, #20]
  74 0044 1A62     		str	r2, [r3, #32]
  75              		.loc 1 84 0
  76 0046 8169     		ldr	r1, [r0, #24]
  77 0048 5962     		str	r1, [r3, #36]
  78              		.loc 1 85 0
  79 004a 0268     		ldr	r2, [r0, #0]
  80 004c 1A60     		str	r2, [r3, #0]
  81              	.LVL2:
  82              	.LBE22:
  83              	.LBE27:
  84              	.LBB28:
  85              	.LBB25:
  86              		.loc 1 79 0
  87 004e 016A     		ldr	r1, [r0, #32]
  88 0050 C4F2020C 		movt	ip, 16386
  89              	.LBE25:
  90              	.LBE28:
  91              	.LBB29:
  92              	.LBB30:
  93 0054 4FF40063 		mov	r3, #2048
  94              	.LBE30:
  95              	.LBE29:
  96              	.LBB33:
  97              	.LBB26:
  98 0058 CCF80410 		str	r1, [ip, #4]
  99              		.loc 1 80 0
 100 005c 426A     		ldr	r2, [r0, #36]
 101 005e CCF80820 		str	r2, [ip, #8]
 102              		.loc 1 81 0
 103 0062 816A     		ldr	r1, [r0, #40]
 104 0064 CCF80C10 		str	r1, [ip, #12]
 105              		.loc 1 82 0
 106 0068 C26A     		ldr	r2, [r0, #44]
 107 006a CCF81420 		str	r2, [ip, #20]
 108              		.loc 1 83 0
 109 006e 016B     		ldr	r1, [r0, #48]
 110 0070 CCF82010 		str	r1, [ip, #32]
 111              		.loc 1 84 0
 112 0074 426B     		ldr	r2, [r0, #52]
 113 0076 CCF82420 		str	r2, [ip, #36]
 114              		.loc 1 85 0
ARM GAS  /tmp/ccEeUIGK.s 			page 3


 115 007a C169     		ldr	r1, [r0, #28]
 116 007c CCF80010 		str	r1, [ip, #0]
 117              	.LVL3:
 118              	.LBE26:
 119              	.LBE33:
 120              	.LBB34:
 121              	.LBB31:
 122              		.loc 1 79 0
 123 0080 C4F20203 		movt	r3, 16386
 124 0084 C26B     		ldr	r2, [r0, #60]
 125 0086 5A60     		str	r2, [r3, #4]
 126              		.loc 1 80 0
 127 0088 016C     		ldr	r1, [r0, #64]
 128 008a 9960     		str	r1, [r3, #8]
 129              		.loc 1 81 0
 130 008c 426C     		ldr	r2, [r0, #68]
 131 008e DA60     		str	r2, [r3, #12]
 132              		.loc 1 82 0
 133 0090 816C     		ldr	r1, [r0, #72]
 134 0092 5961     		str	r1, [r3, #20]
 135              		.loc 1 83 0
 136 0094 C26C     		ldr	r2, [r0, #76]
 137 0096 1A62     		str	r2, [r3, #32]
 138              		.loc 1 84 0
 139 0098 016D     		ldr	r1, [r0, #80]
 140 009a 5962     		str	r1, [r3, #36]
 141              		.loc 1 85 0
 142 009c 826B     		ldr	r2, [r0, #56]
 143              	.LBE31:
 144              	.LBE34:
 145              	.LBB35:
 146              	.LBB36:
 147              		.loc 1 79 0
 148 009e 4FF4406C 		mov	ip, #3072
 149              	.LBE36:
 150              	.LBE35:
 151              	.LBB39:
 152              	.LBB32:
 153              		.loc 1 85 0
 154 00a2 1A60     		str	r2, [r3, #0]
 155              	.LVL4:
 156              	.LBE32:
 157              	.LBE39:
 158              	.LBB40:
 159              	.LBB37:
 160              		.loc 1 79 0
 161 00a4 816D     		ldr	r1, [r0, #88]
 162 00a6 C4F2020C 		movt	ip, 16386
 163              	.LBE37:
 164              	.LBE40:
 165              	.LBB41:
 166              	.LBB42:
 167 00aa 4FF48053 		mov	r3, #4096
 168              	.LBE42:
 169              	.LBE41:
 170              	.LBB45:
 171              	.LBB38:
ARM GAS  /tmp/ccEeUIGK.s 			page 4


 172 00ae CCF80410 		str	r1, [ip, #4]
 173              		.loc 1 80 0
 174 00b2 C26D     		ldr	r2, [r0, #92]
 175 00b4 CCF80820 		str	r2, [ip, #8]
 176              		.loc 1 81 0
 177 00b8 016E     		ldr	r1, [r0, #96]
 178 00ba CCF80C10 		str	r1, [ip, #12]
 179              		.loc 1 82 0
 180 00be 426E     		ldr	r2, [r0, #100]
 181 00c0 CCF81420 		str	r2, [ip, #20]
 182              		.loc 1 83 0
 183 00c4 816E     		ldr	r1, [r0, #104]
 184 00c6 CCF82010 		str	r1, [ip, #32]
 185              		.loc 1 84 0
 186 00ca C26E     		ldr	r2, [r0, #108]
 187 00cc CCF82420 		str	r2, [ip, #36]
 188              		.loc 1 85 0
 189 00d0 416D     		ldr	r1, [r0, #84]
 190 00d2 CCF80010 		str	r1, [ip, #0]
 191              	.LVL5:
 192              	.LBE38:
 193              	.LBE45:
 194              	.LBB46:
 195              	.LBB43:
 196              		.loc 1 79 0
 197 00d6 C4F20203 		movt	r3, 16386
 198 00da 426F     		ldr	r2, [r0, #116]
 199 00dc 5A60     		str	r2, [r3, #4]
 200              		.loc 1 80 0
 201 00de 816F     		ldr	r1, [r0, #120]
 202 00e0 9960     		str	r1, [r3, #8]
 203              		.loc 1 81 0
 204 00e2 C26F     		ldr	r2, [r0, #124]
 205 00e4 DA60     		str	r2, [r3, #12]
 206              		.loc 1 82 0
 207 00e6 D0F88010 		ldr	r1, [r0, #128]
 208 00ea 5961     		str	r1, [r3, #20]
 209              		.loc 1 83 0
 210 00ec D0F88420 		ldr	r2, [r0, #132]
 211 00f0 1A62     		str	r2, [r3, #32]
 212              		.loc 1 84 0
 213 00f2 D0F88810 		ldr	r1, [r0, #136]
 214 00f6 5962     		str	r1, [r3, #36]
 215              		.loc 1 85 0
 216 00f8 026F     		ldr	r2, [r0, #112]
 217              	.LBE43:
 218              	.LBE46:
 219              	.LBB47:
 220              	.LBB48:
 221              		.loc 1 79 0
 222 00fa 4FF4A05C 		mov	ip, #5120
 223              	.LBE48:
 224              	.LBE47:
 225              	.LBB51:
 226              	.LBB44:
 227              		.loc 1 85 0
 228 00fe 1A60     		str	r2, [r3, #0]
ARM GAS  /tmp/ccEeUIGK.s 			page 5


 229              	.LVL6:
 230              	.LBE44:
 231              	.LBE51:
 232              	.LBB52:
 233              	.LBB49:
 234              		.loc 1 79 0
 235 0100 D0F89010 		ldr	r1, [r0, #144]
 236 0104 C4F2020C 		movt	ip, 16386
 237              	.LBE49:
 238              	.LBE52:
 239              	.LBB53:
 240              	.LBB54:
 241 0108 4FF4C053 		mov	r3, #6144
 242              	.LBE54:
 243              	.LBE53:
 244              	.LBB58:
 245              	.LBB50:
 246 010c CCF80410 		str	r1, [ip, #4]
 247              		.loc 1 80 0
 248 0110 D0F89420 		ldr	r2, [r0, #148]
 249 0114 CCF80820 		str	r2, [ip, #8]
 250              		.loc 1 81 0
 251 0118 D0F89810 		ldr	r1, [r0, #152]
 252 011c CCF80C10 		str	r1, [ip, #12]
 253              		.loc 1 82 0
 254 0120 D0F89C20 		ldr	r2, [r0, #156]
 255 0124 CCF81420 		str	r2, [ip, #20]
 256              		.loc 1 83 0
 257 0128 D0F8A010 		ldr	r1, [r0, #160]
 258 012c CCF82010 		str	r1, [ip, #32]
 259              		.loc 1 84 0
 260 0130 D0F8A420 		ldr	r2, [r0, #164]
 261 0134 CCF82420 		str	r2, [ip, #36]
 262              		.loc 1 85 0
 263 0138 D0F88C10 		ldr	r1, [r0, #140]
 264 013c CCF80010 		str	r1, [ip, #0]
 265              	.LVL7:
 266              	.LBE50:
 267              	.LBE58:
 268              	.LBB59:
 269              	.LBB55:
 270              		.loc 1 79 0
 271 0140 D0F8AC20 		ldr	r2, [r0, #172]
 272 0144 C4F20203 		movt	r3, 16386
 273              	.LBE55:
 274              	.LBE59:
 275              	.LBB60:
 276              	.LBB61:
 277 0148 4FF4E05C 		mov	ip, #7168
 278              	.LBE61:
 279              	.LBE60:
 280              	.LBB65:
 281              	.LBB56:
 282 014c 5A60     		str	r2, [r3, #4]
 283              		.loc 1 80 0
 284 014e D0F8B010 		ldr	r1, [r0, #176]
 285 0152 9960     		str	r1, [r3, #8]
ARM GAS  /tmp/ccEeUIGK.s 			page 6


 286              		.loc 1 81 0
 287 0154 D0F8B420 		ldr	r2, [r0, #180]
 288 0158 DA60     		str	r2, [r3, #12]
 289              		.loc 1 82 0
 290 015a D0F8B810 		ldr	r1, [r0, #184]
 291 015e 5961     		str	r1, [r3, #20]
 292              		.loc 1 83 0
 293 0160 D0F8BC20 		ldr	r2, [r0, #188]
 294 0164 1A62     		str	r2, [r3, #32]
 295              		.loc 1 84 0
 296 0166 D0F8C010 		ldr	r1, [r0, #192]
 297 016a 5962     		str	r1, [r3, #36]
 298              		.loc 1 85 0
 299 016c D0F8A820 		ldr	r2, [r0, #168]
 300              	.LBE56:
 301              	.LBE65:
 302              	.LBB66:
 303              	.LBB62:
 304              		.loc 1 79 0
 305 0170 C4F2020C 		movt	ip, 16386
 306              	.LBE62:
 307              	.LBE66:
 308              	.LBB67:
 309              	.LBB57:
 310              		.loc 1 85 0
 311 0174 1A60     		str	r2, [r3, #0]
 312              	.LVL8:
 313              	.LBE57:
 314              	.LBE67:
 315              	.LBB68:
 316              	.LBB63:
 317              		.loc 1 79 0
 318 0176 D0F8C810 		ldr	r1, [r0, #200]
 319 017a CCF80410 		str	r1, [ip, #4]
 320              		.loc 1 80 0
 321 017e D0F8CC20 		ldr	r2, [r0, #204]
 322 0182 CCF80820 		str	r2, [ip, #8]
 323              		.loc 1 81 0
 324 0186 D0F8D030 		ldr	r3, [r0, #208]
 325 018a CCF80C30 		str	r3, [ip, #12]
 326              		.loc 1 82 0
 327 018e D0F8D410 		ldr	r1, [r0, #212]
 328 0192 CCF81410 		str	r1, [ip, #20]
 329              		.loc 1 83 0
 330 0196 D0F8D820 		ldr	r2, [r0, #216]
 331 019a CCF82020 		str	r2, [ip, #32]
 332              		.loc 1 84 0
 333 019e D0F8DC30 		ldr	r3, [r0, #220]
 334 01a2 CCF82430 		str	r3, [ip, #36]
 335              		.loc 1 85 0
 336 01a6 D0F8C410 		ldr	r1, [r0, #196]
 337              	.LBE63:
 338              	.LBE68:
 339              	.LBB69:
 340              	.LBB70:
 341              		.loc 1 79 0
 342 01aa 4FF40053 		mov	r3, #8192
ARM GAS  /tmp/ccEeUIGK.s 			page 7


 343              	.LBE70:
 344              	.LBE69:
 345              	.LBB72:
 346              	.LBB64:
 347              		.loc 1 85 0
 348 01ae CCF80010 		str	r1, [ip, #0]
 349              	.LVL9:
 350              	.LBE64:
 351              	.LBE72:
 352              	.LBB73:
 353              	.LBB71:
 354              		.loc 1 79 0
 355 01b2 D0F8E420 		ldr	r2, [r0, #228]
 356 01b6 C4F20203 		movt	r3, 16386
 357 01ba 5A60     		str	r2, [r3, #4]
 358              		.loc 1 80 0
 359 01bc D0F8E810 		ldr	r1, [r0, #232]
 360 01c0 9960     		str	r1, [r3, #8]
 361              		.loc 1 81 0
 362 01c2 D0F8EC20 		ldr	r2, [r0, #236]
 363 01c6 DA60     		str	r2, [r3, #12]
 364              		.loc 1 82 0
 365 01c8 D0F8F010 		ldr	r1, [r0, #240]
 366 01cc 5961     		str	r1, [r3, #20]
 367              		.loc 1 83 0
 368 01ce D0F8F420 		ldr	r2, [r0, #244]
 369 01d2 1A62     		str	r2, [r3, #32]
 370              		.loc 1 84 0
 371 01d4 D0F8F810 		ldr	r1, [r0, #248]
 372 01d8 5962     		str	r1, [r3, #36]
 373              		.loc 1 85 0
 374 01da D0F8E020 		ldr	r2, [r0, #224]
 375 01de 1A60     		str	r2, [r3, #0]
 376              	.LBE71:
 377              	.LBE73:
 378              		.loc 1 143 0
 379 01e0 7047     		bx	lr
 380              		.cfi_endproc
 381              	.LFE112:
 382              		.size	_pal_lld_init, .-_pal_lld_init
 383 01e2 00BFAFF3 		.section	.text._pal_lld_setgroupmode,"ax",%progbits
 383      0080AFF3 
 383      0080AFF3 
 383      0080
 384              		.align	2
 385              		.p2align 4,,15
 386              		.global	_pal_lld_setgroupmode
 387              		.thumb
 388              		.thumb_func
 389              		.type	_pal_lld_setgroupmode, %function
 390              	_pal_lld_setgroupmode:
 391              	.LFB113:
 392              		.loc 1 161 0
 393              		.cfi_startproc
 394              		@ args = 0, pretend = 0, frame = 0
 395              		@ frame_needed = 0, uses_anonymous_args = 0
 396              		@ link register save eliminated.
ARM GAS  /tmp/ccEeUIGK.s 			page 8


 397              	.LVL10:
 398 0000 2DE9F00F 		push	{r4, r5, r6, r7, r8, r9, sl, fp}
 399              	.LCFI0:
 400              		.cfi_def_cfa_offset 32
 401              		.cfi_offset 11, -4
 402              		.cfi_offset 10, -8
 403              		.cfi_offset 9, -12
 404              		.cfi_offset 8, -16
 405              		.cfi_offset 7, -20
 406              		.cfi_offset 6, -24
 407              		.cfi_offset 5, -28
 408              		.cfi_offset 4, -32
 409              		.loc 1 163 0
 410 0004 02F00307 		and	r7, r2, #3
 411              	.LVL11:
 412              		.loc 1 164 0
 413 0008 C2F38006 		ubfx	r6, r2, #2, #1
 414              	.LVL12:
 415              		.loc 1 165 0
 416 000c C2F3C105 		ubfx	r5, r2, #3, #2
 417              	.LVL13:
 418              		.loc 1 166 0
 419 0010 C2F34114 		ubfx	r4, r2, #5, #2
 420              	.LVL14:
 421              		.loc 1 167 0
 422 0014 C2F3C312 		ubfx	r2, r2, #7, #4
 423              	.LVL15:
 424              		.loc 1 168 0
 425 0018 0023     		movs	r3, #0
 426              	.LBB74:
 427              		.loc 1 174 0
 428 001a 4FF00F09 		mov	r9, #15
 429              		.loc 1 179 0
 430 001e 4FF0010B 		mov	fp, #1
 431              		.loc 1 181 0
 432 0022 9246     		mov	sl, r2
 433 0024 04E0     		b	.L7
 434              	.LVL16:
 435              	.L9:
 436              	.LBE74:
 437              		.loc 1 189 0
 438 0026 7600     		lsls	r6, r6, #1
 439              	.LVL17:
 440              		.loc 1 190 0
 441 0028 AD00     		lsls	r5, r5, #2
 442              	.LVL18:
 443              		.loc 1 191 0
 444 002a A400     		lsls	r4, r4, #2
 445              	.LVL19:
 446              		.loc 1 192 0
 447 002c BF00     		lsls	r7, r7, #2
 448              	.LVL20:
 449              		.loc 1 193 0
 450 002e 0133     		adds	r3, r3, #1
 451              	.LVL21:
 452              	.L7:
 453              		.loc 1 170 0
ARM GAS  /tmp/ccEeUIGK.s 			page 9


 454 0030 CA07     		lsls	r2, r1, #31
 455 0032 3ED5     		bpl	.L3
 456              	.LBB75:
 457              		.loc 1 175 0
 458 0034 072B     		cmp	r3, #7
 459              		.loc 1 173 0
 460 0036 03F00702 		and	r2, r3, #7
 461              		.loc 1 176 0
 462 003a 94BF     		ite	ls
 463 003c D0F82080 		ldrls	r8, [r0, #32]
 464              		.loc 1 178 0
 465 0040 D0F82480 		ldrhi	r8, [r0, #36]
 466              		.loc 1 173 0
 467 0044 4FEA820C 		lsl	ip, r2, #2
 468 0048 0AFA0CF2 		lsl	r2, sl, ip
 469              	.LVL22:
 470              		.loc 1 174 0
 471 004c 09FA0CFC 		lsl	ip, r9, ip
 472              	.LVL23:
 473              		.loc 1 176 0
 474 0050 95BF     		itete	ls
 475 0052 28EA0C0C 		bicls	ip, r8, ip
 476              	.LVL24:
 477              		.loc 1 178 0
 478 0056 28EA0C0C 		bichi	ip, r8, ip
 479              		.loc 1 176 0
 480 005a 4CEA0202 		orrls	r2, ip, r2
 481              	.LVL25:
 482              		.loc 1 178 0
 483 005e 4CEA0202 		orrhi	r2, ip, r2
 484              		.loc 1 176 0
 485 0062 94BF     		ite	ls
 486 0064 0262     		strls	r2, [r0, #32]
 487              		.loc 1 178 0
 488 0066 4262     		strhi	r2, [r0, #36]
 489              		.loc 1 180 0
 490 0068 4268     		ldr	r2, [r0, #4]
 491              		.loc 1 179 0
 492 006a 0BFA03FC 		lsl	ip, fp, r3
 493              		.loc 1 180 0
 494 006e 22EA0C08 		bic	r8, r2, ip
 495 0072 48EA0602 		orr	r2, r8, r6
 496 0076 4260     		str	r2, [r0, #4]
 497              	.LVL26:
 498              		.loc 1 181 0
 499 0078 4FF00308 		mov	r8, #3
 500              		.loc 1 159 0
 501 007c 5A00     		lsls	r2, r3, #1
 502              		.loc 1 182 0
 503 007e D0F808C0 		ldr	ip, [r0, #8]
 504              		.loc 1 181 0
 505 0082 08FA02F2 		lsl	r2, r8, r2
 506              		.loc 1 182 0
 507 0086 D243     		mvns	r2, r2
 508 0088 02EA0C0C 		and	ip, r2, ip
 509 008c 4CEA050C 		orr	ip, ip, r5
 510 0090 C0F808C0 		str	ip, [r0, #8]
ARM GAS  /tmp/ccEeUIGK.s 			page 10


 511              		.loc 1 183 0
 512 0094 D0F80CC0 		ldr	ip, [r0, #12]
 513 0098 02EA0C0C 		and	ip, r2, ip
 514 009c 4CEA040C 		orr	ip, ip, r4
 515 00a0 C0F80CC0 		str	ip, [r0, #12]
 516              		.loc 1 184 0
 517 00a4 D0F800C0 		ldr	ip, [r0, #0]
 518 00a8 02EA0C0C 		and	ip, r2, ip
 519 00ac 4CEA0702 		orr	r2, ip, r7
 520 00b0 0260     		str	r2, [r0, #0]
 521              	.LVL27:
 522              	.L3:
 523              	.LBE75:
 524              		.loc 1 187 0
 525 00b2 4908     		lsrs	r1, r1, #1
 526              	.LVL28:
 527 00b4 B7D1     		bne	.L9
 528              		.loc 1 195 0
 529 00b6 BDE8F00F 		pop	{r4, r5, r6, r7, r8, r9, sl, fp}
 530 00ba 7047     		bx	lr
 531              		.cfi_endproc
 532              	.LFE113:
 533              		.size	_pal_lld_setgroupmode, .-_pal_lld_setgroupmode
 534 00bc AFF30080 		.text
 535              	.Letext0:
 536              		.file 2 "/home/prana/CodeSourcery/ARM_EABI/bin/../lib/gcc/arm-none-eabi/4.6.3/../../../../arm-none
 537              		.file 3 "../../../os/hal/platforms/STM32F4xx/stm32f4xx.h"
 538              		.file 4 "../../../os/hal/platforms/STM32/GPIOv2/pal_lld.h"
 539              		.file 5 "../../../os/ports/common/ARMCMx/CMSIS/include/core_cm4.h"