ARM GAS  /tmp/cc4yWq3E.s 			page 1


   1              		.syntax unified
   2              		.cpu cortex-m4
   3              		.fpu softvfp
   4              		.eabi_attribute 20, 1
   5              		.eabi_attribute 21, 1
   6              		.eabi_attribute 23, 3
   7              		.eabi_attribute 24, 1
   8              		.eabi_attribute 25, 1
   9              		.eabi_attribute 26, 1
  10              		.eabi_attribute 30, 2
  11              		.eabi_attribute 34, 1
  12              		.eabi_attribute 18, 4
  13              		.thumb
  14              		.file	"rtc.c"
  15              		.text
  16              	.Ltext0:
  17              		.cfi_sections	.debug_frame
  18              		.section	.text.rtcInit,"ax",%progbits
  19              		.align	2
  20              		.p2align 4,,15
  21              		.global	rtcInit
  22              		.thumb
  23              		.thumb_func
  24              		.type	rtcInit, %function
  25              	rtcInit:
  26              	.LFB111:
  27              		.file 1 "../../../os/hal/src/rtc.c"
  28              		.loc 1 65 0
  29              		.cfi_startproc
  30              		@ args = 0, pretend = 0, frame = 0
  31              		@ frame_needed = 0, uses_anonymous_args = 0
  32              		@ link register save eliminated.
  33              		.loc 1 68 0
  34              		.loc 1 67 0
  35 0000 FFF7FEBF 		b	rtc_lld_init
  36              		.cfi_endproc
  37              	.LFE111:
  38              		.size	rtcInit, .-rtcInit
  39 0004 AFF30080 		.section	.text.rtcSetTime,"ax",%progbits
  39      AFF30080 
  39      AFF30080 
  40              		.align	2
  41              		.p2align 4,,15
  42              		.global	rtcSetTime
  43              		.thumb
  44              		.thumb_func
  45              		.type	rtcSetTime, %function
  46              	rtcSetTime:
  47              	.LFB112:
  48              		.loc 1 78 0
  49              		.cfi_startproc
  50              		@ args = 0, pretend = 0, frame = 0
  51              		@ frame_needed = 0, uses_anonymous_args = 0
  52              	.LVL0:
  53 0000 38B5     		push	{r3, r4, r5, lr}
  54              	.LCFI0:
  55              		.cfi_def_cfa_offset 16
ARM GAS  /tmp/cc4yWq3E.s 			page 2


  56              		.cfi_offset 14, -4
  57              		.cfi_offset 5, -8
  58              		.cfi_offset 4, -12
  59              		.cfi_offset 3, -16
  60              		.loc 1 80 0
  61 0002 D0F10103 		rsbs	r3, r0, #1
  62 0006 38BF     		it	cc
  63 0008 0023     		movcc	r3, #0
  64 000a 0029     		cmp	r1, #0
  65 000c 08BF     		it	eq
  66 000e 43F00103 		orreq	r3, r3, #1
  67 0012 0446     		mov	r4, r0
  68 0014 0D46     		mov	r5, r1
  69 0016 2BB1     		cbz	r3, .L3
  70              		.loc 1 80 0 is_stmt 0 discriminator 1
  71 0018 40F20000 		movw	r0, #:lower16:.LC0
  72              	.LVL1:
  73 001c C0F20000 		movt	r0, #:upper16:.LC0
  74 0020 FFF7FEFF 		bl	chDbgPanic
  75              	.LVL2:
  76              	.L3:
  77              		.loc 1 82 0 is_stmt 1
  78              	@ 82 "../../../os/hal/src/rtc.c" 1
  79 0024 FFF7FEFF 		bl      _port_lock
  80              	@ 0 "" 2
  81              		.thumb
  82 0028 FFF7FEFF 		bl	dbg_check_lock
  83              		.loc 1 83 0
  84 002c 2046     		mov	r0, r4
  85 002e 2946     		mov	r1, r5
  86 0030 FFF7FEFF 		bl	rtc_lld_set_time
  87              		.loc 1 84 0
  88 0034 FFF7FEFF 		bl	dbg_check_unlock
  89              	@ 84 "../../../os/hal/src/rtc.c" 1
  90 0038 FFF7FEFF 		bl      _port_unlock
  91              	@ 0 "" 2
  92              		.loc 1 85 0
  93              		.thumb
  94 003c 38BD     		pop	{r3, r4, r5, pc}
  95              		.cfi_endproc
  96              	.LFE112:
  97              		.size	rtcSetTime, .-rtcSetTime
  98 003e 00BF     		.section	.text.rtcGetTime,"ax",%progbits
  99              		.align	2
 100              		.p2align 4,,15
 101              		.global	rtcGetTime
 102              		.thumb
 103              		.thumb_func
 104              		.type	rtcGetTime, %function
 105              	rtcGetTime:
 106              	.LFB113:
 107              		.loc 1 95 0
 108              		.cfi_startproc
 109              		@ args = 0, pretend = 0, frame = 0
 110              		@ frame_needed = 0, uses_anonymous_args = 0
 111              	.LVL3:
 112 0000 38B5     		push	{r3, r4, r5, lr}
ARM GAS  /tmp/cc4yWq3E.s 			page 3


 113              	.LCFI1:
 114              		.cfi_def_cfa_offset 16
 115              		.cfi_offset 14, -4
 116              		.cfi_offset 5, -8
 117              		.cfi_offset 4, -12
 118              		.cfi_offset 3, -16
 119              		.loc 1 97 0
 120 0002 D0F10103 		rsbs	r3, r0, #1
 121 0006 38BF     		it	cc
 122 0008 0023     		movcc	r3, #0
 123 000a 0029     		cmp	r1, #0
 124 000c 08BF     		it	eq
 125 000e 43F00103 		orreq	r3, r3, #1
 126 0012 0446     		mov	r4, r0
 127 0014 0D46     		mov	r5, r1
 128 0016 2BB1     		cbz	r3, .L6
 129              		.loc 1 97 0 is_stmt 0 discriminator 1
 130 0018 40F20000 		movw	r0, #:lower16:.LC1
 131              	.LVL4:
 132 001c C0F20000 		movt	r0, #:upper16:.LC1
 133 0020 FFF7FEFF 		bl	chDbgPanic
 134              	.LVL5:
 135              	.L6:
 136              		.loc 1 99 0 is_stmt 1
 137              	@ 99 "../../../os/hal/src/rtc.c" 1
 138 0024 FFF7FEFF 		bl      _port_lock
 139              	@ 0 "" 2
 140              		.thumb
 141 0028 FFF7FEFF 		bl	dbg_check_lock
 142              		.loc 1 100 0
 143 002c 2046     		mov	r0, r4
 144 002e 2946     		mov	r1, r5
 145 0030 FFF7FEFF 		bl	rtc_lld_get_time
 146              		.loc 1 101 0
 147 0034 FFF7FEFF 		bl	dbg_check_unlock
 148              	@ 101 "../../../os/hal/src/rtc.c" 1
 149 0038 FFF7FEFF 		bl      _port_unlock
 150              	@ 0 "" 2
 151              		.loc 1 102 0
 152              		.thumb
 153 003c 38BD     		pop	{r3, r4, r5, pc}
 154              		.cfi_endproc
 155              	.LFE113:
 156              		.size	rtcGetTime, .-rtcGetTime
 157 003e 00BF     		.section	.text.rtcSetAlarm,"ax",%progbits
 158              		.align	2
 159              		.p2align 4,,15
 160              		.global	rtcSetAlarm
 161              		.thumb
 162              		.thumb_func
 163              		.type	rtcSetAlarm, %function
 164              	rtcSetAlarm:
 165              	.LFB114:
 166              		.loc 1 116 0
 167              		.cfi_startproc
 168              		@ args = 0, pretend = 0, frame = 0
 169              		@ frame_needed = 0, uses_anonymous_args = 0
ARM GAS  /tmp/cc4yWq3E.s 			page 4


 170              	.LVL6:
 171              		.loc 1 118 0
 172 0000 D0F10103 		rsbs	r3, r0, #1
 173 0004 38BF     		it	cc
 174 0006 0023     		movcc	r3, #0
 175 0008 0129     		cmp	r1, #1
 176 000a 88BF     		it	hi
 177 000c 43F00103 		orrhi	r3, r3, #1
 178              		.loc 1 116 0
 179 0010 70B5     		push	{r4, r5, r6, lr}
 180              	.LCFI2:
 181              		.cfi_def_cfa_offset 16
 182              		.cfi_offset 14, -4
 183              		.cfi_offset 6, -8
 184              		.cfi_offset 5, -12
 185              		.cfi_offset 4, -16
 186              		.loc 1 118 0
 187 0012 0446     		mov	r4, r0
 188              		.loc 1 116 0
 189 0014 0D46     		mov	r5, r1
 190 0016 1646     		mov	r6, r2
 191              		.loc 1 118 0
 192 0018 2BB1     		cbz	r3, .L8
 193              		.loc 1 118 0 is_stmt 0 discriminator 1
 194 001a 40F20000 		movw	r0, #:lower16:.LC2
 195              	.LVL7:
 196 001e C0F20000 		movt	r0, #:upper16:.LC2
 197 0022 FFF7FEFF 		bl	chDbgPanic
 198              	.LVL8:
 199              	.L8:
 200              		.loc 1 120 0 is_stmt 1
 201              	@ 120 "../../../os/hal/src/rtc.c" 1
 202 0026 FFF7FEFF 		bl      _port_lock
 203              	@ 0 "" 2
 204              		.thumb
 205 002a FFF7FEFF 		bl	dbg_check_lock
 206              		.loc 1 121 0
 207 002e 2046     		mov	r0, r4
 208 0030 2946     		mov	r1, r5
 209 0032 3246     		mov	r2, r6
 210 0034 FFF7FEFF 		bl	rtc_lld_set_alarm
 211              		.loc 1 122 0
 212 0038 FFF7FEFF 		bl	dbg_check_unlock
 213              	@ 122 "../../../os/hal/src/rtc.c" 1
 214 003c FFF7FEFF 		bl      _port_unlock
 215              	@ 0 "" 2
 216              		.loc 1 123 0
 217              		.thumb
 218 0040 70BD     		pop	{r4, r5, r6, pc}
 219              		.cfi_endproc
 220              	.LFE114:
 221              		.size	rtcSetAlarm, .-rtcSetAlarm
 222 0042 00BFAFF3 		.section	.text.rtcGetAlarm,"ax",%progbits
 222      0080AFF3 
 222      0080AFF3 
 222      0080
 223              		.align	2
ARM GAS  /tmp/cc4yWq3E.s 			page 5


 224              		.p2align 4,,15
 225              		.global	rtcGetAlarm
 226              		.thumb
 227              		.thumb_func
 228              		.type	rtcGetAlarm, %function
 229              	rtcGetAlarm:
 230              	.LFB115:
 231              		.loc 1 138 0
 232              		.cfi_startproc
 233              		@ args = 0, pretend = 0, frame = 0
 234              		@ frame_needed = 0, uses_anonymous_args = 0
 235              	.LVL9:
 236              		.loc 1 140 0
 237 0000 D0F10103 		rsbs	r3, r0, #1
 238 0004 38BF     		it	cc
 239 0006 0023     		movcc	r3, #0
 240 0008 0129     		cmp	r1, #1
 241 000a 88BF     		it	hi
 242 000c 43F00103 		orrhi	r3, r3, #1
 243              		.loc 1 138 0
 244 0010 70B5     		push	{r4, r5, r6, lr}
 245              	.LCFI3:
 246              		.cfi_def_cfa_offset 16
 247              		.cfi_offset 14, -4
 248              		.cfi_offset 6, -8
 249              		.cfi_offset 5, -12
 250              		.cfi_offset 4, -16
 251              		.loc 1 140 0
 252 0012 0446     		mov	r4, r0
 253              		.loc 1 138 0
 254 0014 0D46     		mov	r5, r1
 255 0016 1646     		mov	r6, r2
 256              		.loc 1 140 0
 257 0018 73B9     		cbnz	r3, .L10
 258              		.loc 1 140 0 is_stmt 0 discriminator 2
 259 001a 6AB1     		cbz	r2, .L10
 260              	.LVL10:
 261              	.L11:
 262              		.loc 1 143 0 is_stmt 1
 263              	@ 143 "../../../os/hal/src/rtc.c" 1
 264 001c FFF7FEFF 		bl      _port_lock
 265              	@ 0 "" 2
 266              		.thumb
 267 0020 FFF7FEFF 		bl	dbg_check_lock
 268              		.loc 1 144 0
 269 0024 2046     		mov	r0, r4
 270 0026 2946     		mov	r1, r5
 271 0028 3246     		mov	r2, r6
 272 002a FFF7FEFF 		bl	rtc_lld_get_alarm
 273              		.loc 1 145 0
 274 002e FFF7FEFF 		bl	dbg_check_unlock
 275              	@ 145 "../../../os/hal/src/rtc.c" 1
 276 0032 FFF7FEFF 		bl      _port_unlock
 277              	@ 0 "" 2
 278              		.loc 1 146 0
 279              		.thumb
 280 0036 70BD     		pop	{r4, r5, r6, pc}
ARM GAS  /tmp/cc4yWq3E.s 			page 6


 281              	.L10:
 282              		.loc 1 140 0 discriminator 1
 283 0038 40F20000 		movw	r0, #:lower16:.LC3
 284 003c C0F20000 		movt	r0, #:upper16:.LC3
 285 0040 FFF7FEFF 		bl	chDbgPanic
 286 0044 EAE7     		b	.L11
 287              		.cfi_endproc
 288              	.LFE115:
 289              		.size	rtcGetAlarm, .-rtcGetAlarm
 290 0046 00BFAFF3 		.section	.text.rtcGetTimeFat,"ax",%progbits
 290      0080AFF3 
 290      0080
 291              		.align	2
 292              		.p2align 4,,15
 293              		.global	rtcGetTimeFat
 294              		.thumb
 295              		.thumb_func
 296              		.type	rtcGetTimeFat, %function
 297              	rtcGetTimeFat:
 298              	.LFB116:
 299              		.loc 1 178 0
 300              		.cfi_startproc
 301              		@ args = 0, pretend = 0, frame = 0
 302              		@ frame_needed = 0, uses_anonymous_args = 0
 303              	.LVL11:
 304 0000 10B5     		push	{r4, lr}
 305              	.LCFI4:
 306              		.cfi_def_cfa_offset 8
 307              		.cfi_offset 14, -4
 308              		.cfi_offset 4, -8
 309              		.loc 1 180 0
 310 0002 0446     		mov	r4, r0
 311 0004 20B1     		cbz	r0, .L14
 312              	.LVL12:
 313              	.L13:
 314              		.loc 1 181 0
 315 0006 2046     		mov	r0, r4
 316              		.loc 1 182 0
 317 0008 BDE81040 		pop	{r4, lr}
 318              		.loc 1 181 0
 319 000c FFF7FEBF 		b	rtc_lld_get_time_fat
 320              	.L14:
 321              		.loc 1 180 0 discriminator 1
 322 0010 40F20000 		movw	r0, #:lower16:.LC0
 323 0014 C0F20000 		movt	r0, #:upper16:.LC0
 324 0018 FFF7FEFF 		bl	chDbgPanic
 325 001c F3E7     		b	.L13
 326              		.cfi_endproc
 327              	.LFE116:
 328              		.size	rtcGetTimeFat, .-rtcGetTimeFat
 329 001e 00BF     		.section	.rodata.str1.4,"aMS",%progbits,1
 330              		.align	2
 331              	.LC0:
 332 0000 22727463 		.ascii	"\"rtcSetTime\"()\000"
 332      53657454 
 332      696D6522 
 332      282900
ARM GAS  /tmp/cc4yWq3E.s 			page 7


 333 000f 00       		.space	1
 334              	.LC1:
 335 0010 22727463 		.ascii	"\"rtcGetTime\"()\000"
 335      47657454 
 335      696D6522 
 335      282900
 336 001f 00       		.space	1
 337              	.LC2:
 338 0020 22727463 		.ascii	"\"rtcSetAlarm\"()\000"
 338      53657441 
 338      6C61726D 
 338      22282900 
 339              	.LC3:
 340 0030 22727463 		.ascii	"\"rtcGetAlarm\"()\000"
 340      47657441 
 340      6C61726D 
 340      22282900 
 341              		.text
 342              	.Letext0:
 343              		.file 2 "/home/prana/CodeSourcery/ARM_EABI/bin/../lib/gcc/arm-none-eabi/4.6.3/../../../../arm-none
 344              		.file 3 "../../../os/ports/GCC/ARMCMx/chtypes.h"
 345              		.file 4 "../../../os/hal/platforms/STM32F4xx/stm32f4xx.h"
 346              		.file 5 "../../../os/hal/include/rtc.h"
 347              		.file 6 "../../../os/hal/platforms/STM32/RTCv2/rtc_lld.h"
 348              		.file 7 "../../../os/ports/common/ARMCMx/CMSIS/include/core_cm4.h"