ARM GAS  /tmp/ccZAjdgL.s 			page 1


   1              		.syntax unified
   2              		.cpu cortex-m4
   3              		.fpu softvfp
   4              		.eabi_attribute 20, 1
   5              		.eabi_attribute 21, 1
   6              		.eabi_attribute 23, 3
   7              		.eabi_attribute 24, 1
   8              		.eabi_attribute 25, 1
   9              		.eabi_attribute 26, 1
  10              		.eabi_attribute 30, 2
  11              		.eabi_attribute 34, 1
  12              		.eabi_attribute 18, 4
  13              		.thumb
  14              		.file	"rtc_lld.c"
  15              		.text
  16              	.Ltext0:
  17              		.cfi_sections	.debug_frame
  18              		.section	.text.rtc_lld_init,"ax",%progbits
  19              		.align	2
  20              		.p2align 4,,15
  21              		.global	rtc_lld_init
  22              		.thumb
  23              		.thumb_func
  24              		.type	rtc_lld_init, %function
  25              	rtc_lld_init:
  26              	.LFB111:
  27              		.file 1 "../../../os/hal/platforms/STM32/RTCv2/rtc_lld.c"
  28              		.loc 1 93 0
  29              		.cfi_startproc
  30              		@ args = 0, pretend = 0, frame = 0
  31              		@ frame_needed = 0, uses_anonymous_args = 0
  32              		@ link register save eliminated.
  33              		.loc 1 94 0
  34 0000 40F2000C 		movw	ip, #:lower16:.LANCHOR0
  35 0004 4FF42053 		mov	r3, #10240
  36 0008 C4F20003 		movt	r3, 16384
  37 000c C0F2000C 		movt	ip, #:upper16:.LANCHOR0
  38              		.loc 1 100 0
  39 0010 CA21     		movs	r1, #202
  40              		.loc 1 101 0
  41 0012 5320     		movs	r0, #83
  42              		.loc 1 94 0
  43 0014 CCF80030 		str	r3, [ip, #0]
  44              	.LVL0:
  45              		.loc 1 100 0
  46 0018 5962     		str	r1, [r3, #36]
  47              		.loc 1 101 0
  48 001a 5862     		str	r0, [r3, #36]
  49              		.loc 1 104 0
  50 001c DA68     		ldr	r2, [r3, #12]
  51 001e D106     		lsls	r1, r2, #27
  52 0020 14D4     		bmi	.L1
  53              		.loc 1 105 0
  54 0022 D868     		ldr	r0, [r3, #12]
  55 0024 40F08002 		orr	r2, r0, #128
  56 0028 DA60     		str	r2, [r3, #12]
  57 002a 1946     		mov	r1, r3
ARM GAS  /tmp/ccZAjdgL.s 			page 2


  58              	.L3:
  59              		.loc 1 105 0 is_stmt 0 discriminator 1
  60 002c CA68     		ldr	r2, [r1, #12]
  61 002e 4FF42053 		mov	r3, #10240
  62 0032 5206     		lsls	r2, r2, #25
  63 0034 C4F20003 		movt	r3, 16384
  64 0038 F8D5     		bpl	.L3
  65              	.LVL1:
  66              		.loc 1 110 0 is_stmt 1
  67 003a FF22     		movs	r2, #255
  68 003c C0F27F02 		movt	r2, 127
  69 0040 1A61     		str	r2, [r3, #16]
  70              		.loc 1 111 0
  71 0042 1A61     		str	r2, [r3, #16]
  72              		.loc 1 112 0
  73 0044 D868     		ldr	r0, [r3, #12]
  74 0046 20F08001 		bic	r1, r0, #128
  75 004a D960     		str	r1, [r3, #12]
  76              	.LVL2:
  77              	.L1:
  78 004c 7047     		bx	lr
  79              		.cfi_endproc
  80              	.LFE111:
  81              		.size	rtc_lld_init, .-rtc_lld_init
  82 004e 00BF     		.section	.text.rtc_lld_set_time,"ax",%progbits
  83              		.align	2
  84              		.p2align 4,,15
  85              		.global	rtc_lld_set_time
  86              		.thumb
  87              		.thumb_func
  88              		.type	rtc_lld_set_time, %function
  89              	rtc_lld_set_time:
  90              	.LFB112:
  91              		.loc 1 126 0
  92              		.cfi_startproc
  93              		@ args = 0, pretend = 0, frame = 0
  94              		@ frame_needed = 0, uses_anonymous_args = 0
  95              		@ link register save eliminated.
  96              	.LVL3:
  97              		.loc 1 129 0
  98 0000 40F20002 		movw	r2, #:lower16:.LANCHOR0
  99 0004 C0F20002 		movt	r2, #:upper16:.LANCHOR0
 100 0008 1268     		ldr	r2, [r2, #0]
 101 000a D068     		ldr	r0, [r2, #12]
 102              	.LVL4:
 103 000c 40F08003 		orr	r3, r0, #128
 104 0010 D360     		str	r3, [r2, #12]
 105              	.L7:
 106              		.loc 1 129 0 is_stmt 0 discriminator 1
 107 0012 D368     		ldr	r3, [r2, #12]
 108 0014 5806     		lsls	r0, r3, #25
 109 0016 FCD5     		bpl	.L7
 110              		.loc 1 130 0 is_stmt 1
 111 0018 8868     		ldr	r0, [r1, #8]
 112 001a 60B9     		cbnz	r0, .L11
 113              		.loc 1 133 0
 114 001c 9068     		ldr	r0, [r2, #8]
ARM GAS  /tmp/ccZAjdgL.s 			page 3


 115 001e 20F04003 		bic	r3, r0, #64
 116 0022 9360     		str	r3, [r2, #8]
 117              	.L9:
 118              		.loc 1 134 0
 119 0024 4868     		ldr	r0, [r1, #4]
 120              		.loc 1 135 0
 121 0026 0968     		ldr	r1, [r1, #0]
 122              	.LVL5:
 123              		.loc 1 134 0
 124 0028 1060     		str	r0, [r2, #0]
 125              		.loc 1 135 0
 126 002a 5160     		str	r1, [r2, #4]
 127              		.loc 1 136 0
 128 002c D368     		ldr	r3, [r2, #12]
 129 002e 23F08001 		bic	r1, r3, #128
 130 0032 D160     		str	r1, [r2, #12]
 131              		.loc 1 137 0
 132 0034 7047     		bx	lr
 133              	.LVL6:
 134              	.L11:
 135              		.loc 1 131 0
 136 0036 9068     		ldr	r0, [r2, #8]
 137 0038 40F04003 		orr	r3, r0, #64
 138 003c 9360     		str	r3, [r2, #8]
 139 003e F1E7     		b	.L9
 140              		.cfi_endproc
 141              	.LFE112:
 142              		.size	rtc_lld_set_time, .-rtc_lld_set_time
 143              		.section	.text.rtc_lld_get_time,"ax",%progbits
 144              		.align	2
 145              		.p2align 4,,15
 146              		.global	rtc_lld_get_time
 147              		.thumb
 148              		.thumb_func
 149              		.type	rtc_lld_get_time, %function
 150              	rtc_lld_get_time:
 151              	.LFB113:
 152              		.loc 1 147 0
 153              		.cfi_startproc
 154              		@ args = 0, pretend = 0, frame = 0
 155              		@ frame_needed = 0, uses_anonymous_args = 0
 156              		@ link register save eliminated.
 157              	.LVL7:
 158 0000 40F20003 		movw	r3, #:lower16:.LANCHOR0
 159 0004 70B4     		push	{r4, r5, r6}
 160              	.LCFI0:
 161              		.cfi_def_cfa_offset 12
 162              		.cfi_offset 6, -4
 163              		.cfi_offset 5, -8
 164              		.cfi_offset 4, -12
 165              		.loc 1 147 0
 166 0006 C0F20003 		movt	r3, #:upper16:.LANCHOR0
 167 000a 1A68     		ldr	r2, [r3, #0]
 168              	.LVL8:
 169              	.L13:
 170              		.loc 1 150 0 discriminator 1
 171 000c D068     		ldr	r0, [r2, #12]
ARM GAS  /tmp/ccZAjdgL.s 			page 4


 172 000e 8406     		lsls	r4, r0, #26
 173 0010 FCD5     		bpl	.L13
 174              		.loc 1 154 0
 175 0012 1569     		ldr	r5, [r2, #16]
 176 0014 946A     		ldr	r4, [r2, #40]
 177              		.loc 1 155 0
 178 0016 1369     		ldr	r3, [r2, #16]
 179              		.loc 1 157 0
 180 0018 1668     		ldr	r6, [r2, #0]
 181              		.loc 1 158 0
 182 001a 5068     		ldr	r0, [r2, #4]
 183              		.loc 1 157 0
 184 001c 4E60     		str	r6, [r1, #4]
 185              		.loc 1 154 0
 186 001e 6A04     		lsls	r2, r5, #17
 187 0020 520C     		lsrs	r2, r2, #17
 188              		.loc 1 155 0
 189 0022 5B04     		lsls	r3, r3, #17
 190              		.loc 1 154 0
 191 0024 121B     		subs	r2, r2, r4
 192              		.loc 1 155 0
 193 0026 5B0C     		lsrs	r3, r3, #17
 194              		.loc 1 154 0
 195 0028 4FF47A74 		mov	r4, #1000
 196 002c 04FB02FC 		mul	ip, r4, r2
 197              		.loc 1 155 0
 198 0030 0133     		adds	r3, r3, #1
 199              		.loc 1 154 0
 200 0032 BCFBF3F2 		udiv	r2, ip, r3
 201              		.loc 1 153 0
 202 0036 CA60     		str	r2, [r1, #12]
 203              		.loc 1 158 0
 204 0038 0860     		str	r0, [r1, #0]
 205              		.loc 1 159 0
 206 003a 70BC     		pop	{r4, r5, r6}
 207 003c 7047     		bx	lr
 208              		.cfi_endproc
 209              	.LFE113:
 210              		.size	rtc_lld_get_time, .-rtc_lld_get_time
 211 003e 00BF     		.section	.text.rtc_lld_set_alarm,"ax",%progbits
 212              		.align	2
 213              		.p2align 4,,15
 214              		.global	rtc_lld_set_alarm
 215              		.thumb
 216              		.thumb_func
 217              		.type	rtc_lld_set_alarm, %function
 218              	rtc_lld_set_alarm:
 219              	.LFB114:
 220              		.loc 1 175 0
 221              		.cfi_startproc
 222              		@ args = 0, pretend = 0, frame = 0
 223              		@ frame_needed = 0, uses_anonymous_args = 0
 224              		@ link register save eliminated.
 225              	.LVL9:
 226              		.loc 1 176 0
 227 0000 0129     		cmp	r1, #1
 228 0002 14D0     		beq	.L24
ARM GAS  /tmp/ccZAjdgL.s 			page 5


 229              		.loc 1 191 0
 230 0004 002A     		cmp	r2, #0
 231 0006 26D0     		beq	.L20
 232              		.loc 1 192 0
 233 0008 0168     		ldr	r1, [r0, #0]
 234              	.LVL10:
 235 000a 8868     		ldr	r0, [r1, #8]
 236              	.LVL11:
 237 000c 20F40073 		bic	r3, r0, #512
 238 0010 8B60     		str	r3, [r1, #8]
 239              	.L21:
 240              		.loc 1 193 0 discriminator 1
 241 0012 CB68     		ldr	r3, [r1, #12]
 242 0014 9B07     		lsls	r3, r3, #30
 243 0016 FCD5     		bpl	.L21
 244              		.loc 1 195 0
 245 0018 1068     		ldr	r0, [r2, #0]
 246 001a 0862     		str	r0, [r1, #32]
 247              		.loc 1 196 0
 248 001c 8A68     		ldr	r2, [r1, #8]
 249              	.LVL12:
 250 001e 42F40073 		orr	r3, r2, #512
 251 0022 8B60     		str	r3, [r1, #8]
 252              		.loc 1 197 0
 253 0024 8868     		ldr	r0, [r1, #8]
 254 0026 40F40052 		orr	r2, r0, #8192
 255 002a 8A60     		str	r2, [r1, #8]
 256 002c 7047     		bx	lr
 257              	.LVL13:
 258              	.L24:
 259              		.loc 1 177 0
 260 002e E2B1     		cbz	r2, .L17
 261              		.loc 1 178 0
 262 0030 0168     		ldr	r1, [r0, #0]
 263              	.LVL14:
 264 0032 8868     		ldr	r0, [r1, #8]
 265              	.LVL15:
 266 0034 20F48073 		bic	r3, r0, #256
 267 0038 8B60     		str	r3, [r1, #8]
 268              	.L18:
 269              		.loc 1 179 0 discriminator 1
 270 003a CB68     		ldr	r3, [r1, #12]
 271 003c D807     		lsls	r0, r3, #31
 272 003e FCD5     		bpl	.L18
 273              		.loc 1 181 0
 274 0040 1068     		ldr	r0, [r2, #0]
 275 0042 C861     		str	r0, [r1, #28]
 276              		.loc 1 182 0
 277 0044 8A68     		ldr	r2, [r1, #8]
 278              	.LVL16:
 279 0046 42F48073 		orr	r3, r2, #256
 280 004a 8B60     		str	r3, [r1, #8]
 281              		.loc 1 183 0
 282 004c 8868     		ldr	r0, [r1, #8]
 283 004e 40F48052 		orr	r2, r0, #4096
 284 0052 8A60     		str	r2, [r1, #8]
 285 0054 7047     		bx	lr
ARM GAS  /tmp/ccZAjdgL.s 			page 6


 286              	.LVL17:
 287              	.L20:
 288              		.loc 1 200 0
 289 0056 0368     		ldr	r3, [r0, #0]
 290 0058 9968     		ldr	r1, [r3, #8]
 291              	.LVL18:
 292 005a 21F40050 		bic	r0, r1, #8192
 293              	.LVL19:
 294 005e 9860     		str	r0, [r3, #8]
 295              		.loc 1 201 0
 296 0060 9A68     		ldr	r2, [r3, #8]
 297              	.LVL20:
 298 0062 22F40071 		bic	r1, r2, #512
 299 0066 9960     		str	r1, [r3, #8]
 300 0068 7047     		bx	lr
 301              	.LVL21:
 302              	.L17:
 303              		.loc 1 186 0
 304 006a 0368     		ldr	r3, [r0, #0]
 305 006c 9968     		ldr	r1, [r3, #8]
 306              	.LVL22:
 307 006e 21F48050 		bic	r0, r1, #4096
 308              	.LVL23:
 309 0072 9860     		str	r0, [r3, #8]
 310              		.loc 1 187 0
 311 0074 9A68     		ldr	r2, [r3, #8]
 312              	.LVL24:
 313 0076 22F48071 		bic	r1, r2, #256
 314 007a 9960     		str	r1, [r3, #8]
 315 007c 7047     		bx	lr
 316              		.cfi_endproc
 317              	.LFE114:
 318              		.size	rtc_lld_set_alarm, .-rtc_lld_set_alarm
 319 007e 00BF     		.section	.text.rtc_lld_get_alarm,"ax",%progbits
 320              		.align	2
 321              		.p2align 4,,15
 322              		.global	rtc_lld_get_alarm
 323              		.thumb
 324              		.thumb_func
 325              		.type	rtc_lld_get_alarm, %function
 326              	rtc_lld_get_alarm:
 327              	.LFB115:
 328              		.loc 1 217 0
 329              		.cfi_startproc
 330              		@ args = 0, pretend = 0, frame = 0
 331              		@ frame_needed = 0, uses_anonymous_args = 0
 332              		@ link register save eliminated.
 333              	.LVL25:
 334              		.loc 1 219 0
 335 0000 0368     		ldr	r3, [r0, #0]
 336              		.loc 1 218 0
 337 0002 0129     		cmp	r1, #1
 338              		.loc 1 219 0
 339 0004 0CBF     		ite	eq
 340 0006 DB69     		ldreq	r3, [r3, #28]
 341              		.loc 1 221 0
 342 0008 1B6A     		ldrne	r3, [r3, #32]
ARM GAS  /tmp/ccZAjdgL.s 			page 7


 343 000a 1360     		str	r3, [r2, #0]
 344 000c 7047     		bx	lr
 345              		.cfi_endproc
 346              	.LFE115:
 347              		.size	rtc_lld_get_alarm, .-rtc_lld_get_alarm
 348 000e 00BF     		.section	.text.rtcSetPeriodicWakeup_v2,"ax",%progbits
 349              		.align	2
 350              		.p2align 4,,15
 351              		.global	rtcSetPeriodicWakeup_v2
 352              		.thumb
 353              		.thumb_func
 354              		.type	rtcSetPeriodicWakeup_v2, %function
 355              	rtcSetPeriodicWakeup_v2:
 356              	.LFB116:
 357              		.loc 1 234 0
 358              		.cfi_startproc
 359              		@ args = 0, pretend = 0, frame = 8
 360              		@ frame_needed = 0, uses_anonymous_args = 0
 361              	.LVL26:
 362 0000 10B5     		push	{r4, lr}
 363              	.LCFI1:
 364              		.cfi_def_cfa_offset 8
 365              		.cfi_offset 14, -4
 366              		.cfi_offset 4, -8
 367 0002 0446     		mov	r4, r0
 368              		.loc 1 235 0
 369 0004 0868     		ldr	r0, [r1, #0]
 370              	.LVL27:
 371 0006 B0F5403F 		cmp	r0, #196608
 372              		.loc 1 234 0
 373 000a 82B0     		sub	sp, sp, #8
 374              	.LCFI2:
 375              		.cfi_def_cfa_offset 16
 376              		.loc 1 235 0
 377 000c 16D0     		beq	.L32
 378              	.LVL28:
 379              	.L29:
 380              		.loc 1 239 0
 381 000e 2268     		ldr	r2, [r4, #0]
 382 0010 9168     		ldr	r1, [r2, #8]
 383 0012 21F48063 		bic	r3, r1, #1024
 384 0016 9360     		str	r3, [r2, #8]
 385              	.L30:
 386              		.loc 1 240 0 discriminator 1
 387 0018 D368     		ldr	r3, [r2, #12]
 388 001a 5B07     		lsls	r3, r3, #29
 389 001c FCD5     		bpl	.L30
 390              		.loc 1 242 0
 391 001e 83B2     		uxth	r3, r0
 392              		.loc 1 243 0
 393 0020 C0F30241 		ubfx	r1, r0, #16, #3
 394              		.loc 1 242 0
 395 0024 5361     		str	r3, [r2, #20]
 396              		.loc 1 243 0
 397 0026 9160     		str	r1, [r2, #8]
 398              		.loc 1 244 0
 399 0028 9068     		ldr	r0, [r2, #8]
ARM GAS  /tmp/ccZAjdgL.s 			page 8


 400 002a 40F48043 		orr	r3, r0, #16384
 401 002e 9360     		str	r3, [r2, #8]
 402              		.loc 1 245 0
 403 0030 9168     		ldr	r1, [r2, #8]
 404 0032 41F48060 		orr	r0, r1, #1024
 405 0036 9060     		str	r0, [r2, #8]
 406              		.loc 1 251 0
 407 0038 02B0     		add	sp, sp, #8
 408 003a 10BD     		pop	{r4, pc}
 409              	.LVL29:
 410              	.L32:
 411              		.loc 1 235 0 discriminator 1
 412 003c 40F20000 		movw	r0, #:lower16:.LC0
 413 0040 C0F20000 		movt	r0, #:upper16:.LC0
 414 0044 0191     		str	r1, [sp, #4]
 415 0046 FFF7FEFF 		bl	chDbgPanic
 416              	.LVL30:
 417 004a 0199     		ldr	r1, [sp, #4]
 418 004c 0868     		ldr	r0, [r1, #0]
 419 004e DEE7     		b	.L29
 420              		.cfi_endproc
 421              	.LFE116:
 422              		.size	rtcSetPeriodicWakeup_v2, .-rtcSetPeriodicWakeup_v2
 423              		.section	.text.rtcGetPeriodicWakeup_v2,"ax",%progbits
 424              		.align	2
 425              		.p2align 4,,15
 426              		.global	rtcGetPeriodicWakeup_v2
 427              		.thumb
 428              		.thumb_func
 429              		.type	rtcGetPeriodicWakeup_v2, %function
 430              	rtcGetPeriodicWakeup_v2:
 431              	.LFB117:
 432              		.loc 1 263 0
 433              		.cfi_startproc
 434              		@ args = 0, pretend = 0, frame = 0
 435              		@ frame_needed = 0, uses_anonymous_args = 0
 436              		@ link register save eliminated.
 437              	.LVL31:
 438              		.loc 1 265 0
 439 0000 0068     		ldr	r0, [r0, #0]
 440              	.LVL32:
 441 0002 4269     		ldr	r2, [r0, #20]
 442              		.loc 1 266 0
 443 0004 8368     		ldr	r3, [r0, #8]
 444 0006 03F00700 		and	r0, r3, #7
 445 000a 42EA0043 		orr	r3, r2, r0, lsl #16
 446 000e 0B60     		str	r3, [r1, #0]
 447              		.loc 1 267 0
 448 0010 7047     		bx	lr
 449              		.cfi_endproc
 450              	.LFE117:
 451              		.size	rtcGetPeriodicWakeup_v2, .-rtcGetPeriodicWakeup_v2
 452 0012 00BFAFF3 		.section	.text.rtc_lld_get_time_fat,"ax",%progbits
 452      0080AFF3 
 452      0080AFF3 
 452      0080
 453              		.align	2
ARM GAS  /tmp/ccZAjdgL.s 			page 9


 454              		.p2align 4,,15
 455              		.global	rtc_lld_get_time_fat
 456              		.thumb
 457              		.thumb_func
 458              		.type	rtc_lld_get_time_fat, %function
 459              	rtc_lld_get_time_fat:
 460              	.LFB118:
 461              		.loc 1 277 0
 462              		.cfi_startproc
 463              		@ args = 0, pretend = 0, frame = 16
 464              		@ frame_needed = 0, uses_anonymous_args = 0
 465              	.LVL33:
 466 0000 2DE9F047 		push	{r4, r5, r6, r7, r8, r9, sl, lr}
 467              	.LCFI3:
 468              		.cfi_def_cfa_offset 32
 469              		.cfi_offset 14, -4
 470              		.cfi_offset 10, -8
 471              		.cfi_offset 9, -12
 472              		.cfi_offset 8, -16
 473              		.cfi_offset 7, -20
 474              		.cfi_offset 6, -24
 475              		.cfi_offset 5, -28
 476              		.cfi_offset 4, -32
 477 0004 8146     		mov	r9, r0
 478 0006 84B0     		sub	sp, sp, #16
 479              	.LCFI4:
 480              		.cfi_def_cfa_offset 48
 481              		.loc 1 284 0
 482              	@ 284 "../../../os/hal/platforms/STM32/RTCv2/rtc_lld.c" 1
 483 0008 FFF7FEFF 		bl      _port_lock
 484              	@ 0 "" 2
 485              		.thumb
 486 000c FFF7FEFF 		bl	dbg_check_lock
 487              	.LVL34:
 488              		.loc 1 285 0
 489 0010 4846     		mov	r0, r9
 490 0012 6946     		mov	r1, sp
 491 0014 FFF7FEFF 		bl	rtc_lld_get_time
 492              		.loc 1 286 0
 493 0018 FFF7FEFF 		bl	dbg_check_unlock
 494              	@ 286 "../../../os/hal/platforms/STM32/RTCv2/rtc_lld.c" 1
 495 001c FFF7FEFF 		bl      _port_unlock
 496              	@ 0 "" 2
 497              		.loc 1 289 0
 498              		.thumb
 499 0020 9DE80C00 		ldmia	sp, {r2, r3}
 500              	.LVL35:
 501              		.loc 1 296 0
 502 0024 C3F30230 		ubfx	r0, r3, #12, #3
 503              		.loc 1 292 0
 504 0028 C3F30211 		ubfx	r1, r3, #4, #3
 505              		.loc 1 295 0
 506 002c C3F3032E 		ubfx	lr, r3, #8, #4
 507              		.loc 1 296 0
 508 0030 00EB8007 		add	r7, r0, r0, lsl #2
 509              		.loc 1 301 0
 510 0034 C3F38054 		ubfx	r4, r3, #22, #1
ARM GAS  /tmp/ccZAjdgL.s 			page 10


 511              		.loc 1 309 0
 512 0038 C2F30030 		ubfx	r0, r2, #12, #1
 513              		.loc 1 296 0
 514 003c 0EEB4706 		add	r6, lr, r7, lsl #1
 515              		.loc 1 291 0
 516 0040 03F00F0C 		and	ip, r3, #15
 517              	.LVL36:
 518              		.loc 1 292 0
 519 0044 01EB810A 		add	sl, r1, r1, lsl #2
 520              		.loc 1 305 0
 521 0048 C2F30118 		ubfx	r8, r2, #4, #2
 522              		.loc 1 301 0
 523 004c 6500     		lsls	r5, r4, #1
 524              		.loc 1 292 0
 525 004e 0CEB4A0A 		add	sl, ip, sl, lsl #1
 526              	.LVL37:
 527              		.loc 1 304 0
 528 0052 02F00F0E 		and	lr, r2, #15
 529              	.LVL38:
 530              		.loc 1 309 0
 531 0056 8700     		lsls	r7, r0, #2
 532              		.loc 1 297 0
 533 0058 4FEA4619 		lsl	r9, r6, #5
 534              	.LVL39:
 535              		.loc 1 305 0
 536 005c 08EB8808 		add	r8, r8, r8, lsl #2
 537 0060 0EEB480C 		add	ip, lr, r8, lsl #1
 538              		.loc 1 300 0
 539 0064 C3F30151 		ubfx	r1, r3, #20, #2
 540              		.loc 1 301 0
 541 0068 2E19     		adds	r6, r5, r4
 542              		.loc 1 309 0
 543 006a 3F18     		adds	r7, r7, r0
 544              		.loc 1 308 0
 545 006c C2F30324 		ubfx	r4, r2, #8, #4
 546              		.loc 1 312 0
 547 0070 C2F30345 		ubfx	r5, r2, #16, #4
 548              		.loc 1 297 0
 549 0074 49EA5A09 		orr	r9, r9, sl, lsr #1
 550              		.loc 1 313 0
 551 0078 C2F30352 		ubfx	r2, r2, #20, #4
 552              		.loc 1 302 0
 553 007c 49EA0C49 		orr	r9, r9, ip, lsl #16
 554              		.loc 1 300 0
 555 0080 01EB810E 		add	lr, r1, r1, lsl #2
 556              		.loc 1 313 0
 557 0084 02EB820C 		add	ip, r2, r2, lsl #2
 558              		.loc 1 301 0
 559 0088 B600     		lsls	r6, r6, #2
 560              		.loc 1 313 0
 561 008a 1435     		adds	r5, r5, #20
 562              		.loc 1 309 0
 563 008c 04EB4704 		add	r4, r4, r7, lsl #1
 564              		.loc 1 314 0
 565 0090 05EB4C00 		add	r0, r5, ip, lsl #1
 566              		.loc 1 299 0
 567 0094 C3F30343 		ubfx	r3, r3, #16, #4
ARM GAS  /tmp/ccZAjdgL.s 			page 11


 568              	.LVL40:
 569              		.loc 1 300 0
 570 0098 06EB4E01 		add	r1, r6, lr, lsl #1
 571              	.LVL41:
 572              		.loc 1 306 0
 573 009c 49EA4454 		orr	r4, r9, r4, lsl #21
 574              		.loc 1 310 0
 575 00a0 44EA4062 		orr	r2, r4, r0, lsl #25
 576              	.LVL42:
 577              		.loc 1 301 0
 578 00a4 C818     		adds	r0, r1, r3
 579              		.loc 1 318 0
 580 00a6 42EAC020 		orr	r0, r2, r0, lsl #11
 581 00aa 04B0     		add	sp, sp, #16
 582 00ac BDE8F087 		pop	{r4, r5, r6, r7, r8, r9, sl, pc}
 583              		.cfi_endproc
 584              	.LFE118:
 585              		.size	rtc_lld_get_time_fat, .-rtc_lld_get_time_fat
 586              		.global	RTCD1
 587              		.section	.bss.RTCD1,"aw",%nobits
 588              		.align	2
 589              		.set	.LANCHOR0,. + 0
 590              		.type	RTCD1, %object
 591              		.size	RTCD1, 4
 592              	RTCD1:
 593 0000 00000000 		.space	4
 594              		.section	.rodata.str1.4,"aMS",%progbits,1
 595              		.align	2
 596              	.LC0:
 597 0000 22727463 		.ascii	"\"rtc_lld_set_periodic_wakeup, forbidden combinatio"
 597      5F6C6C64 
 597      5F736574 
 597      5F706572 
 597      696F6469 
 598 0032 6E222829 		.ascii	"n\"()\000"
 598      00
 599 0037 00       		.text
 600              	.Letext0:
 601              		.file 2 "/home/prana/CodeSourcery/ARM_EABI/bin/../lib/gcc/arm-none-eabi/4.6.3/../../../../arm-none
 602              		.file 3 "../../../os/ports/GCC/ARMCMx/chtypes.h"
 603              		.file 4 "../../../os/hal/platforms/STM32F4xx/stm32f4xx.h"
 604              		.file 5 "../../../os/hal/include/rtc.h"
 605              		.file 6 "../../../os/hal/platforms/STM32/RTCv2/rtc_lld.h"
 606              		.file 7 "../../../os/ports/common/ARMCMx/CMSIS/include/core_cm4.h"