ARM GAS  /tmp/cc65ZNIE.s 			page 1


   1              		.syntax unified
   2              		.cpu cortex-m4
   3              		.fpu softvfp
   4              		.eabi_attribute 20, 1
   5              		.eabi_attribute 21, 1
   6              		.eabi_attribute 23, 3
   7              		.eabi_attribute 24, 1
   8              		.eabi_attribute 25, 1
   9              		.eabi_attribute 26, 1
  10              		.eabi_attribute 30, 2
  11              		.eabi_attribute 34, 1
  12              		.eabi_attribute 18, 4
  13              		.thumb
  14              		.file	"serial.c"
  15              		.text
  16              	.Ltext0:
  17              		.cfi_sections	.debug_frame
  18              		.section	.text.readt,"ax",%progbits
  19              		.align	2
  20              		.p2align 4,,15
  21              		.thumb
  22              		.thumb_func
  23              		.type	readt, %function
  24              	readt:
  25              	.LFB118:
  26              		.file 1 "../../../os/hal/src/serial.c"
  27              		.loc 1 92 0
  28              		.cfi_startproc
  29              		@ args = 0, pretend = 0, frame = 0
  30              		@ frame_needed = 0, uses_anonymous_args = 0
  31              		@ link register save eliminated.
  32              	.LVL0:
  33              		.loc 1 94 0
  34 0000 0C30     		adds	r0, r0, #12
  35              	.LVL1:
  36              		.loc 1 95 0
  37              		.loc 1 94 0
  38 0002 FFF7FEBF 		b	chIQReadTimeout
  39              	.LVL2:
  40              	.LVL3:
  41              	.LVL4:
  42              	.LVL5:
  43              		.cfi_endproc
  44              	.LFE118:
  45              		.size	readt, .-readt
  46 0006 00BFAFF3 		.section	.text.read,"ax",%progbits
  46      0080AFF3 
  46      0080
  47              		.align	2
  48              		.p2align 4,,15
  49              		.thumb
  50              		.thumb_func
  51              		.type	read, %function
  52              	read:
  53              	.LFB112:
  54              		.loc 1 61 0
  55              		.cfi_startproc
ARM GAS  /tmp/cc65ZNIE.s 			page 2


  56              		@ args = 0, pretend = 0, frame = 0
  57              		@ frame_needed = 0, uses_anonymous_args = 0
  58              		@ link register save eliminated.
  59              	.LVL6:
  60              		.loc 1 63 0
  61 0000 0C30     		adds	r0, r0, #12
  62              	.LVL7:
  63 0002 4FF0FF33 		mov	r3, #-1
  64              		.loc 1 65 0
  65              		.loc 1 63 0
  66 0006 FFF7FEBF 		b	chIQReadTimeout
  67              	.LVL8:
  68              	.LVL9:
  69              	.LVL10:
  70              		.cfi_endproc
  71              	.LFE112:
  72              		.size	read, .-read
  73 000a 00BFAFF3 		.section	.text.writet,"ax",%progbits
  73      0080
  74              		.align	2
  75              		.p2align 4,,15
  76              		.thumb
  77              		.thumb_func
  78              		.type	writet, %function
  79              	writet:
  80              	.LFB117:
  81              		.loc 1 87 0
  82              		.cfi_startproc
  83              		@ args = 0, pretend = 0, frame = 0
  84              		@ frame_needed = 0, uses_anonymous_args = 0
  85              		@ link register save eliminated.
  86              	.LVL11:
  87              		.loc 1 89 0
  88 0000 3030     		adds	r0, r0, #48
  89              	.LVL12:
  90              		.loc 1 90 0
  91              		.loc 1 89 0
  92 0002 FFF7FEBF 		b	chOQWriteTimeout
  93              	.LVL13:
  94              	.LVL14:
  95              	.LVL15:
  96              	.LVL16:
  97              		.cfi_endproc
  98              	.LFE117:
  99              		.size	writet, .-writet
 100 0006 00BFAFF3 		.section	.text.write,"ax",%progbits
 100      0080AFF3 
 100      0080
 101              		.align	2
 102              		.p2align 4,,15
 103              		.thumb
 104              		.thumb_func
 105              		.type	write, %function
 106              	write:
 107              	.LFB111:
 108              		.loc 1 55 0
 109              		.cfi_startproc
ARM GAS  /tmp/cc65ZNIE.s 			page 3


 110              		@ args = 0, pretend = 0, frame = 0
 111              		@ frame_needed = 0, uses_anonymous_args = 0
 112              		@ link register save eliminated.
 113              	.LVL17:
 114              		.loc 1 57 0
 115 0000 3030     		adds	r0, r0, #48
 116              	.LVL18:
 117 0002 4FF0FF33 		mov	r3, #-1
 118              		.loc 1 59 0
 119              		.loc 1 57 0
 120 0006 FFF7FEBF 		b	chOQWriteTimeout
 121              	.LVL19:
 122              	.LVL20:
 123              	.LVL21:
 124              		.cfi_endproc
 125              	.LFE111:
 126              		.size	write, .-write
 127 000a 00BFAFF3 		.section	.text.gett,"ax",%progbits
 127      0080
 128              		.align	2
 129              		.p2align 4,,15
 130              		.thumb
 131              		.thumb_func
 132              		.type	gett, %function
 133              	gett:
 134              	.LFB116:
 135              		.loc 1 82 0
 136              		.cfi_startproc
 137              		@ args = 0, pretend = 0, frame = 0
 138              		@ frame_needed = 0, uses_anonymous_args = 0
 139              		@ link register save eliminated.
 140              	.LVL22:
 141              		.loc 1 84 0
 142 0000 0C30     		adds	r0, r0, #12
 143              	.LVL23:
 144              		.loc 1 85 0
 145              		.loc 1 84 0
 146 0002 FFF7FEBF 		b	chIQGetTimeout
 147              	.LVL24:
 148              	.LVL25:
 149              		.cfi_endproc
 150              	.LFE116:
 151              		.size	gett, .-gett
 152 0006 00BFAFF3 		.section	.text.get,"ax",%progbits
 152      0080AFF3 
 152      0080
 153              		.align	2
 154              		.p2align 4,,15
 155              		.thumb
 156              		.thumb_func
 157              		.type	get, %function
 158              	get:
 159              	.LFB114:
 160              		.loc 1 72 0
 161              		.cfi_startproc
 162              		@ args = 0, pretend = 0, frame = 0
 163              		@ frame_needed = 0, uses_anonymous_args = 0
ARM GAS  /tmp/cc65ZNIE.s 			page 4


 164              		@ link register save eliminated.
 165              	.LVL26:
 166              		.loc 1 74 0
 167 0000 0C30     		adds	r0, r0, #12
 168              	.LVL27:
 169 0002 4FF0FF31 		mov	r1, #-1
 170              		.loc 1 75 0
 171              		.loc 1 74 0
 172 0006 FFF7FEBF 		b	chIQGetTimeout
 173              	.LVL28:
 174              		.cfi_endproc
 175              	.LFE114:
 176              		.size	get, .-get
 177 000a 00BFAFF3 		.section	.text.putt,"ax",%progbits
 177      0080
 178              		.align	2
 179              		.p2align 4,,15
 180              		.thumb
 181              		.thumb_func
 182              		.type	putt, %function
 183              	putt:
 184              	.LFB115:
 185              		.loc 1 77 0
 186              		.cfi_startproc
 187              		@ args = 0, pretend = 0, frame = 0
 188              		@ frame_needed = 0, uses_anonymous_args = 0
 189              		@ link register save eliminated.
 190              	.LVL29:
 191              		.loc 1 79 0
 192 0000 3030     		adds	r0, r0, #48
 193              	.LVL30:
 194              		.loc 1 80 0
 195              		.loc 1 79 0
 196 0002 FFF7FEBF 		b	chOQPutTimeout
 197              	.LVL31:
 198              	.LVL32:
 199              	.LVL33:
 200              		.cfi_endproc
 201              	.LFE115:
 202              		.size	putt, .-putt
 203 0006 00BFAFF3 		.section	.text.put,"ax",%progbits
 203      0080AFF3 
 203      0080
 204              		.align	2
 205              		.p2align 4,,15
 206              		.thumb
 207              		.thumb_func
 208              		.type	put, %function
 209              	put:
 210              	.LFB113:
 211              		.loc 1 67 0
 212              		.cfi_startproc
 213              		@ args = 0, pretend = 0, frame = 0
 214              		@ frame_needed = 0, uses_anonymous_args = 0
 215              		@ link register save eliminated.
 216              	.LVL34:
 217              		.loc 1 69 0
ARM GAS  /tmp/cc65ZNIE.s 			page 5


 218 0000 3030     		adds	r0, r0, #48
 219              	.LVL35:
 220 0002 4FF0FF32 		mov	r2, #-1
 221              		.loc 1 70 0
 222              		.loc 1 69 0
 223 0006 FFF7FEBF 		b	chOQPutTimeout
 224              	.LVL36:
 225              	.LVL37:
 226              		.cfi_endproc
 227              	.LFE113:
 228              		.size	put, .-put
 229 000a 00BFAFF3 		.section	.text.sdInit,"ax",%progbits
 229      0080
 230              		.align	2
 231              		.p2align 4,,15
 232              		.global	sdInit
 233              		.thumb
 234              		.thumb_func
 235              		.type	sdInit, %function
 236              	sdInit:
 237              	.LFB119:
 238              		.loc 1 113 0
 239              		.cfi_startproc
 240              		@ args = 0, pretend = 0, frame = 0
 241              		@ frame_needed = 0, uses_anonymous_args = 0
 242              		@ link register save eliminated.
 243              		.loc 1 116 0
 244              		.loc 1 115 0
 245 0000 FFF7FEBF 		b	sd_lld_init
 246              		.cfi_endproc
 247              	.LFE119:
 248              		.size	sdInit, .-sdInit
 249 0004 AFF30080 		.section	.text.sdObjectInit,"ax",%progbits
 249      AFF30080 
 249      AFF30080 
 250              		.align	2
 251              		.p2align 4,,15
 252              		.global	sdObjectInit
 253              		.thumb
 254              		.thumb_func
 255              		.type	sdObjectInit, %function
 256              	sdObjectInit:
 257              	.LFB120:
 258              		.loc 1 133 0
 259              		.cfi_startproc
 260              		@ args = 0, pretend = 0, frame = 0
 261              		@ frame_needed = 0, uses_anonymous_args = 0
 262              	.LVL38:
 263 0000 70B5     		push	{r4, r5, r6, lr}
 264              	.LCFI0:
 265              		.cfi_def_cfa_offset 16
 266              		.cfi_offset 14, -4
 267              		.cfi_offset 6, -8
 268              		.cfi_offset 5, -12
 269              		.cfi_offset 4, -16
 270              		.loc 1 135 0
 271 0002 40F20003 		movw	r3, #:lower16:.LANCHOR0
ARM GAS  /tmp/cc65ZNIE.s 			page 6


 272 0006 0646     		mov	r6, r0
 273 0008 C0F20003 		movt	r3, #:upper16:.LANCHOR0
 274              		.loc 1 133 0
 275 000c 0446     		mov	r4, r0
 276              		.loc 1 135 0
 277 000e 46F8043B 		str	r3, [r6], #4
 278              		.loc 1 133 0
 279 0012 82B0     		sub	sp, sp, #8
 280              	.LCFI1:
 281              		.cfi_def_cfa_offset 24
 282              		.loc 1 136 0
 283 0014 6660     		str	r6, [r4, #4]
 284              		.loc 1 137 0
 285 0016 0126     		movs	r6, #1
 286              		.loc 1 133 0
 287 0018 0B46     		mov	r3, r1
 288 001a 1546     		mov	r5, r2
 289              		.loc 1 138 0
 290 001c 0C30     		adds	r0, r0, #12
 291              	.LVL39:
 292 001e 04F15401 		add	r1, r4, #84
 293              	.LVL40:
 294 0022 1022     		movs	r2, #16
 295              	.LVL41:
 296              		.loc 1 137 0
 297 0024 2672     		strb	r6, [r4, #8]
 298              		.loc 1 138 0
 299 0026 0094     		str	r4, [sp, #0]
 300 0028 FFF7FEFF 		bl	chIQInit
 301              	.LVL42:
 302              		.loc 1 139 0
 303 002c 04F13000 		add	r0, r4, #48
 304 0030 04F16401 		add	r1, r4, #100
 305 0034 1022     		movs	r2, #16
 306 0036 2B46     		mov	r3, r5
 307 0038 0094     		str	r4, [sp, #0]
 308 003a FFF7FEFF 		bl	chOQInit
 309              		.loc 1 140 0
 310 003e 02B0     		add	sp, sp, #8
 311 0040 70BD     		pop	{r4, r5, r6, pc}
 312              		.cfi_endproc
 313              	.LFE120:
 314              		.size	sdObjectInit, .-sdObjectInit
 315 0042 00BFAFF3 		.section	.text.sdStart,"ax",%progbits
 315      0080AFF3 
 315      0080AFF3 
 315      0080
 316              		.align	2
 317              		.p2align 4,,15
 318              		.global	sdStart
 319              		.thumb
 320              		.thumb_func
 321              		.type	sdStart, %function
 322              	sdStart:
 323              	.LFB121:
 324              		.loc 1 152 0
 325              		.cfi_startproc
ARM GAS  /tmp/cc65ZNIE.s 			page 7


 326              		@ args = 0, pretend = 0, frame = 0
 327              		@ frame_needed = 0, uses_anonymous_args = 0
 328              	.LVL43:
 329 0000 38B5     		push	{r3, r4, r5, lr}
 330              	.LCFI2:
 331              		.cfi_def_cfa_offset 16
 332              		.cfi_offset 14, -4
 333              		.cfi_offset 5, -8
 334              		.cfi_offset 4, -12
 335              		.cfi_offset 3, -16
 336              		.loc 1 154 0
 337 0002 0446     		mov	r4, r0
 338              		.loc 1 152 0
 339 0004 0D46     		mov	r5, r1
 340              		.loc 1 154 0
 341 0006 C8B1     		cbz	r0, .L15
 342              	.LVL44:
 343              	.L12:
 344              		.loc 1 156 0
 345              	@ 156 "../../../os/hal/src/serial.c" 1
 346 0008 FFF7FEFF 		bl      _port_lock
 347              	@ 0 "" 2
 348              		.thumb
 349 000c FFF7FEFF 		bl	dbg_check_lock
 350              		.loc 1 157 0
 351 0010 217A     		ldrb	r1, [r4, #8]	@ zero_extendqisi2
 352 0012 481E     		subs	r0, r1, #1
 353 0014 C3B2     		uxtb	r3, r0
 354 0016 012B     		cmp	r3, #1
 355 0018 05D9     		bls	.L13
 356              		.loc 1 157 0 is_stmt 0 discriminator 1
 357 001a 40F20000 		movw	r0, #:lower16:.LC1
 358 001e C0F20000 		movt	r0, #:upper16:.LC1
 359 0022 FFF7FEFF 		bl	chDbgPanic
 360              	.L13:
 361              		.loc 1 160 0 is_stmt 1
 362 0026 2046     		mov	r0, r4
 363 0028 2946     		mov	r1, r5
 364 002a FFF7FEFF 		bl	sd_lld_start
 365              		.loc 1 161 0
 366 002e 0222     		movs	r2, #2
 367 0030 2272     		strb	r2, [r4, #8]
 368              		.loc 1 162 0
 369 0032 FFF7FEFF 		bl	dbg_check_unlock
 370              	@ 162 "../../../os/hal/src/serial.c" 1
 371 0036 FFF7FEFF 		bl      _port_unlock
 372              	@ 0 "" 2
 373              		.loc 1 163 0
 374              		.thumb
 375 003a 38BD     		pop	{r3, r4, r5, pc}
 376              	.L15:
 377              		.loc 1 154 0 discriminator 1
 378 003c 40F20000 		movw	r0, #:lower16:.LC0
 379 0040 C0F20000 		movt	r0, #:upper16:.LC0
 380 0044 FFF7FEFF 		bl	chDbgPanic
 381 0048 DEE7     		b	.L12
 382              		.cfi_endproc
ARM GAS  /tmp/cc65ZNIE.s 			page 8


 383              	.LFE121:
 384              		.size	sdStart, .-sdStart
 385 004a 00BFAFF3 		.section	.text.sdStop,"ax",%progbits
 385      0080
 386              		.align	2
 387              		.p2align 4,,15
 388              		.global	sdStop
 389              		.thumb
 390              		.thumb_func
 391              		.type	sdStop, %function
 392              	sdStop:
 393              	.LFB122:
 394              		.loc 1 174 0
 395              		.cfi_startproc
 396              		@ args = 0, pretend = 0, frame = 0
 397              		@ frame_needed = 0, uses_anonymous_args = 0
 398              	.LVL45:
 399 0000 10B5     		push	{r4, lr}
 400              	.LCFI3:
 401              		.cfi_def_cfa_offset 8
 402              		.cfi_offset 14, -4
 403              		.cfi_offset 4, -8
 404              		.loc 1 176 0
 405 0002 0446     		mov	r4, r0
 406 0004 10B3     		cbz	r0, .L19
 407              	.LVL46:
 408              	.L17:
 409              		.loc 1 178 0
 410              	@ 178 "../../../os/hal/src/serial.c" 1
 411 0006 FFF7FEFF 		bl      _port_lock
 412              	@ 0 "" 2
 413              		.thumb
 414 000a FFF7FEFF 		bl	dbg_check_lock
 415              		.loc 1 179 0
 416 000e 217A     		ldrb	r1, [r4, #8]	@ zero_extendqisi2
 417 0010 481E     		subs	r0, r1, #1
 418 0012 C3B2     		uxtb	r3, r0
 419 0014 012B     		cmp	r3, #1
 420 0016 05D9     		bls	.L18
 421              		.loc 1 179 0 is_stmt 0 discriminator 1
 422 0018 40F20000 		movw	r0, #:lower16:.LC3
 423 001c C0F20000 		movt	r0, #:upper16:.LC3
 424 0020 FFF7FEFF 		bl	chDbgPanic
 425              	.L18:
 426              		.loc 1 182 0 is_stmt 1
 427 0024 2046     		mov	r0, r4
 428 0026 FFF7FEFF 		bl	sd_lld_stop
 429              		.loc 1 183 0
 430 002a 0122     		movs	r2, #1
 431 002c 2272     		strb	r2, [r4, #8]
 432              		.loc 1 184 0
 433 002e 04F13000 		add	r0, r4, #48
 434 0032 FFF7FEFF 		bl	chOQResetI
 435              		.loc 1 185 0
 436 0036 04F10C00 		add	r0, r4, #12
 437 003a FFF7FEFF 		bl	chIQResetI
 438              		.loc 1 186 0
ARM GAS  /tmp/cc65ZNIE.s 			page 9


 439 003e FFF7FEFF 		bl	chSchRescheduleS
 440              		.loc 1 187 0
 441 0042 FFF7FEFF 		bl	dbg_check_unlock
 442              	@ 187 "../../../os/hal/src/serial.c" 1
 443 0046 FFF7FEFF 		bl      _port_unlock
 444              	@ 0 "" 2
 445              		.loc 1 188 0
 446              		.thumb
 447 004a 10BD     		pop	{r4, pc}
 448              	.L19:
 449              		.loc 1 176 0 discriminator 1
 450 004c 40F20000 		movw	r0, #:lower16:.LC2
 451 0050 C0F20000 		movt	r0, #:upper16:.LC2
 452 0054 FFF7FEFF 		bl	chDbgPanic
 453 0058 D5E7     		b	.L17
 454              		.cfi_endproc
 455              	.LFE122:
 456              		.size	sdStop, .-sdStop
 457 005a 00BFAFF3 		.section	.text.sdIncomingDataI,"ax",%progbits
 457      0080
 458              		.align	2
 459              		.p2align 4,,15
 460              		.global	sdIncomingDataI
 461              		.thumb
 462              		.thumb_func
 463              		.type	sdIncomingDataI, %function
 464              	sdIncomingDataI:
 465              	.LFB123:
 466              		.loc 1 206 0
 467              		.cfi_startproc
 468              		@ args = 0, pretend = 0, frame = 0
 469              		@ frame_needed = 0, uses_anonymous_args = 0
 470              	.LVL47:
 471 0000 38B5     		push	{r3, r4, r5, lr}
 472              	.LCFI4:
 473              		.cfi_def_cfa_offset 16
 474              		.cfi_offset 14, -4
 475              		.cfi_offset 5, -8
 476              		.cfi_offset 4, -12
 477              		.cfi_offset 3, -16
 478              		.loc 1 206 0
 479 0002 0446     		mov	r4, r0
 480 0004 0D46     		mov	r5, r1
 481              		.loc 1 208 0
 482 0006 FFF7FEFF 		bl	chDbgCheckClassI
 483              	.LVL48:
 484              		.loc 1 209 0
 485 000a D4B1     		cbz	r4, .L24
 486              	.L21:
 487              		.loc 1 211 0
 488 000c 6369     		ldr	r3, [r4, #20]
 489 000e 3BB1     		cbz	r3, .L25
 490              		.loc 1 213 0
 491 0010 04F10C00 		add	r0, r4, #12
 492 0014 2946     		mov	r1, r5
 493 0016 FFF7FEFF 		bl	chIQPutI
 494 001a 0028     		cmp	r0, #0
ARM GAS  /tmp/cc65ZNIE.s 			page 10


 495 001c 0BDB     		blt	.L26
 496              	.L20:
 497 001e 38BD     		pop	{r3, r4, r5, pc}
 498              	.L25:
 499              		.loc 1 212 0
 500 0020 201D     		adds	r0, r4, #4
 501 0022 0421     		movs	r1, #4
 502 0024 FFF7FEFF 		bl	chEvtBroadcastFlagsI
 503              		.loc 1 213 0
 504 0028 04F10C00 		add	r0, r4, #12
 505 002c 2946     		mov	r1, r5
 506 002e FFF7FEFF 		bl	chIQPutI
 507 0032 0028     		cmp	r0, #0
 508 0034 F3DA     		bge	.L20
 509              	.L26:
 510              		.loc 1 214 0
 511 0036 201D     		adds	r0, r4, #4
 512 0038 8021     		movs	r1, #128
 513              		.loc 1 215 0
 514 003a BDE83840 		pop	{r3, r4, r5, lr}
 515              		.loc 1 214 0
 516 003e FFF7FEBF 		b	chEvtBroadcastFlagsI
 517              	.L24:
 518              		.loc 1 209 0 discriminator 1
 519 0042 40F20000 		movw	r0, #:lower16:.LC4
 520 0046 C0F20000 		movt	r0, #:upper16:.LC4
 521 004a FFF7FEFF 		bl	chDbgPanic
 522 004e DDE7     		b	.L21
 523              		.cfi_endproc
 524              	.LFE123:
 525              		.size	sdIncomingDataI, .-sdIncomingDataI
 526              		.section	.text.sdRequestDataI,"ax",%progbits
 527              		.align	2
 528              		.p2align 4,,15
 529              		.global	sdRequestDataI
 530              		.thumb
 531              		.thumb_func
 532              		.type	sdRequestDataI, %function
 533              	sdRequestDataI:
 534              	.LFB124:
 535              		.loc 1 232 0
 536              		.cfi_startproc
 537              		@ args = 0, pretend = 0, frame = 0
 538              		@ frame_needed = 0, uses_anonymous_args = 0
 539              	.LVL49:
 540 0000 38B5     		push	{r3, r4, r5, lr}
 541              	.LCFI5:
 542              		.cfi_def_cfa_offset 16
 543              		.cfi_offset 14, -4
 544              		.cfi_offset 5, -8
 545              		.cfi_offset 4, -12
 546              		.cfi_offset 3, -16
 547              		.loc 1 232 0
 548 0002 0546     		mov	r5, r0
 549              		.loc 1 235 0
 550 0004 FFF7FEFF 		bl	chDbgCheckClassI
 551              	.LVL50:
ARM GAS  /tmp/cc65ZNIE.s 			page 11


 552              		.loc 1 236 0
 553 0008 6DB1     		cbz	r5, .L30
 554              	.L28:
 555              		.loc 1 238 0
 556 000a 05F13000 		add	r0, r5, #48
 557 000e FFF7FEFF 		bl	chOQGetI
 558              	.LVL51:
 559              		.loc 1 239 0
 560 0012 041E     		subs	r4, r0, #0
 561 0014 01DB     		blt	.L31
 562              		.loc 1 242 0
 563 0016 2046     		mov	r0, r4
 564 0018 38BD     		pop	{r3, r4, r5, pc}
 565              	.L31:
 566              		.loc 1 240 0
 567 001a 281D     		adds	r0, r5, #4
 568              	.LVL52:
 569 001c 0821     		movs	r1, #8
 570 001e FFF7FEFF 		bl	chEvtBroadcastFlagsI
 571              		.loc 1 242 0
 572 0022 2046     		mov	r0, r4
 573 0024 38BD     		pop	{r3, r4, r5, pc}
 574              	.LVL53:
 575              	.L30:
 576              		.loc 1 236 0 discriminator 1
 577 0026 40F20000 		movw	r0, #:lower16:.LC5
 578 002a C0F20000 		movt	r0, #:upper16:.LC5
 579 002e FFF7FEFF 		bl	chDbgPanic
 580 0032 EAE7     		b	.L28
 581              		.cfi_endproc
 582              	.LFE124:
 583              		.size	sdRequestDataI, .-sdRequestDataI
 584 0034 AFF30080 		.section	.rodata.str1.4,"aMS",%progbits,1
 584      AFF30080 
 584      AFF30080 
 585              		.align	2
 586              	.LC0:
 587 0000 22736453 		.ascii	"\"sdStart\"()\000"
 587      74617274 
 587      22282900 
 588              	.LC1:
 589 000c 73645374 		.ascii	"sdStart(), #1\000"
 589      61727428 
 589      292C2023 
 589      3100
 590 001a 0000     		.space	2
 591              	.LC2:
 592 001c 22736453 		.ascii	"\"sdStop\"()\000"
 592      746F7022 
 592      282900
 593 0027 00       		.space	1
 594              	.LC3:
 595 0028 73645374 		.ascii	"sdStop(), #1\000"
 595      6F702829 
 595      2C202331 
 595      00
 596 0035 000000   		.space	3
ARM GAS  /tmp/cc65ZNIE.s 			page 12


 597              	.LC4:
 598 0038 22736449 		.ascii	"\"sdIncomingDataI\"()\000"
 598      6E636F6D 
 598      696E6744 
 598      61746149 
 598      22282900 
 599              	.LC5:
 600 004c 22736452 		.ascii	"\"sdRequestDataI\"()\000"
 600      65717565 
 600      73744461 
 600      74614922 
 600      282900
 601 005f 00       		.section	.rodata.vmt,"a",%progbits
 602              		.align	2
 603              		.set	.LANCHOR0,. + 0
 604              		.type	vmt, %object
 605              		.size	vmt, 32
 606              	vmt:
 607 0000 00000000 		.word	write
 608 0004 00000000 		.word	read
 609 0008 00000000 		.word	put
 610 000c 00000000 		.word	get
 611 0010 00000000 		.word	putt
 612 0014 00000000 		.word	gett
 613 0018 00000000 		.word	writet
 614 001c 00000000 		.word	readt
 615              		.text
 616              	.Letext0:
 617              		.file 2 "/home/prana/CodeSourcery/ARM_EABI/bin/../lib/gcc/arm-none-eabi/4.6.3/include/stddef.h"
 618              		.file 3 "/home/prana/CodeSourcery/ARM_EABI/bin/../lib/gcc/arm-none-eabi/4.6.3/../../../../arm-none
 619              		.file 4 "../../../os/ports/GCC/ARMCMx/chtypes.h"
 620              		.file 5 "../../../os/kernel/include/chlists.h"
 621              		.file 6 "../../../os/kernel/include/chthreads.h"
 622              		.file 7 "../../../os/ports/GCC/ARMCMx/chcore_v7m.h"
 623              		.file 8 "../../../os/kernel/include/chmtx.h"
 624              		.file 9 "../../../os/kernel/include/chevents.h"
 625              		.file 10 "../../../os/kernel/include/chqueues.h"
 626              		.file 11 "../../../os/hal/platforms/STM32F4xx/stm32f4xx.h"
 627              		.file 12 "../../../os/hal/include/serial.h"
 628              		.file 13 "../../../os/hal/platforms/STM32/USARTv1/serial_lld.h"
 629              		.file 14 "../../../os/ports/common/ARMCMx/CMSIS/include/core_cm4.h"