ARM GAS  /tmp/ccOViKkN.s 			page 1


   1              		.syntax unified
   2              		.cpu cortex-m4
   3              		.fpu softvfp
   4              		.eabi_attribute 20, 1
   5              		.eabi_attribute 21, 1
   6              		.eabi_attribute 23, 3
   7              		.eabi_attribute 24, 1
   8              		.eabi_attribute 25, 1
   9              		.eabi_attribute 26, 1
  10              		.eabi_attribute 30, 2
  11              		.eabi_attribute 34, 1
  12              		.eabi_attribute 18, 4
  13              		.thumb
  14              		.file	"serial_lld.c"
  15              		.text
  16              	.Ltext0:
  17              		.cfi_sections	.debug_frame
  18              		.section	.text.notify2,"ax",%progbits
  19              		.align	2
  20              		.p2align 4,,15
  21              		.thumb
  22              		.thumb_func
  23              		.type	notify2, %function
  24              	notify2:
  25              	.LFB115:
  26              		.file 1 "../../../os/hal/platforms/STM32/USARTv1/serial_lld.c"
  27              		.loc 1 210 0
  28              		.cfi_startproc
  29              		@ args = 0, pretend = 0, frame = 0
  30              		@ frame_needed = 0, uses_anonymous_args = 0
  31              		@ link register save eliminated.
  32              	.LVL0:
  33              		.loc 1 213 0
  34 0000 4FF48843 		mov	r3, #17408
  35 0004 C4F20003 		movt	r3, 16384
  36 0008 9989     		ldrh	r1, [r3, #12]
  37 000a 88B2     		uxth	r0, r1
  38              	.LVL1:
  39 000c 40F08002 		orr	r2, r0, #128
  40 0010 9A81     		strh	r2, [r3, #12]	@ movhi
  41              		.loc 1 214 0
  42 0012 7047     		bx	lr
  43              		.cfi_endproc
  44              	.LFE115:
  45              		.size	notify2, .-notify2
  46 0014 AFF30080 		.section	.text.VectorD8,"ax",%progbits
  46      AFF30080 
  46      AFF30080 
  47              		.align	2
  48              		.p2align 4,,15
  49              		.global	VectorD8
  50              		.thumb
  51              		.thumb_func
  52              		.type	VectorD8, %function
  53              	VectorD8:
  54              	.LFB116:
  55              		.loc 1 281 0
ARM GAS  /tmp/ccOViKkN.s 			page 2


  56              		.cfi_startproc
  57              		@ args = 0, pretend = 0, frame = 0
  58              		@ frame_needed = 0, uses_anonymous_args = 0
  59 0000 2DE9F041 		push	{r4, r5, r6, r7, r8, lr}
  60              	.LCFI0:
  61              		.cfi_def_cfa_offset 24
  62              		.cfi_offset 14, -4
  63              		.cfi_offset 8, -8
  64              		.cfi_offset 7, -12
  65              		.cfi_offset 6, -16
  66              		.cfi_offset 5, -20
  67              		.cfi_offset 4, -24
  68              		.loc 1 283 0
  69 0004 FFF7FEFF 		bl	dbg_check_enter_isr
  70              	.LVL2:
  71              	.LBB17:
  72              	.LBB18:
  73              		.loc 1 157 0
  74 0008 40F20003 		movw	r3, #:lower16:.LANCHOR0
  75 000c C0F20003 		movt	r3, #:upper16:.LANCHOR0
  76 0010 5D6F     		ldr	r5, [r3, #116]
  77              	.LVL3:
  78              		.loc 1 158 0
  79 0012 AE89     		ldrh	r6, [r5, #12]
  80              		.loc 1 159 0
  81 0014 2C88     		ldrh	r4, [r5, #0]
  82              		.loc 1 160 0
  83 0016 AF88     		ldrh	r7, [r5, #4]
  84              		.loc 1 159 0
  85 0018 A4B2     		uxth	r4, r4
  86              		.loc 1 163 0
  87 001a 2307     		lsls	r3, r4, #28
  88              		.loc 1 158 0
  89 001c B6B2     		uxth	r6, r6
  90              	.LVL4:
  91              		.loc 1 163 0
  92 001e 1CD0     		beq	.L3
  93              	.LVL5:
  94              	.LBB19:
  95              	.LBB20:
  96              		.loc 1 138 0
  97 0020 14F00808 		ands	r8, r4, #8
  98              		.loc 1 139 0
  99 0024 18BF     		it	ne
 100 0026 4FF08008 		movne	r8, #128
 101              	.LVL6:
 102              		.loc 1 140 0
 103 002a E007     		lsls	r0, r4, #31
 104              		.loc 1 141 0
 105 002c 48BF     		it	mi
 106 002e 48F02008 		orrmi	r8, r8, #32
 107              	.LVL7:
 108              		.loc 1 142 0
 109 0032 A107     		lsls	r1, r4, #30
 110              		.loc 1 143 0
 111 0034 48BF     		it	mi
 112 0036 48F04008 		orrmi	r8, r8, #64
ARM GAS  /tmp/ccOViKkN.s 			page 3


 113              	.LVL8:
 114              		.loc 1 144 0
 115 003a 6207     		lsls	r2, r4, #29
 116              		.loc 1 145 0
 117 003c 48BF     		it	mi
 118 003e 48F48078 		orrmi	r8, r8, #256
 119              	.LVL9:
 120              		.loc 1 146 0
 121              	@ 146 "../../../os/hal/platforms/STM32/USARTv1/serial_lld.c" 1
 122 0042 FFF7FEFF 		bl      _port_lock
 123              	@ 0 "" 2
 124              		.thumb
 125 0046 FFF7FEFF 		bl	dbg_check_lock_from_isr
 126              	.LVL10:
 127              		.loc 1 147 0
 128 004a 3748     		ldr	r0, .L20
 129 004c 4146     		mov	r1, r8
 130 004e FFF7FEFF 		bl	chEvtBroadcastFlagsI
 131              		.loc 1 148 0
 132 0052 FFF7FEFF 		bl	dbg_check_unlock_from_isr
 133              	@ 148 "../../../os/hal/platforms/STM32/USARTv1/serial_lld.c" 1
 134 0056 FFF7FEFF 		bl      _port_unlock
 135              	@ 0 "" 2
 136              	.LVL11:
 137              		.thumb
 138              	.L3:
 139              	.LBE20:
 140              	.LBE19:
 141              		.loc 1 166 0
 142 005a E305     		lsls	r3, r4, #23
 143 005c 34D4     		bmi	.L16
 144              	.L8:
 145              		.loc 1 173 0
 146 005e A006     		lsls	r0, r4, #26
 147 0060 22D4     		bmi	.L17
 148              	.L9:
 149              		.loc 1 179 0
 150 0062 3106     		lsls	r1, r6, #24
 151 0064 01D5     		bpl	.L10
 152 0066 2206     		lsls	r2, r4, #24
 153 0068 43D4     		bmi	.L18
 154              	.L10:
 155              		.loc 1 192 0
 156 006a 6306     		lsls	r3, r4, #25
 157 006c 16D5     		bpl	.L13
 158              		.loc 1 193 0
 159              	@ 193 "../../../os/hal/platforms/STM32/USARTv1/serial_lld.c" 1
 160 006e FFF7FEFF 		bl      _port_lock
 161              	@ 0 "" 2
 162              		.thumb
 163 0072 FFF7FEFF 		bl	dbg_check_lock_from_isr
 164              		.loc 1 194 0
 165 0076 2C48     		ldr	r0, .L20
 166 0078 1021     		movs	r1, #16
 167 007a FFF7FEFF 		bl	chEvtBroadcastFlagsI
 168              		.loc 1 195 0
 169 007e FFF7FEFF 		bl	dbg_check_unlock_from_isr
ARM GAS  /tmp/ccOViKkN.s 			page 4


 170              	@ 195 "../../../os/hal/platforms/STM32/USARTv1/serial_lld.c" 1
 171 0082 FFF7FEFF 		bl      _port_unlock
 172              	@ 0 "" 2
 173              		.loc 1 196 0
 174              		.thumb
 175 0086 4FF6BF72 		movw	r2, #65471
 176 008a 06EA0201 		and	r1, r6, r2
 177 008e A981     		strh	r1, [r5, #12]	@ movhi
 178              		.loc 1 197 0
 179 0090 2888     		ldrh	r0, [r5, #0]
 180 0092 20F04003 		bic	r3, r0, #64
 181 0096 1A04     		lsls	r2, r3, #16
 182 0098 110C     		lsrs	r1, r2, #16
 183 009a 2980     		strh	r1, [r5, #0]	@ movhi
 184              	.L13:
 185              	.LBE18:
 186              	.LBE17:
 187              		.loc 1 287 0
 188 009c FFF7FEFF 		bl	dbg_check_leave_isr
 189              		.loc 1 288 0
 190 00a0 BDE8F041 		pop	{r4, r5, r6, r7, r8, lr}
 191              		.loc 1 287 0
 192 00a4 FFF7FEBF 		b	_port_irq_epilogue
 193              	.L17:
 194              	.LBB23:
 195              	.LBB22:
 196              		.loc 1 174 0
 197              	@ 174 "../../../os/hal/platforms/STM32/USARTv1/serial_lld.c" 1
 198 00a8 FFF7FEFF 		bl      _port_lock
 199              	@ 0 "" 2
 200              		.thumb
 201 00ac FFF7FEFF 		bl	dbg_check_lock_from_isr
 202              		.loc 1 175 0
 203 00b0 40F20000 		movw	r0, #:lower16:.LANCHOR0
 204 00b4 C0F20000 		movt	r0, #:upper16:.LANCHOR0
 205 00b8 F9B2     		uxtb	r1, r7
 206 00ba FFF7FEFF 		bl	sdIncomingDataI
 207              		.loc 1 176 0
 208 00be FFF7FEFF 		bl	dbg_check_unlock_from_isr
 209              	@ 176 "../../../os/hal/platforms/STM32/USARTv1/serial_lld.c" 1
 210 00c2 FFF7FEFF 		bl      _port_unlock
 211              	@ 0 "" 2
 212              		.thumb
 213 00c6 CCE7     		b	.L9
 214              	.L16:
 215              		.loc 1 167 0
 216              	@ 167 "../../../os/hal/platforms/STM32/USARTv1/serial_lld.c" 1
 217 00c8 FFF7FEFF 		bl      _port_lock
 218              	@ 0 "" 2
 219              		.thumb
 220 00cc FFF7FEFF 		bl	dbg_check_lock_from_isr
 221              		.loc 1 168 0
 222 00d0 1548     		ldr	r0, .L20
 223 00d2 4FF40071 		mov	r1, #512
 224 00d6 FFF7FEFF 		bl	chEvtBroadcastFlagsI
 225              		.loc 1 169 0
 226 00da FFF7FEFF 		bl	dbg_check_unlock_from_isr
ARM GAS  /tmp/ccOViKkN.s 			page 5


 227              	@ 169 "../../../os/hal/platforms/STM32/USARTv1/serial_lld.c" 1
 228 00de FFF7FEFF 		bl      _port_unlock
 229              	@ 0 "" 2
 230              		.loc 1 170 0
 231              		.thumb
 232 00e2 B5F800C0 		ldrh	ip, [r5, #0]
 233 00e6 2CF48072 		bic	r2, ip, #256
 234 00ea 1104     		lsls	r1, r2, #16
 235 00ec 080C     		lsrs	r0, r1, #16
 236 00ee 2880     		strh	r0, [r5, #0]	@ movhi
 237 00f0 B5E7     		b	.L8
 238              	.L18:
 239              	.LBB21:
 240              		.loc 1 181 0
 241              	@ 181 "../../../os/hal/platforms/STM32/USARTv1/serial_lld.c" 1
 242 00f2 FFF7FEFF 		bl      _port_lock
 243              	@ 0 "" 2
 244              		.thumb
 245 00f6 FFF7FEFF 		bl	dbg_check_lock_from_isr
 246              		.loc 1 182 0
 247 00fa 0C48     		ldr	r0, .L20+4
 248 00fc FFF7FEFF 		bl	chOQGetI
 249              	.LVL12:
 250              		.loc 1 183 0
 251 0100 0028     		cmp	r0, #0
 252              		.loc 1 188 0
 253 0102 A8BF     		it	ge
 254 0104 A880     		strhge	r0, [r5, #4]	@ movhi
 255              		.loc 1 183 0
 256 0106 04DB     		blt	.L19
 257              	.LVL13:
 258              	.L12:
 259              		.loc 1 189 0
 260 0108 FFF7FEFF 		bl	dbg_check_unlock_from_isr
 261              	@ 189 "../../../os/hal/platforms/STM32/USARTv1/serial_lld.c" 1
 262 010c FFF7FEFF 		bl      _port_unlock
 263              	@ 0 "" 2
 264              		.thumb
 265 0110 ABE7     		b	.L10
 266              	.LVL14:
 267              	.L19:
 268              		.loc 1 184 0
 269 0112 0548     		ldr	r0, .L20
 270              	.LVL15:
 271 0114 0821     		movs	r1, #8
 272 0116 FFF7FEFF 		bl	chEvtBroadcastFlagsI
 273              		.loc 1 185 0
 274 011a 26F0C000 		bic	r0, r6, #192
 275 011e 40F04003 		orr	r3, r0, #64
 276 0122 AB81     		strh	r3, [r5, #12]	@ movhi
 277 0124 F0E7     		b	.L12
 278              	.L21:
 279 0126 00BF     		.align	2
 280              	.L20:
 281 0128 04000000 		.word	.LANCHOR0+4
 282 012c 30000000 		.word	.LANCHOR0+48
 283              	.LBE21:
ARM GAS  /tmp/ccOViKkN.s 			page 6


 284              	.LBE22:
 285              	.LBE23:
 286              		.cfi_endproc
 287              	.LFE116:
 288              		.size	VectorD8, .-VectorD8
 289              		.section	.text.sd_lld_init,"ax",%progbits
 290              		.align	2
 291              		.p2align 4,,15
 292              		.global	sd_lld_init
 293              		.thumb
 294              		.thumb_func
 295              		.type	sd_lld_init, %function
 296              	sd_lld_init:
 297              	.LFB117:
 298              		.loc 1 376 0
 299              		.cfi_startproc
 300              		@ args = 0, pretend = 0, frame = 0
 301              		@ frame_needed = 0, uses_anonymous_args = 0
 302 0000 10B5     		push	{r4, lr}
 303              	.LCFI1:
 304              		.cfi_def_cfa_offset 8
 305              		.cfi_offset 14, -4
 306              		.cfi_offset 4, -8
 307              		.loc 1 384 0
 308 0002 40F20004 		movw	r4, #:lower16:.LANCHOR0
 309 0006 C0F20004 		movt	r4, #:upper16:.LANCHOR0
 310 000a 40F20002 		movw	r2, #:lower16:notify2
 311 000e 2046     		mov	r0, r4
 312 0010 0021     		movs	r1, #0
 313 0012 C0F20002 		movt	r2, #:upper16:notify2
 314 0016 FFF7FEFF 		bl	sdObjectInit
 315              		.loc 1 385 0
 316 001a 4FF48843 		mov	r3, #17408
 317 001e C4F20003 		movt	r3, 16384
 318 0022 6367     		str	r3, [r4, #116]
 319              		.loc 1 407 0
 320 0024 10BD     		pop	{r4, pc}
 321              		.cfi_endproc
 322              	.LFE117:
 323              		.size	sd_lld_init, .-sd_lld_init
 324 0026 00BFAFF3 		.section	.text.sd_lld_start,"ax",%progbits
 324      0080AFF3 
 324      0080
 325              		.align	2
 326              		.p2align 4,,15
 327              		.global	sd_lld_start
 328              		.thumb
 329              		.thumb_func
 330              		.type	sd_lld_start, %function
 331              	sd_lld_start:
 332              	.LFB118:
 333              		.loc 1 419 0
 334              		.cfi_startproc
 335              		@ args = 0, pretend = 0, frame = 0
 336              		@ frame_needed = 0, uses_anonymous_args = 0
 337              	.LVL16:
 338 0000 38B5     		push	{r3, r4, r5, lr}
ARM GAS  /tmp/ccOViKkN.s 			page 7


 339              	.LCFI2:
 340              		.cfi_def_cfa_offset 16
 341              		.cfi_offset 14, -4
 342              		.cfi_offset 5, -8
 343              		.cfi_offset 4, -12
 344              		.cfi_offset 3, -16
 345              		.loc 1 422 0
 346 0002 40F20004 		movw	r4, #:lower16:.LANCHOR1
 347              		.loc 1 424 0
 348 0006 037A     		ldrb	r3, [r0, #8]	@ zero_extendqisi2
 349              		.loc 1 422 0
 350 0008 C0F20004 		movt	r4, #:upper16:.LANCHOR1
 351 000c 0029     		cmp	r1, #0
 352 000e 18BF     		it	ne
 353 0010 0C46     		movne	r4, r1
 354              		.loc 1 424 0
 355 0012 012B     		cmp	r3, #1
 356              		.loc 1 419 0
 357 0014 0546     		mov	r5, r0
 358              		.loc 1 424 0
 359 0016 38D0     		beq	.L29
 360              	.LVL17:
 361              	.L25:
 362              	.LBB24:
 363              	.LBB25:
 364              		.loc 1 93 0
 365 0018 6B6F     		ldr	r3, [r5, #116]
 366              	.LVL18:
 367              		.loc 1 97 0
 368 001a 4FF48051 		mov	r1, #4096
 369 001e C4F20101 		movt	r1, 16385
 370 0022 581A     		subs	r0, r3, r1
 371 0024 D0F1000C 		rsbs	ip, r0, #0
 372 0028 4FF4A052 		mov	r2, #5120
 373 002c 4CEB0001 		adc	r1, ip, r0
 374 0030 C4F20102 		movt	r2, 16385
 375 0034 9342     		cmp	r3, r2
 376 0036 14BF     		ite	ne
 377 0038 0846     		movne	r0, r1
 378 003a 41F00100 		orreq	r0, r1, #1
 379              		.loc 1 101 0
 380 003e 2168     		ldr	r1, [r4, #0]
 381              		.loc 1 97 0
 382 0040 D8B9     		cbnz	r0, .L30
 383              		.loc 1 103 0
 384 0042 4DF6806C 		movw	ip, #56960
 385 0046 C0F2802C 		movt	ip, 640
 386 004a BCFBF1F1 		udiv	r1, ip, r1
 387 004e 1981     		strh	r1, [r3, #8]	@ movhi
 388              	.L27:
 389              		.loc 1 108 0
 390 0050 A088     		ldrh	r0, [r4, #4]
 391              		.loc 1 106 0
 392 0052 E188     		ldrh	r1, [r4, #6]
 393              		.loc 1 107 0
 394 0054 B4F808C0 		ldrh	ip, [r4, #8]
 395              		.loc 1 108 0
ARM GAS  /tmp/ccOViKkN.s 			page 8


 396 0058 40F40452 		orr	r2, r0, #8448
 397              		.loc 1 106 0
 398 005c 41F04000 		orr	r0, r1, #64
 399              		.loc 1 107 0
 400 0060 4CF00101 		orr	r1, ip, #1
 401              		.loc 1 108 0
 402 0064 42F02C0C 		orr	ip, r2, #44
 403              		.loc 1 111 0
 404 0068 0022     		movs	r2, #0
 405              		.loc 1 106 0
 406 006a 1882     		strh	r0, [r3, #16]	@ movhi
 407              		.loc 1 107 0
 408 006c 9982     		strh	r1, [r3, #20]	@ movhi
 409              		.loc 1 108 0
 410 006e A3F80CC0 		strh	ip, [r3, #12]	@ movhi
 411              		.loc 1 111 0
 412 0072 1A80     		strh	r2, [r3, #0]	@ movhi
 413              		.loc 1 112 0
 414 0074 1A88     		ldrh	r2, [r3, #0]
 415              		.loc 1 113 0
 416 0076 9B88     		ldrh	r3, [r3, #4]
 417              	.LBE25:
 418              	.LBE24:
 419              		.loc 1 469 0
 420 0078 38BD     		pop	{r3, r4, r5, pc}
 421              	.L30:
 422              	.LBB27:
 423              	.LBB26:
 424              		.loc 1 101 0
 425 007a 4FF43D40 		mov	r0, #48384
 426 007e C0F20150 		movt	r0, 1281
 427 0082 B0FBF1F2 		udiv	r2, r0, r1
 428 0086 1A81     		strh	r2, [r3, #8]	@ movhi
 429 0088 E2E7     		b	.L27
 430              	.LVL19:
 431              	.L29:
 432              	.LBE26:
 433              	.LBE27:
 434              		.loc 1 433 0
 435 008a 40F20001 		movw	r1, #:lower16:.LANCHOR0
 436              	.LVL20:
 437 008e C0F20001 		movt	r1, #:upper16:.LANCHOR0
 438 0092 8842     		cmp	r0, r1
 439 0094 C0D1     		bne	.L25
 440              		.loc 1 434 0
 441 0096 4FF4605C 		mov	ip, #14336
 442 009a C4F2020C 		movt	ip, 16386
 443              		.loc 1 435 0
 444 009e 2620     		movs	r0, #38
 445              		.loc 1 434 0
 446 00a0 DCF84030 		ldr	r3, [ip, #64]
 447 00a4 43F40032 		orr	r2, r3, #131072
 448 00a8 CCF84020 		str	r2, [ip, #64]
 449              		.loc 1 435 0
 450 00ac C021     		movs	r1, #192
 451 00ae FFF7FEFF 		bl	nvicEnableVector
 452 00b2 B1E7     		b	.L25
ARM GAS  /tmp/ccOViKkN.s 			page 9


 453              		.cfi_endproc
 454              	.LFE118:
 455              		.size	sd_lld_start, .-sd_lld_start
 456 00b4 AFF30080 		.section	.text.sd_lld_stop,"ax",%progbits
 456      AFF30080 
 456      AFF30080 
 457              		.align	2
 458              		.p2align 4,,15
 459              		.global	sd_lld_stop
 460              		.thumb
 461              		.thumb_func
 462              		.type	sd_lld_stop, %function
 463              	sd_lld_stop:
 464              	.LFB119:
 465              		.loc 1 480 0
 466              		.cfi_startproc
 467              		@ args = 0, pretend = 0, frame = 0
 468              		@ frame_needed = 0, uses_anonymous_args = 0
 469              		@ link register save eliminated.
 470              	.LVL21:
 471              		.loc 1 482 0
 472 0000 037A     		ldrb	r3, [r0, #8]	@ zero_extendqisi2
 473 0002 022B     		cmp	r3, #2
 474 0004 00D0     		beq	.L33
 475              	.L31:
 476 0006 7047     		bx	lr
 477              	.LVL22:
 478              	.L33:
 479              		.loc 1 492 0
 480 0008 40F2000C 		movw	ip, #:lower16:.LANCHOR0
 481              	.LVL23:
 482              		.loc 1 483 0
 483 000c 426F     		ldr	r2, [r0, #116]
 484              	.LVL24:
 485              		.loc 1 492 0
 486 000e C0F2000C 		movt	ip, #:upper16:.LANCHOR0
 487              	.LBB28:
 488              	.LBB29:
 489              		.loc 1 124 0
 490 0012 0021     		movs	r1, #0
 491              	.LBE29:
 492              	.LBE28:
 493              		.loc 1 492 0
 494 0014 6045     		cmp	r0, ip
 495              	.LBB31:
 496              	.LBB30:
 497              		.loc 1 124 0
 498 0016 9181     		strh	r1, [r2, #12]	@ movhi
 499              		.loc 1 125 0
 500 0018 1182     		strh	r1, [r2, #16]	@ movhi
 501              		.loc 1 126 0
 502 001a 9182     		strh	r1, [r2, #20]	@ movhi
 503              	.LBE30:
 504              	.LBE31:
 505              		.loc 1 492 0
 506 001c F3D1     		bne	.L31
 507              		.loc 1 493 0
ARM GAS  /tmp/ccOViKkN.s 			page 10


 508 001e 4FF46053 		mov	r3, #14336
 509 0022 C4F20203 		movt	r3, 16386
 510              		.loc 1 494 0
 511 0026 2620     		movs	r0, #38
 512              	.LVL25:
 513              		.loc 1 493 0
 514 0028 1A6C     		ldr	r2, [r3, #64]
 515              	.LVL26:
 516 002a 22F40031 		bic	r1, r2, #131072
 517 002e 1964     		str	r1, [r3, #64]
 518              		.loc 1 527 0
 519              		.loc 1 494 0
 520 0030 FFF7FEBF 		b	nvicDisableVector
 521              		.cfi_endproc
 522              	.LFE119:
 523              		.size	sd_lld_stop, .-sd_lld_stop
 524              		.global	SD2
 525 0034 AFF30080 		.section	.rodata.default_config,"a",%progbits
 525      AFF30080 
 525      AFF30080 
 526              		.align	2
 527              		.set	.LANCHOR1,. + 0
 528              		.type	default_config, %object
 529              		.size	default_config, 12
 530              	default_config:
 531 0000 00960000 		.word	38400
 532 0004 0000     		.short	0
 533 0006 0040     		.short	16384
 534 0008 0000     		.short	0
 535 000a 0000     		.space	2
 536              		.section	.bss.SD2,"aw",%nobits
 537              		.align	2
 538              		.set	.LANCHOR0,. + 0
 539              		.type	SD2, %object
 540              		.size	SD2, 120
 541              	SD2:
 542 0000 00000000 		.space	120
 542      00000000 
 542      00000000 
 542      00000000 
 542      00000000 
 543              		.text
 544              	.Letext0:
 545              		.file 2 "/home/prana/CodeSourcery/ARM_EABI/bin/../lib/gcc/arm-none-eabi/4.6.3/include/stddef.h"
 546              		.file 3 "/home/prana/CodeSourcery/ARM_EABI/bin/../lib/gcc/arm-none-eabi/4.6.3/../../../../arm-none
 547              		.file 4 "../../../os/ports/GCC/ARMCMx/chtypes.h"
 548              		.file 5 "../../../os/kernel/include/chlists.h"
 549              		.file 6 "../../../os/kernel/include/chthreads.h"
 550              		.file 7 "../../../os/ports/GCC/ARMCMx/chcore_v7m.h"
 551              		.file 8 "../../../os/kernel/include/chmtx.h"
 552              		.file 9 "../../../os/kernel/include/chevents.h"
 553              		.file 10 "../../../os/kernel/include/chqueues.h"
 554              		.file 11 "../../../os/hal/platforms/STM32F4xx/stm32f4xx.h"
 555              		.file 12 "../../../os/hal/include/serial.h"
 556              		.file 13 "../../../os/hal/platforms/STM32/USARTv1/serial_lld.h"
 557              		.file 14 "../../../os/ports/common/ARMCMx/CMSIS/include/core_cm4.h"
 558              		.section	.debug_info,"",%progbits
ARM GAS  /tmp/ccOViKkN.s 			page 11


 559              	.Ldebug_info0:
 560 0000 540F0000 		.4byte	0xf54
 561 0004 0200     		.2byte	0x2
 562 0006 00000000 		.4byte	.Ldebug_abbrev0
 563 000a 04       		.byte	0x4
 564 000b 01       		.uleb128 0x1
 565 000c 40090000 		.4byte	.LASF225
 566 0010 01       		.byte	0x1
 567 0011 B2030000 		.4byte	.LASF226
 568 0015 0E050000 		.4byte	.LASF227
 569 0019 00000000 		.4byte	0
 570 001d 00000000 		.4byte	0
 571 0021 78000000 		.4byte	.Ldebug_ranges0+0x78
 572 0025 00000000 		.4byte	.Ldebug_line0
 573 0029 02       		.uleb128 0x2
 574 002a 04       		.byte	0x4
 575 002b 05       		.byte	0x5
 576 002c 696E7400 		.ascii	"int\000"
 577 0030 03       		.uleb128 0x3
 578 0031 00000000 		.4byte	.LASF2
 579 0035 02       		.byte	0x2
 580 0036 D4       		.byte	0xd4
 581 0037 3B000000 		.4byte	0x3b
 582 003b 04       		.uleb128 0x4
 583 003c 04       		.byte	0x4
 584 003d 07       		.byte	0x7
 585 003e 70060000 		.4byte	.LASF0
 586 0042 04       		.uleb128 0x4
 587 0043 01       		.byte	0x1
 588 0044 06       		.byte	0x6
 589 0045 2B020000 		.4byte	.LASF1
 590 0049 03       		.uleb128 0x3
 591 004a 3E020000 		.4byte	.LASF3
 592 004e 03       		.byte	0x3
 593 004f 2A       		.byte	0x2a
 594 0050 54000000 		.4byte	0x54
 595 0054 04       		.uleb128 0x4
 596 0055 01       		.byte	0x1
 597 0056 08       		.byte	0x8
 598 0057 80020000 		.4byte	.LASF4
 599 005b 04       		.uleb128 0x4
 600 005c 02       		.byte	0x2
 601 005d 05       		.byte	0x5
 602 005e C2080000 		.4byte	.LASF5
 603 0062 03       		.uleb128 0x3
 604 0063 BA070000 		.4byte	.LASF6
 605 0067 03       		.byte	0x3
 606 0068 36       		.byte	0x36
 607 0069 6D000000 		.4byte	0x6d
 608 006d 04       		.uleb128 0x4
 609 006e 02       		.byte	0x2
 610 006f 07       		.byte	0x7
 611 0070 9D090000 		.4byte	.LASF7
 612 0074 03       		.uleb128 0x3
 613 0075 48000000 		.4byte	.LASF8
 614 0079 03       		.byte	0x3
 615 007a 4F       		.byte	0x4f
ARM GAS  /tmp/ccOViKkN.s 			page 12


 616 007b 7F000000 		.4byte	0x7f
 617 007f 04       		.uleb128 0x4
 618 0080 04       		.byte	0x4
 619 0081 05       		.byte	0x5
 620 0082 7F010000 		.4byte	.LASF9
 621 0086 03       		.uleb128 0x3
 622 0087 5A090000 		.4byte	.LASF10
 623 008b 03       		.byte	0x3
 624 008c 50       		.byte	0x50
 625 008d 91000000 		.4byte	0x91
 626 0091 04       		.uleb128 0x4
 627 0092 04       		.byte	0x4
 628 0093 07       		.byte	0x7
 629 0094 9B040000 		.4byte	.LASF11
 630 0098 04       		.uleb128 0x4
 631 0099 08       		.byte	0x8
 632 009a 05       		.byte	0x5
 633 009b B3050000 		.4byte	.LASF12
 634 009f 03       		.uleb128 0x3
 635 00a0 CC080000 		.4byte	.LASF13
 636 00a4 03       		.byte	0x3
 637 00a5 78       		.byte	0x78
 638 00a6 AA000000 		.4byte	0xaa
 639 00aa 04       		.uleb128 0x4
 640 00ab 08       		.byte	0x8
 641 00ac 07       		.byte	0x7
 642 00ad 9B070000 		.4byte	.LASF14
 643 00b1 03       		.uleb128 0x3
 644 00b2 36080000 		.4byte	.LASF15
 645 00b6 04       		.byte	0x4
 646 00b7 28       		.byte	0x28
 647 00b8 49000000 		.4byte	0x49
 648 00bc 03       		.uleb128 0x3
 649 00bd BF010000 		.4byte	.LASF16
 650 00c1 04       		.byte	0x4
 651 00c2 29       		.byte	0x29
 652 00c3 49000000 		.4byte	0x49
 653 00c7 03       		.uleb128 0x3
 654 00c8 35000000 		.4byte	.LASF17
 655 00cc 04       		.byte	0x4
 656 00cd 2C       		.byte	0x2c
 657 00ce 86000000 		.4byte	0x86
 658 00d2 03       		.uleb128 0x3
 659 00d3 C3070000 		.4byte	.LASF18
 660 00d7 04       		.byte	0x4
 661 00d8 2D       		.byte	0x2d
 662 00d9 74000000 		.4byte	0x74
 663 00dd 03       		.uleb128 0x3
 664 00de 46020000 		.4byte	.LASF19
 665 00e2 04       		.byte	0x4
 666 00e3 2F       		.byte	0x2f
 667 00e4 86000000 		.4byte	0x86
 668 00e8 03       		.uleb128 0x3
 669 00e9 C9060000 		.4byte	.LASF20
 670 00ed 04       		.byte	0x4
 671 00ee 30       		.byte	0x30
 672 00ef 86000000 		.4byte	0x86
ARM GAS  /tmp/ccOViKkN.s 			page 13


 673 00f3 03       		.uleb128 0x3
 674 00f4 1A000000 		.4byte	.LASF21
 675 00f8 04       		.byte	0x4
 676 00f9 31       		.byte	0x31
 677 00fa 86000000 		.4byte	0x86
 678 00fe 03       		.uleb128 0x3
 679 00ff F7080000 		.4byte	.LASF22
 680 0103 05       		.byte	0x5
 681 0104 23       		.byte	0x23
 682 0105 09010000 		.4byte	0x109
 683 0109 05       		.uleb128 0x5
 684 010a F7080000 		.4byte	.LASF22
 685 010e 48       		.byte	0x48
 686 010f 06       		.byte	0x6
 687 0110 57       		.byte	0x57
 688 0111 12020000 		.4byte	0x212
 689 0115 06       		.uleb128 0x6
 690 0116 88010000 		.4byte	.LASF23
 691 011a 06       		.byte	0x6
 692 011b 58       		.byte	0x58
 693 011c 37020000 		.4byte	0x237
 694 0120 02       		.byte	0x2
 695 0121 23       		.byte	0x23
 696 0122 00       		.uleb128 0
 697 0123 06       		.uleb128 0x6
 698 0124 97010000 		.4byte	.LASF24
 699 0128 06       		.byte	0x6
 700 0129 5A       		.byte	0x5a
 701 012a 37020000 		.4byte	0x237
 702 012e 02       		.byte	0x2
 703 012f 23       		.byte	0x23
 704 0130 04       		.uleb128 0x4
 705 0131 06       		.uleb128 0x6
 706 0132 1D030000 		.4byte	.LASF25
 707 0136 06       		.byte	0x6
 708 0137 5C       		.byte	0x5c
 709 0138 C7000000 		.4byte	0xc7
 710 013c 02       		.byte	0x2
 711 013d 23       		.byte	0x23
 712 013e 08       		.uleb128 0x8
 713 013f 06       		.uleb128 0x6
 714 0140 2F000000 		.4byte	.LASF26
 715 0144 06       		.byte	0x6
 716 0145 5D       		.byte	0x5d
 717 0146 10030000 		.4byte	0x310
 718 014a 02       		.byte	0x2
 719 014b 23       		.byte	0x23
 720 014c 0C       		.uleb128 0xc
 721 014d 06       		.uleb128 0x6
 722 014e 77010000 		.4byte	.LASF27
 723 0152 06       		.byte	0x6
 724 0153 5F       		.byte	0x5f
 725 0154 37020000 		.4byte	0x237
 726 0158 02       		.byte	0x2
 727 0159 23       		.byte	0x23
 728 015a 10       		.uleb128 0x10
 729 015b 06       		.uleb128 0x6
ARM GAS  /tmp/ccOViKkN.s 			page 14


 730 015c B2070000 		.4byte	.LASF28
 731 0160 06       		.byte	0x6
 732 0161 60       		.byte	0x60
 733 0162 37020000 		.4byte	0x237
 734 0166 02       		.byte	0x2
 735 0167 23       		.byte	0x23
 736 0168 14       		.uleb128 0x14
 737 0169 06       		.uleb128 0x6
 738 016a 3E0A0000 		.4byte	.LASF29
 739 016e 06       		.byte	0x6
 740 016f 67       		.byte	0x67
 741 0170 36040000 		.4byte	0x436
 742 0174 02       		.byte	0x2
 743 0175 23       		.byte	0x23
 744 0176 18       		.uleb128 0x18
 745 0177 06       		.uleb128 0x6
 746 0178 080A0000 		.4byte	.LASF30
 747 017c 06       		.byte	0x6
 748 017d 6D       		.byte	0x6d
 749 017e 48040000 		.4byte	0x448
 750 0182 02       		.byte	0x2
 751 0183 23       		.byte	0x23
 752 0184 1C       		.uleb128 0x1c
 753 0185 06       		.uleb128 0x6
 754 0186 780A0000 		.4byte	.LASF31
 755 018a 06       		.byte	0x6
 756 018b 72       		.byte	0x72
 757 018c BC000000 		.4byte	0xbc
 758 0190 02       		.byte	0x2
 759 0191 23       		.byte	0x23
 760 0192 20       		.uleb128 0x20
 761 0193 06       		.uleb128 0x6
 762 0194 63060000 		.4byte	.LASF32
 763 0198 06       		.byte	0x6
 764 0199 76       		.byte	0x76
 765 019a B1000000 		.4byte	0xb1
 766 019e 02       		.byte	0x2
 767 019f 23       		.byte	0x23
 768 01a0 21       		.uleb128 0x21
 769 01a1 06       		.uleb128 0x6
 770 01a2 F4060000 		.4byte	.LASF33
 771 01a6 06       		.byte	0x6
 772 01a7 88       		.byte	0x88
 773 01a8 38030000 		.4byte	0x338
 774 01ac 02       		.byte	0x2
 775 01ad 23       		.byte	0x23
 776 01ae 24       		.uleb128 0x24
 777 01af 07       		.uleb128 0x7
 778 01b0 705F7500 		.ascii	"p_u\000"
 779 01b4 06       		.byte	0x6
 780 01b5 AD       		.byte	0xad
 781 01b6 01040000 		.4byte	0x401
 782 01ba 02       		.byte	0x2
 783 01bb 23       		.byte	0x23
 784 01bc 28       		.uleb128 0x28
 785 01bd 06       		.uleb128 0x6
 786 01be 30060000 		.4byte	.LASF34
ARM GAS  /tmp/ccOViKkN.s 			page 15


 787 01c2 06       		.byte	0x6
 788 01c3 B2       		.byte	0xb2
 789 01c4 5F020000 		.4byte	0x25f
 790 01c8 02       		.byte	0x2
 791 01c9 23       		.byte	0x23
 792 01ca 2C       		.uleb128 0x2c
 793 01cb 06       		.uleb128 0x6
 794 01cc 3D000000 		.4byte	.LASF35
 795 01d0 06       		.byte	0x6
 796 01d1 B8       		.byte	0xb8
 797 01d2 3D020000 		.4byte	0x23d
 798 01d6 02       		.byte	0x2
 799 01d7 23       		.byte	0x23
 800 01d8 30       		.uleb128 0x30
 801 01d9 06       		.uleb128 0x6
 802 01da 660A0000 		.4byte	.LASF36
 803 01de 06       		.byte	0x6
 804 01df BC       		.byte	0xbc
 805 01e0 D2000000 		.4byte	0xd2
 806 01e4 02       		.byte	0x2
 807 01e5 23       		.byte	0x23
 808 01e6 38       		.uleb128 0x38
 809 01e7 06       		.uleb128 0x6
 810 01e8 A7030000 		.4byte	.LASF37
 811 01ec 06       		.byte	0x6
 812 01ed C2       		.byte	0xc2
 813 01ee DD000000 		.4byte	0xdd
 814 01f2 02       		.byte	0x2
 815 01f3 23       		.byte	0x23
 816 01f4 3C       		.uleb128 0x3c
 817 01f5 06       		.uleb128 0x6
 818 01f6 C8010000 		.4byte	.LASF38
 819 01fa 06       		.byte	0x6
 820 01fb C9       		.byte	0xc9
 821 01fc 4E040000 		.4byte	0x44e
 822 0200 02       		.byte	0x2
 823 0201 23       		.byte	0x23
 824 0202 40       		.uleb128 0x40
 825 0203 06       		.uleb128 0x6
 826 0204 1B070000 		.4byte	.LASF39
 827 0208 06       		.byte	0x6
 828 0209 CD       		.byte	0xcd
 829 020a C7000000 		.4byte	0xc7
 830 020e 02       		.byte	0x2
 831 020f 23       		.byte	0x23
 832 0210 44       		.uleb128 0x44
 833 0211 00       		.byte	0
 834 0212 08       		.uleb128 0x8
 835 0213 08       		.byte	0x8
 836 0214 05       		.byte	0x5
 837 0215 5A       		.byte	0x5a
 838 0216 37020000 		.4byte	0x237
 839 021a 06       		.uleb128 0x6
 840 021b 88010000 		.4byte	.LASF23
 841 021f 05       		.byte	0x5
 842 0220 5B       		.byte	0x5b
 843 0221 37020000 		.4byte	0x237
ARM GAS  /tmp/ccOViKkN.s 			page 16


 844 0225 02       		.byte	0x2
 845 0226 23       		.byte	0x23
 846 0227 00       		.uleb128 0
 847 0228 06       		.uleb128 0x6
 848 0229 97010000 		.4byte	.LASF24
 849 022d 05       		.byte	0x5
 850 022e 5D       		.byte	0x5d
 851 022f 37020000 		.4byte	0x237
 852 0233 02       		.byte	0x2
 853 0234 23       		.byte	0x23
 854 0235 04       		.uleb128 0x4
 855 0236 00       		.byte	0
 856 0237 09       		.uleb128 0x9
 857 0238 04       		.byte	0x4
 858 0239 FE000000 		.4byte	0xfe
 859 023d 03       		.uleb128 0x3
 860 023e 71090000 		.4byte	.LASF40
 861 0242 05       		.byte	0x5
 862 0243 5F       		.byte	0x5f
 863 0244 12020000 		.4byte	0x212
 864 0248 08       		.uleb128 0x8
 865 0249 04       		.byte	0x4
 866 024a 05       		.byte	0x5
 867 024b 64       		.byte	0x64
 868 024c 5F020000 		.4byte	0x25f
 869 0250 06       		.uleb128 0x6
 870 0251 88010000 		.4byte	.LASF23
 871 0255 05       		.byte	0x5
 872 0256 66       		.byte	0x66
 873 0257 37020000 		.4byte	0x237
 874 025b 02       		.byte	0x2
 875 025c 23       		.byte	0x23
 876 025d 00       		.uleb128 0
 877 025e 00       		.byte	0
 878 025f 03       		.uleb128 0x3
 879 0260 A1060000 		.4byte	.LASF41
 880 0264 05       		.byte	0x5
 881 0265 69       		.byte	0x69
 882 0266 48020000 		.4byte	0x248
 883 026a 03       		.uleb128 0x3
 884 026b F1010000 		.4byte	.LASF42
 885 026f 07       		.byte	0x7
 886 0270 DE       		.byte	0xde
 887 0271 75020000 		.4byte	0x275
 888 0275 0A       		.uleb128 0xa
 889 0276 04       		.byte	0x4
 890 0277 03       		.uleb128 0x3
 891 0278 53030000 		.4byte	.LASF43
 892 027c 07       		.byte	0x7
 893 027d E4       		.byte	0xe4
 894 027e 9F000000 		.4byte	0x9f
 895 0282 0B       		.uleb128 0xb
 896 0283 A0030000 		.4byte	.LASF44
 897 0287 24       		.byte	0x24
 898 0288 07       		.byte	0x7
 899 0289 0501     		.2byte	0x105
 900 028b 10030000 		.4byte	0x310
ARM GAS  /tmp/ccOViKkN.s 			page 17


 901 028f 0C       		.uleb128 0xc
 902 0290 723400   		.ascii	"r4\000"
 903 0293 07       		.byte	0x7
 904 0294 1801     		.2byte	0x118
 905 0296 6A020000 		.4byte	0x26a
 906 029a 02       		.byte	0x2
 907 029b 23       		.byte	0x23
 908 029c 00       		.uleb128 0
 909 029d 0C       		.uleb128 0xc
 910 029e 723500   		.ascii	"r5\000"
 911 02a1 07       		.byte	0x7
 912 02a2 1901     		.2byte	0x119
 913 02a4 6A020000 		.4byte	0x26a
 914 02a8 02       		.byte	0x2
 915 02a9 23       		.byte	0x23
 916 02aa 04       		.uleb128 0x4
 917 02ab 0C       		.uleb128 0xc
 918 02ac 723600   		.ascii	"r6\000"
 919 02af 07       		.byte	0x7
 920 02b0 1A01     		.2byte	0x11a
 921 02b2 6A020000 		.4byte	0x26a
 922 02b6 02       		.byte	0x2
 923 02b7 23       		.byte	0x23
 924 02b8 08       		.uleb128 0x8
 925 02b9 0C       		.uleb128 0xc
 926 02ba 723700   		.ascii	"r7\000"
 927 02bd 07       		.byte	0x7
 928 02be 1B01     		.2byte	0x11b
 929 02c0 6A020000 		.4byte	0x26a
 930 02c4 02       		.byte	0x2
 931 02c5 23       		.byte	0x23
 932 02c6 0C       		.uleb128 0xc
 933 02c7 0C       		.uleb128 0xc
 934 02c8 723800   		.ascii	"r8\000"
 935 02cb 07       		.byte	0x7
 936 02cc 1C01     		.2byte	0x11c
 937 02ce 6A020000 		.4byte	0x26a
 938 02d2 02       		.byte	0x2
 939 02d3 23       		.byte	0x23
 940 02d4 10       		.uleb128 0x10
 941 02d5 0C       		.uleb128 0xc
 942 02d6 723900   		.ascii	"r9\000"
 943 02d9 07       		.byte	0x7
 944 02da 1D01     		.2byte	0x11d
 945 02dc 6A020000 		.4byte	0x26a
 946 02e0 02       		.byte	0x2
 947 02e1 23       		.byte	0x23
 948 02e2 14       		.uleb128 0x14
 949 02e3 0C       		.uleb128 0xc
 950 02e4 72313000 		.ascii	"r10\000"
 951 02e8 07       		.byte	0x7
 952 02e9 1E01     		.2byte	0x11e
 953 02eb 6A020000 		.4byte	0x26a
 954 02ef 02       		.byte	0x2
 955 02f0 23       		.byte	0x23
 956 02f1 18       		.uleb128 0x18
 957 02f2 0C       		.uleb128 0xc
ARM GAS  /tmp/ccOViKkN.s 			page 18


 958 02f3 72313100 		.ascii	"r11\000"
 959 02f7 07       		.byte	0x7
 960 02f8 1F01     		.2byte	0x11f
 961 02fa 6A020000 		.4byte	0x26a
 962 02fe 02       		.byte	0x2
 963 02ff 23       		.byte	0x23
 964 0300 1C       		.uleb128 0x1c
 965 0301 0C       		.uleb128 0xc
 966 0302 6C7200   		.ascii	"lr\000"
 967 0305 07       		.byte	0x7
 968 0306 2001     		.2byte	0x120
 969 0308 6A020000 		.4byte	0x26a
 970 030c 02       		.byte	0x2
 971 030d 23       		.byte	0x23
 972 030e 20       		.uleb128 0x20
 973 030f 00       		.byte	0
 974 0310 0B       		.uleb128 0xb
 975 0311 52020000 		.4byte	.LASF45
 976 0315 04       		.byte	0x4
 977 0316 07       		.byte	0x7
 978 0317 2A01     		.2byte	0x12a
 979 0319 2D030000 		.4byte	0x32d
 980 031d 0C       		.uleb128 0xc
 981 031e 72313300 		.ascii	"r13\000"
 982 0322 07       		.byte	0x7
 983 0323 2B01     		.2byte	0x12b
 984 0325 2D030000 		.4byte	0x32d
 985 0329 02       		.byte	0x2
 986 032a 23       		.byte	0x23
 987 032b 00       		.uleb128 0
 988 032c 00       		.byte	0
 989 032d 09       		.uleb128 0x9
 990 032e 04       		.byte	0x4
 991 032f 82020000 		.4byte	0x282
 992 0333 0D       		.uleb128 0xd
 993 0334 86000000 		.4byte	0x86
 994 0338 0D       		.uleb128 0xd
 995 0339 F3000000 		.4byte	0xf3
 996 033d 05       		.uleb128 0x5
 997 033e A3050000 		.4byte	.LASF46
 998 0342 10       		.byte	0x10
 999 0343 08       		.byte	0x8
 1000 0344 25       		.byte	0x25
 1001 0345 74030000 		.4byte	0x374
 1002 0349 06       		.uleb128 0x6
 1003 034a DB050000 		.4byte	.LASF47
 1004 034e 08       		.byte	0x8
 1005 034f 26       		.byte	0x26
 1006 0350 3D020000 		.4byte	0x23d
 1007 0354 02       		.byte	0x2
 1008 0355 23       		.byte	0x23
 1009 0356 00       		.uleb128 0
 1010 0357 06       		.uleb128 0x6
 1011 0358 02010000 		.4byte	.LASF48
 1012 035c 08       		.byte	0x8
 1013 035d 28       		.byte	0x28
 1014 035e 37020000 		.4byte	0x237
ARM GAS  /tmp/ccOViKkN.s 			page 19


 1015 0362 02       		.byte	0x2
 1016 0363 23       		.byte	0x23
 1017 0364 08       		.uleb128 0x8
 1018 0365 06       		.uleb128 0x6
 1019 0366 450A0000 		.4byte	.LASF49
 1020 036a 08       		.byte	0x8
 1021 036b 2A       		.byte	0x2a
 1022 036c 74030000 		.4byte	0x374
 1023 0370 02       		.byte	0x2
 1024 0371 23       		.byte	0x23
 1025 0372 0C       		.uleb128 0xc
 1026 0373 00       		.byte	0
 1027 0374 09       		.uleb128 0x9
 1028 0375 04       		.byte	0x4
 1029 0376 3D030000 		.4byte	0x33d
 1030 037a 03       		.uleb128 0x3
 1031 037b A3050000 		.4byte	.LASF46
 1032 037f 08       		.byte	0x8
 1033 0380 2C       		.byte	0x2c
 1034 0381 3D030000 		.4byte	0x33d
 1035 0385 03       		.uleb128 0x3
 1036 0386 4C090000 		.4byte	.LASF50
 1037 038a 09       		.byte	0x9
 1038 038b 25       		.byte	0x25
 1039 038c 90030000 		.4byte	0x390
 1040 0390 05       		.uleb128 0x5
 1041 0391 4C090000 		.4byte	.LASF50
 1042 0395 10       		.byte	0x10
 1043 0396 09       		.byte	0x9
 1044 0397 2A       		.byte	0x2a
 1045 0398 D5030000 		.4byte	0x3d5
 1046 039c 06       		.uleb128 0x6
 1047 039d E1040000 		.4byte	.LASF51
 1048 03a1 09       		.byte	0x9
 1049 03a2 2B       		.byte	0x2b
 1050 03a3 D5030000 		.4byte	0x3d5
 1051 03a7 02       		.byte	0x2
 1052 03a8 23       		.byte	0x23
 1053 03a9 00       		.uleb128 0
 1054 03aa 06       		.uleb128 0x6
 1055 03ab 6C0A0000 		.4byte	.LASF52
 1056 03af 09       		.byte	0x9
 1057 03b0 2E       		.byte	0x2e
 1058 03b1 37020000 		.4byte	0x237
 1059 03b5 02       		.byte	0x2
 1060 03b6 23       		.byte	0x23
 1061 03b7 04       		.uleb128 0x4
 1062 03b8 06       		.uleb128 0x6
 1063 03b9 360A0000 		.4byte	.LASF53
 1064 03bd 09       		.byte	0x9
 1065 03be 30       		.byte	0x30
 1066 03bf DD000000 		.4byte	0xdd
 1067 03c3 02       		.byte	0x2
 1068 03c4 23       		.byte	0x23
 1069 03c5 08       		.uleb128 0x8
 1070 03c6 06       		.uleb128 0x6
 1071 03c7 A9000000 		.4byte	.LASF54
ARM GAS  /tmp/ccOViKkN.s 			page 20


 1072 03cb 09       		.byte	0x9
 1073 03cc 33       		.byte	0x33
 1074 03cd E8000000 		.4byte	0xe8
 1075 03d1 02       		.byte	0x2
 1076 03d2 23       		.byte	0x23
 1077 03d3 0C       		.uleb128 0xc
 1078 03d4 00       		.byte	0
 1079 03d5 09       		.uleb128 0x9
 1080 03d6 04       		.byte	0x4
 1081 03d7 85030000 		.4byte	0x385
 1082 03db 05       		.uleb128 0x5
 1083 03dc 85040000 		.4byte	.LASF55
 1084 03e0 04       		.byte	0x4
 1085 03e1 09       		.byte	0x9
 1086 03e2 3A       		.byte	0x3a
 1087 03e3 F6030000 		.4byte	0x3f6
 1088 03e7 06       		.uleb128 0x6
 1089 03e8 49040000 		.4byte	.LASF56
 1090 03ec 09       		.byte	0x9
 1091 03ed 3B       		.byte	0x3b
 1092 03ee D5030000 		.4byte	0x3d5
 1093 03f2 02       		.byte	0x2
 1094 03f3 23       		.byte	0x23
 1095 03f4 00       		.uleb128 0
 1096 03f5 00       		.byte	0
 1097 03f6 03       		.uleb128 0x3
 1098 03f7 85040000 		.4byte	.LASF55
 1099 03fb 09       		.byte	0x9
 1100 03fc 3E       		.byte	0x3e
 1101 03fd DB030000 		.4byte	0x3db
 1102 0401 0E       		.uleb128 0xe
 1103 0402 04       		.byte	0x4
 1104 0403 06       		.byte	0x6
 1105 0404 8F       		.byte	0x8f
 1106 0405 36040000 		.4byte	0x436
 1107 0409 0F       		.uleb128 0xf
 1108 040a 8B090000 		.4byte	.LASF57
 1109 040e 06       		.byte	0x6
 1110 040f 96       		.byte	0x96
 1111 0410 D2000000 		.4byte	0xd2
 1112 0414 0F       		.uleb128 0xf
 1113 0415 0A010000 		.4byte	.LASF58
 1114 0419 06       		.byte	0x6
 1115 041a 9D       		.byte	0x9d
 1116 041b D2000000 		.4byte	0xd2
 1117 041f 0F       		.uleb128 0xf
 1118 0420 39030000 		.4byte	.LASF59
 1119 0424 06       		.byte	0x6
 1120 0425 A4       		.byte	0xa4
 1121 0426 75020000 		.4byte	0x275
 1122 042a 0F       		.uleb128 0xf
 1123 042b 37020000 		.4byte	.LASF60
 1124 042f 06       		.byte	0x6
 1125 0430 AB       		.byte	0xab
 1126 0431 DD000000 		.4byte	0xdd
 1127 0435 00       		.byte	0
 1128 0436 09       		.uleb128 0x9
ARM GAS  /tmp/ccOViKkN.s 			page 21


 1129 0437 04       		.byte	0x4
 1130 0438 3C040000 		.4byte	0x43c
 1131 043c 10       		.uleb128 0x10
 1132 043d 41040000 		.4byte	0x441
 1133 0441 04       		.uleb128 0x4
 1134 0442 01       		.byte	0x1
 1135 0443 08       		.byte	0x8
 1136 0444 18030000 		.4byte	.LASF61
 1137 0448 09       		.uleb128 0x9
 1138 0449 04       		.byte	0x4
 1139 044a 77020000 		.4byte	0x277
 1140 044e 09       		.uleb128 0x9
 1141 044f 04       		.byte	0x4
 1142 0450 7A030000 		.4byte	0x37a
 1143 0454 09       		.uleb128 0x9
 1144 0455 04       		.byte	0x4
 1145 0456 5A040000 		.4byte	0x45a
 1146 045a 11       		.uleb128 0x11
 1147 045b 01       		.byte	0x1
 1148 045c D2000000 		.4byte	0xd2
 1149 0460 6A040000 		.4byte	0x46a
 1150 0464 12       		.uleb128 0x12
 1151 0465 75020000 		.4byte	0x275
 1152 0469 00       		.byte	0
 1153 046a 03       		.uleb128 0x3
 1154 046b 2C030000 		.4byte	.LASF62
 1155 046f 0A       		.byte	0xa
 1156 0470 30       		.byte	0x30
 1157 0471 75040000 		.4byte	0x475
 1158 0475 05       		.uleb128 0x5
 1159 0476 2C030000 		.4byte	.LASF62
 1160 047a 24       		.byte	0x24
 1161 047b 0A       		.byte	0xa
 1162 047c 3E       		.byte	0x3e
 1163 047d F2040000 		.4byte	0x4f2
 1164 0481 06       		.uleb128 0x6
 1165 0482 21080000 		.4byte	.LASF63
 1166 0486 0A       		.byte	0xa
 1167 0487 3F       		.byte	0x3f
 1168 0488 3D020000 		.4byte	0x23d
 1169 048c 02       		.byte	0x2
 1170 048d 23       		.byte	0x23
 1171 048e 00       		.uleb128 0
 1172 048f 06       		.uleb128 0x6
 1173 0490 51040000 		.4byte	.LASF64
 1174 0494 0A       		.byte	0xa
 1175 0495 40       		.byte	0x40
 1176 0496 30000000 		.4byte	0x30
 1177 049a 02       		.byte	0x2
 1178 049b 23       		.byte	0x23
 1179 049c 08       		.uleb128 0x8
 1180 049d 06       		.uleb128 0x6
 1181 049e 65010000 		.4byte	.LASF65
 1182 04a2 0A       		.byte	0xa
 1183 04a3 41       		.byte	0x41
 1184 04a4 15050000 		.4byte	0x515
 1185 04a8 02       		.byte	0x2
ARM GAS  /tmp/ccOViKkN.s 			page 22


 1186 04a9 23       		.byte	0x23
 1187 04aa 0C       		.uleb128 0xc
 1188 04ab 06       		.uleb128 0x6
 1189 04ac 24010000 		.4byte	.LASF66
 1190 04b0 0A       		.byte	0xa
 1191 04b1 42       		.byte	0x42
 1192 04b2 15050000 		.4byte	0x515
 1193 04b6 02       		.byte	0x2
 1194 04b7 23       		.byte	0x23
 1195 04b8 10       		.uleb128 0x10
 1196 04b9 06       		.uleb128 0x6
 1197 04ba E9040000 		.4byte	.LASF67
 1198 04be 0A       		.byte	0xa
 1199 04bf 44       		.byte	0x44
 1200 04c0 15050000 		.4byte	0x515
 1201 04c4 02       		.byte	0x2
 1202 04c5 23       		.byte	0x23
 1203 04c6 14       		.uleb128 0x14
 1204 04c7 06       		.uleb128 0x6
 1205 04c8 8F010000 		.4byte	.LASF68
 1206 04cc 0A       		.byte	0xa
 1207 04cd 45       		.byte	0x45
 1208 04ce 15050000 		.4byte	0x515
 1209 04d2 02       		.byte	0x2
 1210 04d3 23       		.byte	0x23
 1211 04d4 18       		.uleb128 0x18
 1212 04d5 06       		.uleb128 0x6
 1213 04d6 6E010000 		.4byte	.LASF69
 1214 04da 0A       		.byte	0xa
 1215 04db 46       		.byte	0x46
 1216 04dc F2040000 		.4byte	0x4f2
 1217 04e0 02       		.byte	0x2
 1218 04e1 23       		.byte	0x23
 1219 04e2 1C       		.uleb128 0x1c
 1220 04e3 06       		.uleb128 0x6
 1221 04e4 AA020000 		.4byte	.LASF70
 1222 04e8 0A       		.byte	0xa
 1223 04e9 47       		.byte	0x47
 1224 04ea 75020000 		.4byte	0x275
 1225 04ee 02       		.byte	0x2
 1226 04ef 23       		.byte	0x23
 1227 04f0 20       		.uleb128 0x20
 1228 04f1 00       		.byte	0
 1229 04f2 03       		.uleb128 0x3
 1230 04f3 26060000 		.4byte	.LASF71
 1231 04f7 0A       		.byte	0xa
 1232 04f8 33       		.byte	0x33
 1233 04f9 FD040000 		.4byte	0x4fd
 1234 04fd 09       		.uleb128 0x9
 1235 04fe 04       		.byte	0x4
 1236 04ff 03050000 		.4byte	0x503
 1237 0503 13       		.uleb128 0x13
 1238 0504 01       		.byte	0x1
 1239 0505 0F050000 		.4byte	0x50f
 1240 0509 12       		.uleb128 0x12
 1241 050a 0F050000 		.4byte	0x50f
 1242 050e 00       		.byte	0
ARM GAS  /tmp/ccOViKkN.s 			page 23


 1243 050f 09       		.uleb128 0x9
 1244 0510 04       		.byte	0x4
 1245 0511 6A040000 		.4byte	0x46a
 1246 0515 09       		.uleb128 0x9
 1247 0516 04       		.byte	0x4
 1248 0517 49000000 		.4byte	0x49
 1249 051b 03       		.uleb128 0x3
 1250 051c D3090000 		.4byte	.LASF72
 1251 0520 0A       		.byte	0xa
 1252 0521 7B       		.byte	0x7b
 1253 0522 6A040000 		.4byte	0x46a
 1254 0526 03       		.uleb128 0x3
 1255 0527 6C030000 		.4byte	.LASF73
 1256 052b 0A       		.byte	0xa
 1257 052c EE       		.byte	0xee
 1258 052d 6A040000 		.4byte	0x46a
 1259 0531 11       		.uleb128 0x11
 1260 0532 01       		.byte	0x1
 1261 0533 30000000 		.4byte	0x30
 1262 0537 4B050000 		.4byte	0x54b
 1263 053b 12       		.uleb128 0x12
 1264 053c 75020000 		.4byte	0x275
 1265 0540 12       		.uleb128 0x12
 1266 0541 4B050000 		.4byte	0x54b
 1267 0545 12       		.uleb128 0x12
 1268 0546 30000000 		.4byte	0x30
 1269 054a 00       		.byte	0
 1270 054b 09       		.uleb128 0x9
 1271 054c 04       		.byte	0x4
 1272 054d 51050000 		.4byte	0x551
 1273 0551 10       		.uleb128 0x10
 1274 0552 49000000 		.4byte	0x49
 1275 0556 09       		.uleb128 0x9
 1276 0557 04       		.byte	0x4
 1277 0558 31050000 		.4byte	0x531
 1278 055c 11       		.uleb128 0x11
 1279 055d 01       		.byte	0x1
 1280 055e 30000000 		.4byte	0x30
 1281 0562 76050000 		.4byte	0x576
 1282 0566 12       		.uleb128 0x12
 1283 0567 75020000 		.4byte	0x275
 1284 056b 12       		.uleb128 0x12
 1285 056c 15050000 		.4byte	0x515
 1286 0570 12       		.uleb128 0x12
 1287 0571 30000000 		.4byte	0x30
 1288 0575 00       		.byte	0
 1289 0576 09       		.uleb128 0x9
 1290 0577 04       		.byte	0x4
 1291 0578 5C050000 		.4byte	0x55c
 1292 057c 11       		.uleb128 0x11
 1293 057d 01       		.byte	0x1
 1294 057e D2000000 		.4byte	0xd2
 1295 0582 91050000 		.4byte	0x591
 1296 0586 12       		.uleb128 0x12
 1297 0587 75020000 		.4byte	0x275
 1298 058b 12       		.uleb128 0x12
 1299 058c 49000000 		.4byte	0x49
ARM GAS  /tmp/ccOViKkN.s 			page 24


 1300 0590 00       		.byte	0
 1301 0591 09       		.uleb128 0x9
 1302 0592 04       		.byte	0x4
 1303 0593 7C050000 		.4byte	0x57c
 1304 0597 14       		.uleb128 0x14
 1305 0598 FB060000 		.4byte	.LASF228
 1306 059c 01       		.byte	0x1
 1307 059d 0B       		.byte	0xb
 1308 059e 8C       		.byte	0x8c
 1309 059f D2070000 		.4byte	0x7d2
 1310 05a3 15       		.uleb128 0x15
 1311 05a4 67040000 		.4byte	.LASF74
 1312 05a8 72       		.sleb128 -14
 1313 05a9 15       		.uleb128 0x15
 1314 05aa AD040000 		.4byte	.LASF75
 1315 05ae 74       		.sleb128 -12
 1316 05af 15       		.uleb128 0x15
 1317 05b0 4E050000 		.4byte	.LASF76
 1318 05b4 75       		.sleb128 -11
 1319 05b5 15       		.uleb128 0x15
 1320 05b6 08030000 		.4byte	.LASF77
 1321 05ba 76       		.sleb128 -10
 1322 05bb 15       		.uleb128 0x15
 1323 05bc F3050000 		.4byte	.LASF78
 1324 05c0 7B       		.sleb128 -5
 1325 05c1 15       		.uleb128 0x15
 1326 05c2 74080000 		.4byte	.LASF79
 1327 05c6 7C       		.sleb128 -4
 1328 05c7 15       		.uleb128 0x15
 1329 05c8 E9090000 		.4byte	.LASF80
 1330 05cc 7E       		.sleb128 -2
 1331 05cd 15       		.uleb128 0x15
 1332 05ce 0C020000 		.4byte	.LASF81
 1333 05d2 7F       		.sleb128 -1
 1334 05d3 15       		.uleb128 0x15
 1335 05d4 91040000 		.4byte	.LASF82
 1336 05d8 00       		.sleb128 0
 1337 05d9 15       		.uleb128 0x15
 1338 05da 0B080000 		.4byte	.LASF83
 1339 05de 01       		.sleb128 1
 1340 05df 15       		.uleb128 0x15
 1341 05e0 C3040000 		.4byte	.LASF84
 1342 05e4 02       		.sleb128 2
 1343 05e5 15       		.uleb128 0x15
 1344 05e6 32090000 		.4byte	.LASF85
 1345 05ea 03       		.sleb128 3
 1346 05eb 15       		.uleb128 0x15
 1347 05ec 94000000 		.4byte	.LASF86
 1348 05f0 04       		.sleb128 4
 1349 05f1 15       		.uleb128 0x15
 1350 05f2 D5080000 		.4byte	.LASF87
 1351 05f6 05       		.sleb128 5
 1352 05f7 15       		.uleb128 0x15
 1353 05f8 2B080000 		.4byte	.LASF88
 1354 05fc 06       		.sleb128 6
 1355 05fd 15       		.uleb128 0x15
 1356 05fe 07040000 		.4byte	.LASF89
ARM GAS  /tmp/ccOViKkN.s 			page 25


 1357 0602 07       		.sleb128 7
 1358 0603 15       		.uleb128 0x15
 1359 0604 DF070000 		.4byte	.LASF90
 1360 0608 08       		.sleb128 8
 1361 0609 15       		.uleb128 0x15
 1362 060a DE090000 		.4byte	.LASF91
 1363 060e 09       		.sleb128 9
 1364 060f 15       		.uleb128 0x15
 1365 0610 92090000 		.4byte	.LASF92
 1366 0614 0A       		.sleb128 10
 1367 0615 15       		.uleb128 0x15
 1368 0616 38070000 		.4byte	.LASF93
 1369 061a 0B       		.sleb128 11
 1370 061b 15       		.uleb128 0x15
 1371 061c B7060000 		.4byte	.LASF94
 1372 0620 0C       		.sleb128 12
 1373 0621 15       		.uleb128 0x15
 1374 0622 5A020000 		.4byte	.LASF95
 1375 0626 0D       		.sleb128 13
 1376 0627 15       		.uleb128 0x15
 1377 0628 E5080000 		.4byte	.LASF96
 1378 062c 0E       		.sleb128 14
 1379 062d 15       		.uleb128 0x15
 1380 062e 3E080000 		.4byte	.LASF97
 1381 0632 0F       		.sleb128 15
 1382 0633 15       		.uleb128 0x15
 1383 0634 1F040000 		.4byte	.LASF98
 1384 0638 10       		.sleb128 16
 1385 0639 15       		.uleb128 0x15
 1386 063a 00070000 		.4byte	.LASF99
 1387 063e 11       		.sleb128 17
 1388 063f 15       		.uleb128 0x15
 1389 0640 F8070000 		.4byte	.LASF100
 1390 0644 12       		.sleb128 18
 1391 0645 15       		.uleb128 0x15
 1392 0646 12040000 		.4byte	.LASF101
 1393 064a 13       		.sleb128 19
 1394 064b 15       		.uleb128 0x15
 1395 064c 40030000 		.4byte	.LASF102
 1396 0650 14       		.sleb128 20
 1397 0651 15       		.uleb128 0x15
 1398 0652 63090000 		.4byte	.LASF103
 1399 0656 15       		.sleb128 21
 1400 0657 15       		.uleb128 0x15
 1401 0658 D3040000 		.4byte	.LASF104
 1402 065c 16       		.sleb128 22
 1403 065d 15       		.uleb128 0x15
 1404 065e 7E090000 		.4byte	.LASF105
 1405 0662 17       		.sleb128 23
 1406 0663 15       		.uleb128 0x15
 1407 0664 7B050000 		.4byte	.LASF106
 1408 0668 18       		.sleb128 24
 1409 0669 15       		.uleb128 0x15
 1410 066a FE080000 		.4byte	.LASF107
 1411 066e 19       		.sleb128 25
 1412 066f 15       		.uleb128 0x15
 1413 0670 D2010000 		.4byte	.LASF108
ARM GAS  /tmp/ccOViKkN.s 			page 26


 1414 0674 1A       		.sleb128 26
 1415 0675 15       		.uleb128 0x15
 1416 0676 EC030000 		.4byte	.LASF109
 1417 067a 1B       		.sleb128 27
 1418 067b 15       		.uleb128 0x15
 1419 067c C4000000 		.4byte	.LASF110
 1420 0680 1C       		.sleb128 28
 1421 0681 15       		.uleb128 0x15
 1422 0682 C9070000 		.4byte	.LASF111
 1423 0686 1D       		.sleb128 29
 1424 0687 15       		.uleb128 0x15
 1425 0688 78030000 		.4byte	.LASF112
 1426 068c 1E       		.sleb128 30
 1427 068d 15       		.uleb128 0x15
 1428 068e 93030000 		.4byte	.LASF113
 1429 0692 1F       		.sleb128 31
 1430 0693 15       		.uleb128 0x15
 1431 0694 BB020000 		.4byte	.LASF114
 1432 0698 20       		.sleb128 32
 1433 0699 15       		.uleb128 0x15
 1434 069a 8B060000 		.4byte	.LASF115
 1435 069e 21       		.sleb128 33
 1436 069f 15       		.uleb128 0x15
 1437 06a0 41050000 		.4byte	.LASF116
 1438 06a4 22       		.sleb128 34
 1439 06a5 15       		.uleb128 0x15
 1440 06a6 E9050000 		.4byte	.LASF117
 1441 06aa 23       		.sleb128 35
 1442 06ab 15       		.uleb128 0x15
 1443 06ac 2A010000 		.4byte	.LASF118
 1444 06b0 24       		.sleb128 36
 1445 06b1 15       		.uleb128 0x15
 1446 06b2 D3070000 		.4byte	.LASF119
 1447 06b6 25       		.sleb128 37
 1448 06b7 15       		.uleb128 0x15
 1449 06b8 82030000 		.4byte	.LASF120
 1450 06bc 26       		.sleb128 38
 1451 06bd 15       		.uleb128 0x15
 1452 06be 19020000 		.4byte	.LASF121
 1453 06c2 27       		.sleb128 39
 1454 06c3 15       		.uleb128 0x15
 1455 06c4 8C070000 		.4byte	.LASF122
 1456 06c8 28       		.sleb128 40
 1457 06c9 15       		.uleb128 0x15
 1458 06ca 5E070000 		.4byte	.LASF123
 1459 06ce 29       		.sleb128 41
 1460 06cf 15       		.uleb128 0x15
 1461 06d0 52060000 		.4byte	.LASF124
 1462 06d4 2A       		.sleb128 42
 1463 06d5 15       		.uleb128 0x15
 1464 06d6 34010000 		.4byte	.LASF125
 1465 06da 2B       		.sleb128 43
 1466 06db 15       		.uleb128 0x15
 1467 06dc 07000000 		.4byte	.LASF126
 1468 06e0 2C       		.sleb128 44
 1469 06e1 15       		.uleb128 0x15
 1470 06e2 31040000 		.4byte	.LASF127
ARM GAS  /tmp/ccOViKkN.s 			page 27


 1471 06e6 2D       		.sleb128 45
 1472 06e7 15       		.uleb128 0x15
 1473 06e8 BC090000 		.4byte	.LASF128
 1474 06ec 2E       		.sleb128 46
 1475 06ed 15       		.uleb128 0x15
 1476 06ee 130A0000 		.4byte	.LASF129
 1477 06f2 2F       		.sleb128 47
 1478 06f3 15       		.uleb128 0x15
 1479 06f4 7B040000 		.4byte	.LASF130
 1480 06f8 30       		.sleb128 48
 1481 06f9 15       		.uleb128 0x15
 1482 06fa C9090000 		.4byte	.LASF131
 1483 06fe 31       		.sleb128 49
 1484 06ff 15       		.uleb128 0x15
 1485 0700 F4020000 		.4byte	.LASF132
 1486 0704 32       		.sleb128 50
 1487 0705 15       		.uleb128 0x15
 1488 0706 8A000000 		.4byte	.LASF133
 1489 070a 33       		.sleb128 51
 1490 070b 15       		.uleb128 0x15
 1491 070c 11060000 		.4byte	.LASF134
 1492 0710 34       		.sleb128 52
 1493 0711 15       		.uleb128 0x15
 1494 0712 70050000 		.4byte	.LASF135
 1495 0716 35       		.sleb128 53
 1496 0717 15       		.uleb128 0x15
 1497 0718 7D060000 		.4byte	.LASF136
 1498 071c 36       		.sleb128 54
 1499 071d 15       		.uleb128 0x15
 1500 071e A9050000 		.4byte	.LASF137
 1501 0722 37       		.sleb128 55
 1502 0723 15       		.uleb128 0x15
 1503 0724 3A060000 		.4byte	.LASF138
 1504 0728 38       		.sleb128 56
 1505 0729 15       		.uleb128 0x15
 1506 072a 6F000000 		.4byte	.LASF139
 1507 072e 39       		.sleb128 57
 1508 072f 15       		.uleb128 0x15
 1509 0730 540A0000 		.4byte	.LASF140
 1510 0734 3A       		.sleb128 58
 1511 0735 15       		.uleb128 0x15
 1512 0736 D5060000 		.4byte	.LASF141
 1513 073a 3B       		.sleb128 59
 1514 073b 15       		.uleb128 0x15
 1515 073c 8E020000 		.4byte	.LASF142
 1516 0740 3C       		.sleb128 60
 1517 0741 15       		.uleb128 0x15
 1518 0742 A5080000 		.4byte	.LASF143
 1519 0746 3D       		.sleb128 61
 1520 0747 15       		.uleb128 0x15
 1521 0748 C1050000 		.4byte	.LASF144
 1522 074c 3E       		.sleb128 62
 1523 074d 15       		.uleb128 0x15
 1524 074e E7060000 		.4byte	.LASF145
 1525 0752 3F       		.sleb128 63
 1526 0753 15       		.uleb128 0x15
 1527 0754 E8000000 		.4byte	.LASF146
ARM GAS  /tmp/ccOViKkN.s 			page 28


 1528 0758 C000     		.sleb128 64
 1529 075a 15       		.uleb128 0x15
 1530 075b EA070000 		.4byte	.LASF147
 1531 075f C100     		.sleb128 65
 1532 0761 15       		.uleb128 0x15
 1533 0762 C8020000 		.4byte	.LASF148
 1534 0766 C200     		.sleb128 66
 1535 0768 15       		.uleb128 0x15
 1536 0769 5B040000 		.4byte	.LASF149
 1537 076d C300     		.sleb128 67
 1538 076f 15       		.uleb128 0x15
 1539 0770 AD010000 		.4byte	.LASF150
 1540 0774 C400     		.sleb128 68
 1541 0776 15       		.uleb128 0x15
 1542 0777 5A080000 		.4byte	.LASF151
 1543 077b C500     		.sleb128 69
 1544 077d 15       		.uleb128 0x15
 1545 077e 26070000 		.4byte	.LASF152
 1546 0782 C600     		.sleb128 70
 1547 0784 15       		.uleb128 0x15
 1548 0785 F6000000 		.4byte	.LASF153
 1549 0789 C700     		.sleb128 71
 1550 078b 15       		.uleb128 0x15
 1551 078c 8F080000 		.4byte	.LASF154
 1552 0790 C800     		.sleb128 72
 1553 0792 15       		.uleb128 0x15
 1554 0793 75070000 		.4byte	.LASF155
 1555 0797 C900     		.sleb128 73
 1556 0799 15       		.uleb128 0x15
 1557 079a 1E090000 		.4byte	.LASF156
 1558 079e CA00     		.sleb128 74
 1559 07a0 15       		.uleb128 0x15
 1560 07a1 F5090000 		.4byte	.LASF157
 1561 07a5 CB00     		.sleb128 75
 1562 07a7 15       		.uleb128 0x15
 1563 07a8 13010000 		.4byte	.LASF158
 1564 07ac CC00     		.sleb128 76
 1565 07ae 15       		.uleb128 0x15
 1566 07af CF050000 		.4byte	.LASF159
 1567 07b3 CD00     		.sleb128 77
 1568 07b5 15       		.uleb128 0x15
 1569 07b6 9F000000 		.4byte	.LASF160
 1570 07ba CE00     		.sleb128 78
 1571 07bc 15       		.uleb128 0x15
 1572 07bd 82070000 		.4byte	.LASF161
 1573 07c1 CF00     		.sleb128 79
 1574 07c3 15       		.uleb128 0x15
 1575 07c4 F9030000 		.4byte	.LASF162
 1576 07c8 D000     		.sleb128 80
 1577 07ca 15       		.uleb128 0x15
 1578 07cb 08060000 		.4byte	.LASF163
 1579 07cf D100     		.sleb128 81
 1580 07d1 00       		.byte	0
 1581 07d2 16       		.uleb128 0x16
 1582 07d3 86000000 		.4byte	0x86
 1583 07d7 E2070000 		.4byte	0x7e2
 1584 07db 17       		.uleb128 0x17
ARM GAS  /tmp/ccOViKkN.s 			page 29


 1585 07dc 3B000000 		.4byte	0x3b
 1586 07e0 01       		.byte	0x1
 1587 07e1 00       		.byte	0
 1588 07e2 0D       		.uleb128 0xd
 1589 07e3 62000000 		.4byte	0x62
 1590 07e7 0D       		.uleb128 0xd
 1591 07e8 74000000 		.4byte	0x74
 1592 07ec 18       		.uleb128 0x18
 1593 07ed 88       		.byte	0x88
 1594 07ee 0B       		.byte	0xb
 1595 07ef DB02     		.2byte	0x2db
 1596 07f1 B9090000 		.4byte	0x9b9
 1597 07f5 0C       		.uleb128 0xc
 1598 07f6 435200   		.ascii	"CR\000"
 1599 07f9 0B       		.byte	0xb
 1600 07fa DD02     		.2byte	0x2dd
 1601 07fc 33030000 		.4byte	0x333
 1602 0800 02       		.byte	0x2
 1603 0801 23       		.byte	0x23
 1604 0802 00       		.uleb128 0
 1605 0803 19       		.uleb128 0x19
 1606 0804 68050000 		.4byte	.LASF164
 1607 0808 0B       		.byte	0xb
 1608 0809 DE02     		.2byte	0x2de
 1609 080b 33030000 		.4byte	0x333
 1610 080f 02       		.byte	0x2
 1611 0810 23       		.byte	0x23
 1612 0811 04       		.uleb128 0x4
 1613 0812 19       		.uleb128 0x19
 1614 0813 E7030000 		.4byte	.LASF165
 1615 0817 0B       		.byte	0xb
 1616 0818 DF02     		.2byte	0x2df
 1617 081a 33030000 		.4byte	0x333
 1618 081e 02       		.byte	0x2
 1619 081f 23       		.byte	0x23
 1620 0820 08       		.uleb128 0x8
 1621 0821 0C       		.uleb128 0xc
 1622 0822 43495200 		.ascii	"CIR\000"
 1623 0826 0B       		.byte	0xb
 1624 0827 E002     		.2byte	0x2e0
 1625 0829 33030000 		.4byte	0x333
 1626 082d 02       		.byte	0x2
 1627 082e 23       		.byte	0x23
 1628 082f 0C       		.uleb128 0xc
 1629 0830 19       		.uleb128 0x19
 1630 0831 250A0000 		.4byte	.LASF166
 1631 0835 0B       		.byte	0xb
 1632 0836 E102     		.2byte	0x2e1
 1633 0838 33030000 		.4byte	0x333
 1634 083c 02       		.byte	0x2
 1635 083d 23       		.byte	0x23
 1636 083e 10       		.uleb128 0x10
 1637 083f 19       		.uleb128 0x19
 1638 0840 9C080000 		.4byte	.LASF167
 1639 0844 0B       		.byte	0xb
 1640 0845 E202     		.2byte	0x2e2
 1641 0847 33030000 		.4byte	0x333
ARM GAS  /tmp/ccOViKkN.s 			page 30


 1642 084b 02       		.byte	0x2
 1643 084c 23       		.byte	0x23
 1644 084d 14       		.uleb128 0x14
 1645 084e 19       		.uleb128 0x19
 1646 084f 12070000 		.4byte	.LASF168
 1647 0853 0B       		.byte	0xb
 1648 0854 E302     		.2byte	0x2e3
 1649 0856 33030000 		.4byte	0x333
 1650 085a 02       		.byte	0x2
 1651 085b 23       		.byte	0x23
 1652 085c 18       		.uleb128 0x18
 1653 085d 19       		.uleb128 0x19
 1654 085e 6C020000 		.4byte	.LASF169
 1655 0862 0B       		.byte	0xb
 1656 0863 E402     		.2byte	0x2e4
 1657 0865 86000000 		.4byte	0x86
 1658 0869 02       		.byte	0x2
 1659 086a 23       		.byte	0x23
 1660 086b 1C       		.uleb128 0x1c
 1661 086c 19       		.uleb128 0x19
 1662 086d 4A070000 		.4byte	.LASF170
 1663 0871 0B       		.byte	0xb
 1664 0872 E502     		.2byte	0x2e5
 1665 0874 33030000 		.4byte	0x333
 1666 0878 02       		.byte	0x2
 1667 0879 23       		.byte	0x23
 1668 087a 20       		.uleb128 0x20
 1669 087b 19       		.uleb128 0x19
 1670 087c FF050000 		.4byte	.LASF171
 1671 0880 0B       		.byte	0xb
 1672 0881 E602     		.2byte	0x2e6
 1673 0883 33030000 		.4byte	0x333
 1674 0887 02       		.byte	0x2
 1675 0888 23       		.byte	0x23
 1676 0889 24       		.uleb128 0x24
 1677 088a 19       		.uleb128 0x19
 1678 088b 76020000 		.4byte	.LASF172
 1679 088f 0B       		.byte	0xb
 1680 0890 E702     		.2byte	0x2e7
 1681 0892 D2070000 		.4byte	0x7d2
 1682 0896 02       		.byte	0x2
 1683 0897 23       		.byte	0x23
 1684 0898 28       		.uleb128 0x28
 1685 0899 19       		.uleb128 0x19
 1686 089a 6C080000 		.4byte	.LASF173
 1687 089e 0B       		.byte	0xb
 1688 089f E802     		.2byte	0x2e8
 1689 08a1 33030000 		.4byte	0x333
 1690 08a5 02       		.byte	0x2
 1691 08a6 23       		.byte	0x23
 1692 08a7 30       		.uleb128 0x30
 1693 08a8 19       		.uleb128 0x19
 1694 08a9 24030000 		.4byte	.LASF174
 1695 08ad 0B       		.byte	0xb
 1696 08ae E902     		.2byte	0x2e9
 1697 08b0 33030000 		.4byte	0x333
 1698 08b4 02       		.byte	0x2
ARM GAS  /tmp/ccOViKkN.s 			page 31


 1699 08b5 23       		.byte	0x23
 1700 08b6 34       		.uleb128 0x34
 1701 08b7 19       		.uleb128 0x19
 1702 08b8 4C0A0000 		.4byte	.LASF175
 1703 08bc 0B       		.byte	0xb
 1704 08bd EA02     		.2byte	0x2ea
 1705 08bf 33030000 		.4byte	0x333
 1706 08c3 02       		.byte	0x2
 1707 08c4 23       		.byte	0x23
 1708 08c5 38       		.uleb128 0x38
 1709 08c6 19       		.uleb128 0x19
 1710 08c7 E0020000 		.4byte	.LASF176
 1711 08cb 0B       		.byte	0xb
 1712 08cc EB02     		.2byte	0x2eb
 1713 08ce 86000000 		.4byte	0x86
 1714 08d2 02       		.byte	0x2
 1715 08d3 23       		.byte	0x23
 1716 08d4 3C       		.uleb128 0x3c
 1717 08d5 19       		.uleb128 0x19
 1718 08d6 6D070000 		.4byte	.LASF177
 1719 08da 0B       		.byte	0xb
 1720 08db EC02     		.2byte	0x2ec
 1721 08dd 33030000 		.4byte	0x333
 1722 08e1 02       		.byte	0x2
 1723 08e2 23       		.byte	0x23
 1724 08e3 40       		.uleb128 0x40
 1725 08e4 19       		.uleb128 0x19
 1726 08e5 FA010000 		.4byte	.LASF178
 1727 08e9 0B       		.byte	0xb
 1728 08ea ED02     		.2byte	0x2ed
 1729 08ec 33030000 		.4byte	0x333
 1730 08f0 02       		.byte	0x2
 1731 08f1 23       		.byte	0x23
 1732 08f2 44       		.uleb128 0x44
 1733 08f3 19       		.uleb128 0x19
 1734 08f4 EA020000 		.4byte	.LASF179
 1735 08f8 0B       		.byte	0xb
 1736 08f9 EE02     		.2byte	0x2ee
 1737 08fb D2070000 		.4byte	0x7d2
 1738 08ff 02       		.byte	0x2
 1739 0900 23       		.byte	0x23
 1740 0901 48       		.uleb128 0x48
 1741 0902 19       		.uleb128 0x19
 1742 0903 02020000 		.4byte	.LASF180
 1743 0907 0B       		.byte	0xb
 1744 0908 EF02     		.2byte	0x2ef
 1745 090a 33030000 		.4byte	0x333
 1746 090e 02       		.byte	0x2
 1747 090f 23       		.byte	0x23
 1748 0910 50       		.uleb128 0x50
 1749 0911 19       		.uleb128 0x19
 1750 0912 48010000 		.4byte	.LASF181
 1751 0916 0B       		.byte	0xb
 1752 0917 F002     		.2byte	0x2f0
 1753 0919 33030000 		.4byte	0x333
 1754 091d 02       		.byte	0x2
 1755 091e 23       		.byte	0x23
ARM GAS  /tmp/ccOViKkN.s 			page 32


 1756 091f 54       		.uleb128 0x54
 1757 0920 19       		.uleb128 0x19
 1758 0921 01080000 		.4byte	.LASF182
 1759 0925 0B       		.byte	0xb
 1760 0926 F102     		.2byte	0x2f1
 1761 0928 33030000 		.4byte	0x333
 1762 092c 02       		.byte	0x2
 1763 092d 23       		.byte	0x23
 1764 092e 58       		.uleb128 0x58
 1765 092f 19       		.uleb128 0x19
 1766 0930 A0020000 		.4byte	.LASF183
 1767 0934 0B       		.byte	0xb
 1768 0935 F202     		.2byte	0x2f2
 1769 0937 86000000 		.4byte	0x86
 1770 093b 02       		.byte	0x2
 1771 093c 23       		.byte	0x23
 1772 093d 5C       		.uleb128 0x5c
 1773 093e 19       		.uleb128 0x19
 1774 093f AD060000 		.4byte	.LASF184
 1775 0943 0B       		.byte	0xb
 1776 0944 F302     		.2byte	0x2f3
 1777 0946 33030000 		.4byte	0x333
 1778 094a 02       		.byte	0x2
 1779 094b 23       		.byte	0x23
 1780 094c 60       		.uleb128 0x60
 1781 094d 19       		.uleb128 0x19
 1782 094e 1C060000 		.4byte	.LASF185
 1783 0952 0B       		.byte	0xb
 1784 0953 F402     		.2byte	0x2f4
 1785 0955 33030000 		.4byte	0x333
 1786 0959 02       		.byte	0x2
 1787 095a 23       		.byte	0x23
 1788 095b 64       		.uleb128 0x64
 1789 095c 19       		.uleb128 0x19
 1790 095d FE020000 		.4byte	.LASF186
 1791 0961 0B       		.byte	0xb
 1792 0962 F502     		.2byte	0x2f5
 1793 0964 D2070000 		.4byte	0x7d2
 1794 0968 02       		.byte	0x2
 1795 0969 23       		.byte	0x23
 1796 096a 68       		.uleb128 0x68
 1797 096b 19       		.uleb128 0x19
 1798 096c 8E030000 		.4byte	.LASF187
 1799 0970 0B       		.byte	0xb
 1800 0971 F602     		.2byte	0x2f6
 1801 0973 33030000 		.4byte	0x333
 1802 0977 02       		.byte	0x2
 1803 0978 23       		.byte	0x23
 1804 0979 70       		.uleb128 0x70
 1805 097a 0C       		.uleb128 0xc
 1806 097b 43535200 		.ascii	"CSR\000"
 1807 097f 0B       		.byte	0xb
 1808 0980 F702     		.2byte	0x2f7
 1809 0982 33030000 		.4byte	0x333
 1810 0986 02       		.byte	0x2
 1811 0987 23       		.byte	0x23
 1812 0988 74       		.uleb128 0x74
ARM GAS  /tmp/ccOViKkN.s 			page 33


 1813 0989 19       		.uleb128 0x19
 1814 098a B1020000 		.4byte	.LASF188
 1815 098e 0B       		.byte	0xb
 1816 098f F802     		.2byte	0x2f8
 1817 0991 D2070000 		.4byte	0x7d2
 1818 0995 02       		.byte	0x2
 1819 0996 23       		.byte	0x23
 1820 0997 78       		.uleb128 0x78
 1821 0998 19       		.uleb128 0x19
 1822 0999 E3050000 		.4byte	.LASF189
 1823 099d 0B       		.byte	0xb
 1824 099e F902     		.2byte	0x2f9
 1825 09a0 33030000 		.4byte	0x333
 1826 09a4 03       		.byte	0x3
 1827 09a5 23       		.byte	0x23
 1828 09a6 8001     		.uleb128 0x80
 1829 09a8 19       		.uleb128 0x19
 1830 09a9 24000000 		.4byte	.LASF190
 1831 09ad 0B       		.byte	0xb
 1832 09ae FA02     		.2byte	0x2fa
 1833 09b0 33030000 		.4byte	0x333
 1834 09b4 03       		.byte	0x3
 1835 09b5 23       		.byte	0x23
 1836 09b6 8401     		.uleb128 0x84
 1837 09b8 00       		.byte	0
 1838 09b9 1A       		.uleb128 0x1a
 1839 09ba B6080000 		.4byte	.LASF191
 1840 09be 0B       		.byte	0xb
 1841 09bf FB02     		.2byte	0x2fb
 1842 09c1 EC070000 		.4byte	0x7ec
 1843 09c5 18       		.uleb128 0x18
 1844 09c6 1C       		.byte	0x1c
 1845 09c7 0B       		.byte	0xb
 1846 09c8 9303     		.2byte	0x393
 1847 09ca 9F0A0000 		.4byte	0xa9f
 1848 09ce 0C       		.uleb128 0xc
 1849 09cf 535200   		.ascii	"SR\000"
 1850 09d2 0B       		.byte	0xb
 1851 09d3 9503     		.2byte	0x395
 1852 09d5 E2070000 		.4byte	0x7e2
 1853 09d9 02       		.byte	0x2
 1854 09da 23       		.byte	0x23
 1855 09db 00       		.uleb128 0
 1856 09dc 19       		.uleb128 0x19
 1857 09dd 6C020000 		.4byte	.LASF169
 1858 09e1 0B       		.byte	0xb
 1859 09e2 9603     		.2byte	0x396
 1860 09e4 62000000 		.4byte	0x62
 1861 09e8 02       		.byte	0x2
 1862 09e9 23       		.byte	0x23
 1863 09ea 02       		.uleb128 0x2
 1864 09eb 0C       		.uleb128 0xc
 1865 09ec 445200   		.ascii	"DR\000"
 1866 09ef 0B       		.byte	0xb
 1867 09f0 9703     		.2byte	0x397
 1868 09f2 E2070000 		.4byte	0x7e2
 1869 09f6 02       		.byte	0x2
ARM GAS  /tmp/ccOViKkN.s 			page 34


 1870 09f7 23       		.byte	0x23
 1871 09f8 04       		.uleb128 0x4
 1872 09f9 19       		.uleb128 0x19
 1873 09fa 76020000 		.4byte	.LASF172
 1874 09fe 0B       		.byte	0xb
 1875 09ff 9803     		.2byte	0x398
 1876 0a01 62000000 		.4byte	0x62
 1877 0a05 02       		.byte	0x2
 1878 0a06 23       		.byte	0x23
 1879 0a07 06       		.uleb128 0x6
 1880 0a08 0C       		.uleb128 0xc
 1881 0a09 42525200 		.ascii	"BRR\000"
 1882 0a0d 0B       		.byte	0xb
 1883 0a0e 9903     		.2byte	0x399
 1884 0a10 E2070000 		.4byte	0x7e2
 1885 0a14 02       		.byte	0x2
 1886 0a15 23       		.byte	0x23
 1887 0a16 08       		.uleb128 0x8
 1888 0a17 19       		.uleb128 0x19
 1889 0a18 E0020000 		.4byte	.LASF176
 1890 0a1c 0B       		.byte	0xb
 1891 0a1d 9A03     		.2byte	0x39a
 1892 0a1f 62000000 		.4byte	0x62
 1893 0a23 02       		.byte	0x2
 1894 0a24 23       		.byte	0x23
 1895 0a25 0A       		.uleb128 0xa
 1896 0a26 0C       		.uleb128 0xc
 1897 0a27 43523100 		.ascii	"CR1\000"
 1898 0a2b 0B       		.byte	0xb
 1899 0a2c 9B03     		.2byte	0x39b
 1900 0a2e E2070000 		.4byte	0x7e2
 1901 0a32 02       		.byte	0x2
 1902 0a33 23       		.byte	0x23
 1903 0a34 0C       		.uleb128 0xc
 1904 0a35 19       		.uleb128 0x19
 1905 0a36 EA020000 		.4byte	.LASF179
 1906 0a3a 0B       		.byte	0xb
 1907 0a3b 9C03     		.2byte	0x39c
 1908 0a3d 62000000 		.4byte	0x62
 1909 0a41 02       		.byte	0x2
 1910 0a42 23       		.byte	0x23
 1911 0a43 0E       		.uleb128 0xe
 1912 0a44 0C       		.uleb128 0xc
 1913 0a45 43523200 		.ascii	"CR2\000"
 1914 0a49 0B       		.byte	0xb
 1915 0a4a 9D03     		.2byte	0x39d
 1916 0a4c E2070000 		.4byte	0x7e2
 1917 0a50 02       		.byte	0x2
 1918 0a51 23       		.byte	0x23
 1919 0a52 10       		.uleb128 0x10
 1920 0a53 19       		.uleb128 0x19
 1921 0a54 A0020000 		.4byte	.LASF183
 1922 0a58 0B       		.byte	0xb
 1923 0a59 9E03     		.2byte	0x39e
 1924 0a5b 62000000 		.4byte	0x62
 1925 0a5f 02       		.byte	0x2
 1926 0a60 23       		.byte	0x23
ARM GAS  /tmp/ccOViKkN.s 			page 35


 1927 0a61 12       		.uleb128 0x12
 1928 0a62 0C       		.uleb128 0xc
 1929 0a63 43523300 		.ascii	"CR3\000"
 1930 0a67 0B       		.byte	0xb
 1931 0a68 9F03     		.2byte	0x39f
 1932 0a6a E2070000 		.4byte	0x7e2
 1933 0a6e 02       		.byte	0x2
 1934 0a6f 23       		.byte	0x23
 1935 0a70 14       		.uleb128 0x14
 1936 0a71 19       		.uleb128 0x19
 1937 0a72 FE020000 		.4byte	.LASF186
 1938 0a76 0B       		.byte	0xb
 1939 0a77 A003     		.2byte	0x3a0
 1940 0a79 62000000 		.4byte	0x62
 1941 0a7d 02       		.byte	0x2
 1942 0a7e 23       		.byte	0x23
 1943 0a7f 16       		.uleb128 0x16
 1944 0a80 19       		.uleb128 0x19
 1945 0a81 64000000 		.4byte	.LASF192
 1946 0a85 0B       		.byte	0xb
 1947 0a86 A103     		.2byte	0x3a1
 1948 0a88 E2070000 		.4byte	0x7e2
 1949 0a8c 02       		.byte	0x2
 1950 0a8d 23       		.byte	0x23
 1951 0a8e 18       		.uleb128 0x18
 1952 0a8f 19       		.uleb128 0x19
 1953 0a90 B1020000 		.4byte	.LASF188
 1954 0a94 0B       		.byte	0xb
 1955 0a95 A203     		.2byte	0x3a2
 1956 0a97 62000000 		.4byte	0x62
 1957 0a9b 02       		.byte	0x2
 1958 0a9c 23       		.byte	0x23
 1959 0a9d 1A       		.uleb128 0x1a
 1960 0a9e 00       		.byte	0
 1961 0a9f 1A       		.uleb128 0x1a
 1962 0aa0 5E030000 		.4byte	.LASF193
 1963 0aa4 0B       		.byte	0xb
 1964 0aa5 A303     		.2byte	0x3a3
 1965 0aa7 C5090000 		.4byte	0x9c5
 1966 0aab 11       		.uleb128 0x11
 1967 0aac 01       		.byte	0x1
 1968 0aad D2000000 		.4byte	0xd2
 1969 0ab1 C50A0000 		.4byte	0xac5
 1970 0ab5 12       		.uleb128 0x12
 1971 0ab6 75020000 		.4byte	0x275
 1972 0aba 12       		.uleb128 0x12
 1973 0abb 49000000 		.4byte	0x49
 1974 0abf 12       		.uleb128 0x12
 1975 0ac0 F3000000 		.4byte	0xf3
 1976 0ac4 00       		.byte	0
 1977 0ac5 09       		.uleb128 0x9
 1978 0ac6 04       		.byte	0x4
 1979 0ac7 AB0A0000 		.4byte	0xaab
 1980 0acb 11       		.uleb128 0x11
 1981 0acc 01       		.byte	0x1
 1982 0acd D2000000 		.4byte	0xd2
 1983 0ad1 E00A0000 		.4byte	0xae0
ARM GAS  /tmp/ccOViKkN.s 			page 36


 1984 0ad5 12       		.uleb128 0x12
 1985 0ad6 75020000 		.4byte	0x275
 1986 0ada 12       		.uleb128 0x12
 1987 0adb F3000000 		.4byte	0xf3
 1988 0adf 00       		.byte	0
 1989 0ae0 09       		.uleb128 0x9
 1990 0ae1 04       		.byte	0x4
 1991 0ae2 CB0A0000 		.4byte	0xacb
 1992 0ae6 11       		.uleb128 0x11
 1993 0ae7 01       		.byte	0x1
 1994 0ae8 30000000 		.4byte	0x30
 1995 0aec 050B0000 		.4byte	0xb05
 1996 0af0 12       		.uleb128 0x12
 1997 0af1 75020000 		.4byte	0x275
 1998 0af5 12       		.uleb128 0x12
 1999 0af6 4B050000 		.4byte	0x54b
 2000 0afa 12       		.uleb128 0x12
 2001 0afb 30000000 		.4byte	0x30
 2002 0aff 12       		.uleb128 0x12
 2003 0b00 F3000000 		.4byte	0xf3
 2004 0b04 00       		.byte	0
 2005 0b05 09       		.uleb128 0x9
 2006 0b06 04       		.byte	0x4
 2007 0b07 E60A0000 		.4byte	0xae6
 2008 0b0b 11       		.uleb128 0x11
 2009 0b0c 01       		.byte	0x1
 2010 0b0d 30000000 		.4byte	0x30
 2011 0b11 2A0B0000 		.4byte	0xb2a
 2012 0b15 12       		.uleb128 0x12
 2013 0b16 75020000 		.4byte	0x275
 2014 0b1a 12       		.uleb128 0x12
 2015 0b1b 15050000 		.4byte	0x515
 2016 0b1f 12       		.uleb128 0x12
 2017 0b20 30000000 		.4byte	0x30
 2018 0b24 12       		.uleb128 0x12
 2019 0b25 F3000000 		.4byte	0xf3
 2020 0b29 00       		.byte	0
 2021 0b2a 09       		.uleb128 0x9
 2022 0b2b 04       		.byte	0x4
 2023 0b2c 0B0B0000 		.4byte	0xb0b
 2024 0b30 1B       		.uleb128 0x1b
 2025 0b31 01       		.byte	0x1
 2026 0b32 0C       		.byte	0xc
 2027 0b33 5D       		.byte	0x5d
 2028 0b34 4B0B0000 		.4byte	0xb4b
 2029 0b38 15       		.uleb128 0x15
 2030 0b39 D6020000 		.4byte	.LASF194
 2031 0b3d 00       		.sleb128 0
 2032 0b3e 15       		.uleb128 0x15
 2033 0b3f 2E0A0000 		.4byte	.LASF195
 2034 0b43 01       		.sleb128 1
 2035 0b44 15       		.uleb128 0x15
 2036 0b45 86080000 		.4byte	.LASF196
 2037 0b49 02       		.sleb128 2
 2038 0b4a 00       		.byte	0
 2039 0b4b 03       		.uleb128 0x3
 2040 0b4c 50080000 		.4byte	.LASF197
ARM GAS  /tmp/ccOViKkN.s 			page 37


 2041 0b50 0C       		.byte	0xc
 2042 0b51 61       		.byte	0x61
 2043 0b52 300B0000 		.4byte	0xb30
 2044 0b56 03       		.uleb128 0x3
 2045 0b57 14080000 		.4byte	.LASF198
 2046 0b5b 0C       		.byte	0xc
 2047 0b5c 66       		.byte	0x66
 2048 0b5d 610B0000 		.4byte	0xb61
 2049 0b61 05       		.uleb128 0x5
 2050 0b62 14080000 		.4byte	.LASF198
 2051 0b66 78       		.byte	0x78
 2052 0b67 0C       		.byte	0xc
 2053 0b68 80       		.byte	0x80
 2054 0b69 DC0B0000 		.4byte	0xbdc
 2055 0b6d 07       		.uleb128 0x7
 2056 0b6e 766D7400 		.ascii	"vmt\000"
 2057 0b72 0C       		.byte	0xc
 2058 0b73 82       		.byte	0x82
 2059 0b74 A50C0000 		.4byte	0xca5
 2060 0b78 02       		.byte	0x2
 2061 0b79 23       		.byte	0x23
 2062 0b7a 00       		.uleb128 0
 2063 0b7b 06       		.uleb128 0x6
 2064 0b7c 4C060000 		.4byte	.LASF199
 2065 0b80 0C       		.byte	0xc
 2066 0b81 83       		.byte	0x83
 2067 0b82 F6030000 		.4byte	0x3f6
 2068 0b86 02       		.byte	0x2
 2069 0b87 23       		.byte	0x23
 2070 0b88 04       		.uleb128 0x4
 2071 0b89 06       		.uleb128 0x6
 2072 0b8a B9000000 		.4byte	.LASF200
 2073 0b8e 0C       		.byte	0xc
 2074 0b8f 83       		.byte	0x83
 2075 0b90 4B0B0000 		.4byte	0xb4b
 2076 0b94 02       		.byte	0x2
 2077 0b95 23       		.byte	0x23
 2078 0b96 08       		.uleb128 0x8
 2079 0b97 06       		.uleb128 0x6
 2080 0b98 DE080000 		.4byte	.LASF201
 2081 0b9c 0C       		.byte	0xc
 2082 0b9d 83       		.byte	0x83
 2083 0b9e 1B050000 		.4byte	0x51b
 2084 0ba2 02       		.byte	0x2
 2085 0ba3 23       		.byte	0x23
 2086 0ba4 0C       		.uleb128 0xc
 2087 0ba5 06       		.uleb128 0x6
 2088 0ba6 EA010000 		.4byte	.LASF202
 2089 0baa 0C       		.byte	0xc
 2090 0bab 83       		.byte	0x83
 2091 0bac 26050000 		.4byte	0x526
 2092 0bb0 02       		.byte	0x2
 2093 0bb1 23       		.byte	0x23
 2094 0bb2 30       		.uleb128 0x30
 2095 0bb3 07       		.uleb128 0x7
 2096 0bb4 696200   		.ascii	"ib\000"
 2097 0bb7 0C       		.byte	0xc
ARM GAS  /tmp/ccOViKkN.s 			page 38


 2098 0bb8 83       		.byte	0x83
 2099 0bb9 B00C0000 		.4byte	0xcb0
 2100 0bbd 02       		.byte	0x2
 2101 0bbe 23       		.byte	0x23
 2102 0bbf 54       		.uleb128 0x54
 2103 0bc0 07       		.uleb128 0x7
 2104 0bc1 6F6200   		.ascii	"ob\000"
 2105 0bc4 0C       		.byte	0xc
 2106 0bc5 83       		.byte	0x83
 2107 0bc6 B00C0000 		.4byte	0xcb0
 2108 0bca 02       		.byte	0x2
 2109 0bcb 23       		.byte	0x23
 2110 0bcc 64       		.uleb128 0x64
 2111 0bcd 06       		.uleb128 0x6
 2112 0bce 25020000 		.4byte	.LASF203
 2113 0bd2 0C       		.byte	0xc
 2114 0bd3 83       		.byte	0x83
 2115 0bd4 C00C0000 		.4byte	0xcc0
 2116 0bd8 02       		.byte	0x2
 2117 0bd9 23       		.byte	0x23
 2118 0bda 74       		.uleb128 0x74
 2119 0bdb 00       		.byte	0
 2120 0bdc 08       		.uleb128 0x8
 2121 0bdd 0C       		.byte	0xc
 2122 0bde 0D       		.byte	0xd
 2123 0bdf DB       		.byte	0xdb
 2124 0be0 1D0C0000 		.4byte	0xc1d
 2125 0be4 06       		.uleb128 0x6
 2126 0be5 98060000 		.4byte	.LASF204
 2127 0be9 0D       		.byte	0xd
 2128 0bea DF       		.byte	0xdf
 2129 0beb 86000000 		.4byte	0x86
 2130 0bef 02       		.byte	0x2
 2131 0bf0 23       		.byte	0x23
 2132 0bf1 00       		.uleb128 0
 2133 0bf2 06       		.uleb128 0x6
 2134 0bf3 8E050000 		.4byte	.LASF205
 2135 0bf7 0D       		.byte	0xd
 2136 0bf8 E3       		.byte	0xe3
 2137 0bf9 62000000 		.4byte	0x62
 2138 0bfd 02       		.byte	0x2
 2139 0bfe 23       		.byte	0x23
 2140 0bff 04       		.uleb128 0x4
 2141 0c00 06       		.uleb128 0x6
 2142 0c01 95050000 		.4byte	.LASF206
 2143 0c05 0D       		.byte	0xd
 2144 0c06 E7       		.byte	0xe7
 2145 0c07 62000000 		.4byte	0x62
 2146 0c0b 02       		.byte	0x2
 2147 0c0c 23       		.byte	0x23
 2148 0c0d 06       		.uleb128 0x6
 2149 0c0e 06       		.uleb128 0x6
 2150 0c0f 9C050000 		.4byte	.LASF207
 2151 0c13 0D       		.byte	0xd
 2152 0c14 EB       		.byte	0xeb
 2153 0c15 62000000 		.4byte	0x62
 2154 0c19 02       		.byte	0x2
ARM GAS  /tmp/ccOViKkN.s 			page 39


 2155 0c1a 23       		.byte	0x23
 2156 0c1b 08       		.uleb128 0x8
 2157 0c1c 00       		.byte	0
 2158 0c1d 03       		.uleb128 0x3
 2159 0c1e 50000000 		.4byte	.LASF208
 2160 0c22 0D       		.byte	0xd
 2161 0c23 EC       		.byte	0xec
 2162 0c24 DC0B0000 		.4byte	0xbdc
 2163 0c28 05       		.uleb128 0x5
 2164 0c29 F1040000 		.4byte	.LASF209
 2165 0c2d 20       		.byte	0x20
 2166 0c2e 0C       		.byte	0xc
 2167 0c2f 75       		.byte	0x75
 2168 0c30 A50C0000 		.4byte	0xca5
 2169 0c34 06       		.uleb128 0x6
 2170 0c35 69000000 		.4byte	.LASF210
 2171 0c39 0C       		.byte	0xc
 2172 0c3a 76       		.byte	0x76
 2173 0c3b 56050000 		.4byte	0x556
 2174 0c3f 02       		.byte	0x2
 2175 0c40 23       		.byte	0x23
 2176 0c41 00       		.uleb128 0
 2177 0c42 06       		.uleb128 0x6
 2178 0c43 6B060000 		.4byte	.LASF211
 2179 0c47 0C       		.byte	0xc
 2180 0c48 76       		.byte	0x76
 2181 0c49 76050000 		.4byte	0x576
 2182 0c4d 02       		.byte	0x2
 2183 0c4e 23       		.byte	0x23
 2184 0c4f 04       		.uleb128 0x4
 2185 0c50 07       		.uleb128 0x7
 2186 0c51 70757400 		.ascii	"put\000"
 2187 0c55 0C       		.byte	0xc
 2188 0c56 76       		.byte	0x76
 2189 0c57 91050000 		.4byte	0x591
 2190 0c5b 02       		.byte	0x2
 2191 0c5c 23       		.byte	0x23
 2192 0c5d 08       		.uleb128 0x8
 2193 0c5e 07       		.uleb128 0x7
 2194 0c5f 67657400 		.ascii	"get\000"
 2195 0c63 0C       		.byte	0xc
 2196 0c64 76       		.byte	0x76
 2197 0c65 54040000 		.4byte	0x454
 2198 0c69 02       		.byte	0x2
 2199 0c6a 23       		.byte	0x23
 2200 0c6b 0C       		.uleb128 0xc
 2201 0c6c 06       		.uleb128 0x6
 2202 0c6d BF000000 		.4byte	.LASF212
 2203 0c71 0C       		.byte	0xc
 2204 0c72 76       		.byte	0x76
 2205 0c73 C50A0000 		.4byte	0xac5
 2206 0c77 02       		.byte	0x2
 2207 0c78 23       		.byte	0x23
 2208 0c79 10       		.uleb128 0x10
 2209 0c7a 06       		.uleb128 0x6
 2210 0c7b 4E030000 		.4byte	.LASF213
 2211 0c7f 0C       		.byte	0xc
ARM GAS  /tmp/ccOViKkN.s 			page 40


 2212 0c80 76       		.byte	0x76
 2213 0c81 E00A0000 		.4byte	0xae0
 2214 0c85 02       		.byte	0x2
 2215 0c86 23       		.byte	0x23
 2216 0c87 14       		.uleb128 0x14
 2217 0c88 06       		.uleb128 0x6
 2218 0c89 5D000000 		.4byte	.LASF214
 2219 0c8d 0C       		.byte	0xc
 2220 0c8e 76       		.byte	0x76
 2221 0c8f 050B0000 		.4byte	0xb05
 2222 0c93 02       		.byte	0x2
 2223 0c94 23       		.byte	0x23
 2224 0c95 18       		.uleb128 0x18
 2225 0c96 06       		.uleb128 0x6
 2226 0c97 52010000 		.4byte	.LASF215
 2227 0c9b 0C       		.byte	0xc
 2228 0c9c 76       		.byte	0x76
 2229 0c9d 2A0B0000 		.4byte	0xb2a
 2230 0ca1 02       		.byte	0x2
 2231 0ca2 23       		.byte	0x23
 2232 0ca3 1C       		.uleb128 0x1c
 2233 0ca4 00       		.byte	0
 2234 0ca5 09       		.uleb128 0x9
 2235 0ca6 04       		.byte	0x4
 2236 0ca7 AB0C0000 		.4byte	0xcab
 2237 0cab 10       		.uleb128 0x10
 2238 0cac 280C0000 		.4byte	0xc28
 2239 0cb0 16       		.uleb128 0x16
 2240 0cb1 49000000 		.4byte	0x49
 2241 0cb5 C00C0000 		.4byte	0xcc0
 2242 0cb9 17       		.uleb128 0x17
 2243 0cba 3B000000 		.4byte	0x3b
 2244 0cbe 0F       		.byte	0xf
 2245 0cbf 00       		.byte	0
 2246 0cc0 09       		.uleb128 0x9
 2247 0cc1 04       		.byte	0x4
 2248 0cc2 9F0A0000 		.4byte	0xa9f
 2249 0cc6 1C       		.uleb128 0x1c
 2250 0cc7 DE000000 		.4byte	.LASF216
 2251 0ccb 01       		.byte	0x1
 2252 0ccc 87       		.byte	0x87
 2253 0ccd 01       		.byte	0x1
 2254 0cce 01       		.byte	0x1
 2255 0ccf F40C0000 		.4byte	0xcf4
 2256 0cd3 1D       		.uleb128 0x1d
 2257 0cd4 73647000 		.ascii	"sdp\000"
 2258 0cd8 01       		.byte	0x1
 2259 0cd9 87       		.byte	0x87
 2260 0cda F40C0000 		.4byte	0xcf4
 2261 0cde 1D       		.uleb128 0x1d
 2262 0cdf 737200   		.ascii	"sr\000"
 2263 0ce2 01       		.byte	0x1
 2264 0ce3 87       		.byte	0x87
 2265 0ce4 62000000 		.4byte	0x62
 2266 0ce8 1E       		.uleb128 0x1e
 2267 0ce9 73747300 		.ascii	"sts\000"
 2268 0ced 01       		.byte	0x1
ARM GAS  /tmp/ccOViKkN.s 			page 41


 2269 0cee 88       		.byte	0x88
 2270 0cef E8000000 		.4byte	0xe8
 2271 0cf3 00       		.byte	0
 2272 0cf4 09       		.uleb128 0x9
 2273 0cf5 04       		.byte	0x4
 2274 0cf6 560B0000 		.4byte	0xb56
 2275 0cfa 1C       		.uleb128 0x1c
 2276 0cfb 53070000 		.4byte	.LASF217
 2277 0cff 01       		.byte	0x1
 2278 0d00 5C       		.byte	0x5c
 2279 0d01 01       		.byte	0x1
 2280 0d02 01       		.byte	0x1
 2281 0d03 270D0000 		.4byte	0xd27
 2282 0d07 1D       		.uleb128 0x1d
 2283 0d08 73647000 		.ascii	"sdp\000"
 2284 0d0c 01       		.byte	0x1
 2285 0d0d 5C       		.byte	0x5c
 2286 0d0e F40C0000 		.4byte	0xcf4
 2287 0d12 1F       		.uleb128 0x1f
 2288 0d13 B2000000 		.4byte	.LASF218
 2289 0d17 01       		.byte	0x1
 2290 0d18 5C       		.byte	0x5c
 2291 0d19 270D0000 		.4byte	0xd27
 2292 0d1d 1E       		.uleb128 0x1e
 2293 0d1e 7500     		.ascii	"u\000"
 2294 0d20 01       		.byte	0x1
 2295 0d21 5D       		.byte	0x5d
 2296 0d22 C00C0000 		.4byte	0xcc0
 2297 0d26 00       		.byte	0
 2298 0d27 09       		.uleb128 0x9
 2299 0d28 04       		.byte	0x4
 2300 0d29 2D0D0000 		.4byte	0xd2d
 2301 0d2d 10       		.uleb128 0x10
 2302 0d2e 1D0C0000 		.4byte	0xc1d
 2303 0d32 1C       		.uleb128 0x1c
 2304 0d33 01050000 		.4byte	.LASF219
 2305 0d37 01       		.byte	0x1
 2306 0d38 7A       		.byte	0x7a
 2307 0d39 01       		.byte	0x1
 2308 0d3a 01       		.byte	0x1
 2309 0d3b 490D0000 		.4byte	0xd49
 2310 0d3f 1D       		.uleb128 0x1d
 2311 0d40 7500     		.ascii	"u\000"
 2312 0d42 01       		.byte	0x1
 2313 0d43 7A       		.byte	0x7a
 2314 0d44 C00C0000 		.4byte	0xcc0
 2315 0d48 00       		.byte	0
 2316 0d49 1C       		.uleb128 0x1c
 2317 0d4a CE000000 		.4byte	.LASF220
 2318 0d4e 01       		.byte	0x1
 2319 0d4f 9C       		.byte	0x9c
 2320 0d50 01       		.byte	0x1
 2321 0d51 01       		.byte	0x1
 2322 0d52 950D0000 		.4byte	0xd95
 2323 0d56 1D       		.uleb128 0x1d
 2324 0d57 73647000 		.ascii	"sdp\000"
 2325 0d5b 01       		.byte	0x1
ARM GAS  /tmp/ccOViKkN.s 			page 42


 2326 0d5c 9C       		.byte	0x9c
 2327 0d5d F40C0000 		.4byte	0xcf4
 2328 0d61 1E       		.uleb128 0x1e
 2329 0d62 7500     		.ascii	"u\000"
 2330 0d64 01       		.byte	0x1
 2331 0d65 9D       		.byte	0x9d
 2332 0d66 C00C0000 		.4byte	0xcc0
 2333 0d6a 1E       		.uleb128 0x1e
 2334 0d6b 63723100 		.ascii	"cr1\000"
 2335 0d6f 01       		.byte	0x1
 2336 0d70 9E       		.byte	0x9e
 2337 0d71 62000000 		.4byte	0x62
 2338 0d75 1E       		.uleb128 0x1e
 2339 0d76 737200   		.ascii	"sr\000"
 2340 0d79 01       		.byte	0x1
 2341 0d7a 9F       		.byte	0x9f
 2342 0d7b 62000000 		.4byte	0x62
 2343 0d7f 1E       		.uleb128 0x1e
 2344 0d80 647200   		.ascii	"dr\000"
 2345 0d83 01       		.byte	0x1
 2346 0d84 A0       		.byte	0xa0
 2347 0d85 62000000 		.4byte	0x62
 2348 0d89 20       		.uleb128 0x20
 2349 0d8a 1E       		.uleb128 0x1e
 2350 0d8b 6200     		.ascii	"b\000"
 2351 0d8d 01       		.byte	0x1
 2352 0d8e B4       		.byte	0xb4
 2353 0d8f D2000000 		.4byte	0xd2
 2354 0d93 00       		.byte	0
 2355 0d94 00       		.byte	0
 2356 0d95 21       		.uleb128 0x21
 2357 0d96 AE080000 		.4byte	.LASF229
 2358 0d9a 01       		.byte	0x1
 2359 0d9b D2       		.byte	0xd2
 2360 0d9c 01       		.byte	0x1
 2361 0d9d 00000000 		.4byte	.LFB115
 2362 0da1 14000000 		.4byte	.LFE115
 2363 0da5 02       		.byte	0x2
 2364 0da6 7D       		.byte	0x7d
 2365 0da7 00       		.sleb128 0
 2366 0da8 BB0D0000 		.4byte	0xdbb
 2367 0dac 22       		.uleb128 0x22
 2368 0dad 717000   		.ascii	"qp\000"
 2369 0db0 01       		.byte	0x1
 2370 0db1 D2       		.byte	0xd2
 2371 0db2 0F050000 		.4byte	0x50f
 2372 0db6 00000000 		.4byte	.LLST0
 2373 0dba 00       		.byte	0
 2374 0dbb 23       		.uleb128 0x23
 2375 0dbc 01       		.byte	0x1
 2376 0dbd 81000000 		.4byte	.LASF221
 2377 0dc1 01       		.byte	0x1
 2378 0dc2 1901     		.2byte	0x119
 2379 0dc4 01       		.byte	0x1
 2380 0dc5 00000000 		.4byte	.LFB116
 2381 0dc9 30010000 		.4byte	.LFE116
 2382 0dcd 13000000 		.4byte	.LLST1
ARM GAS  /tmp/ccOViKkN.s 			page 43


 2383 0dd1 630E0000 		.4byte	0xe63
 2384 0dd5 24       		.uleb128 0x24
 2385 0dd6 490D0000 		.4byte	0xd49
 2386 0dda 08000000 		.4byte	.LBB17
 2387 0dde 00000000 		.4byte	.Ldebug_ranges0+0
 2388 0de2 01       		.byte	0x1
 2389 0de3 1D01     		.2byte	0x11d
 2390 0de5 25       		.uleb128 0x25
 2391 0de6 18000000 		.4byte	.Ldebug_ranges0+0x18
 2392 0dea 26       		.uleb128 0x26
 2393 0deb 610D0000 		.4byte	0xd61
 2394 0def 33000000 		.4byte	.LLST2
 2395 0df3 27       		.uleb128 0x27
 2396 0df4 6A0D0000 		.4byte	0xd6a
 2397 0df8 01       		.byte	0x1
 2398 0df9 56       		.byte	0x56
 2399 0dfa 27       		.uleb128 0x27
 2400 0dfb 750D0000 		.4byte	0xd75
 2401 0dff 01       		.byte	0x1
 2402 0e00 54       		.byte	0x54
 2403 0e01 27       		.uleb128 0x27
 2404 0e02 7F0D0000 		.4byte	0xd7f
 2405 0e06 01       		.byte	0x1
 2406 0e07 57       		.byte	0x57
 2407 0e08 28       		.uleb128 0x28
 2408 0e09 560D0000 		.4byte	0xd56
 2409 0e0d 06       		.byte	0x6
 2410 0e0e 03       		.byte	0x3
 2411 0e0f 00000000 		.4byte	SD2
 2412 0e13 9F       		.byte	0x9f
 2413 0e14 29       		.uleb128 0x29
 2414 0e15 C60C0000 		.4byte	0xcc6
 2415 0e19 20000000 		.4byte	.LBB19
 2416 0e1d 5A000000 		.4byte	.LBE19
 2417 0e21 01       		.byte	0x1
 2418 0e22 A4       		.byte	0xa4
 2419 0e23 4D0E0000 		.4byte	0xe4d
 2420 0e27 2A       		.uleb128 0x2a
 2421 0e28 DE0C0000 		.4byte	0xcde
 2422 0e2c 55000000 		.4byte	.LLST3
 2423 0e30 2A       		.uleb128 0x2a
 2424 0e31 D30C0000 		.4byte	0xcd3
 2425 0e35 68000000 		.4byte	.LLST4
 2426 0e39 2B       		.uleb128 0x2b
 2427 0e3a 20000000 		.4byte	.LBB20
 2428 0e3e 5A000000 		.4byte	.LBE20
 2429 0e42 26       		.uleb128 0x26
 2430 0e43 E80C0000 		.4byte	0xce8
 2431 0e47 80000000 		.4byte	.LLST5
 2432 0e4b 00       		.byte	0
 2433 0e4c 00       		.byte	0
 2434 0e4d 2B       		.uleb128 0x2b
 2435 0e4e F2000000 		.4byte	.LBB21
 2436 0e52 30010000 		.4byte	.LBE21
 2437 0e56 26       		.uleb128 0x26
 2438 0e57 8A0D0000 		.4byte	0xd8a
 2439 0e5b 9F000000 		.4byte	.LLST6
ARM GAS  /tmp/ccOViKkN.s 			page 44


 2440 0e5f 00       		.byte	0
 2441 0e60 00       		.byte	0
 2442 0e61 00       		.byte	0
 2443 0e62 00       		.byte	0
 2444 0e63 2C       		.uleb128 0x2c
 2445 0e64 01       		.byte	0x1
 2446 0e65 5C050000 		.4byte	.LASF230
 2447 0e69 01       		.byte	0x1
 2448 0e6a 7801     		.2byte	0x178
 2449 0e6c 01       		.byte	0x1
 2450 0e6d 00000000 		.4byte	.LFB117
 2451 0e71 26000000 		.4byte	.LFE117
 2452 0e75 BD000000 		.4byte	.LLST7
 2453 0e79 23       		.uleb128 0x23
 2454 0e7a 01       		.byte	0x1
 2455 0e7b 58010000 		.4byte	.LASF222
 2456 0e7f 01       		.byte	0x1
 2457 0e80 A301     		.2byte	0x1a3
 2458 0e82 01       		.byte	0x1
 2459 0e83 00000000 		.4byte	.LFB118
 2460 0e87 B4000000 		.4byte	.LFE118
 2461 0e8b DD000000 		.4byte	.LLST8
 2462 0e8f E20E0000 		.4byte	0xee2
 2463 0e93 2D       		.uleb128 0x2d
 2464 0e94 73647000 		.ascii	"sdp\000"
 2465 0e98 01       		.byte	0x1
 2466 0e99 A301     		.2byte	0x1a3
 2467 0e9b F40C0000 		.4byte	0xcf4
 2468 0e9f FD000000 		.4byte	.LLST9
 2469 0ea3 2E       		.uleb128 0x2e
 2470 0ea4 B2000000 		.4byte	.LASF218
 2471 0ea8 01       		.byte	0x1
 2472 0ea9 A301     		.2byte	0x1a3
 2473 0eab 270D0000 		.4byte	0xd27
 2474 0eaf 1B010000 		.4byte	.LLST10
 2475 0eb3 24       		.uleb128 0x24
 2476 0eb4 FA0C0000 		.4byte	0xcfa
 2477 0eb8 18000000 		.4byte	.LBB24
 2478 0ebc 30000000 		.4byte	.Ldebug_ranges0+0x30
 2479 0ec0 01       		.byte	0x1
 2480 0ec1 D401     		.2byte	0x1d4
 2481 0ec3 2F       		.uleb128 0x2f
 2482 0ec4 120D0000 		.4byte	0xd12
 2483 0ec8 2A       		.uleb128 0x2a
 2484 0ec9 070D0000 		.4byte	0xd07
 2485 0ecd 39010000 		.4byte	.LLST11
 2486 0ed1 25       		.uleb128 0x25
 2487 0ed2 48000000 		.4byte	.Ldebug_ranges0+0x48
 2488 0ed6 26       		.uleb128 0x26
 2489 0ed7 1D0D0000 		.4byte	0xd1d
 2490 0edb 4C010000 		.4byte	.LLST12
 2491 0edf 00       		.byte	0
 2492 0ee0 00       		.byte	0
 2493 0ee1 00       		.byte	0
 2494 0ee2 30       		.uleb128 0x30
 2495 0ee3 01       		.byte	0x1
 2496 0ee4 B0090000 		.4byte	.LASF223
ARM GAS  /tmp/ccOViKkN.s 			page 45


 2497 0ee8 01       		.byte	0x1
 2498 0ee9 E001     		.2byte	0x1e0
 2499 0eeb 01       		.byte	0x1
 2500 0eec 00000000 		.4byte	.LFB119
 2501 0ef0 34000000 		.4byte	.LFE119
 2502 0ef4 02       		.byte	0x2
 2503 0ef5 7D       		.byte	0x7d
 2504 0ef6 00       		.sleb128 0
 2505 0ef7 260F0000 		.4byte	0xf26
 2506 0efb 2D       		.uleb128 0x2d
 2507 0efc 73647000 		.ascii	"sdp\000"
 2508 0f00 01       		.byte	0x1
 2509 0f01 E001     		.2byte	0x1e0
 2510 0f03 F40C0000 		.4byte	0xcf4
 2511 0f07 61010000 		.4byte	.LLST13
 2512 0f0b 24       		.uleb128 0x24
 2513 0f0c 320D0000 		.4byte	0xd32
 2514 0f10 12000000 		.4byte	.LBB28
 2515 0f14 60000000 		.4byte	.Ldebug_ranges0+0x60
 2516 0f18 01       		.byte	0x1
 2517 0f19 E301     		.2byte	0x1e3
 2518 0f1b 2A       		.uleb128 0x2a
 2519 0f1c 3F0D0000 		.4byte	0xd3f
 2520 0f20 7F010000 		.4byte	.LLST14
 2521 0f24 00       		.byte	0
 2522 0f25 00       		.byte	0
 2523 0f26 31       		.uleb128 0x31
 2524 0f27 9E010000 		.4byte	.LASF231
 2525 0f2b 01       		.byte	0x1
 2526 0f2c 49       		.byte	0x49
 2527 0f2d 2D0D0000 		.4byte	0xd2d
 2528 0f31 05       		.byte	0x5
 2529 0f32 03       		.byte	0x3
 2530 0f33 00000000 		.4byte	default_config
 2531 0f37 32       		.uleb128 0x32
 2532 0f38 11090000 		.4byte	.LASF224
 2533 0f3c 0E       		.byte	0xe
 2534 0f3d 9806     		.2byte	0x698
 2535 0f3f E7070000 		.4byte	0x7e7
 2536 0f43 01       		.byte	0x1
 2537 0f44 01       		.byte	0x1
 2538 0f45 33       		.uleb128 0x33
 2539 0f46 53443200 		.ascii	"SD2\000"
 2540 0f4a 01       		.byte	0x1
 2541 0f4b 2D       		.byte	0x2d
 2542 0f4c 560B0000 		.4byte	0xb56
 2543 0f50 01       		.byte	0x1
 2544 0f51 05       		.byte	0x5
 2545 0f52 03       		.byte	0x3
 2546 0f53 00000000 		.4byte	SD2
 2547 0f57 00       		.byte	0
 2548              		.section	.debug_abbrev,"",%progbits
 2549              	.Ldebug_abbrev0:
 2550 0000 01       		.uleb128 0x1
 2551 0001 11       		.uleb128 0x11
 2552 0002 01       		.byte	0x1
 2553 0003 25       		.uleb128 0x25
ARM GAS  /tmp/ccOViKkN.s 			page 46


 2554 0004 0E       		.uleb128 0xe
 2555 0005 13       		.uleb128 0x13
 2556 0006 0B       		.uleb128 0xb
 2557 0007 03       		.uleb128 0x3
 2558 0008 0E       		.uleb128 0xe
 2559 0009 1B       		.uleb128 0x1b
 2560 000a 0E       		.uleb128 0xe
 2561 000b 11       		.uleb128 0x11
 2562 000c 01       		.uleb128 0x1
 2563 000d 52       		.uleb128 0x52
 2564 000e 01       		.uleb128 0x1
 2565 000f 55       		.uleb128 0x55
 2566 0010 06       		.uleb128 0x6
 2567 0011 10       		.uleb128 0x10
 2568 0012 06       		.uleb128 0x6
 2569 0013 00       		.byte	0
 2570 0014 00       		.byte	0
 2571 0015 02       		.uleb128 0x2
 2572 0016 24       		.uleb128 0x24
 2573 0017 00       		.byte	0
 2574 0018 0B       		.uleb128 0xb
 2575 0019 0B       		.uleb128 0xb
 2576 001a 3E       		.uleb128 0x3e
 2577 001b 0B       		.uleb128 0xb
 2578 001c 03       		.uleb128 0x3
 2579 001d 08       		.uleb128 0x8
 2580 001e 00       		.byte	0
 2581 001f 00       		.byte	0
 2582 0020 03       		.uleb128 0x3
 2583 0021 16       		.uleb128 0x16
 2584 0022 00       		.byte	0
 2585 0023 03       		.uleb128 0x3
 2586 0024 0E       		.uleb128 0xe
 2587 0025 3A       		.uleb128 0x3a
 2588 0026 0B       		.uleb128 0xb
 2589 0027 3B       		.uleb128 0x3b
 2590 0028 0B       		.uleb128 0xb
 2591 0029 49       		.uleb128 0x49
 2592 002a 13       		.uleb128 0x13
 2593 002b 00       		.byte	0
 2594 002c 00       		.byte	0
 2595 002d 04       		.uleb128 0x4
 2596 002e 24       		.uleb128 0x24
 2597 002f 00       		.byte	0
 2598 0030 0B       		.uleb128 0xb
 2599 0031 0B       		.uleb128 0xb
 2600 0032 3E       		.uleb128 0x3e
 2601 0033 0B       		.uleb128 0xb
 2602 0034 03       		.uleb128 0x3
 2603 0035 0E       		.uleb128 0xe
 2604 0036 00       		.byte	0
 2605 0037 00       		.byte	0
 2606 0038 05       		.uleb128 0x5
 2607 0039 13       		.uleb128 0x13
 2608 003a 01       		.byte	0x1
 2609 003b 03       		.uleb128 0x3
 2610 003c 0E       		.uleb128 0xe
ARM GAS  /tmp/ccOViKkN.s 			page 47


 2611 003d 0B       		.uleb128 0xb
 2612 003e 0B       		.uleb128 0xb
 2613 003f 3A       		.uleb128 0x3a
 2614 0040 0B       		.uleb128 0xb
 2615 0041 3B       		.uleb128 0x3b
 2616 0042 0B       		.uleb128 0xb
 2617 0043 01       		.uleb128 0x1
 2618 0044 13       		.uleb128 0x13
 2619 0045 00       		.byte	0
 2620 0046 00       		.byte	0
 2621 0047 06       		.uleb128 0x6
 2622 0048 0D       		.uleb128 0xd
 2623 0049 00       		.byte	0
 2624 004a 03       		.uleb128 0x3
 2625 004b 0E       		.uleb128 0xe
 2626 004c 3A       		.uleb128 0x3a
 2627 004d 0B       		.uleb128 0xb
 2628 004e 3B       		.uleb128 0x3b
 2629 004f 0B       		.uleb128 0xb
 2630 0050 49       		.uleb128 0x49
 2631 0051 13       		.uleb128 0x13
 2632 0052 38       		.uleb128 0x38
 2633 0053 0A       		.uleb128 0xa
 2634 0054 00       		.byte	0
 2635 0055 00       		.byte	0
 2636 0056 07       		.uleb128 0x7
 2637 0057 0D       		.uleb128 0xd
 2638 0058 00       		.byte	0
 2639 0059 03       		.uleb128 0x3
 2640 005a 08       		.uleb128 0x8
 2641 005b 3A       		.uleb128 0x3a
 2642 005c 0B       		.uleb128 0xb
 2643 005d 3B       		.uleb128 0x3b
 2644 005e 0B       		.uleb128 0xb
 2645 005f 49       		.uleb128 0x49
 2646 0060 13       		.uleb128 0x13
 2647 0061 38       		.uleb128 0x38
 2648 0062 0A       		.uleb128 0xa
 2649 0063 00       		.byte	0
 2650 0064 00       		.byte	0
 2651 0065 08       		.uleb128 0x8
 2652 0066 13       		.uleb128 0x13
 2653 0067 01       		.byte	0x1
 2654 0068 0B       		.uleb128 0xb
 2655 0069 0B       		.uleb128 0xb
 2656 006a 3A       		.uleb128 0x3a
 2657 006b 0B       		.uleb128 0xb
 2658 006c 3B       		.uleb128 0x3b
 2659 006d 0B       		.uleb128 0xb
 2660 006e 01       		.uleb128 0x1
 2661 006f 13       		.uleb128 0x13
 2662 0070 00       		.byte	0
 2663 0071 00       		.byte	0
 2664 0072 09       		.uleb128 0x9
 2665 0073 0F       		.uleb128 0xf
 2666 0074 00       		.byte	0
 2667 0075 0B       		.uleb128 0xb
ARM GAS  /tmp/ccOViKkN.s 			page 48


 2668 0076 0B       		.uleb128 0xb
 2669 0077 49       		.uleb128 0x49
 2670 0078 13       		.uleb128 0x13
 2671 0079 00       		.byte	0
 2672 007a 00       		.byte	0
 2673 007b 0A       		.uleb128 0xa
 2674 007c 0F       		.uleb128 0xf
 2675 007d 00       		.byte	0
 2676 007e 0B       		.uleb128 0xb
 2677 007f 0B       		.uleb128 0xb
 2678 0080 00       		.byte	0
 2679 0081 00       		.byte	0
 2680 0082 0B       		.uleb128 0xb
 2681 0083 13       		.uleb128 0x13
 2682 0084 01       		.byte	0x1
 2683 0085 03       		.uleb128 0x3
 2684 0086 0E       		.uleb128 0xe
 2685 0087 0B       		.uleb128 0xb
 2686 0088 0B       		.uleb128 0xb
 2687 0089 3A       		.uleb128 0x3a
 2688 008a 0B       		.uleb128 0xb
 2689 008b 3B       		.uleb128 0x3b
 2690 008c 05       		.uleb128 0x5
 2691 008d 01       		.uleb128 0x1
 2692 008e 13       		.uleb128 0x13
 2693 008f 00       		.byte	0
 2694 0090 00       		.byte	0
 2695 0091 0C       		.uleb128 0xc
 2696 0092 0D       		.uleb128 0xd
 2697 0093 00       		.byte	0
 2698 0094 03       		.uleb128 0x3
 2699 0095 08       		.uleb128 0x8
 2700 0096 3A       		.uleb128 0x3a
 2701 0097 0B       		.uleb128 0xb
 2702 0098 3B       		.uleb128 0x3b
 2703 0099 05       		.uleb128 0x5
 2704 009a 49       		.uleb128 0x49
 2705 009b 13       		.uleb128 0x13
 2706 009c 38       		.uleb128 0x38
 2707 009d 0A       		.uleb128 0xa
 2708 009e 00       		.byte	0
 2709 009f 00       		.byte	0
 2710 00a0 0D       		.uleb128 0xd
 2711 00a1 35       		.uleb128 0x35
 2712 00a2 00       		.byte	0
 2713 00a3 49       		.uleb128 0x49
 2714 00a4 13       		.uleb128 0x13
 2715 00a5 00       		.byte	0
 2716 00a6 00       		.byte	0
 2717 00a7 0E       		.uleb128 0xe
 2718 00a8 17       		.uleb128 0x17
 2719 00a9 01       		.byte	0x1
 2720 00aa 0B       		.uleb128 0xb
 2721 00ab 0B       		.uleb128 0xb
 2722 00ac 3A       		.uleb128 0x3a
 2723 00ad 0B       		.uleb128 0xb
 2724 00ae 3B       		.uleb128 0x3b
ARM GAS  /tmp/ccOViKkN.s 			page 49


 2725 00af 0B       		.uleb128 0xb
 2726 00b0 01       		.uleb128 0x1
 2727 00b1 13       		.uleb128 0x13
 2728 00b2 00       		.byte	0
 2729 00b3 00       		.byte	0
 2730 00b4 0F       		.uleb128 0xf
 2731 00b5 0D       		.uleb128 0xd
 2732 00b6 00       		.byte	0
 2733 00b7 03       		.uleb128 0x3
 2734 00b8 0E       		.uleb128 0xe
 2735 00b9 3A       		.uleb128 0x3a
 2736 00ba 0B       		.uleb128 0xb
 2737 00bb 3B       		.uleb128 0x3b
 2738 00bc 0B       		.uleb128 0xb
 2739 00bd 49       		.uleb128 0x49
 2740 00be 13       		.uleb128 0x13
 2741 00bf 00       		.byte	0
 2742 00c0 00       		.byte	0
 2743 00c1 10       		.uleb128 0x10
 2744 00c2 26       		.uleb128 0x26
 2745 00c3 00       		.byte	0
 2746 00c4 49       		.uleb128 0x49
 2747 00c5 13       		.uleb128 0x13
 2748 00c6 00       		.byte	0
 2749 00c7 00       		.byte	0
 2750 00c8 11       		.uleb128 0x11
 2751 00c9 15       		.uleb128 0x15
 2752 00ca 01       		.byte	0x1
 2753 00cb 27       		.uleb128 0x27
 2754 00cc 0C       		.uleb128 0xc
 2755 00cd 49       		.uleb128 0x49
 2756 00ce 13       		.uleb128 0x13
 2757 00cf 01       		.uleb128 0x1
 2758 00d0 13       		.uleb128 0x13
 2759 00d1 00       		.byte	0
 2760 00d2 00       		.byte	0
 2761 00d3 12       		.uleb128 0x12
 2762 00d4 05       		.uleb128 0x5
 2763 00d5 00       		.byte	0
 2764 00d6 49       		.uleb128 0x49
 2765 00d7 13       		.uleb128 0x13
 2766 00d8 00       		.byte	0
 2767 00d9 00       		.byte	0
 2768 00da 13       		.uleb128 0x13
 2769 00db 15       		.uleb128 0x15
 2770 00dc 01       		.byte	0x1
 2771 00dd 27       		.uleb128 0x27
 2772 00de 0C       		.uleb128 0xc
 2773 00df 01       		.uleb128 0x1
 2774 00e0 13       		.uleb128 0x13
 2775 00e1 00       		.byte	0
 2776 00e2 00       		.byte	0
 2777 00e3 14       		.uleb128 0x14
 2778 00e4 04       		.uleb128 0x4
 2779 00e5 01       		.byte	0x1
 2780 00e6 03       		.uleb128 0x3
 2781 00e7 0E       		.uleb128 0xe
ARM GAS  /tmp/ccOViKkN.s 			page 50


 2782 00e8 0B       		.uleb128 0xb
 2783 00e9 0B       		.uleb128 0xb
 2784 00ea 3A       		.uleb128 0x3a
 2785 00eb 0B       		.uleb128 0xb
 2786 00ec 3B       		.uleb128 0x3b
 2787 00ed 0B       		.uleb128 0xb
 2788 00ee 01       		.uleb128 0x1
 2789 00ef 13       		.uleb128 0x13
 2790 00f0 00       		.byte	0
 2791 00f1 00       		.byte	0
 2792 00f2 15       		.uleb128 0x15
 2793 00f3 28       		.uleb128 0x28
 2794 00f4 00       		.byte	0
 2795 00f5 03       		.uleb128 0x3
 2796 00f6 0E       		.uleb128 0xe
 2797 00f7 1C       		.uleb128 0x1c
 2798 00f8 0D       		.uleb128 0xd
 2799 00f9 00       		.byte	0
 2800 00fa 00       		.byte	0
 2801 00fb 16       		.uleb128 0x16
 2802 00fc 01       		.uleb128 0x1
 2803 00fd 01       		.byte	0x1
 2804 00fe 49       		.uleb128 0x49
 2805 00ff 13       		.uleb128 0x13
 2806 0100 01       		.uleb128 0x1
 2807 0101 13       		.uleb128 0x13
 2808 0102 00       		.byte	0
 2809 0103 00       		.byte	0
 2810 0104 17       		.uleb128 0x17
 2811 0105 21       		.uleb128 0x21
 2812 0106 00       		.byte	0
 2813 0107 49       		.uleb128 0x49
 2814 0108 13       		.uleb128 0x13
 2815 0109 2F       		.uleb128 0x2f
 2816 010a 0B       		.uleb128 0xb
 2817 010b 00       		.byte	0
 2818 010c 00       		.byte	0
 2819 010d 18       		.uleb128 0x18
 2820 010e 13       		.uleb128 0x13
 2821 010f 01       		.byte	0x1
 2822 0110 0B       		.uleb128 0xb
 2823 0111 0B       		.uleb128 0xb
 2824 0112 3A       		.uleb128 0x3a
 2825 0113 0B       		.uleb128 0xb
 2826 0114 3B       		.uleb128 0x3b
 2827 0115 05       		.uleb128 0x5
 2828 0116 01       		.uleb128 0x1
 2829 0117 13       		.uleb128 0x13
 2830 0118 00       		.byte	0
 2831 0119 00       		.byte	0
 2832 011a 19       		.uleb128 0x19
 2833 011b 0D       		.uleb128 0xd
 2834 011c 00       		.byte	0
 2835 011d 03       		.uleb128 0x3
 2836 011e 0E       		.uleb128 0xe
 2837 011f 3A       		.uleb128 0x3a
 2838 0120 0B       		.uleb128 0xb
ARM GAS  /tmp/ccOViKkN.s 			page 51


 2839 0121 3B       		.uleb128 0x3b
 2840 0122 05       		.uleb128 0x5
 2841 0123 49       		.uleb128 0x49
 2842 0124 13       		.uleb128 0x13
 2843 0125 38       		.uleb128 0x38
 2844 0126 0A       		.uleb128 0xa
 2845 0127 00       		.byte	0
 2846 0128 00       		.byte	0
 2847 0129 1A       		.uleb128 0x1a
 2848 012a 16       		.uleb128 0x16
 2849 012b 00       		.byte	0
 2850 012c 03       		.uleb128 0x3
 2851 012d 0E       		.uleb128 0xe
 2852 012e 3A       		.uleb128 0x3a
 2853 012f 0B       		.uleb128 0xb
 2854 0130 3B       		.uleb128 0x3b
 2855 0131 05       		.uleb128 0x5
 2856 0132 49       		.uleb128 0x49
 2857 0133 13       		.uleb128 0x13
 2858 0134 00       		.byte	0
 2859 0135 00       		.byte	0
 2860 0136 1B       		.uleb128 0x1b
 2861 0137 04       		.uleb128 0x4
 2862 0138 01       		.byte	0x1
 2863 0139 0B       		.uleb128 0xb
 2864 013a 0B       		.uleb128 0xb
 2865 013b 3A       		.uleb128 0x3a
 2866 013c 0B       		.uleb128 0xb
 2867 013d 3B       		.uleb128 0x3b
 2868 013e 0B       		.uleb128 0xb
 2869 013f 01       		.uleb128 0x1
 2870 0140 13       		.uleb128 0x13
 2871 0141 00       		.byte	0
 2872 0142 00       		.byte	0
 2873 0143 1C       		.uleb128 0x1c
 2874 0144 2E       		.uleb128 0x2e
 2875 0145 01       		.byte	0x1
 2876 0146 03       		.uleb128 0x3
 2877 0147 0E       		.uleb128 0xe
 2878 0148 3A       		.uleb128 0x3a
 2879 0149 0B       		.uleb128 0xb
 2880 014a 3B       		.uleb128 0x3b
 2881 014b 0B       		.uleb128 0xb
 2882 014c 27       		.uleb128 0x27
 2883 014d 0C       		.uleb128 0xc
 2884 014e 20       		.uleb128 0x20
 2885 014f 0B       		.uleb128 0xb
 2886 0150 01       		.uleb128 0x1
 2887 0151 13       		.uleb128 0x13
 2888 0152 00       		.byte	0
 2889 0153 00       		.byte	0
 2890 0154 1D       		.uleb128 0x1d
 2891 0155 05       		.uleb128 0x5
 2892 0156 00       		.byte	0
 2893 0157 03       		.uleb128 0x3
 2894 0158 08       		.uleb128 0x8
 2895 0159 3A       		.uleb128 0x3a
ARM GAS  /tmp/ccOViKkN.s 			page 52


 2896 015a 0B       		.uleb128 0xb
 2897 015b 3B       		.uleb128 0x3b
 2898 015c 0B       		.uleb128 0xb
 2899 015d 49       		.uleb128 0x49
 2900 015e 13       		.uleb128 0x13
 2901 015f 00       		.byte	0
 2902 0160 00       		.byte	0
 2903 0161 1E       		.uleb128 0x1e
 2904 0162 34       		.uleb128 0x34
 2905 0163 00       		.byte	0
 2906 0164 03       		.uleb128 0x3
 2907 0165 08       		.uleb128 0x8
 2908 0166 3A       		.uleb128 0x3a
 2909 0167 0B       		.uleb128 0xb
 2910 0168 3B       		.uleb128 0x3b
 2911 0169 0B       		.uleb128 0xb
 2912 016a 49       		.uleb128 0x49
 2913 016b 13       		.uleb128 0x13
 2914 016c 00       		.byte	0
 2915 016d 00       		.byte	0
 2916 016e 1F       		.uleb128 0x1f
 2917 016f 05       		.uleb128 0x5
 2918 0170 00       		.byte	0
 2919 0171 03       		.uleb128 0x3
 2920 0172 0E       		.uleb128 0xe
 2921 0173 3A       		.uleb128 0x3a
 2922 0174 0B       		.uleb128 0xb
 2923 0175 3B       		.uleb128 0x3b
 2924 0176 0B       		.uleb128 0xb
 2925 0177 49       		.uleb128 0x49
 2926 0178 13       		.uleb128 0x13
 2927 0179 00       		.byte	0
 2928 017a 00       		.byte	0
 2929 017b 20       		.uleb128 0x20
 2930 017c 0B       		.uleb128 0xb
 2931 017d 01       		.byte	0x1
 2932 017e 00       		.byte	0
 2933 017f 00       		.byte	0
 2934 0180 21       		.uleb128 0x21
 2935 0181 2E       		.uleb128 0x2e
 2936 0182 01       		.byte	0x1
 2937 0183 03       		.uleb128 0x3
 2938 0184 0E       		.uleb128 0xe
 2939 0185 3A       		.uleb128 0x3a
 2940 0186 0B       		.uleb128 0xb
 2941 0187 3B       		.uleb128 0x3b
 2942 0188 0B       		.uleb128 0xb
 2943 0189 27       		.uleb128 0x27
 2944 018a 0C       		.uleb128 0xc
 2945 018b 11       		.uleb128 0x11
 2946 018c 01       		.uleb128 0x1
 2947 018d 12       		.uleb128 0x12
 2948 018e 01       		.uleb128 0x1
 2949 018f 40       		.uleb128 0x40
 2950 0190 0A       		.uleb128 0xa
 2951 0191 01       		.uleb128 0x1
 2952 0192 13       		.uleb128 0x13
ARM GAS  /tmp/ccOViKkN.s 			page 53


 2953 0193 00       		.byte	0
 2954 0194 00       		.byte	0
 2955 0195 22       		.uleb128 0x22
 2956 0196 05       		.uleb128 0x5
 2957 0197 00       		.byte	0
 2958 0198 03       		.uleb128 0x3
 2959 0199 08       		.uleb128 0x8
 2960 019a 3A       		.uleb128 0x3a
 2961 019b 0B       		.uleb128 0xb
 2962 019c 3B       		.uleb128 0x3b
 2963 019d 0B       		.uleb128 0xb
 2964 019e 49       		.uleb128 0x49
 2965 019f 13       		.uleb128 0x13
 2966 01a0 02       		.uleb128 0x2
 2967 01a1 06       		.uleb128 0x6
 2968 01a2 00       		.byte	0
 2969 01a3 00       		.byte	0
 2970 01a4 23       		.uleb128 0x23
 2971 01a5 2E       		.uleb128 0x2e
 2972 01a6 01       		.byte	0x1
 2973 01a7 3F       		.uleb128 0x3f
 2974 01a8 0C       		.uleb128 0xc
 2975 01a9 03       		.uleb128 0x3
 2976 01aa 0E       		.uleb128 0xe
 2977 01ab 3A       		.uleb128 0x3a
 2978 01ac 0B       		.uleb128 0xb
 2979 01ad 3B       		.uleb128 0x3b
 2980 01ae 05       		.uleb128 0x5
 2981 01af 27       		.uleb128 0x27
 2982 01b0 0C       		.uleb128 0xc
 2983 01b1 11       		.uleb128 0x11
 2984 01b2 01       		.uleb128 0x1
 2985 01b3 12       		.uleb128 0x12
 2986 01b4 01       		.uleb128 0x1
 2987 01b5 40       		.uleb128 0x40
 2988 01b6 06       		.uleb128 0x6
 2989 01b7 01       		.uleb128 0x1
 2990 01b8 13       		.uleb128 0x13
 2991 01b9 00       		.byte	0
 2992 01ba 00       		.byte	0
 2993 01bb 24       		.uleb128 0x24
 2994 01bc 1D       		.uleb128 0x1d
 2995 01bd 01       		.byte	0x1
 2996 01be 31       		.uleb128 0x31
 2997 01bf 13       		.uleb128 0x13
 2998 01c0 52       		.uleb128 0x52
 2999 01c1 01       		.uleb128 0x1
 3000 01c2 55       		.uleb128 0x55
 3001 01c3 06       		.uleb128 0x6
 3002 01c4 58       		.uleb128 0x58
 3003 01c5 0B       		.uleb128 0xb
 3004 01c6 59       		.uleb128 0x59
 3005 01c7 05       		.uleb128 0x5
 3006 01c8 00       		.byte	0
 3007 01c9 00       		.byte	0
 3008 01ca 25       		.uleb128 0x25
 3009 01cb 0B       		.uleb128 0xb
ARM GAS  /tmp/ccOViKkN.s 			page 54


 3010 01cc 01       		.byte	0x1
 3011 01cd 55       		.uleb128 0x55
 3012 01ce 06       		.uleb128 0x6
 3013 01cf 00       		.byte	0
 3014 01d0 00       		.byte	0
 3015 01d1 26       		.uleb128 0x26
 3016 01d2 34       		.uleb128 0x34
 3017 01d3 00       		.byte	0
 3018 01d4 31       		.uleb128 0x31
 3019 01d5 13       		.uleb128 0x13
 3020 01d6 02       		.uleb128 0x2
 3021 01d7 06       		.uleb128 0x6
 3022 01d8 00       		.byte	0
 3023 01d9 00       		.byte	0
 3024 01da 27       		.uleb128 0x27
 3025 01db 34       		.uleb128 0x34
 3026 01dc 00       		.byte	0
 3027 01dd 31       		.uleb128 0x31
 3028 01de 13       		.uleb128 0x13
 3029 01df 02       		.uleb128 0x2
 3030 01e0 0A       		.uleb128 0xa
 3031 01e1 00       		.byte	0
 3032 01e2 00       		.byte	0
 3033 01e3 28       		.uleb128 0x28
 3034 01e4 05       		.uleb128 0x5
 3035 01e5 00       		.byte	0
 3036 01e6 31       		.uleb128 0x31
 3037 01e7 13       		.uleb128 0x13
 3038 01e8 02       		.uleb128 0x2
 3039 01e9 0A       		.uleb128 0xa
 3040 01ea 00       		.byte	0
 3041 01eb 00       		.byte	0
 3042 01ec 29       		.uleb128 0x29
 3043 01ed 1D       		.uleb128 0x1d
 3044 01ee 01       		.byte	0x1
 3045 01ef 31       		.uleb128 0x31
 3046 01f0 13       		.uleb128 0x13
 3047 01f1 11       		.uleb128 0x11
 3048 01f2 01       		.uleb128 0x1
 3049 01f3 12       		.uleb128 0x12
 3050 01f4 01       		.uleb128 0x1
 3051 01f5 58       		.uleb128 0x58
 3052 01f6 0B       		.uleb128 0xb
 3053 01f7 59       		.uleb128 0x59
 3054 01f8 0B       		.uleb128 0xb
 3055 01f9 01       		.uleb128 0x1
 3056 01fa 13       		.uleb128 0x13
 3057 01fb 00       		.byte	0
 3058 01fc 00       		.byte	0
 3059 01fd 2A       		.uleb128 0x2a
 3060 01fe 05       		.uleb128 0x5
 3061 01ff 00       		.byte	0
 3062 0200 31       		.uleb128 0x31
 3063 0201 13       		.uleb128 0x13
 3064 0202 02       		.uleb128 0x2
 3065 0203 06       		.uleb128 0x6
 3066 0204 00       		.byte	0
ARM GAS  /tmp/ccOViKkN.s 			page 55


 3067 0205 00       		.byte	0
 3068 0206 2B       		.uleb128 0x2b
 3069 0207 0B       		.uleb128 0xb
 3070 0208 01       		.byte	0x1
 3071 0209 11       		.uleb128 0x11
 3072 020a 01       		.uleb128 0x1
 3073 020b 12       		.uleb128 0x12
 3074 020c 01       		.uleb128 0x1
 3075 020d 00       		.byte	0
 3076 020e 00       		.byte	0
 3077 020f 2C       		.uleb128 0x2c
 3078 0210 2E       		.uleb128 0x2e
 3079 0211 00       		.byte	0
 3080 0212 3F       		.uleb128 0x3f
 3081 0213 0C       		.uleb128 0xc
 3082 0214 03       		.uleb128 0x3
 3083 0215 0E       		.uleb128 0xe
 3084 0216 3A       		.uleb128 0x3a
 3085 0217 0B       		.uleb128 0xb
 3086 0218 3B       		.uleb128 0x3b
 3087 0219 05       		.uleb128 0x5
 3088 021a 27       		.uleb128 0x27
 3089 021b 0C       		.uleb128 0xc
 3090 021c 11       		.uleb128 0x11
 3091 021d 01       		.uleb128 0x1
 3092 021e 12       		.uleb128 0x12
 3093 021f 01       		.uleb128 0x1
 3094 0220 40       		.uleb128 0x40
 3095 0221 06       		.uleb128 0x6
 3096 0222 00       		.byte	0
 3097 0223 00       		.byte	0
 3098 0224 2D       		.uleb128 0x2d
 3099 0225 05       		.uleb128 0x5
 3100 0226 00       		.byte	0
 3101 0227 03       		.uleb128 0x3
 3102 0228 08       		.uleb128 0x8
 3103 0229 3A       		.uleb128 0x3a
 3104 022a 0B       		.uleb128 0xb
 3105 022b 3B       		.uleb128 0x3b
 3106 022c 05       		.uleb128 0x5
 3107 022d 49       		.uleb128 0x49
 3108 022e 13       		.uleb128 0x13
 3109 022f 02       		.uleb128 0x2
 3110 0230 06       		.uleb128 0x6
 3111 0231 00       		.byte	0
 3112 0232 00       		.byte	0
 3113 0233 2E       		.uleb128 0x2e
 3114 0234 05       		.uleb128 0x5
 3115 0235 00       		.byte	0
 3116 0236 03       		.uleb128 0x3
 3117 0237 0E       		.uleb128 0xe
 3118 0238 3A       		.uleb128 0x3a
 3119 0239 0B       		.uleb128 0xb
 3120 023a 3B       		.uleb128 0x3b
 3121 023b 05       		.uleb128 0x5
 3122 023c 49       		.uleb128 0x49
 3123 023d 13       		.uleb128 0x13
ARM GAS  /tmp/ccOViKkN.s 			page 56


 3124 023e 02       		.uleb128 0x2
 3125 023f 06       		.uleb128 0x6
 3126 0240 00       		.byte	0
 3127 0241 00       		.byte	0
 3128 0242 2F       		.uleb128 0x2f
 3129 0243 05       		.uleb128 0x5
 3130 0244 00       		.byte	0
 3131 0245 31       		.uleb128 0x31
 3132 0246 13       		.uleb128 0x13
 3133 0247 00       		.byte	0
 3134 0248 00       		.byte	0
 3135 0249 30       		.uleb128 0x30
 3136 024a 2E       		.uleb128 0x2e
 3137 024b 01       		.byte	0x1
 3138 024c 3F       		.uleb128 0x3f
 3139 024d 0C       		.uleb128 0xc
 3140 024e 03       		.uleb128 0x3
 3141 024f 0E       		.uleb128 0xe
 3142 0250 3A       		.uleb128 0x3a
 3143 0251 0B       		.uleb128 0xb
 3144 0252 3B       		.uleb128 0x3b
 3145 0253 05       		.uleb128 0x5
 3146 0254 27       		.uleb128 0x27
 3147 0255 0C       		.uleb128 0xc
 3148 0256 11       		.uleb128 0x11
 3149 0257 01       		.uleb128 0x1
 3150 0258 12       		.uleb128 0x12
 3151 0259 01       		.uleb128 0x1
 3152 025a 40       		.uleb128 0x40
 3153 025b 0A       		.uleb128 0xa
 3154 025c 01       		.uleb128 0x1
 3155 025d 13       		.uleb128 0x13
 3156 025e 00       		.byte	0
 3157 025f 00       		.byte	0
 3158 0260 31       		.uleb128 0x31
 3159 0261 34       		.uleb128 0x34
 3160 0262 00       		.byte	0
 3161 0263 03       		.uleb128 0x3
 3162 0264 0E       		.uleb128 0xe
 3163 0265 3A       		.uleb128 0x3a
 3164 0266 0B       		.uleb128 0xb
 3165 0267 3B       		.uleb128 0x3b
 3166 0268 0B       		.uleb128 0xb
 3167 0269 49       		.uleb128 0x49
 3168 026a 13       		.uleb128 0x13
 3169 026b 02       		.uleb128 0x2
 3170 026c 0A       		.uleb128 0xa
 3171 026d 00       		.byte	0
 3172 026e 00       		.byte	0
 3173 026f 32       		.uleb128 0x32
 3174 0270 34       		.uleb128 0x34
 3175 0271 00       		.byte	0
 3176 0272 03       		.uleb128 0x3
 3177 0273 0E       		.uleb128 0xe
 3178 0274 3A       		.uleb128 0x3a
 3179 0275 0B       		.uleb128 0xb
 3180 0276 3B       		.uleb128 0x3b
ARM GAS  /tmp/ccOViKkN.s 			page 57


 3181 0277 05       		.uleb128 0x5
 3182 0278 49       		.uleb128 0x49
 3183 0279 13       		.uleb128 0x13
 3184 027a 3F       		.uleb128 0x3f
 3185 027b 0C       		.uleb128 0xc
 3186 027c 3C       		.uleb128 0x3c
 3187 027d 0C       		.uleb128 0xc
 3188 027e 00       		.byte	0
 3189 027f 00       		.byte	0
 3190 0280 33       		.uleb128 0x33
 3191 0281 34       		.uleb128 0x34
 3192 0282 00       		.byte	0
 3193 0283 03       		.uleb128 0x3
 3194 0284 08       		.uleb128 0x8
 3195 0285 3A       		.uleb128 0x3a
 3196 0286 0B       		.uleb128 0xb
 3197 0287 3B       		.uleb128 0x3b
 3198 0288 0B       		.uleb128 0xb
 3199 0289 49       		.uleb128 0x49
 3200 028a 13       		.uleb128 0x13
 3201 028b 3F       		.uleb128 0x3f
 3202 028c 0C       		.uleb128 0xc
 3203 028d 02       		.uleb128 0x2
 3204 028e 0A       		.uleb128 0xa
 3205 028f 00       		.byte	0
 3206 0290 00       		.byte	0
 3207 0291 00       		.byte	0
 3208              		.section	.debug_loc,"",%progbits
 3209              	.Ldebug_loc0:
 3210              	.LLST0:
 3211 0000 00000000 		.4byte	.LVL0
 3212 0004 0C000000 		.4byte	.LVL1
 3213 0008 0100     		.2byte	0x1
 3214 000a 50       		.byte	0x50
 3215 000b 00000000 		.4byte	0
 3216 000f 00000000 		.4byte	0
 3217              	.LLST1:
 3218 0013 00000000 		.4byte	.LFB116
 3219 0017 04000000 		.4byte	.LCFI0
 3220 001b 0200     		.2byte	0x2
 3221 001d 7D       		.byte	0x7d
 3222 001e 00       		.sleb128 0
 3223 001f 04000000 		.4byte	.LCFI0
 3224 0023 30010000 		.4byte	.LFE116
 3225 0027 0200     		.2byte	0x2
 3226 0029 7D       		.byte	0x7d
 3227 002a 18       		.sleb128 24
 3228 002b 00000000 		.4byte	0
 3229 002f 00000000 		.4byte	0
 3230              	.LLST2:
 3231 0033 12000000 		.4byte	.LVL3
 3232 0037 49000000 		.4byte	.LVL10-1
 3233 003b 0500     		.2byte	0x5
 3234 003d 03       		.byte	0x3
 3235 003e 74000000 		.4byte	SD2+116
 3236 0042 49000000 		.4byte	.LVL10-1
 3237 0046 30010000 		.4byte	.LFE116
ARM GAS  /tmp/ccOViKkN.s 			page 58


 3238 004a 0100     		.2byte	0x1
 3239 004c 55       		.byte	0x55
 3240 004d 00000000 		.4byte	0
 3241 0051 00000000 		.4byte	0
 3242              	.LLST3:
 3243 0055 20000000 		.4byte	.LVL5
 3244 0059 5A000000 		.4byte	.LVL11
 3245 005d 0100     		.2byte	0x1
 3246 005f 54       		.byte	0x54
 3247 0060 00000000 		.4byte	0
 3248 0064 00000000 		.4byte	0
 3249              	.LLST4:
 3250 0068 20000000 		.4byte	.LVL5
 3251 006c 5A000000 		.4byte	.LVL11
 3252 0070 0600     		.2byte	0x6
 3253 0072 03       		.byte	0x3
 3254 0073 00000000 		.4byte	SD2
 3255 0077 9F       		.byte	0x9f
 3256 0078 00000000 		.4byte	0
 3257 007c 00000000 		.4byte	0
 3258              	.LLST5:
 3259 0080 20000000 		.4byte	.LVL5
 3260 0084 2A000000 		.4byte	.LVL6
 3261 0088 0200     		.2byte	0x2
 3262 008a 30       		.byte	0x30
 3263 008b 9F       		.byte	0x9f
 3264 008c 2A000000 		.4byte	.LVL6
 3265 0090 5A000000 		.4byte	.LVL11
 3266 0094 0100     		.2byte	0x1
 3267 0096 58       		.byte	0x58
 3268 0097 00000000 		.4byte	0
 3269 009b 00000000 		.4byte	0
 3270              	.LLST6:
 3271 009f 00010000 		.4byte	.LVL12
 3272 00a3 08010000 		.4byte	.LVL13
 3273 00a7 0100     		.2byte	0x1
 3274 00a9 50       		.byte	0x50
 3275 00aa 12010000 		.4byte	.LVL14
 3276 00ae 14010000 		.4byte	.LVL15
 3277 00b2 0100     		.2byte	0x1
 3278 00b4 50       		.byte	0x50
 3279 00b5 00000000 		.4byte	0
 3280 00b9 00000000 		.4byte	0
 3281              	.LLST7:
 3282 00bd 00000000 		.4byte	.LFB117
 3283 00c1 02000000 		.4byte	.LCFI1
 3284 00c5 0200     		.2byte	0x2
 3285 00c7 7D       		.byte	0x7d
 3286 00c8 00       		.sleb128 0
 3287 00c9 02000000 		.4byte	.LCFI1
 3288 00cd 26000000 		.4byte	.LFE117
 3289 00d1 0200     		.2byte	0x2
 3290 00d3 7D       		.byte	0x7d
 3291 00d4 08       		.sleb128 8
 3292 00d5 00000000 		.4byte	0
 3293 00d9 00000000 		.4byte	0
 3294              	.LLST8:
ARM GAS  /tmp/ccOViKkN.s 			page 59


 3295 00dd 00000000 		.4byte	.LFB118
 3296 00e1 02000000 		.4byte	.LCFI2
 3297 00e5 0200     		.2byte	0x2
 3298 00e7 7D       		.byte	0x7d
 3299 00e8 00       		.sleb128 0
 3300 00e9 02000000 		.4byte	.LCFI2
 3301 00ed B4000000 		.4byte	.LFE118
 3302 00f1 0200     		.2byte	0x2
 3303 00f3 7D       		.byte	0x7d
 3304 00f4 10       		.sleb128 16
 3305 00f5 00000000 		.4byte	0
 3306 00f9 00000000 		.4byte	0
 3307              	.LLST9:
 3308 00fd 00000000 		.4byte	.LVL16
 3309 0101 18000000 		.4byte	.LVL17
 3310 0105 0100     		.2byte	0x1
 3311 0107 50       		.byte	0x50
 3312 0108 18000000 		.4byte	.LVL17
 3313 010c B4000000 		.4byte	.LFE118
 3314 0110 0100     		.2byte	0x1
 3315 0112 55       		.byte	0x55
 3316 0113 00000000 		.4byte	0
 3317 0117 00000000 		.4byte	0
 3318              	.LLST10:
 3319 011b 00000000 		.4byte	.LVL16
 3320 011f 18000000 		.4byte	.LVL17
 3321 0123 0100     		.2byte	0x1
 3322 0125 51       		.byte	0x51
 3323 0126 8A000000 		.4byte	.LVL19
 3324 012a 8E000000 		.4byte	.LVL20
 3325 012e 0100     		.2byte	0x1
 3326 0130 51       		.byte	0x51
 3327 0131 00000000 		.4byte	0
 3328 0135 00000000 		.4byte	0
 3329              	.LLST11:
 3330 0139 18000000 		.4byte	.LVL17
 3331 013d 8A000000 		.4byte	.LVL19
 3332 0141 0100     		.2byte	0x1
 3333 0143 55       		.byte	0x55
 3334 0144 00000000 		.4byte	0
 3335 0148 00000000 		.4byte	0
 3336              	.LLST12:
 3337 014c 1A000000 		.4byte	.LVL18
 3338 0150 8A000000 		.4byte	.LVL19
 3339 0154 0300     		.2byte	0x3
 3340 0156 75       		.byte	0x75
 3341 0157 F400     		.sleb128 116
 3342 0159 00000000 		.4byte	0
 3343 015d 00000000 		.4byte	0
 3344              	.LLST13:
 3345 0161 00000000 		.4byte	.LVL21
 3346 0165 08000000 		.4byte	.LVL22
 3347 0169 0100     		.2byte	0x1
 3348 016b 50       		.byte	0x50
 3349 016c 0C000000 		.4byte	.LVL23
 3350 0170 28000000 		.4byte	.LVL25
 3351 0174 0100     		.2byte	0x1
ARM GAS  /tmp/ccOViKkN.s 			page 60


 3352 0176 50       		.byte	0x50
 3353 0177 00000000 		.4byte	0
 3354 017b 00000000 		.4byte	0
 3355              	.LLST14:
 3356 017f 0E000000 		.4byte	.LVL24
 3357 0183 28000000 		.4byte	.LVL25
 3358 0187 0300     		.2byte	0x3
 3359 0189 70       		.byte	0x70
 3360 018a F400     		.sleb128 116
 3361 018c 28000000 		.4byte	.LVL25
 3362 0190 2A000000 		.4byte	.LVL26
 3363 0194 0100     		.2byte	0x1
 3364 0196 52       		.byte	0x52
 3365 0197 00000000 		.4byte	0
 3366 019b 00000000 		.4byte	0
 3367              		.section	.debug_aranges,"",%progbits
 3368 0000 3C000000 		.4byte	0x3c
 3369 0004 0200     		.2byte	0x2
 3370 0006 00000000 		.4byte	.Ldebug_info0
 3371 000a 04       		.byte	0x4
 3372 000b 00       		.byte	0
 3373 000c 0000     		.2byte	0
 3374 000e 0000     		.2byte	0
 3375 0010 00000000 		.4byte	.LFB115
 3376 0014 14000000 		.4byte	.LFE115-.LFB115
 3377 0018 00000000 		.4byte	.LFB116
 3378 001c 30010000 		.4byte	.LFE116-.LFB116
 3379 0020 00000000 		.4byte	.LFB117
 3380 0024 26000000 		.4byte	.LFE117-.LFB117
 3381 0028 00000000 		.4byte	.LFB118
 3382 002c B4000000 		.4byte	.LFE118-.LFB118
 3383 0030 00000000 		.4byte	.LFB119
 3384 0034 34000000 		.4byte	.LFE119-.LFB119
 3385 0038 00000000 		.4byte	0
 3386 003c 00000000 		.4byte	0
 3387              		.section	.debug_ranges,"",%progbits
 3388              	.Ldebug_ranges0:
 3389 0000 08000000 		.4byte	.LBB17
 3390 0004 9C000000 		.4byte	.LBE17
 3391 0008 A8000000 		.4byte	.LBB23
 3392 000c 30010000 		.4byte	.LBE23
 3393 0010 00000000 		.4byte	0
 3394 0014 00000000 		.4byte	0
 3395 0018 08000000 		.4byte	.LBB18
 3396 001c 9C000000 		.4byte	.LBE18
 3397 0020 A8000000 		.4byte	.LBB22
 3398 0024 30010000 		.4byte	.LBE22
 3399 0028 00000000 		.4byte	0
 3400 002c 00000000 		.4byte	0
 3401 0030 18000000 		.4byte	.LBB24
 3402 0034 78000000 		.4byte	.LBE24
 3403 0038 7A000000 		.4byte	.LBB27
 3404 003c 8A000000 		.4byte	.LBE27
 3405 0040 00000000 		.4byte	0
 3406 0044 00000000 		.4byte	0
 3407 0048 18000000 		.4byte	.LBB25
 3408 004c 78000000 		.4byte	.LBE25
ARM GAS  /tmp/ccOViKkN.s 			page 61


 3409 0050 7A000000 		.4byte	.LBB26
 3410 0054 8A000000 		.4byte	.LBE26
 3411 0058 00000000 		.4byte	0
 3412 005c 00000000 		.4byte	0
 3413 0060 12000000 		.4byte	.LBB28
 3414 0064 14000000 		.4byte	.LBE28
 3415 0068 16000000 		.4byte	.LBB31
 3416 006c 1C000000 		.4byte	.LBE31
 3417 0070 00000000 		.4byte	0
 3418 0074 00000000 		.4byte	0
 3419 0078 00000000 		.4byte	.LFB115
 3420 007c 14000000 		.4byte	.LFE115
 3421 0080 00000000 		.4byte	.LFB116
 3422 0084 30010000 		.4byte	.LFE116
 3423 0088 00000000 		.4byte	.LFB117
 3424 008c 26000000 		.4byte	.LFE117
 3425 0090 00000000 		.4byte	.LFB118
 3426 0094 B4000000 		.4byte	.LFE118
 3427 0098 00000000 		.4byte	.LFB119
 3428 009c 34000000 		.4byte	.LFE119
 3429 00a0 00000000 		.4byte	0
 3430 00a4 00000000 		.4byte	0
 3431              		.section	.debug_line,"",%progbits
 3432              	.Ldebug_line0:
 3433 0000 43030000 		.section	.debug_str,"MS",%progbits,1
 3433      02005202 
 3433      00000201 
 3433      FB0E0D00 
 3433      01010101 
 3434              	.LASF2:
 3435 0000 73697A65 		.ascii	"size_t\000"
 3435      5F7400
 3436              	.LASF126:
 3437 0007 54494D38 		.ascii	"TIM8_UP_TIM13_IRQn\000"
 3437      5F55505F 
 3437      54494D31 
 3437      335F4952 
 3437      516E00
 3438              	.LASF21:
 3439 001a 73797374 		.ascii	"systime_t\000"
 3439      696D655F 
 3439      7400
 3440              	.LASF190:
 3441 0024 504C4C49 		.ascii	"PLLI2SCFGR\000"
 3441      32534346 
 3441      475200
 3442              	.LASF26:
 3443 002f 705F6374 		.ascii	"p_ctx\000"
 3443      7800
 3444              	.LASF17:
 3445 0035 74707269 		.ascii	"tprio_t\000"
 3445      6F5F7400 
 3446              	.LASF35:
 3447 003d 705F6D73 		.ascii	"p_msgqueue\000"
 3447      67717565 
 3447      756500
 3448              	.LASF8:
ARM GAS  /tmp/ccOViKkN.s 			page 62


 3449 0048 696E7433 		.ascii	"int32_t\000"
 3449      325F7400 
 3450              	.LASF208:
 3451 0050 53657269 		.ascii	"SerialConfig\000"
 3451      616C436F 
 3451      6E666967 
 3451      00
 3452              	.LASF214:
 3453 005d 77726974 		.ascii	"writet\000"
 3453      657400
 3454              	.LASF192:
 3455 0064 47545052 		.ascii	"GTPR\000"
 3455      00
 3456              	.LASF210:
 3457 0069 77726974 		.ascii	"write\000"
 3457      6500
 3458              	.LASF139:
 3459 006f 444D4132 		.ascii	"DMA2_Stream1_IRQn\000"
 3459      5F537472 
 3459      65616D31 
 3459      5F495251 
 3459      6E00
 3460              	.LASF221:
 3461 0081 56656374 		.ascii	"VectorD8\000"
 3461      6F724438 
 3461      00
 3462              	.LASF133:
 3463 008a 53504933 		.ascii	"SPI3_IRQn\000"
 3463      5F495251 
 3463      6E00
 3464              	.LASF86:
 3465 0094 464C4153 		.ascii	"FLASH_IRQn\000"
 3465      485F4952 
 3465      516E00
 3466              	.LASF160:
 3467 009f 44434D49 		.ascii	"DCMI_IRQn\000"
 3467      5F495251 
 3467      6E00
 3468              	.LASF54:
 3469 00a9 656C5F66 		.ascii	"el_flags\000"
 3469      6C616773 
 3469      00
 3470              	.LASF218:
 3471 00b2 636F6E66 		.ascii	"config\000"
 3471      696700
 3472              	.LASF200:
 3473 00b9 73746174 		.ascii	"state\000"
 3473      6500
 3474              	.LASF212:
 3475 00bf 70757474 		.ascii	"putt\000"
 3475      00
 3476              	.LASF110:
 3477 00c4 54494D32 		.ascii	"TIM2_IRQn\000"
 3477      5F495251 
 3477      6E00
 3478              	.LASF220:
 3479 00ce 73657276 		.ascii	"serve_interrupt\000"
ARM GAS  /tmp/ccOViKkN.s 			page 63


 3479      655F696E 
 3479      74657272 
 3479      75707400 
 3480              	.LASF216:
 3481 00de 7365745F 		.ascii	"set_error\000"
 3481      6572726F 
 3481      7200
 3482              	.LASF146:
 3483 00e8 43414E32 		.ascii	"CAN2_RX0_IRQn\000"
 3483      5F525830 
 3483      5F495251 
 3483      6E00
 3484              	.LASF153:
 3485 00f6 55534152 		.ascii	"USART6_IRQn\000"
 3485      54365F49 
 3485      52516E00 
 3486              	.LASF48:
 3487 0102 6D5F6F77 		.ascii	"m_owner\000"
 3487      6E657200 
 3488              	.LASF58:
 3489 010a 65786974 		.ascii	"exitcode\000"
 3489      636F6465 
 3489      00
 3490              	.LASF158:
 3491 0113 4F54475F 		.ascii	"OTG_HS_WKUP_IRQn\000"
 3491      48535F57 
 3491      4B55505F 
 3491      4952516E 
 3491      00
 3492              	.LASF66:
 3493 0124 715F746F 		.ascii	"q_top\000"
 3493      7000
 3494              	.LASF118:
 3495 012a 53504932 		.ascii	"SPI2_IRQn\000"
 3495      5F495251 
 3495      6E00
 3496              	.LASF125:
 3497 0134 54494D38 		.ascii	"TIM8_BRK_TIM12_IRQn\000"
 3497      5F42524B 
 3497      5F54494D 
 3497      31325F49 
 3497      52516E00 
 3498              	.LASF181:
 3499 0148 41484232 		.ascii	"AHB2LPENR\000"
 3499      4C50454E 
 3499      5200
 3500              	.LASF215:
 3501 0152 72656164 		.ascii	"readt\000"
 3501      7400
 3502              	.LASF222:
 3503 0158 73645F6C 		.ascii	"sd_lld_start\000"
 3503      6C645F73 
 3503      74617274 
 3503      00
 3504              	.LASF65:
 3505 0165 715F6275 		.ascii	"q_buffer\000"
 3505      66666572 
ARM GAS  /tmp/ccOViKkN.s 			page 64


 3505      00
 3506              	.LASF69:
 3507 016e 715F6E6F 		.ascii	"q_notify\000"
 3507      74696679 
 3507      00
 3508              	.LASF27:
 3509 0177 705F6E65 		.ascii	"p_newer\000"
 3509      77657200 
 3510              	.LASF9:
 3511 017f 6C6F6E67 		.ascii	"long int\000"
 3511      20696E74 
 3511      00
 3512              	.LASF23:
 3513 0188 705F6E65 		.ascii	"p_next\000"
 3513      787400
 3514              	.LASF68:
 3515 018f 715F7264 		.ascii	"q_rdptr\000"
 3515      70747200 
 3516              	.LASF24:
 3517 0197 705F7072 		.ascii	"p_prev\000"
 3517      657600
 3518              	.LASF231:
 3519 019e 64656661 		.ascii	"default_config\000"
 3519      756C745F 
 3519      636F6E66 
 3519      696700
 3520              	.LASF150:
 3521 01ad 444D4132 		.ascii	"DMA2_Stream5_IRQn\000"
 3521      5F537472 
 3521      65616D35 
 3521      5F495251 
 3521      6E00
 3522              	.LASF16:
 3523 01bf 74737461 		.ascii	"tstate_t\000"
 3523      74655F74 
 3523      00
 3524              	.LASF38:
 3525 01c8 705F6D74 		.ascii	"p_mtxlist\000"
 3525      786C6973 
 3525      7400
 3526              	.LASF108:
 3527 01d2 54494D31 		.ascii	"TIM1_TRG_COM_TIM11_IRQn\000"
 3527      5F545247 
 3527      5F434F4D 
 3527      5F54494D 
 3527      31315F49 
 3528              	.LASF202:
 3529 01ea 6F717565 		.ascii	"oqueue\000"
 3529      756500
 3530              	.LASF42:
 3531 01f1 72656761 		.ascii	"regarm_t\000"
 3531      726D5F74 
 3531      00
 3532              	.LASF178:
 3533 01fa 41504232 		.ascii	"APB2ENR\000"
 3533      454E5200 
 3534              	.LASF180:
ARM GAS  /tmp/ccOViKkN.s 			page 65


 3535 0202 41484231 		.ascii	"AHB1LPENR\000"
 3535      4C50454E 
 3535      5200
 3536              	.LASF81:
 3537 020c 53797354 		.ascii	"SysTick_IRQn\000"
 3537      69636B5F 
 3537      4952516E 
 3537      00
 3538              	.LASF121:
 3539 0219 55534152 		.ascii	"USART3_IRQn\000"
 3539      54335F49 
 3539      52516E00 
 3540              	.LASF203:
 3541 0225 75736172 		.ascii	"usart\000"
 3541      7400
 3542              	.LASF1:
 3543 022b 7369676E 		.ascii	"signed char\000"
 3543      65642063 
 3543      68617200 
 3544              	.LASF60:
 3545 0237 65776D61 		.ascii	"ewmask\000"
 3545      736B00
 3546              	.LASF3:
 3547 023e 75696E74 		.ascii	"uint8_t\000"
 3547      385F7400 
 3548              	.LASF19:
 3549 0246 6576656E 		.ascii	"eventmask_t\000"
 3549      746D6173 
 3549      6B5F7400 
 3550              	.LASF45:
 3551 0252 636F6E74 		.ascii	"context\000"
 3551      65787400 
 3552              	.LASF95:
 3553 025a 444D4131 		.ascii	"DMA1_Stream2_IRQn\000"
 3553      5F537472 
 3553      65616D32 
 3553      5F495251 
 3553      6E00
 3554              	.LASF169:
 3555 026c 52455345 		.ascii	"RESERVED0\000"
 3555      52564544 
 3555      3000
 3556              	.LASF172:
 3557 0276 52455345 		.ascii	"RESERVED1\000"
 3557      52564544 
 3557      3100
 3558              	.LASF4:
 3559 0280 756E7369 		.ascii	"unsigned char\000"
 3559      676E6564 
 3559      20636861 
 3559      7200
 3560              	.LASF142:
 3561 028e 444D4132 		.ascii	"DMA2_Stream4_IRQn\000"
 3561      5F537472 
 3561      65616D34 
 3561      5F495251 
 3561      6E00
ARM GAS  /tmp/ccOViKkN.s 			page 66


 3562              	.LASF183:
 3563 02a0 52455345 		.ascii	"RESERVED4\000"
 3563      52564544 
 3563      3400
 3564              	.LASF70:
 3565 02aa 715F6C69 		.ascii	"q_link\000"
 3565      6E6B00
 3566              	.LASF188:
 3567 02b1 52455345 		.ascii	"RESERVED6\000"
 3567      52564544 
 3567      3600
 3568              	.LASF114:
 3569 02bb 49324331 		.ascii	"I2C1_ER_IRQn\000"
 3569      5F45525F 
 3569      4952516E 
 3569      00
 3570              	.LASF148:
 3571 02c8 43414E32 		.ascii	"CAN2_SCE_IRQn\000"
 3571      5F534345 
 3571      5F495251 
 3571      6E00
 3572              	.LASF194:
 3573 02d6 53445F55 		.ascii	"SD_UNINIT\000"
 3573      4E494E49 
 3573      5400
 3574              	.LASF176:
 3575 02e0 52455345 		.ascii	"RESERVED2\000"
 3575      52564544 
 3575      3200
 3576              	.LASF179:
 3577 02ea 52455345 		.ascii	"RESERVED3\000"
 3577      52564544 
 3577      3300
 3578              	.LASF132:
 3579 02f4 54494D35 		.ascii	"TIM5_IRQn\000"
 3579      5F495251 
 3579      6E00
 3580              	.LASF186:
 3581 02fe 52455345 		.ascii	"RESERVED5\000"
 3581      52564544 
 3581      3500
 3582              	.LASF77:
 3583 0308 55736167 		.ascii	"UsageFault_IRQn\000"
 3583      65466175 
 3583      6C745F49 
 3583      52516E00 
 3584              	.LASF61:
 3585 0318 63686172 		.ascii	"char\000"
 3585      00
 3586              	.LASF25:
 3587 031d 705F7072 		.ascii	"p_prio\000"
 3587      696F00
 3588              	.LASF174:
 3589 0324 41484232 		.ascii	"AHB2ENR\000"
 3589      454E5200 
 3590              	.LASF62:
 3591 032c 47656E65 		.ascii	"GenericQueue\000"
ARM GAS  /tmp/ccOViKkN.s 			page 67


 3591      72696351 
 3591      75657565 
 3591      00
 3592              	.LASF59:
 3593 0339 77746F62 		.ascii	"wtobjp\000"
 3593      6A7000
 3594              	.LASF102:
 3595 0340 43414E31 		.ascii	"CAN1_RX0_IRQn\000"
 3595      5F525830 
 3595      5F495251 
 3595      6E00
 3596              	.LASF213:
 3597 034e 67657474 		.ascii	"gett\000"
 3597      00
 3598              	.LASF43:
 3599 0353 73746B61 		.ascii	"stkalign_t\000"
 3599      6C69676E 
 3599      5F7400
 3600              	.LASF193:
 3601 035e 55534152 		.ascii	"USART_TypeDef\000"
 3601      545F5479 
 3601      70654465 
 3601      6600
 3602              	.LASF73:
 3603 036c 4F757470 		.ascii	"OutputQueue\000"
 3603      75745175 
 3603      65756500 
 3604              	.LASF112:
 3605 0378 54494D34 		.ascii	"TIM4_IRQn\000"
 3605      5F495251 
 3605      6E00
 3606              	.LASF120:
 3607 0382 55534152 		.ascii	"USART2_IRQn\000"
 3607      54325F49 
 3607      52516E00 
 3608              	.LASF187:
 3609 038e 42444352 		.ascii	"BDCR\000"
 3609      00
 3610              	.LASF113:
 3611 0393 49324331 		.ascii	"I2C1_EV_IRQn\000"
 3611      5F45565F 
 3611      4952516E 
 3611      00
 3612              	.LASF44:
 3613 03a0 696E7463 		.ascii	"intctx\000"
 3613      747800
 3614              	.LASF37:
 3615 03a7 705F6570 		.ascii	"p_epending\000"
 3615      656E6469 
 3615      6E6700
 3616              	.LASF226:
 3617 03b2 2E2E2F2E 		.ascii	"../../../os/hal/platforms/STM32/USARTv1/serial_lld."
 3617      2E2F2E2E 
 3617      2F6F732F 
 3617      68616C2F 
 3617      706C6174 
 3618 03e5 6300     		.ascii	"c\000"
ARM GAS  /tmp/ccOViKkN.s 			page 68


 3619              	.LASF165:
 3620 03e7 43464752 		.ascii	"CFGR\000"
 3620      00
 3621              	.LASF109:
 3622 03ec 54494D31 		.ascii	"TIM1_CC_IRQn\000"
 3622      5F43435F 
 3622      4952516E 
 3622      00
 3623              	.LASF162:
 3624 03f9 48415348 		.ascii	"HASH_RNG_IRQn\000"
 3624      5F524E47 
 3624      5F495251 
 3624      6E00
 3625              	.LASF89:
 3626 0407 45585449 		.ascii	"EXTI1_IRQn\000"
 3626      315F4952 
 3626      516E00
 3627              	.LASF101:
 3628 0412 43414E31 		.ascii	"CAN1_TX_IRQn\000"
 3628      5F54585F 
 3628      4952516E 
 3628      00
 3629              	.LASF98:
 3630 041f 444D4131 		.ascii	"DMA1_Stream5_IRQn\000"
 3630      5F537472 
 3630      65616D35 
 3630      5F495251 
 3630      6E00
 3631              	.LASF127:
 3632 0431 54494D38 		.ascii	"TIM8_TRG_COM_TIM14_IRQn\000"
 3632      5F545247 
 3632      5F434F4D 
 3632      5F54494D 
 3632      31345F49 
 3633              	.LASF56:
 3634 0449 65735F6E 		.ascii	"es_next\000"
 3634      65787400 
 3635              	.LASF64:
 3636 0451 715F636F 		.ascii	"q_counter\000"
 3636      756E7465 
 3636      7200
 3637              	.LASF149:
 3638 045b 4F54475F 		.ascii	"OTG_FS_IRQn\000"
 3638      46535F49 
 3638      52516E00 
 3639              	.LASF74:
 3640 0467 4E6F6E4D 		.ascii	"NonMaskableInt_IRQn\000"
 3640      61736B61 
 3640      626C6549 
 3640      6E745F49 
 3640      52516E00 
 3641              	.LASF130:
 3642 047b 46534D43 		.ascii	"FSMC_IRQn\000"
 3642      5F495251 
 3642      6E00
 3643              	.LASF55:
 3644 0485 4576656E 		.ascii	"EventSource\000"
ARM GAS  /tmp/ccOViKkN.s 			page 69


 3644      74536F75 
 3644      72636500 
 3645              	.LASF82:
 3646 0491 57574447 		.ascii	"WWDG_IRQn\000"
 3646      5F495251 
 3646      6E00
 3647              	.LASF11:
 3648 049b 6C6F6E67 		.ascii	"long unsigned int\000"
 3648      20756E73 
 3648      69676E65 
 3648      6420696E 
 3648      7400
 3649              	.LASF75:
 3650 04ad 4D656D6F 		.ascii	"MemoryManagement_IRQn\000"
 3650      72794D61 
 3650      6E616765 
 3650      6D656E74 
 3650      5F495251 
 3651              	.LASF84:
 3652 04c3 54414D50 		.ascii	"TAMP_STAMP_IRQn\000"
 3652      5F535441 
 3652      4D505F49 
 3652      52516E00 
 3653              	.LASF104:
 3654 04d3 43414E31 		.ascii	"CAN1_SCE_IRQn\000"
 3654      5F534345 
 3654      5F495251 
 3654      6E00
 3655              	.LASF51:
 3656 04e1 656C5F6E 		.ascii	"el_next\000"
 3656      65787400 
 3657              	.LASF67:
 3658 04e9 715F7772 		.ascii	"q_wrptr\000"
 3658      70747200 
 3659              	.LASF209:
 3660 04f1 53657269 		.ascii	"SerialDriverVMT\000"
 3660      616C4472 
 3660      69766572 
 3660      564D5400 
 3661              	.LASF219:
 3662 0501 75736172 		.ascii	"usart_deinit\000"
 3662      745F6465 
 3662      696E6974 
 3662      00
 3663              	.LASF227:
 3664 050e 2F686F6D 		.ascii	"/home/prana/workspace/eth/ch/testhal/STM32F4xx/RTC\000"
 3664      652F7072 
 3664      616E612F 
 3664      776F726B 
 3664      73706163 
 3665              	.LASF116:
 3666 0541 49324332 		.ascii	"I2C2_ER_IRQn\000"
 3666      5F45525F 
 3666      4952516E 
 3666      00
 3667              	.LASF76:
 3668 054e 42757346 		.ascii	"BusFault_IRQn\000"
ARM GAS  /tmp/ccOViKkN.s 			page 70


 3668      61756C74 
 3668      5F495251 
 3668      6E00
 3669              	.LASF230:
 3670 055c 73645F6C 		.ascii	"sd_lld_init\000"
 3670      6C645F69 
 3670      6E697400 
 3671              	.LASF164:
 3672 0568 504C4C43 		.ascii	"PLLCFGR\000"
 3672      46475200 
 3673              	.LASF135:
 3674 0570 55415254 		.ascii	"UART5_IRQn\000"
 3674      355F4952 
 3674      516E00
 3675              	.LASF106:
 3676 057b 54494D31 		.ascii	"TIM1_BRK_TIM9_IRQn\000"
 3676      5F42524B 
 3676      5F54494D 
 3676      395F4952 
 3676      516E00
 3677              	.LASF205:
 3678 058e 73635F63 		.ascii	"sc_cr1\000"
 3678      723100
 3679              	.LASF206:
 3680 0595 73635F63 		.ascii	"sc_cr2\000"
 3680      723200
 3681              	.LASF207:
 3682 059c 73635F63 		.ascii	"sc_cr3\000"
 3682      723300
 3683              	.LASF46:
 3684 05a3 4D757465 		.ascii	"Mutex\000"
 3684      7800
 3685              	.LASF137:
 3686 05a9 54494D37 		.ascii	"TIM7_IRQn\000"
 3686      5F495251 
 3686      6E00
 3687              	.LASF12:
 3688 05b3 6C6F6E67 		.ascii	"long long int\000"
 3688      206C6F6E 
 3688      6720696E 
 3688      7400
 3689              	.LASF144:
 3690 05c1 4554485F 		.ascii	"ETH_WKUP_IRQn\000"
 3690      574B5550 
 3690      5F495251 
 3690      6E00
 3691              	.LASF159:
 3692 05cf 4F54475F 		.ascii	"OTG_HS_IRQn\000"
 3692      48535F49 
 3692      52516E00 
 3693              	.LASF47:
 3694 05db 6D5F7175 		.ascii	"m_queue\000"
 3694      65756500 
 3695              	.LASF189:
 3696 05e3 53534347 		.ascii	"SSCGR\000"
 3696      5200
 3697              	.LASF117:
ARM GAS  /tmp/ccOViKkN.s 			page 71


 3698 05e9 53504931 		.ascii	"SPI1_IRQn\000"
 3698      5F495251 
 3698      6E00
 3699              	.LASF78:
 3700 05f3 53564361 		.ascii	"SVCall_IRQn\000"
 3700      6C6C5F49 
 3700      52516E00 
 3701              	.LASF171:
 3702 05ff 41504232 		.ascii	"APB2RSTR\000"
 3702      52535452 
 3702      00
 3703              	.LASF163:
 3704 0608 4650555F 		.ascii	"FPU_IRQn\000"
 3704      4952516E 
 3704      00
 3705              	.LASF134:
 3706 0611 55415254 		.ascii	"UART4_IRQn\000"
 3706      345F4952 
 3706      516E00
 3707              	.LASF185:
 3708 061c 41504232 		.ascii	"APB2LPENR\000"
 3708      4C50454E 
 3708      5200
 3709              	.LASF71:
 3710 0626 716E6F74 		.ascii	"qnotify_t\000"
 3710      6966795F 
 3710      7400
 3711              	.LASF34:
 3712 0630 705F7761 		.ascii	"p_waiting\000"
 3712      6974696E 
 3712      6700
 3713              	.LASF138:
 3714 063a 444D4132 		.ascii	"DMA2_Stream0_IRQn\000"
 3714      5F537472 
 3714      65616D30 
 3714      5F495251 
 3714      6E00
 3715              	.LASF199:
 3716 064c 6576656E 		.ascii	"event\000"
 3716      7400
 3717              	.LASF124:
 3718 0652 4F54475F 		.ascii	"OTG_FS_WKUP_IRQn\000"
 3718      46535F57 
 3718      4B55505F 
 3718      4952516E 
 3718      00
 3719              	.LASF32:
 3720 0663 705F666C 		.ascii	"p_flags\000"
 3720      61677300 
 3721              	.LASF211:
 3722 066b 72656164 		.ascii	"read\000"
 3722      00
 3723              	.LASF0:
 3724 0670 756E7369 		.ascii	"unsigned int\000"
 3724      676E6564 
 3724      20696E74 
 3724      00
ARM GAS  /tmp/ccOViKkN.s 			page 72


 3725              	.LASF136:
 3726 067d 54494D36 		.ascii	"TIM6_DAC_IRQn\000"
 3726      5F444143 
 3726      5F495251 
 3726      6E00
 3727              	.LASF115:
 3728 068b 49324332 		.ascii	"I2C2_EV_IRQn\000"
 3728      5F45565F 
 3728      4952516E 
 3728      00
 3729              	.LASF204:
 3730 0698 73635F73 		.ascii	"sc_speed\000"
 3730      70656564 
 3730      00
 3731              	.LASF41:
 3732 06a1 54687265 		.ascii	"ThreadsList\000"
 3732      6164734C 
 3732      69737400 
 3733              	.LASF184:
 3734 06ad 41504231 		.ascii	"APB1LPENR\000"
 3734      4C50454E 
 3734      5200
 3735              	.LASF94:
 3736 06b7 444D4131 		.ascii	"DMA1_Stream1_IRQn\000"
 3736      5F537472 
 3736      65616D31 
 3736      5F495251 
 3736      6E00
 3737              	.LASF20:
 3738 06c9 666C6167 		.ascii	"flagsmask_t\000"
 3738      736D6173 
 3738      6B5F7400 
 3739              	.LASF141:
 3740 06d5 444D4132 		.ascii	"DMA2_Stream3_IRQn\000"
 3740      5F537472 
 3740      65616D33 
 3740      5F495251 
 3740      6E00
 3741              	.LASF145:
 3742 06e7 43414E32 		.ascii	"CAN2_TX_IRQn\000"
 3742      5F54585F 
 3742      4952516E 
 3742      00
 3743              	.LASF33:
 3744 06f4 705F7469 		.ascii	"p_time\000"
 3744      6D6500
 3745              	.LASF228:
 3746 06fb 4952516E 		.ascii	"IRQn\000"
 3746      00
 3747              	.LASF99:
 3748 0700 444D4131 		.ascii	"DMA1_Stream6_IRQn\000"
 3748      5F537472 
 3748      65616D36 
 3748      5F495251 
 3748      6E00
 3749              	.LASF168:
 3750 0712 41484233 		.ascii	"AHB3RSTR\000"
ARM GAS  /tmp/ccOViKkN.s 			page 73


 3750      52535452 
 3750      00
 3751              	.LASF39:
 3752 071b 705F7265 		.ascii	"p_realprio\000"
 3752      616C7072 
 3752      696F00
 3753              	.LASF152:
 3754 0726 444D4132 		.ascii	"DMA2_Stream7_IRQn\000"
 3754      5F537472 
 3754      65616D37 
 3754      5F495251 
 3754      6E00
 3755              	.LASF93:
 3756 0738 444D4131 		.ascii	"DMA1_Stream0_IRQn\000"
 3756      5F537472 
 3756      65616D30 
 3756      5F495251 
 3756      6E00
 3757              	.LASF170:
 3758 074a 41504231 		.ascii	"APB1RSTR\000"
 3758      52535452 
 3758      00
 3759              	.LASF217:
 3760 0753 75736172 		.ascii	"usart_init\000"
 3760      745F696E 
 3760      697400
 3761              	.LASF123:
 3762 075e 5254435F 		.ascii	"RTC_Alarm_IRQn\000"
 3762      416C6172 
 3762      6D5F4952 
 3762      516E00
 3763              	.LASF177:
 3764 076d 41504231 		.ascii	"APB1ENR\000"
 3764      454E5200 
 3765              	.LASF155:
 3766 0775 49324333 		.ascii	"I2C3_ER_IRQn\000"
 3766      5F45525F 
 3766      4952516E 
 3766      00
 3767              	.LASF161:
 3768 0782 43525950 		.ascii	"CRYP_IRQn\000"
 3768      5F495251 
 3768      6E00
 3769              	.LASF122:
 3770 078c 45585449 		.ascii	"EXTI15_10_IRQn\000"
 3770      31355F31 
 3770      305F4952 
 3770      516E00
 3771              	.LASF14:
 3772 079b 6C6F6E67 		.ascii	"long long unsigned int\000"
 3772      206C6F6E 
 3772      6720756E 
 3772      7369676E 
 3772      65642069 
 3773              	.LASF28:
 3774 07b2 705F6F6C 		.ascii	"p_older\000"
 3774      64657200 
ARM GAS  /tmp/ccOViKkN.s 			page 74


 3775              	.LASF6:
 3776 07ba 75696E74 		.ascii	"uint16_t\000"
 3776      31365F74 
 3776      00
 3777              	.LASF18:
 3778 07c3 6D73675F 		.ascii	"msg_t\000"
 3778      7400
 3779              	.LASF111:
 3780 07c9 54494D33 		.ascii	"TIM3_IRQn\000"
 3780      5F495251 
 3780      6E00
 3781              	.LASF119:
 3782 07d3 55534152 		.ascii	"USART1_IRQn\000"
 3782      54315F49 
 3782      52516E00 
 3783              	.LASF90:
 3784 07df 45585449 		.ascii	"EXTI2_IRQn\000"
 3784      325F4952 
 3784      516E00
 3785              	.LASF147:
 3786 07ea 43414E32 		.ascii	"CAN2_RX1_IRQn\000"
 3786      5F525831 
 3786      5F495251 
 3786      6E00
 3787              	.LASF100:
 3788 07f8 4144435F 		.ascii	"ADC_IRQn\000"
 3788      4952516E 
 3788      00
 3789              	.LASF182:
 3790 0801 41484233 		.ascii	"AHB3LPENR\000"
 3790      4C50454E 
 3790      5200
 3791              	.LASF83:
 3792 080b 5056445F 		.ascii	"PVD_IRQn\000"
 3792      4952516E 
 3792      00
 3793              	.LASF198:
 3794 0814 53657269 		.ascii	"SerialDriver\000"
 3794      616C4472 
 3794      69766572 
 3794      00
 3795              	.LASF63:
 3796 0821 715F7761 		.ascii	"q_waiting\000"
 3796      6974696E 
 3796      6700
 3797              	.LASF88:
 3798 082b 45585449 		.ascii	"EXTI0_IRQn\000"
 3798      305F4952 
 3798      516E00
 3799              	.LASF15:
 3800 0836 746D6F64 		.ascii	"tmode_t\000"
 3800      655F7400 
 3801              	.LASF97:
 3802 083e 444D4131 		.ascii	"DMA1_Stream4_IRQn\000"
 3802      5F537472 
 3802      65616D34 
 3802      5F495251 
ARM GAS  /tmp/ccOViKkN.s 			page 75


 3802      6E00
 3803              	.LASF197:
 3804 0850 73647374 		.ascii	"sdstate_t\000"
 3804      6174655F 
 3804      7400
 3805              	.LASF151:
 3806 085a 444D4132 		.ascii	"DMA2_Stream6_IRQn\000"
 3806      5F537472 
 3806      65616D36 
 3806      5F495251 
 3806      6E00
 3807              	.LASF173:
 3808 086c 41484231 		.ascii	"AHB1ENR\000"
 3808      454E5200 
 3809              	.LASF79:
 3810 0874 44656275 		.ascii	"DebugMonitor_IRQn\000"
 3810      674D6F6E 
 3810      69746F72 
 3810      5F495251 
 3810      6E00
 3811              	.LASF196:
 3812 0886 53445F52 		.ascii	"SD_READY\000"
 3812      45414459 
 3812      00
 3813              	.LASF154:
 3814 088f 49324333 		.ascii	"I2C3_EV_IRQn\000"
 3814      5F45565F 
 3814      4952516E 
 3814      00
 3815              	.LASF167:
 3816 089c 41484232 		.ascii	"AHB2RSTR\000"
 3816      52535452 
 3816      00
 3817              	.LASF143:
 3818 08a5 4554485F 		.ascii	"ETH_IRQn\000"
 3818      4952516E 
 3818      00
 3819              	.LASF229:
 3820 08ae 6E6F7469 		.ascii	"notify2\000"
 3820      66793200 
 3821              	.LASF191:
 3822 08b6 5243435F 		.ascii	"RCC_TypeDef\000"
 3822      54797065 
 3822      44656600 
 3823              	.LASF5:
 3824 08c2 73686F72 		.ascii	"short int\000"
 3824      7420696E 
 3824      7400
 3825              	.LASF13:
 3826 08cc 75696E74 		.ascii	"uint64_t\000"
 3826      36345F74 
 3826      00
 3827              	.LASF87:
 3828 08d5 5243435F 		.ascii	"RCC_IRQn\000"
 3828      4952516E 
 3828      00
 3829              	.LASF201:
ARM GAS  /tmp/ccOViKkN.s 			page 76


 3830 08de 69717565 		.ascii	"iqueue\000"
 3830      756500
 3831              	.LASF96:
 3832 08e5 444D4131 		.ascii	"DMA1_Stream3_IRQn\000"
 3832      5F537472 
 3832      65616D33 
 3832      5F495251 
 3832      6E00
 3833              	.LASF22:
 3834 08f7 54687265 		.ascii	"Thread\000"
 3834      616400
 3835              	.LASF107:
 3836 08fe 54494D31 		.ascii	"TIM1_UP_TIM10_IRQn\000"
 3836      5F55505F 
 3836      54494D31 
 3836      305F4952 
 3836      516E00
 3837              	.LASF224:
 3838 0911 49544D5F 		.ascii	"ITM_RxBuffer\000"
 3838      52784275 
 3838      66666572 
 3838      00
 3839              	.LASF156:
 3840 091e 4F54475F 		.ascii	"OTG_HS_EP1_OUT_IRQn\000"
 3840      48535F45 
 3840      50315F4F 
 3840      55545F49 
 3840      52516E00 
 3841              	.LASF85:
 3842 0932 5254435F 		.ascii	"RTC_WKUP_IRQn\000"
 3842      574B5550 
 3842      5F495251 
 3842      6E00
 3843              	.LASF225:
 3844 0940 474E5520 		.ascii	"GNU C 4.6.3\000"
 3844      4320342E 
 3844      362E3300 
 3845              	.LASF50:
 3846 094c 4576656E 		.ascii	"EventListener\000"
 3846      744C6973 
 3846      74656E65 
 3846      7200
 3847              	.LASF10:
 3848 095a 75696E74 		.ascii	"uint32_t\000"
 3848      33325F74 
 3848      00
 3849              	.LASF103:
 3850 0963 43414E31 		.ascii	"CAN1_RX1_IRQn\000"
 3850      5F525831 
 3850      5F495251 
 3850      6E00
 3851              	.LASF40:
 3852 0971 54687265 		.ascii	"ThreadsQueue\000"
 3852      61647351 
 3852      75657565 
 3852      00
 3853              	.LASF105:
ARM GAS  /tmp/ccOViKkN.s 			page 77


 3854 097e 45585449 		.ascii	"EXTI9_5_IRQn\000"
 3854      395F355F 
 3854      4952516E 
 3854      00
 3855              	.LASF57:
 3856 098b 7264796D 		.ascii	"rdymsg\000"
 3856      736700
 3857              	.LASF92:
 3858 0992 45585449 		.ascii	"EXTI4_IRQn\000"
 3858      345F4952 
 3858      516E00
 3859              	.LASF7:
 3860 099d 73686F72 		.ascii	"short unsigned int\000"
 3860      7420756E 
 3860      7369676E 
 3860      65642069 
 3860      6E7400
 3861              	.LASF223:
 3862 09b0 73645F6C 		.ascii	"sd_lld_stop\000"
 3862      6C645F73 
 3862      746F7000 
 3863              	.LASF128:
 3864 09bc 54494D38 		.ascii	"TIM8_CC_IRQn\000"
 3864      5F43435F 
 3864      4952516E 
 3864      00
 3865              	.LASF131:
 3866 09c9 5344494F 		.ascii	"SDIO_IRQn\000"
 3866      5F495251 
 3866      6E00
 3867              	.LASF72:
 3868 09d3 496E7075 		.ascii	"InputQueue\000"
 3868      74517565 
 3868      756500
 3869              	.LASF91:
 3870 09de 45585449 		.ascii	"EXTI3_IRQn\000"
 3870      335F4952 
 3870      516E00
 3871              	.LASF80:
 3872 09e9 50656E64 		.ascii	"PendSV_IRQn\000"
 3872      53565F49 
 3872      52516E00 
 3873              	.LASF157:
 3874 09f5 4F54475F 		.ascii	"OTG_HS_EP1_IN_IRQn\000"
 3874      48535F45 
 3874      50315F49 
 3874      4E5F4952 
 3874      516E00
 3875              	.LASF30:
 3876 0a08 705F7374 		.ascii	"p_stklimit\000"
 3876      6B6C696D 
 3876      697400
 3877              	.LASF129:
 3878 0a13 444D4131 		.ascii	"DMA1_Stream7_IRQn\000"
 3878      5F537472 
 3878      65616D37 
 3878      5F495251 
ARM GAS  /tmp/ccOViKkN.s 			page 78


 3878      6E00
 3879              	.LASF166:
 3880 0a25 41484231 		.ascii	"AHB1RSTR\000"
 3880      52535452 
 3880      00
 3881              	.LASF195:
 3882 0a2e 53445F53 		.ascii	"SD_STOP\000"
 3882      544F5000 
 3883              	.LASF53:
 3884 0a36 656C5F6D 		.ascii	"el_mask\000"
 3884      61736B00 
 3885              	.LASF29:
 3886 0a3e 705F6E61 		.ascii	"p_name\000"
 3886      6D6500
 3887              	.LASF49:
 3888 0a45 6D5F6E65 		.ascii	"m_next\000"
 3888      787400
 3889              	.LASF175:
 3890 0a4c 41484233 		.ascii	"AHB3ENR\000"
 3890      454E5200 
 3891              	.LASF140:
 3892 0a54 444D4132 		.ascii	"DMA2_Stream2_IRQn\000"
 3892      5F537472 
 3892      65616D32 
 3892      5F495251 
 3892      6E00
 3893              	.LASF36:
 3894 0a66 705F6D73 		.ascii	"p_msg\000"
 3894      6700
 3895              	.LASF52:
 3896 0a6c 656C5F6C 		.ascii	"el_listener\000"
 3896      69737465 
 3896      6E657200 
 3897              	.LASF31:
 3898 0a78 705F7374 		.ascii	"p_state\000"
 3898      61746500 
 3899              		.ident	"GCC: (Sourcery CodeBench Lite 2012.03-56) 4.6.3"
ARM GAS  /tmp/ccOViKkN.s 			page 79


DEFINED SYMBOLS
                            *ABS*:00000000 serial_lld.c
     /tmp/ccOViKkN.s:19     .text.notify2:00000000 $t
     /tmp/ccOViKkN.s:24     .text.notify2:00000000 notify2
     /tmp/ccOViKkN.s:47     .text.VectorD8:00000000 $t
     /tmp/ccOViKkN.s:53     .text.VectorD8:00000000 VectorD8
     /tmp/ccOViKkN.s:538    .bss.SD2:00000000 .LANCHOR0
     /tmp/ccOViKkN.s:281    .text.VectorD8:00000128 $d
     /tmp/ccOViKkN.s:290    .text.sd_lld_init:00000000 $t
     /tmp/ccOViKkN.s:296    .text.sd_lld_init:00000000 sd_lld_init
     /tmp/ccOViKkN.s:325    .text.sd_lld_start:00000000 $t
     /tmp/ccOViKkN.s:331    .text.sd_lld_start:00000000 sd_lld_start
     /tmp/ccOViKkN.s:527    .rodata.default_config:00000000 .LANCHOR1
     /tmp/ccOViKkN.s:457    .text.sd_lld_stop:00000000 $t
     /tmp/ccOViKkN.s:463    .text.sd_lld_stop:00000000 sd_lld_stop
     /tmp/ccOViKkN.s:541    .bss.SD2:00000000 SD2
     /tmp/ccOViKkN.s:526    .rodata.default_config:00000000 $d
     /tmp/ccOViKkN.s:530    .rodata.default_config:00000000 default_config
     /tmp/ccOViKkN.s:537    .bss.SD2:00000000 $d
                     .debug_frame:00000010 $d

UNDEFINED SYMBOLS
dbg_check_enter_isr
_port_lock
dbg_check_lock_from_isr
chEvtBroadcastFlagsI
dbg_check_unlock_from_isr
_port_unlock
dbg_check_leave_isr
_port_irq_epilogue
sdIncomingDataI
chOQGetI
sdObjectInit
nvicEnableVector
nvicDisableVector
