ARM GAS  /tmp/ccOViKkN.s 			page 1


   1              		.syntax unified
   2              		.cpu cortex-m4
   3              		.fpu softvfp
   4              		.eabi_attribute 20, 1
   5              		.eabi_attribute 21, 1
   6              		.eabi_attribute 23, 3
   7              		.eabi_attribute 24, 1
   8              		.eabi_attribute 25, 1
   9              		.eabi_attribute 26, 1
  10              		.eabi_attribute 30, 2
  11              		.eabi_attribute 34, 1
  12              		.eabi_attribute 18, 4
  13              		.thumb
  14              		.file	"serial_lld.c"
  15              		.text
  16              	.Ltext0:
  17              		.cfi_sections	.debug_frame
  18              		.section	.text.notify2,"ax",%progbits
  19              		.align	2
  20              		.p2align 4,,15
  21              		.thumb
  22              		.thumb_func
  23              		.type	notify2, %function
  24              	notify2:
  25              	.LFB115:
  26              		.file 1 "../../../os/hal/platforms/STM32/USARTv1/serial_lld.c"
  27              		.loc 1 210 0
  28              		.cfi_startproc
  29              		@ args = 0, pretend = 0, frame = 0
  30              		@ frame_needed = 0, uses_anonymous_args = 0
  31              		@ link register save eliminated.
  32              	.LVL0:
  33              		.loc 1 213 0
  34 0000 4FF48843 		mov	r3, #17408
  35 0004 C4F20003 		movt	r3, 16384
  36 0008 9989     		ldrh	r1, [r3, #12]
  37 000a 88B2     		uxth	r0, r1
  38              	.LVL1:
  39 000c 40F08002 		orr	r2, r0, #128
  40 0010 9A81     		strh	r2, [r3, #12]	@ movhi
  41              		.loc 1 214 0
  42 0012 7047     		bx	lr
  43              		.cfi_endproc
  44              	.LFE115:
  45              		.size	notify2, .-notify2
  46 0014 AFF30080 		.section	.text.VectorD8,"ax",%progbits
  46      AFF30080 
  46      AFF30080 
  47              		.align	2
  48              		.p2align 4,,15
  49              		.global	VectorD8
  50              		.thumb
  51              		.thumb_func
  52              		.type	VectorD8, %function
  53              	VectorD8:
  54              	.LFB116:
  55              		.loc 1 281 0
ARM GAS  /tmp/ccOViKkN.s 			page 2


  56              		.cfi_startproc
  57              		@ args = 0, pretend = 0, frame = 0
  58              		@ frame_needed = 0, uses_anonymous_args = 0
  59 0000 2DE9F041 		push	{r4, r5, r6, r7, r8, lr}
  60              	.LCFI0:
  61              		.cfi_def_cfa_offset 24
  62              		.cfi_offset 14, -4
  63              		.cfi_offset 8, -8
  64              		.cfi_offset 7, -12
  65              		.cfi_offset 6, -16
  66              		.cfi_offset 5, -20
  67              		.cfi_offset 4, -24
  68              		.loc 1 283 0
  69 0004 FFF7FEFF 		bl	dbg_check_enter_isr
  70              	.LVL2:
  71              	.LBB17:
  72              	.LBB18:
  73              		.loc 1 157 0
  74 0008 40F20003 		movw	r3, #:lower16:.LANCHOR0
  75 000c C0F20003 		movt	r3, #:upper16:.LANCHOR0
  76 0010 5D6F     		ldr	r5, [r3, #116]
  77              	.LVL3:
  78              		.loc 1 158 0
  79 0012 AE89     		ldrh	r6, [r5, #12]
  80              		.loc 1 159 0
  81 0014 2C88     		ldrh	r4, [r5, #0]
  82              		.loc 1 160 0
  83 0016 AF88     		ldrh	r7, [r5, #4]
  84              		.loc 1 159 0
  85 0018 A4B2     		uxth	r4, r4
  86              		.loc 1 163 0
  87 001a 2307     		lsls	r3, r4, #28
  88              		.loc 1 158 0
  89 001c B6B2     		uxth	r6, r6
  90              	.LVL4:
  91              		.loc 1 163 0
  92 001e 1CD0     		beq	.L3
  93              	.LVL5:
  94              	.LBB19:
  95              	.LBB20:
  96              		.loc 1 138 0
  97 0020 14F00808 		ands	r8, r4, #8
  98              		.loc 1 139 0
  99 0024 18BF     		it	ne
 100 0026 4FF08008 		movne	r8, #128
 101              	.LVL6:
 102              		.loc 1 140 0
 103 002a E007     		lsls	r0, r4, #31
 104              		.loc 1 141 0
 105 002c 48BF     		it	mi
 106 002e 48F02008 		orrmi	r8, r8, #32
 107              	.LVL7:
 108              		.loc 1 142 0
 109 0032 A107     		lsls	r1, r4, #30
 110              		.loc 1 143 0
 111 0034 48BF     		it	mi
 112 0036 48F04008 		orrmi	r8, r8, #64
ARM GAS  /tmp/ccOViKkN.s 			page 3


 113              	.LVL8:
 114              		.loc 1 144 0
 115 003a 6207     		lsls	r2, r4, #29
 116              		.loc 1 145 0
 117 003c 48BF     		it	mi
 118 003e 48F48078 		orrmi	r8, r8, #256
 119              	.LVL9:
 120              		.loc 1 146 0
 121              	@ 146 "../../../os/hal/platforms/STM32/USARTv1/serial_lld.c" 1
 122 0042 FFF7FEFF 		bl      _port_lock
 123              	@ 0 "" 2
 124              		.thumb
 125 0046 FFF7FEFF 		bl	dbg_check_lock_from_isr
 126              	.LVL10:
 127              		.loc 1 147 0
 128 004a 3748     		ldr	r0, .L20
 129 004c 4146     		mov	r1, r8
 130 004e FFF7FEFF 		bl	chEvtBroadcastFlagsI
 131              		.loc 1 148 0
 132 0052 FFF7FEFF 		bl	dbg_check_unlock_from_isr
 133              	@ 148 "../../../os/hal/platforms/STM32/USARTv1/serial_lld.c" 1
 134 0056 FFF7FEFF 		bl      _port_unlock
 135              	@ 0 "" 2
 136              	.LVL11:
 137              		.thumb
 138              	.L3:
 139              	.LBE20:
 140              	.LBE19:
 141              		.loc 1 166 0
 142 005a E305     		lsls	r3, r4, #23
 143 005c 34D4     		bmi	.L16
 144              	.L8:
 145              		.loc 1 173 0
 146 005e A006     		lsls	r0, r4, #26
 147 0060 22D4     		bmi	.L17
 148              	.L9:
 149              		.loc 1 179 0
 150 0062 3106     		lsls	r1, r6, #24
 151 0064 01D5     		bpl	.L10
 152 0066 2206     		lsls	r2, r4, #24
 153 0068 43D4     		bmi	.L18
 154              	.L10:
 155              		.loc 1 192 0
 156 006a 6306     		lsls	r3, r4, #25
 157 006c 16D5     		bpl	.L13
 158              		.loc 1 193 0
 159              	@ 193 "../../../os/hal/platforms/STM32/USARTv1/serial_lld.c" 1
 160 006e FFF7FEFF 		bl      _port_lock
 161              	@ 0 "" 2
 162              		.thumb
 163 0072 FFF7FEFF 		bl	dbg_check_lock_from_isr
 164              		.loc 1 194 0
 165 0076 2C48     		ldr	r0, .L20
 166 0078 1021     		movs	r1, #16
 167 007a FFF7FEFF 		bl	chEvtBroadcastFlagsI
 168              		.loc 1 195 0
 169 007e FFF7FEFF 		bl	dbg_check_unlock_from_isr
ARM GAS  /tmp/ccOViKkN.s 			page 4


 170              	@ 195 "../../../os/hal/platforms/STM32/USARTv1/serial_lld.c" 1
 171 0082 FFF7FEFF 		bl      _port_unlock
 172              	@ 0 "" 2
 173              		.loc 1 196 0
 174              		.thumb
 175 0086 4FF6BF72 		movw	r2, #65471
 176 008a 06EA0201 		and	r1, r6, r2
 177 008e A981     		strh	r1, [r5, #12]	@ movhi
 178              		.loc 1 197 0
 179 0090 2888     		ldrh	r0, [r5, #0]
 180 0092 20F04003 		bic	r3, r0, #64
 181 0096 1A04     		lsls	r2, r3, #16
 182 0098 110C     		lsrs	r1, r2, #16
 183 009a 2980     		strh	r1, [r5, #0]	@ movhi
 184              	.L13:
 185              	.LBE18:
 186              	.LBE17:
 187              		.loc 1 287 0
 188 009c FFF7FEFF 		bl	dbg_check_leave_isr
 189              		.loc 1 288 0
 190 00a0 BDE8F041 		pop	{r4, r5, r6, r7, r8, lr}
 191              		.loc 1 287 0
 192 00a4 FFF7FEBF 		b	_port_irq_epilogue
 193              	.L17:
 194              	.LBB23:
 195              	.LBB22:
 196              		.loc 1 174 0
 197              	@ 174 "../../../os/hal/platforms/STM32/USARTv1/serial_lld.c" 1
 198 00a8 FFF7FEFF 		bl      _port_lock
 199              	@ 0 "" 2
 200              		.thumb
 201 00ac FFF7FEFF 		bl	dbg_check_lock_from_isr
 202              		.loc 1 175 0
 203 00b0 40F20000 		movw	r0, #:lower16:.LANCHOR0
 204 00b4 C0F20000 		movt	r0, #:upper16:.LANCHOR0
 205 00b8 F9B2     		uxtb	r1, r7
 206 00ba FFF7FEFF 		bl	sdIncomingDataI
 207              		.loc 1 176 0
 208 00be FFF7FEFF 		bl	dbg_check_unlock_from_isr
 209              	@ 176 "../../../os/hal/platforms/STM32/USARTv1/serial_lld.c" 1
 210 00c2 FFF7FEFF 		bl      _port_unlock
 211              	@ 0 "" 2
 212              		.thumb
 213 00c6 CCE7     		b	.L9
 214              	.L16:
 215              		.loc 1 167 0
 216              	@ 167 "../../../os/hal/platforms/STM32/USARTv1/serial_lld.c" 1
 217 00c8 FFF7FEFF 		bl      _port_lock
 218              	@ 0 "" 2
 219              		.thumb
 220 00cc FFF7FEFF 		bl	dbg_check_lock_from_isr
 221              		.loc 1 168 0
 222 00d0 1548     		ldr	r0, .L20
 223 00d2 4FF40071 		mov	r1, #512
 224 00d6 FFF7FEFF 		bl	chEvtBroadcastFlagsI
 225              		.loc 1 169 0
 226 00da FFF7FEFF 		bl	dbg_check_unlock_from_isr
ARM GAS  /tmp/ccOViKkN.s 			page 5


 227              	@ 169 "../../../os/hal/platforms/STM32/USARTv1/serial_lld.c" 1
 228 00de FFF7FEFF 		bl      _port_unlock
 229              	@ 0 "" 2
 230              		.loc 1 170 0
 231              		.thumb
 232 00e2 B5F800C0 		ldrh	ip, [r5, #0]
 233 00e6 2CF48072 		bic	r2, ip, #256
 234 00ea 1104     		lsls	r1, r2, #16
 235 00ec 080C     		lsrs	r0, r1, #16
 236 00ee 2880     		strh	r0, [r5, #0]	@ movhi
 237 00f0 B5E7     		b	.L8
 238              	.L18:
 239              	.LBB21:
 240              		.loc 1 181 0
 241              	@ 181 "../../../os/hal/platforms/STM32/USARTv1/serial_lld.c" 1
 242 00f2 FFF7FEFF 		bl      _port_lock
 243              	@ 0 "" 2
 244              		.thumb
 245 00f6 FFF7FEFF 		bl	dbg_check_lock_from_isr
 246              		.loc 1 182 0
 247 00fa 0C48     		ldr	r0, .L20+4
 248 00fc FFF7FEFF 		bl	chOQGetI
 249              	.LVL12:
 250              		.loc 1 183 0
 251 0100 0028     		cmp	r0, #0
 252              		.loc 1 188 0
 253 0102 A8BF     		it	ge
 254 0104 A880     		strhge	r0, [r5, #4]	@ movhi
 255              		.loc 1 183 0
 256 0106 04DB     		blt	.L19
 257              	.LVL13:
 258              	.L12:
 259              		.loc 1 189 0
 260 0108 FFF7FEFF 		bl	dbg_check_unlock_from_isr
 261              	@ 189 "../../../os/hal/platforms/STM32/USARTv1/serial_lld.c" 1
 262 010c FFF7FEFF 		bl      _port_unlock
 263              	@ 0 "" 2
 264              		.thumb
 265 0110 ABE7     		b	.L10
 266              	.LVL14:
 267              	.L19:
 268              		.loc 1 184 0
 269 0112 0548     		ldr	r0, .L20
 270              	.LVL15:
 271 0114 0821     		movs	r1, #8
 272 0116 FFF7FEFF 		bl	chEvtBroadcastFlagsI
 273              		.loc 1 185 0
 274 011a 26F0C000 		bic	r0, r6, #192
 275 011e 40F04003 		orr	r3, r0, #64
 276 0122 AB81     		strh	r3, [r5, #12]	@ movhi
 277 0124 F0E7     		b	.L12
 278              	.L21:
 279 0126 00BF     		.align	2
 280              	.L20:
 281 0128 04000000 		.word	.LANCHOR0+4
 282 012c 30000000 		.word	.LANCHOR0+48
 283              	.LBE21:
ARM GAS  /tmp/ccOViKkN.s 			page 6


 284              	.LBE22:
 285              	.LBE23:
 286              		.cfi_endproc
 287              	.LFE116:
 288              		.size	VectorD8, .-VectorD8
 289              		.section	.text.sd_lld_init,"ax",%progbits
 290              		.align	2
 291              		.p2align 4,,15
 292              		.global	sd_lld_init
 293              		.thumb
 294              		.thumb_func
 295              		.type	sd_lld_init, %function
 296              	sd_lld_init:
 297              	.LFB117:
 298              		.loc 1 376 0
 299              		.cfi_startproc
 300              		@ args = 0, pretend = 0, frame = 0
 301              		@ frame_needed = 0, uses_anonymous_args = 0
 302 0000 10B5     		push	{r4, lr}
 303              	.LCFI1:
 304              		.cfi_def_cfa_offset 8
 305              		.cfi_offset 14, -4
 306              		.cfi_offset 4, -8
 307              		.loc 1 384 0
 308 0002 40F20004 		movw	r4, #:lower16:.LANCHOR0
 309 0006 C0F20004 		movt	r4, #:upper16:.LANCHOR0
 310 000a 40F20002 		movw	r2, #:lower16:notify2
 311 000e 2046     		mov	r0, r4
 312 0010 0021     		movs	r1, #0
 313 0012 C0F20002 		movt	r2, #:upper16:notify2
 314 0016 FFF7FEFF 		bl	sdObjectInit
 315              		.loc 1 385 0
 316 001a 4FF48843 		mov	r3, #17408
 317 001e C4F20003 		movt	r3, 16384
 318 0022 6367     		str	r3, [r4, #116]
 319              		.loc 1 407 0
 320 0024 10BD     		pop	{r4, pc}
 321              		.cfi_endproc
 322              	.LFE117:
 323              		.size	sd_lld_init, .-sd_lld_init
 324 0026 00BFAFF3 		.section	.text.sd_lld_start,"ax",%progbits
 324      0080AFF3 
 324      0080
 325              		.align	2
 326              		.p2align 4,,15
 327              		.global	sd_lld_start
 328              		.thumb
 329              		.thumb_func
 330              		.type	sd_lld_start, %function
 331              	sd_lld_start:
 332              	.LFB118:
 333              		.loc 1 419 0
 334              		.cfi_startproc
 335              		@ args = 0, pretend = 0, frame = 0
 336              		@ frame_needed = 0, uses_anonymous_args = 0
 337              	.LVL16:
 338 0000 38B5     		push	{r3, r4, r5, lr}
ARM GAS  /tmp/ccOViKkN.s 			page 7


 339              	.LCFI2:
 340              		.cfi_def_cfa_offset 16
 341              		.cfi_offset 14, -4
 342              		.cfi_offset 5, -8
 343              		.cfi_offset 4, -12
 344              		.cfi_offset 3, -16
 345              		.loc 1 422 0
 346 0002 40F20004 		movw	r4, #:lower16:.LANCHOR1
 347              		.loc 1 424 0
 348 0006 037A     		ldrb	r3, [r0, #8]	@ zero_extendqisi2
 349              		.loc 1 422 0
 350 0008 C0F20004 		movt	r4, #:upper16:.LANCHOR1
 351 000c 0029     		cmp	r1, #0
 352 000e 18BF     		it	ne
 353 0010 0C46     		movne	r4, r1
 354              		.loc 1 424 0
 355 0012 012B     		cmp	r3, #1
 356              		.loc 1 419 0
 357 0014 0546     		mov	r5, r0
 358              		.loc 1 424 0
 359 0016 38D0     		beq	.L29
 360              	.LVL17:
 361              	.L25:
 362              	.LBB24:
 363              	.LBB25:
 364              		.loc 1 93 0
 365 0018 6B6F     		ldr	r3, [r5, #116]
 366              	.LVL18:
 367              		.loc 1 97 0
 368 001a 4FF48051 		mov	r1, #4096
 369 001e C4F20101 		movt	r1, 16385
 370 0022 581A     		subs	r0, r3, r1
 371 0024 D0F1000C 		rsbs	ip, r0, #0
 372 0028 4FF4A052 		mov	r2, #5120
 373 002c 4CEB0001 		adc	r1, ip, r0
 374 0030 C4F20102 		movt	r2, 16385
 375 0034 9342     		cmp	r3, r2
 376 0036 14BF     		ite	ne
 377 0038 0846     		movne	r0, r1
 378 003a 41F00100 		orreq	r0, r1, #1
 379              		.loc 1 101 0
 380 003e 2168     		ldr	r1, [r4, #0]
 381              		.loc 1 97 0
 382 0040 D8B9     		cbnz	r0, .L30
 383              		.loc 1 103 0
 384 0042 4DF6806C 		movw	ip, #56960
 385 0046 C0F2802C 		movt	ip, 640
 386 004a BCFBF1F1 		udiv	r1, ip, r1
 387 004e 1981     		strh	r1, [r3, #8]	@ movhi
 388              	.L27:
 389              		.loc 1 108 0
 390 0050 A088     		ldrh	r0, [r4, #4]
 391              		.loc 1 106 0
 392 0052 E188     		ldrh	r1, [r4, #6]
 393              		.loc 1 107 0
 394 0054 B4F808C0 		ldrh	ip, [r4, #8]
 395              		.loc 1 108 0
ARM GAS  /tmp/ccOViKkN.s 			page 8


 396 0058 40F40452 		orr	r2, r0, #8448
 397              		.loc 1 106 0
 398 005c 41F04000 		orr	r0, r1, #64
 399              		.loc 1 107 0
 400 0060 4CF00101 		orr	r1, ip, #1
 401              		.loc 1 108 0
 402 0064 42F02C0C 		orr	ip, r2, #44
 403              		.loc 1 111 0
 404 0068 0022     		movs	r2, #0
 405              		.loc 1 106 0
 406 006a 1882     		strh	r0, [r3, #16]	@ movhi
 407              		.loc 1 107 0
 408 006c 9982     		strh	r1, [r3, #20]	@ movhi
 409              		.loc 1 108 0
 410 006e A3F80CC0 		strh	ip, [r3, #12]	@ movhi
 411              		.loc 1 111 0
 412 0072 1A80     		strh	r2, [r3, #0]	@ movhi
 413              		.loc 1 112 0
 414 0074 1A88     		ldrh	r2, [r3, #0]
 415              		.loc 1 113 0
 416 0076 9B88     		ldrh	r3, [r3, #4]
 417              	.LBE25:
 418              	.LBE24:
 419              		.loc 1 469 0
 420 0078 38BD     		pop	{r3, r4, r5, pc}
 421              	.L30:
 422              	.LBB27:
 423              	.LBB26:
 424              		.loc 1 101 0
 425 007a 4FF43D40 		mov	r0, #48384
 426 007e C0F20150 		movt	r0, 1281
 427 0082 B0FBF1F2 		udiv	r2, r0, r1
 428 0086 1A81     		strh	r2, [r3, #8]	@ movhi
 429 0088 E2E7     		b	.L27
 430              	.LVL19:
 431              	.L29:
 432              	.LBE26:
 433              	.LBE27:
 434              		.loc 1 433 0
 435 008a 40F20001 		movw	r1, #:lower16:.LANCHOR0
 436              	.LVL20:
 437 008e C0F20001 		movt	r1, #:upper16:.LANCHOR0
 438 0092 8842     		cmp	r0, r1
 439 0094 C0D1     		bne	.L25
 440              		.loc 1 434 0
 441 0096 4FF4605C 		mov	ip, #14336
 442 009a C4F2020C 		movt	ip, 16386
 443              		.loc 1 435 0
 444 009e 2620     		movs	r0, #38
 445              		.loc 1 434 0
 446 00a0 DCF84030 		ldr	r3, [ip, #64]
 447 00a4 43F40032 		orr	r2, r3, #131072
 448 00a8 CCF84020 		str	r2, [ip, #64]
 449              		.loc 1 435 0
 450 00ac C021     		movs	r1, #192
 451 00ae FFF7FEFF 		bl	nvicEnableVector
 452 00b2 B1E7     		b	.L25
ARM GAS  /tmp/ccOViKkN.s 			page 9


 453              		.cfi_endproc
 454              	.LFE118:
 455              		.size	sd_lld_start, .-sd_lld_start
 456 00b4 AFF30080 		.section	.text.sd_lld_stop,"ax",%progbits
 456      AFF30080 
 456      AFF30080 
 457              		.align	2
 458              		.p2align 4,,15
 459              		.global	sd_lld_stop
 460              		.thumb
 461              		.thumb_func
 462              		.type	sd_lld_stop, %function
 463              	sd_lld_stop:
 464              	.LFB119:
 465              		.loc 1 480 0
 466              		.cfi_startproc
 467              		@ args = 0, pretend = 0, frame = 0
 468              		@ frame_needed = 0, uses_anonymous_args = 0
 469              		@ link register save eliminated.
 470              	.LVL21:
 471              		.loc 1 482 0
 472 0000 037A     		ldrb	r3, [r0, #8]	@ zero_extendqisi2
 473 0002 022B     		cmp	r3, #2
 474 0004 00D0     		beq	.L33
 475              	.L31:
 476 0006 7047     		bx	lr
 477              	.LVL22:
 478              	.L33:
 479              		.loc 1 492 0
 480 0008 40F2000C 		movw	ip, #:lower16:.LANCHOR0
 481              	.LVL23:
 482              		.loc 1 483 0
 483 000c 426F     		ldr	r2, [r0, #116]
 484              	.LVL24:
 485              		.loc 1 492 0
 486 000e C0F2000C 		movt	ip, #:upper16:.LANCHOR0
 487              	.LBB28:
 488              	.LBB29:
 489              		.loc 1 124 0
 490 0012 0021     		movs	r1, #0
 491              	.LBE29:
 492              	.LBE28:
 493              		.loc 1 492 0
 494 0014 6045     		cmp	r0, ip
 495              	.LBB31:
 496              	.LBB30:
 497              		.loc 1 124 0
 498 0016 9181     		strh	r1, [r2, #12]	@ movhi
 499              		.loc 1 125 0
 500 0018 1182     		strh	r1, [r2, #16]	@ movhi
 501              		.loc 1 126 0
 502 001a 9182     		strh	r1, [r2, #20]	@ movhi
 503              	.LBE30:
 504              	.LBE31:
 505              		.loc 1 492 0
 506 001c F3D1     		bne	.L31
 507              		.loc 1 493 0
ARM GAS  /tmp/ccOViKkN.s 			page 10


 508 001e 4FF46053 		mov	r3, #14336
 509 0022 C4F20203 		movt	r3, 16386
 510              		.loc 1 494 0
 511 0026 2620     		movs	r0, #38
 512              	.LVL25:
 513              		.loc 1 493 0
 514 0028 1A6C     		ldr	r2, [r3, #64]
 515              	.LVL26:
 516 002a 22F40031 		bic	r1, r2, #131072
 517 002e 1964     		str	r1, [r3, #64]
 518              		.loc 1 527 0
 519              		.loc 1 494 0
 520 0030 FFF7FEBF 		b	nvicDisableVector
 521              		.cfi_endproc
 522              	.LFE119:
 523              		.size	sd_lld_stop, .-sd_lld_stop
 524              		.global	SD2
 525 0034 AFF30080 		.section	.rodata.default_config,"a",%progbits
 525      AFF30080 
 525      AFF30080 
 526              		.align	2
 527              		.set	.LANCHOR1,. + 0
 528              		.type	default_config, %object
 529              		.size	default_config, 12
 530              	default_config:
 531 0000 00960000 		.word	38400
 532 0004 0000     		.short	0
 533 0006 0040     		.short	16384
 534 0008 0000     		.short	0
 535 000a 0000     		.space	2
 536              		.section	.bss.SD2,"aw",%nobits
 537              		.align	2
 538              		.set	.LANCHOR0,. + 0
 539              		.type	SD2, %object
 540              		.size	SD2, 120
 541              	SD2:
 542 0000 00000000 		.space	120
 542      00000000 
 542      00000000 
 542      00000000 
 542      00000000 
 543              		.text
 544              	.Letext0:
 545              		.file 2 "/home/prana/CodeSourcery/ARM_EABI/bin/../lib/gcc/arm-none-eabi/4.6.3/include/stddef.h"
 546              		.file 3 "/home/prana/CodeSourcery/ARM_EABI/bin/../lib/gcc/arm-none-eabi/4.6.3/../../../../arm-none
 547              		.file 4 "../../../os/ports/GCC/ARMCMx/chtypes.h"
 548              		.file 5 "../../../os/kernel/include/chlists.h"
 549              		.file 6 "../../../os/kernel/include/chthreads.h"
 550              		.file 7 "../../../os/ports/GCC/ARMCMx/chcore_v7m.h"
 551              		.file 8 "../../../os/kernel/include/chmtx.h"
 552              		.file 9 "../../../os/kernel/include/chevents.h"
 553              		.file 10 "../../../os/kernel/include/chqueues.h"
 554              		.file 11 "../../../os/hal/platforms/STM32F4xx/stm32f4xx.h"
 555              		.file 12 "../../../os/hal/include/serial.h"
 556              		.file 13 "../../../os/hal/platforms/STM32/USARTv1/serial_lld.h"
 557              		.file 14 "../../../os/ports/common/ARMCMx/CMSIS/include/core_cm4.h"