ARM GAS  /tmp/ccVZHgwN.s 			page 1


   1              		.syntax unified
   2              		.cpu cortex-m4
   3              		.fpu softvfp
   4              		.eabi_attribute 20, 1
   5              		.eabi_attribute 21, 1
   6              		.eabi_attribute 23, 3
   7              		.eabi_attribute 24, 1
   8              		.eabi_attribute 25, 1
   9              		.eabi_attribute 26, 1
  10              		.eabi_attribute 30, 2
  11              		.eabi_attribute 34, 1
  12              		.eabi_attribute 18, 4
  13              		.thumb
  14              		.file	"shell.c"
  15              		.text
  16              	.Ltext0:
  17              		.cfi_sections	.debug_frame
  18              		.section	.text.cmd_systime,"ax",%progbits
  19              		.align	2
  20              		.p2align 4,,15
  21              		.thumb
  22              		.thumb_func
  23              		.type	cmd_systime, %function
  24              	cmd_systime:
  25              	.LFB115:
  26              		.file 1 "../../../os/various/shell.c"
  27              		.loc 1 103 0
  28              		.cfi_startproc
  29              		@ args = 0, pretend = 0, frame = 0
  30              		@ frame_needed = 0, uses_anonymous_args = 0
  31              		@ link register save eliminated.
  32              	.LVL0:
  33              		.loc 1 106 0
  34 0000 0029     		cmp	r1, #0
  35 0002 09DD     		ble	.L2
  36              	.LVL1:
  37              	.LBB28:
  38              	.LBB29:
  39              		.loc 1 60 0
  40 0004 40F20001 		movw	r1, #:lower16:.LC0
  41              	.LVL2:
  42 0008 40F20002 		movw	r2, #:lower16:.LC1
  43              	.LVL3:
  44 000c C0F20001 		movt	r1, #:upper16:.LC0
  45 0010 C0F20002 		movt	r2, #:upper16:.LC1
  46              	.LBE29:
  47              	.LBE28:
  48              		.loc 1 111 0
  49              	.LBB31:
  50              	.LBB30:
  51              		.loc 1 60 0
  52 0014 FFF7FEBF 		b	chprintf
  53              	.LVL4:
  54              	.L2:
  55              	.LBE30:
  56              	.LBE31:
  57              	.LBB32:
ARM GAS  /tmp/ccVZHgwN.s 			page 2


  58              	.LBB33:
  59              		.loc 1 110 0
  60 0018 40F20003 		movw	r3, #:lower16:vtlist
  61 001c C0F20003 		movt	r3, #:upper16:vtlist
  62 0020 40F20001 		movw	r1, #:lower16:.LC2
  63              	.LVL5:
  64 0024 DA68     		ldr	r2, [r3, #12]
  65              	.LVL6:
  66 0026 C0F20001 		movt	r1, #:upper16:.LC2
  67              	.LBE33:
  68              	.LBE32:
  69              		.loc 1 111 0
  70              	.LBB35:
  71              	.LBB34:
  72              		.loc 1 110 0
  73 002a FFF7FEBF 		b	chprintf
  74              	.LVL7:
  75              	.LBE34:
  76              	.LBE35:
  77              		.cfi_endproc
  78              	.LFE115:
  79              		.size	cmd_systime, .-cmd_systime
  80 002e 00BF     		.section	.text.cmd_info,"ax",%progbits
  81              		.align	2
  82              		.p2align 4,,15
  83              		.thumb
  84              		.thumb_func
  85              		.type	cmd_info, %function
  86              	cmd_info:
  87              	.LFB114:
  88              		.loc 1 71 0
  89              		.cfi_startproc
  90              		@ args = 0, pretend = 0, frame = 0
  91              		@ frame_needed = 0, uses_anonymous_args = 0
  92              	.LVL8:
  93 0000 30B5     		push	{r4, r5, lr}
  94              	.LCFI0:
  95              		.cfi_def_cfa_offset 12
  96              		.cfi_offset 14, -4
  97              		.cfi_offset 5, -8
  98              		.cfi_offset 4, -12
  99              		.loc 1 74 0
 100 0002 0029     		cmp	r1, #0
 101              		.loc 1 71 0
 102 0004 83B0     		sub	sp, sp, #12
 103              	.LCFI1:
 104              		.cfi_def_cfa_offset 24
 105              		.loc 1 71 0
 106 0006 0446     		mov	r4, r0
 107              		.loc 1 74 0
 108 0008 0CDD     		ble	.L5
 109              	.LVL9:
 110              	.LBB42:
 111              	.LBB43:
 112              		.loc 1 60 0
 113 000a 40F20001 		movw	r1, #:lower16:.LC0
 114              	.LVL10:
ARM GAS  /tmp/ccVZHgwN.s 			page 3


 115 000e 40F20002 		movw	r2, #:lower16:.LC3
 116              	.LVL11:
 117 0012 C0F20001 		movt	r1, #:upper16:.LC0
 118 0016 C0F20002 		movt	r2, #:upper16:.LC3
 119              	.LBE43:
 120              	.LBE42:
 121              		.loc 1 101 0
 122 001a 03B0     		add	sp, sp, #12
 123 001c BDE83040 		pop	{r4, r5, lr}
 124              	.LBB45:
 125              	.LBB44:
 126              		.loc 1 60 0
 127 0020 FFF7FEBF 		b	chprintf
 128              	.LVL12:
 129              	.L5:
 130              	.LBE44:
 131              	.LBE45:
 132              	.LBB46:
 133              	.LBB47:
 134              		.loc 1 79 0
 135 0024 40F20001 		movw	r1, #:lower16:.LC4
 136              	.LVL13:
 137 0028 40F20002 		movw	r2, #:lower16:.LC5
 138              	.LVL14:
 139 002c C0F20001 		movt	r1, #:upper16:.LC4
 140 0030 C0F20002 		movt	r2, #:upper16:.LC5
 141 0034 FFF7FEFF 		bl	chprintf
 142              		.loc 1 81 0
 143 0038 40F20001 		movw	r1, #:lower16:.LC6
 144 003c 40F20002 		movw	r2, #:lower16:.LC7
 145 0040 2046     		mov	r0, r4
 146 0042 C0F20001 		movt	r1, #:upper16:.LC6
 147 0046 C0F20002 		movt	r2, #:upper16:.LC7
 148 004a FFF7FEFF 		bl	chprintf
 149              		.loc 1 83 0
 150 004e 40F20001 		movw	r1, #:lower16:.LC8
 151 0052 40F20002 		movw	r2, #:lower16:.LC9
 152 0056 2046     		mov	r0, r4
 153 0058 C0F20001 		movt	r1, #:upper16:.LC8
 154 005c C0F20002 		movt	r2, #:upper16:.LC9
 155 0060 FFF7FEFF 		bl	chprintf
 156              		.loc 1 85 0
 157 0064 40F20001 		movw	r1, #:lower16:.LC10
 158 0068 40F20002 		movw	r2, #:lower16:.LC11
 159 006c 2046     		mov	r0, r4
 160 006e C0F20001 		movt	r1, #:upper16:.LC10
 161 0072 C0F20002 		movt	r2, #:upper16:.LC11
 162 0076 FFF7FEFF 		bl	chprintf
 163              		.loc 1 88 0
 164 007a 40F20001 		movw	r1, #:lower16:.LC12
 165 007e 40F20002 		movw	r2, #:lower16:.LC13
 166 0082 2046     		mov	r0, r4
 167 0084 C0F20001 		movt	r1, #:upper16:.LC12
 168 0088 C0F20002 		movt	r2, #:upper16:.LC13
 169 008c FFF7FEFF 		bl	chprintf
 170              		.loc 1 91 0
 171 0090 40F20001 		movw	r1, #:lower16:.LC14
ARM GAS  /tmp/ccVZHgwN.s 			page 4


 172 0094 40F20002 		movw	r2, #:lower16:.LC15
 173 0098 2046     		mov	r0, r4
 174 009a C0F20001 		movt	r1, #:upper16:.LC14
 175 009e C0F20002 		movt	r2, #:upper16:.LC15
 176 00a2 FFF7FEFF 		bl	chprintf
 177              		.loc 1 94 0
 178 00a6 40F20001 		movw	r1, #:lower16:.LC16
 179 00aa 40F20002 		movw	r2, #:lower16:.LC17
 180 00ae 2046     		mov	r0, r4
 181 00b0 C0F20001 		movt	r1, #:upper16:.LC16
 182 00b4 C0F20002 		movt	r2, #:upper16:.LC17
 183 00b8 FFF7FEFF 		bl	chprintf
 184              		.loc 1 98 0
 185 00bc 40F20005 		movw	r5, #:lower16:.LC21
 186 00c0 40F20001 		movw	r1, #:lower16:.LC18
 187 00c4 40F20002 		movw	r2, #:lower16:.LC19
 188 00c8 40F20003 		movw	r3, #:lower16:.LC20
 189 00cc C0F20005 		movt	r5, #:upper16:.LC21
 190 00d0 2046     		mov	r0, r4
 191 00d2 C0F20001 		movt	r1, #:upper16:.LC18
 192 00d6 C0F20002 		movt	r2, #:upper16:.LC19
 193 00da C0F20003 		movt	r3, #:upper16:.LC20
 194 00de 0095     		str	r5, [sp, #0]
 195 00e0 FFF7FEFF 		bl	chprintf
 196              	.LBE47:
 197              	.LBE46:
 198              		.loc 1 101 0
 199 00e4 03B0     		add	sp, sp, #12
 200 00e6 30BD     		pop	{r4, r5, pc}
 201              		.cfi_endproc
 202              	.LFE114:
 203              		.size	cmd_info, .-cmd_info
 204 00e8 AFF30080 		.section	.text._strtok.constprop.2,"ax",%progbits
 204      AFF30080 
 205              		.align	2
 206              		.p2align 4,,15
 207              		.thumb
 208              		.thumb_func
 209              		.type	_strtok.constprop.2, %function
 210              	_strtok.constprop.2:
 211              	.LFB123:
 212              		.loc 1 41 0
 213              		.cfi_startproc
 214              		@ args = 0, pretend = 0, frame = 0
 215              		@ frame_needed = 0, uses_anonymous_args = 0
 216              	.LVL15:
 217 0000 38B5     		push	{r3, r4, r5, lr}
 218              	.LCFI2:
 219              		.cfi_def_cfa_offset 16
 220              		.cfi_offset 14, -4
 221              		.cfi_offset 5, -8
 222              		.cfi_offset 4, -12
 223              		.cfi_offset 3, -16
 224              		.loc 1 43 0
 225 0002 0446     		mov	r4, r0
 226              		.loc 1 41 0
 227 0004 0D46     		mov	r5, r1
ARM GAS  /tmp/ccVZHgwN.s 			page 5


 228              		.loc 1 43 0
 229 0006 C0B1     		cbz	r0, .L7
 230              		.loc 1 44 0
 231 0008 0860     		str	r0, [r1, #0]
 232              	.LVL16:
 233              	.L8:
 234              		.loc 1 50 0
 235 000a 40F20001 		movw	r1, #:lower16:.LANCHOR0
 236              	.LVL17:
 237 000e C0F20001 		movt	r1, #:upper16:.LANCHOR0
 238 0012 2046     		mov	r0, r4
 239              	.LVL18:
 240 0014 FFF7FEFF 		bl	strspn
 241 0018 2418     		adds	r4, r4, r0
 242              	.LVL19:
 243              		.loc 1 51 0
 244 001a 2046     		mov	r0, r4
 245 001c 2021     		movs	r1, #32
 246 001e FFF7FEFF 		bl	strchr
 247 0022 2860     		str	r0, [r5, #0]
 248              		.loc 1 52 0
 249 0024 18B1     		cbz	r0, .L10
 250              		.loc 1 53 0
 251 0026 0023     		movs	r3, #0
 252 0028 00F8013B 		strb	r3, [r0], #1
 253 002c 2860     		str	r0, [r5, #0]
 254              	.L10:
 255              		.loc 1 55 0
 256 002e 2078     		ldrb	r0, [r4, #0]	@ zero_extendqisi2
 257 0030 0028     		cmp	r0, #0
 258 0032 14BF     		ite	ne
 259 0034 2046     		movne	r0, r4
 260 0036 0020     		moveq	r0, #0
 261 0038 38BD     		pop	{r3, r4, r5, pc}
 262              	.LVL20:
 263              	.L7:
 264              		.loc 1 45 0
 265 003a 0C68     		ldr	r4, [r1, #0]
 266              	.LVL21:
 267              		.loc 1 47 0
 268 003c 002C     		cmp	r4, #0
 269 003e E4D1     		bne	.L8
 270              		.loc 1 48 0
 271 0040 2046     		mov	r0, r4
 272              	.LVL22:
 273              		.loc 1 56 0
 274 0042 38BD     		pop	{r3, r4, r5, pc}
 275              		.cfi_endproc
 276              	.LFE123:
 277              		.size	_strtok.constprop.2, .-_strtok.constprop.2
 278 0044 AFF30080 		.section	.text.shellInit,"ax",%progbits
 278      AFF30080 
 278      AFF30080 
 279              		.align	2
 280              		.p2align 4,,15
 281              		.global	shellInit
 282              		.thumb
ARM GAS  /tmp/ccVZHgwN.s 			page 6


 283              		.thumb_func
 284              		.type	shellInit, %function
 285              	shellInit:
 286              	.LFB118:
 287              		.loc 1 208 0
 288              		.cfi_startproc
 289              		@ args = 0, pretend = 0, frame = 0
 290              		@ frame_needed = 0, uses_anonymous_args = 0
 291              		@ link register save eliminated.
 292              		.loc 1 210 0
 293 0000 40F20003 		movw	r3, #:lower16:.LANCHOR1
 294 0004 C0F20003 		movt	r3, #:upper16:.LANCHOR1
 295 0008 1B60     		str	r3, [r3, #0]
 296              		.loc 1 211 0
 297 000a 7047     		bx	lr
 298              		.cfi_endproc
 299              	.LFE118:
 300              		.size	shellInit, .-shellInit
 301 000c AFF30080 		.section	.text.shellCreateStatic,"ax",%progbits
 302              		.align	2
 303              		.p2align 4,,15
 304              		.global	shellCreateStatic
 305              		.thumb
 306              		.thumb_func
 307              		.type	shellCreateStatic, %function
 308              	shellCreateStatic:
 309              	.LFB119:
 310              		.loc 1 240 0
 311              		.cfi_startproc
 312              		@ args = 0, pretend = 0, frame = 0
 313              		@ frame_needed = 0, uses_anonymous_args = 0
 314              	.LVL23:
 315 0000 00B5     		push	{lr}
 316              	.LCFI3:
 317              		.cfi_def_cfa_offset 4
 318              		.cfi_offset 14, -4
 319 0002 83B0     		sub	sp, sp, #12
 320              	.LCFI4:
 321              		.cfi_def_cfa_offset 16
 322              		.loc 1 242 0
 323 0004 0090     		str	r0, [sp, #0]
 324 0006 0846     		mov	r0, r1
 325              	.LVL24:
 326 0008 1146     		mov	r1, r2
 327              	.LVL25:
 328 000a 1A46     		mov	r2, r3
 329              	.LVL26:
 330 000c 40F20003 		movw	r3, #:lower16:shell_thread
 331              	.LVL27:
 332 0010 C0F20003 		movt	r3, #:upper16:shell_thread
 333 0014 FFF7FEFF 		bl	chThdCreateStatic
 334              	.LVL28:
 335              		.loc 1 243 0
 336 0018 03B0     		add	sp, sp, #12
 337 001a 00BD     		pop	{pc}
 338              		.cfi_endproc
 339              	.LFE119:
ARM GAS  /tmp/ccVZHgwN.s 			page 7


 340              		.size	shellCreateStatic, .-shellCreateStatic
 341 001c AFF30080 		.section	.text.shellGetLine,"ax",%progbits
 342              		.align	2
 343              		.p2align 4,,15
 344              		.global	shellGetLine
 345              		.thumb
 346              		.thumb_func
 347              		.type	shellGetLine, %function
 348              	shellGetLine:
 349              	.LFB120:
 350              		.loc 1 255 0
 351              		.cfi_startproc
 352              		@ args = 0, pretend = 0, frame = 8
 353              		@ frame_needed = 0, uses_anonymous_args = 0
 354              	.LVL29:
 355 0000 F0B5     		push	{r4, r5, r6, r7, lr}
 356              	.LCFI5:
 357              		.cfi_def_cfa_offset 20
 358              		.cfi_offset 14, -4
 359              		.cfi_offset 7, -8
 360              		.cfi_offset 6, -12
 361              		.cfi_offset 5, -16
 362              		.cfi_offset 4, -20
 363              	.LBB48:
 364              		.loc 1 283 0
 365 0002 013A     		subs	r2, r2, #1
 366              	.LVL30:
 367              	.LBE48:
 368              		.loc 1 255 0
 369 0004 83B0     		sub	sp, sp, #12
 370              	.LCFI6:
 371              		.cfi_def_cfa_offset 32
 372              		.loc 1 255 0
 373 0006 0E46     		mov	r6, r1
 374              	.LVL31:
 375 0008 0446     		mov	r4, r0
 376              		.loc 1 256 0
 377 000a 0D46     		mov	r5, r1
 378              	.LBB49:
 379              		.loc 1 283 0
 380 000c 8F18     		adds	r7, r1, r2
 381              	.LVL32:
 382              	.L24:
 383              		.loc 1 261 0
 384 000e 2168     		ldr	r1, [r4, #0]
 385 0010 2046     		mov	r0, r4
 386 0012 4B68     		ldr	r3, [r1, #4]
 387 0014 0122     		movs	r2, #1
 388 0016 0DF10701 		add	r1, sp, #7
 389 001a 9847     		blx	r3
 390 001c E0B1     		cbz	r0, .L21
 391              	.L28:
 392              		.loc 1 263 0
 393 001e 9DF80710 		ldrb	r1, [sp, #7]	@ zero_extendqisi2
 394 0022 0429     		cmp	r1, #4
 395 0024 2ED0     		beq	.L25
 396              		.loc 1 267 0
ARM GAS  /tmp/ccVZHgwN.s 			page 8


 397 0026 0829     		cmp	r1, #8
 398 0028 19D0     		beq	.L26
 399              		.loc 1 276 0
 400 002a 0D29     		cmp	r1, #13
 401 002c 33D0     		beq	.L27
 402              		.loc 1 281 0
 403 002e 1F29     		cmp	r1, #31
 404 0030 EDD9     		bls	.L24
 405              		.loc 1 283 0
 406 0032 BD42     		cmp	r5, r7
 407 0034 EBD2     		bcs	.L24
 408              		.loc 1 284 0
 409 0036 2368     		ldr	r3, [r4, #0]
 410 0038 2046     		mov	r0, r4
 411 003a 9A68     		ldr	r2, [r3, #8]
 412 003c 9047     		blx	r2
 413              		.loc 1 285 0
 414 003e 9DF80710 		ldrb	r1, [sp, #7]	@ zero_extendqisi2
 415              	.LVL33:
 416 0042 05F8011B 		strb	r1, [r5], #1
 417              	.LVL34:
 418              		.loc 1 261 0
 419 0046 2168     		ldr	r1, [r4, #0]
 420              	.LVL35:
 421 0048 2046     		mov	r0, r4
 422 004a 4B68     		ldr	r3, [r1, #4]
 423 004c 0122     		movs	r2, #1
 424 004e 0DF10701 		add	r1, sp, #7
 425 0052 9847     		blx	r3
 426 0054 0028     		cmp	r0, #0
 427 0056 E2D1     		bne	.L28
 428              	.LVL36:
 429              	.L21:
 430              		.loc 1 262 0
 431 0058 0120     		movs	r0, #1
 432              	.L16:
 433              	.LBE49:
 434              		.loc 1 288 0
 435 005a 03B0     		add	sp, sp, #12
 436 005c F0BD     		pop	{r4, r5, r6, r7, pc}
 437              	.L26:
 438              	.LBB50:
 439              		.loc 1 268 0
 440 005e B542     		cmp	r5, r6
 441 0060 D5D0     		beq	.L24
 442              		.loc 1 269 0
 443 0062 2068     		ldr	r0, [r4, #0]
 444 0064 8368     		ldr	r3, [r0, #8]
 445 0066 2046     		mov	r0, r4
 446 0068 9847     		blx	r3
 447              		.loc 1 270 0
 448 006a 2268     		ldr	r2, [r4, #0]
 449 006c 2021     		movs	r1, #32
 450 006e 9368     		ldr	r3, [r2, #8]
 451 0070 2046     		mov	r0, r4
 452 0072 9847     		blx	r3
 453              		.loc 1 271 0
ARM GAS  /tmp/ccVZHgwN.s 			page 9


 454 0074 2068     		ldr	r0, [r4, #0]
 455 0076 9DF80710 		ldrb	r1, [sp, #7]	@ zero_extendqisi2
 456 007a 8268     		ldr	r2, [r0, #8]
 457 007c 2046     		mov	r0, r4
 458 007e 9047     		blx	r2
 459              		.loc 1 272 0
 460 0080 013D     		subs	r5, r5, #1
 461              	.LVL37:
 462 0082 C4E7     		b	.L24
 463              	.L25:
 464              		.loc 1 264 0
 465 0084 40F20001 		movw	r1, #:lower16:.LC23
 466 0088 2046     		mov	r0, r4
 467 008a C0F20001 		movt	r1, #:upper16:.LC23
 468 008e FFF7FEFF 		bl	chprintf
 469              		.loc 1 265 0
 470 0092 0120     		movs	r0, #1
 471 0094 E1E7     		b	.L16
 472              	.L27:
 473              		.loc 1 277 0
 474 0096 40F20001 		movw	r1, #:lower16:.LC24
 475 009a 2046     		mov	r0, r4
 476 009c C0F20001 		movt	r1, #:upper16:.LC24
 477 00a0 FFF7FEFF 		bl	chprintf
 478              		.loc 1 278 0
 479 00a4 0020     		movs	r0, #0
 480 00a6 2870     		strb	r0, [r5, #0]
 481              		.loc 1 279 0
 482 00a8 D7E7     		b	.L16
 483              	.LBE50:
 484              		.cfi_endproc
 485              	.LFE120:
 486              		.size	shellGetLine, .-shellGetLine
 487 00aa 00BFAFF3 		.section	.text.shell_thread,"ax",%progbits
 487      0080
 488              		.align	2
 489              		.p2align 4,,15
 490              		.thumb
 491              		.thumb_func
 492              		.type	shell_thread, %function
 493              	shell_thread:
 494              	.LFB117:
 495              		.loc 1 143 0
 496              		.cfi_startproc
 497              		@ args = 0, pretend = 0, frame = 96
 498              		@ frame_needed = 0, uses_anonymous_args = 0
 499              	.LVL38:
 500 0000 2DE9F04F 		push	{r4, r5, r6, r7, r8, r9, sl, fp, lr}
 501              	.LCFI7:
 502              		.cfi_def_cfa_offset 36
 503              		.cfi_offset 14, -4
 504              		.cfi_offset 11, -8
 505              		.cfi_offset 10, -12
 506              		.cfi_offset 9, -16
 507              		.cfi_offset 8, -20
 508              		.cfi_offset 7, -24
 509              		.cfi_offset 6, -28
ARM GAS  /tmp/ccVZHgwN.s 			page 10


 510              		.cfi_offset 5, -32
 511              		.cfi_offset 4, -36
 512              		.loc 1 151 0
 513 0004 40F20001 		movw	r1, #:lower16:rlist
 514 0008 C0F20001 		movt	r1, #:upper16:rlist
 515              		.loc 1 146 0
 516 000c 0468     		ldr	r4, [r0, #0]
 517              	.LVL39:
 518              		.loc 1 151 0
 519 000e 8A69     		ldr	r2, [r1, #24]
 520              		.loc 1 147 0
 521 0010 4768     		ldr	r7, [r0, #4]
 522              	.LVL40:
 523              		.loc 1 151 0
 524 0012 40F20003 		movw	r3, #:lower16:.LC25
 525 0016 C0F20003 		movt	r3, #:upper16:.LC25
 526              		.loc 1 152 0
 527 001a 40F20001 		movw	r1, #:lower16:.LC26
 528              		.loc 1 143 0
 529 001e 99B0     		sub	sp, sp, #100
 530              	.LCFI8:
 531              		.cfi_def_cfa_offset 136
 532              		.loc 1 151 0
 533 0020 9361     		str	r3, [r2, #24]
 534              		.loc 1 152 0
 535 0022 2046     		mov	r0, r4
 536              	.LVL41:
 537 0024 C0F20001 		movt	r1, #:upper16:.LC26
 538              	.LBB51:
 539              	.LBB52:
 540              		.loc 1 65 0
 541 0028 40F20005 		movw	r5, #:lower16:.LANCHOR2
 542 002c C0F20005 		movt	r5, #:upper16:.LANCHOR2
 543              	.LBE52:
 544              	.LBE51:
 545              		.loc 1 152 0
 546 0030 FFF7FEFF 		bl	chprintf
 547              	.LVL42:
 548 0034 05F10808 		add	r8, r5, #8
 549              	.LBB54:
 550              	.LBB55:
 551              		.loc 1 143 0
 552 0038 4646     		mov	r6, r8
 553              	.L62:
 554              	.LBE55:
 555              	.LBE54:
 556              		.loc 1 154 0
 557 003a 40F20001 		movw	r1, #:lower16:.LC27
 558 003e 2046     		mov	r0, r4
 559 0040 C0F20001 		movt	r1, #:upper16:.LC27
 560 0044 FFF7FEFF 		bl	chprintf
 561              		.loc 1 155 0
 562 0048 2046     		mov	r0, r4
 563 004a 02A9     		add	r1, sp, #8
 564 004c 4022     		movs	r2, #64
 565 004e FFF7FEFF 		bl	shellGetLine
 566 0052 8346     		mov	fp, r0
ARM GAS  /tmp/ccVZHgwN.s 			page 11


 567 0054 0028     		cmp	r0, #0
 568 0056 34D1     		bne	.L64
 569              		.loc 1 159 0
 570 0058 17A9     		add	r1, sp, #92
 571 005a 02A8     		add	r0, sp, #8
 572 005c FFF7FEFF 		bl	_strtok.constprop.2
 573              		.loc 1 162 0
 574 0060 17A9     		add	r1, sp, #92
 575              		.loc 1 159 0
 576 0062 8246     		mov	sl, r0
 577              	.LVL43:
 578              		.loc 1 162 0
 579 0064 5846     		mov	r0, fp
 580              	.LVL44:
 581 0066 FFF7FEFF 		bl	_strtok.constprop.2
 582              	.LVL45:
 583 006a 0346     		mov	r3, r0
 584 006c 0028     		cmp	r0, #0
 585 006e 41D0     		beq	.L51
 586 0070 5846     		mov	r0, fp
 587              	.LVL46:
 588 0072 17A9     		add	r1, sp, #92
 589              		.loc 1 168 0
 590 0074 1293     		str	r3, [sp, #72]
 591              	.LVL47:
 592              		.loc 1 162 0
 593 0076 FFF7FEFF 		bl	_strtok.constprop.2
 594              	.LVL48:
 595 007a 0346     		mov	r3, r0
 596 007c 0028     		cmp	r0, #0
 597 007e 7ED0     		beq	.L52
 598 0080 5846     		mov	r0, fp
 599              	.LVL49:
 600 0082 17A9     		add	r1, sp, #92
 601              		.loc 1 168 0
 602 0084 1393     		str	r3, [sp, #76]
 603              	.LVL50:
 604              		.loc 1 162 0
 605 0086 FFF7FEFF 		bl	_strtok.constprop.2
 606              	.LVL51:
 607 008a 0346     		mov	r3, r0
 608 008c 0028     		cmp	r0, #0
 609 008e 79D0     		beq	.L53
 610 0090 5846     		mov	r0, fp
 611              	.LVL52:
 612 0092 17A9     		add	r1, sp, #92
 613              		.loc 1 168 0
 614 0094 1493     		str	r3, [sp, #80]
 615              	.LVL53:
 616              		.loc 1 162 0
 617 0096 FFF7FEFF 		bl	_strtok.constprop.2
 618              	.LVL54:
 619 009a 0346     		mov	r3, r0
 620 009c 0028     		cmp	r0, #0
 621 009e 74D0     		beq	.L54
 622 00a0 5846     		mov	r0, fp
 623              	.LVL55:
ARM GAS  /tmp/ccVZHgwN.s 			page 12


 624 00a2 17A9     		add	r1, sp, #92
 625              		.loc 1 168 0
 626 00a4 1593     		str	r3, [sp, #84]
 627              	.LVL56:
 628              		.loc 1 162 0
 629 00a6 FFF7FEFF 		bl	_strtok.constprop.2
 630              	.LVL57:
 631 00aa 0028     		cmp	r0, #0
 632 00ac 70D0     		beq	.L55
 633              		.loc 1 164 0
 634 00ae 40F20001 		movw	r1, #:lower16:.LC29
 635 00b2 2046     		mov	r0, r4
 636              	.LVL58:
 637 00b4 C0F20001 		movt	r1, #:upper16:.LC29
 638 00b8 FFF7FEFF 		bl	chprintf
 639              	.LVL59:
 640              		.loc 1 170 0
 641 00bc CDF858B0 		str	fp, [sp, #88]
 642 00c0 BBE7     		b	.L62
 643              	.LVL60:
 644              	.L64:
 645              		.loc 1 156 0
 646 00c2 40F20001 		movw	r1, #:lower16:.LC28
 647 00c6 2046     		mov	r0, r4
 648 00c8 C0F20001 		movt	r1, #:upper16:.LC28
 649 00cc FFF7FEFF 		bl	chprintf
 650              	.L33:
 651              		.loc 1 199 0
 652              	@ 199 "../../../os/various/shell.c" 1
 653 00d0 FFF7FEFF 		bl      _port_lock
 654              	@ 0 "" 2
 655              		.thumb
 656 00d4 FFF7FEFF 		bl	dbg_check_lock
 657              		.loc 1 200 0
 658 00d8 40F20000 		movw	r0, #:lower16:.LANCHOR1
 659 00dc 0021     		movs	r1, #0
 660 00de C0F20000 		movt	r0, #:upper16:.LANCHOR1
 661 00e2 FFF7FEFF 		bl	chEvtBroadcastFlagsI
 662              		.loc 1 201 0
 663 00e6 0020     		movs	r0, #0
 664 00e8 FFF7FEFF 		bl	chThdExitS
 665              		.loc 1 203 0
 666 00ec 0020     		movs	r0, #0
 667 00ee 19B0     		add	sp, sp, #100
 668 00f0 BDE8F08F 		pop	{r4, r5, r6, r7, r8, r9, sl, fp, pc}
 669              	.LVL61:
 670              	.L51:
 671              		.loc 1 161 0
 672 00f4 8146     		mov	r9, r0
 673              	.LVL62:
 674              	.L34:
 675              		.loc 1 170 0
 676 00f6 0DF1600E 		add	lr, sp, #96
 677 00fa 0EEB890C 		add	ip, lr, r9, lsl #2
 678 00fe 0020     		movs	r0, #0
 679              	.LVL63:
 680 0100 4CF8180C 		str	r0, [ip, #-24]
ARM GAS  /tmp/ccVZHgwN.s 			page 13


 681              		.loc 1 171 0
 682 0104 BAF1000F 		cmp	sl, #0
 683 0108 97D0     		beq	.L62
 684              		.loc 1 172 0
 685 010a 40F20001 		movw	r1, #:lower16:.LC30
 686 010e 5046     		mov	r0, sl
 687 0110 C0F20001 		movt	r1, #:upper16:.LC30
 688 0114 FFF7FEFF 		bl	strcasecmp
 689 0118 70B9     		cbnz	r0, .L36
 690              		.loc 1 173 0
 691 011a B9F1000F 		cmp	r9, #0
 692 011e D7D0     		beq	.L33
 693              	.LVL64:
 694              	.LBB57:
 695              	.LBB58:
 696              		.loc 1 60 0
 697 0120 40F20001 		movw	r1, #:lower16:.LC0
 698 0124 40F20002 		movw	r2, #:lower16:.LC30
 699 0128 2046     		mov	r0, r4
 700 012a C0F20001 		movt	r1, #:upper16:.LC0
 701 012e C0F20002 		movt	r2, #:upper16:.LC30
 702 0132 FFF7FEFF 		bl	chprintf
 703              	.LBE58:
 704              	.LBE57:
 705              		.loc 1 175 0
 706 0136 80E7     		b	.L62
 707              	.LVL65:
 708              	.L36:
 709              		.loc 1 179 0
 710 0138 40F20001 		movw	r1, #:lower16:.LC31
 711 013c 5046     		mov	r0, sl
 712 013e C0F20001 		movt	r1, #:upper16:.LC31
 713 0142 FFF7FEFF 		bl	strcasecmp
 714 0146 30B3     		cbz	r0, .L38
 715              	.LVL66:
 716              	.LBB59:
 717              	.LBB56:
 718              		.loc 1 125 0
 719 0148 2868     		ldr	r0, [r5, #0]
 720 014a 40F2000B 		movw	fp, #:lower16:.LANCHOR2
 721 014e C0F2000B 		movt	fp, #:upper16:.LANCHOR2
 722 0152 40B9     		cbnz	r0, .L47
 723 0154 2EE0     		b	.L40
 724              	.LVL67:
 725              	.L46:
 726              		.loc 1 127 0
 727 0156 0BF1080B 		add	fp, fp, #8
 728              	.LVL68:
 729              		.loc 1 143 0
 730 015a C5EB0B02 		rsb	r2, r5, fp
 731 015e B018     		adds	r0, r6, r2
 732              		.loc 1 125 0
 733 0160 50F8080C 		ldr	r0, [r0, #-8]
 734 0164 30B3     		cbz	r0, .L40
 735              	.LVL69:
 736              	.L47:
 737              		.loc 1 126 0
ARM GAS  /tmp/ccVZHgwN.s 			page 14


 738 0166 5146     		mov	r1, sl
 739 0168 FFF7FEFF 		bl	strcasecmp
 740 016c 0028     		cmp	r0, #0
 741 016e F2D1     		bne	.L46
 742              	.L63:
 743              	.LBE56:
 744              	.LBE59:
 745              	.LBB60:
 746              	.LBB61:
 747              		.loc 1 127 0
 748 0170 DBF80430 		ldr	r3, [fp, #4]
 749 0174 2046     		mov	r0, r4
 750 0176 4946     		mov	r1, r9
 751 0178 12AA     		add	r2, sp, #72
 752 017a 9847     		blx	r3
 753 017c 5DE7     		b	.L62
 754              	.LVL70:
 755              	.L52:
 756              	.LBE61:
 757              	.LBE60:
 758              		.loc 1 168 0
 759 017e 4FF00109 		mov	r9, #1
 760 0182 B8E7     		b	.L34
 761              	.LVL71:
 762              	.L53:
 763 0184 4FF00209 		mov	r9, #2
 764 0188 B5E7     		b	.L34
 765              	.LVL72:
 766              	.L54:
 767 018a 4FF00309 		mov	r9, #3
 768 018e B2E7     		b	.L34
 769              	.LVL73:
 770              	.L55:
 771              		.loc 1 162 0
 772 0190 4FF00409 		mov	r9, #4
 773 0194 AFE7     		b	.L34
 774              	.LVL74:
 775              	.L38:
 776              		.loc 1 180 0
 777 0196 B9F1000F 		cmp	r9, #0
 778 019a 26D0     		beq	.L41
 779              	.LVL75:
 780              	.LBB63:
 781              	.LBB64:
 782              		.loc 1 60 0
 783 019c 40F20001 		movw	r1, #:lower16:.LC0
 784 01a0 40F20002 		movw	r2, #:lower16:.LC31
 785 01a4 2046     		mov	r0, r4
 786 01a6 C0F20001 		movt	r1, #:upper16:.LC0
 787 01aa C0F20002 		movt	r2, #:upper16:.LC31
 788 01ae FFF7FEFF 		bl	chprintf
 789              	.LBE64:
 790              	.LBE63:
 791              		.loc 1 182 0
 792 01b2 42E7     		b	.L62
 793              	.LVL76:
 794              	.L40:
ARM GAS  /tmp/ccVZHgwN.s 			page 15


 795              		.loc 1 190 0
 796 01b4 002F     		cmp	r7, #0
 797 01b6 55D0     		beq	.L50
 798              	.LVL77:
 799              	.LBB65:
 800              	.LBB62:
 801              		.loc 1 125 0
 802 01b8 3868     		ldr	r0, [r7, #0]
 803 01ba 0028     		cmp	r0, #0
 804 01bc 52D0     		beq	.L50
 805              		.loc 1 143 0
 806 01be 07F10802 		add	r2, r7, #8
 807              		.loc 1 125 0
 808 01c2 BB46     		mov	fp, r7
 809              		.loc 1 143 0
 810 01c4 0192     		str	r2, [sp, #4]
 811 01c6 0AE0     		b	.L49
 812              	.LVL78:
 813              	.L48:
 814 01c8 0198     		ldr	r0, [sp, #4]
 815              		.loc 1 127 0
 816 01ca 0BF1080B 		add	fp, fp, #8
 817              	.LVL79:
 818              		.loc 1 143 0
 819 01ce C7EB0B01 		rsb	r1, r7, fp
 820 01d2 00EB010C 		add	ip, r0, r1
 821              		.loc 1 125 0
 822 01d6 5CF8080C 		ldr	r0, [ip, #-8]
 823 01da 0028     		cmp	r0, #0
 824 01dc 42D0     		beq	.L50
 825              	.LVL80:
 826              	.L49:
 827              		.loc 1 126 0
 828 01de 5146     		mov	r1, sl
 829 01e0 FFF7FEFF 		bl	strcasecmp
 830 01e4 0028     		cmp	r0, #0
 831 01e6 EFD1     		bne	.L48
 832 01e8 C2E7     		b	.L63
 833              	.L41:
 834              	.LBE62:
 835              	.LBE65:
 836              		.loc 1 184 0
 837 01ea 40F20001 		movw	r1, #:lower16:.LC32
 838 01ee 2046     		mov	r0, r4
 839 01f0 C0F20001 		movt	r1, #:upper16:.LC32
 840 01f4 FFF7FEFF 		bl	chprintf
 841              	.LVL81:
 842              	.LBB66:
 843              	.LBB53:
 844              		.loc 1 65 0
 845 01f8 2A68     		ldr	r2, [r5, #0]
 846 01fa A2B1     		cbz	r2, .L42
 847 01fc 40F20009 		movw	r9, #:lower16:.LANCHOR2
 848 0200 C0F20009 		movt	r9, #:upper16:.LANCHOR2
 849              	.LVL82:
 850              	.L43:
 851              		.loc 1 66 0
ARM GAS  /tmp/ccVZHgwN.s 			page 16


 852 0204 40F20001 		movw	r1, #:lower16:.LC33
 853 0208 2046     		mov	r0, r4
 854 020a C0F20001 		movt	r1, #:upper16:.LC33
 855 020e 09F10809 		add	r9, r9, #8
 856 0212 FFF7FEFF 		bl	chprintf
 857              		.loc 1 143 0
 858 0216 C5EB0902 		rsb	r2, r5, r9
 859 021a 08EB020B 		add	fp, r8, r2
 860              		.loc 1 65 0
 861 021e 5BF8082C 		ldr	r2, [fp, #-8]
 862 0222 002A     		cmp	r2, #0
 863 0224 EED1     		bne	.L43
 864              	.L42:
 865              	.LBE53:
 866              	.LBE66:
 867              		.loc 1 186 0
 868 0226 AFB1     		cbz	r7, .L44
 869              	.LVL83:
 870              	.LBB67:
 871              	.LBB68:
 872              		.loc 1 65 0
 873 0228 3A68     		ldr	r2, [r7, #0]
 874 022a 9AB1     		cbz	r2, .L44
 875 022c B946     		mov	r9, r7
 876 022e 07F1080A 		add	sl, r7, #8
 877              	.LVL84:
 878              	.L45:
 879              		.loc 1 66 0
 880 0232 40F20001 		movw	r1, #:lower16:.LC33
 881 0236 C0F20001 		movt	r1, #:upper16:.LC33
 882 023a 2046     		mov	r0, r4
 883 023c 09F10809 		add	r9, r9, #8
 884 0240 FFF7FEFF 		bl	chprintf
 885              		.loc 1 143 0
 886 0244 C7EB0901 		rsb	r1, r7, r9
 887 0248 0AEB0103 		add	r3, sl, r1
 888              		.loc 1 65 0
 889 024c 53F8082C 		ldr	r2, [r3, #-8]
 890 0250 002A     		cmp	r2, #0
 891 0252 EED1     		bne	.L45
 892              	.L44:
 893              	.LBE68:
 894              	.LBE67:
 895              		.loc 1 188 0
 896 0254 40F20001 		movw	r1, #:lower16:.LC24
 897 0258 2046     		mov	r0, r4
 898 025a C0F20001 		movt	r1, #:upper16:.LC24
 899 025e FFF7FEFF 		bl	chprintf
 900 0262 EAE6     		b	.L62
 901              	.LVL85:
 902              	.L50:
 903              		.loc 1 192 0
 904 0264 40F20001 		movw	r1, #:lower16:.LC34
 905 0268 2046     		mov	r0, r4
 906 026a C0F20001 		movt	r1, #:upper16:.LC34
 907 026e 5246     		mov	r2, sl
 908 0270 FFF7FEFF 		bl	chprintf
ARM GAS  /tmp/ccVZHgwN.s 			page 17


 909              		.loc 1 193 0
 910 0274 40F20001 		movw	r1, #:lower16:.LC35
 911 0278 2046     		mov	r0, r4
 912 027a C0F20001 		movt	r1, #:upper16:.LC35
 913 027e FFF7FEFF 		bl	chprintf
 914 0282 DAE6     		b	.L62
 915              		.cfi_endproc
 916              	.LFE117:
 917              		.size	shell_thread, .-shell_thread
 918              		.global	shell_terminated
 919 0284 AFF30080 		.section	.rodata
 919      AFF30080 
 919      AFF30080 
 920              		.align	2
 921              		.set	.LANCHOR0,. + 0
 922              	.LC22:
 923 0000 20003900 		.ascii	" \0009\000"
 924              		.section	.data.local_commands,"aw",%progbits
 925              		.align	2
 926              		.set	.LANCHOR2,. + 0
 927              		.type	local_commands, %object
 928              		.size	local_commands, 24
 929              	local_commands:
 930 0000 1C000000 		.word	.LC3
 931 0004 00000000 		.word	cmd_info
 932 0008 0C000000 		.word	.LC1
 933 000c 00000000 		.word	cmd_systime
 934 0010 00000000 		.word	0
 935 0014 00000000 		.word	0
 936              		.section	.rodata.str1.4,"aMS",%progbits,1
 937              		.align	2
 938              	.LC0:
 939 0000 55736167 		.ascii	"Usage: %s\015\012\000"
 939      653A2025 
 939      730D0A00 
 940              	.LC1:
 941 000c 73797374 		.ascii	"systime\000"
 941      696D6500 
 942              	.LC2:
 943 0014 256C750D 		.ascii	"%lu\015\012\000"
 943      0A00
 944 001a 0000     		.space	2
 945              	.LC3:
 946 001c 696E666F 		.ascii	"info\000"
 946      00
 947 0021 000000   		.space	3
 948              	.LC4:
 949 0024 4B65726E 		.ascii	"Kernel:       %s\015\012\000"
 949      656C3A20 
 949      20202020 
 949      20202573 
 949      0D0A00
 950 0037 00       		.space	1
 951              	.LC5:
 952 0038 322E352E 		.ascii	"2.5.1unstable\000"
 952      31756E73 
 952      7461626C 
ARM GAS  /tmp/ccVZHgwN.s 			page 18


 952      6500
 953 0046 0000     		.space	2
 954              	.LC6:
 955 0048 436F6D70 		.ascii	"Compiler:     %s\015\012\000"
 955      696C6572 
 955      3A202020 
 955      20202573 
 955      0D0A00
 956 005b 00       		.space	1
 957              	.LC7:
 958 005c 47434320 		.ascii	"GCC 4.6.3\000"
 958      342E362E 
 958      3300
 959 0066 0000     		.space	2
 960              	.LC8:
 961 0068 41726368 		.ascii	"Architecture: %s\015\012\000"
 961      69746563 
 961      74757265 
 961      3A202573 
 961      0D0A00
 962 007b 00       		.space	1
 963              	.LC9:
 964 007c 41524D76 		.ascii	"ARMv7-ME\000"
 964      372D4D45 
 964      00
 965 0085 000000   		.space	3
 966              	.LC10:
 967 0088 436F7265 		.ascii	"Core Variant: %s\015\012\000"
 967      20566172 
 967      69616E74 
 967      3A202573 
 967      0D0A00
 968 009b 00       		.space	1
 969              	.LC11:
 970 009c 436F7274 		.ascii	"Cortex-M4\000"
 970      65782D4D 
 970      3400
 971 00a6 0000     		.space	2
 972              	.LC12:
 973 00a8 506F7274 		.ascii	"Port Info:    %s\015\012\000"
 973      20496E66 
 973      6F3A2020 
 973      20202573 
 973      0D0A00
 974 00bb 00       		.space	1
 975              	.LC13:
 976 00bc 41647661 		.ascii	"Advanced kernel mode\000"
 976      6E636564 
 976      206B6572 
 976      6E656C20 
 976      6D6F6465 
 977 00d1 000000   		.space	3
 978              	.LC14:
 979 00d4 506C6174 		.ascii	"Platform:     %s\015\012\000"
 979      666F726D 
 979      3A202020 
 979      20202573 
ARM GAS  /tmp/ccVZHgwN.s 			page 19


 979      0D0A00
 980 00e7 00       		.space	1
 981              	.LC15:
 982 00e8 53544D33 		.ascii	"STM32F4xx High Performance\000"
 982      32463478 
 982      78204869 
 982      67682050 
 982      6572666F 
 983 0103 00       		.space	1
 984              	.LC16:
 985 0104 426F6172 		.ascii	"Board:        %s\015\012\000"
 985      643A2020 
 985      20202020 
 985      20202573 
 985      0D0A00
 986 0117 00       		.space	1
 987              	.LC17:
 988 0118 48616E64 		.ascii	"Hand made STM32F4x board\000"
 988      206D6164 
 988      65205354 
 988      4D333246 
 988      34782062 
 989 0131 000000   		.space	3
 990              	.LC18:
 991 0134 4275696C 		.ascii	"Build time:   %s%s%s\015\012\000"
 991      64207469 
 991      6D653A20 
 991      20202573 
 991      25732573 
 992 014b 00       		.space	1
 993              	.LC19:
 994 014c 4A616E20 		.ascii	"Jan  8 2013\000"
 994      20382032 
 994      30313300 
 995              	.LC20:
 996 0158 202D2000 		.ascii	" - \000"
 997              	.LC21:
 998 015c 31383A35 		.ascii	"18:58:53\000"
 998      383A3533 
 998      00
 999 0165 000000   		.space	3
 1000              	.LC23:
 1001 0168 5E4400   		.ascii	"^D\000"
 1002 016b 00       		.space	1
 1003              	.LC24:
 1004 016c 0D0A00   		.ascii	"\015\012\000"
 1005 016f 00       		.space	1
 1006              	.LC25:
 1007 0170 7368656C 		.ascii	"shell\000"
 1007      6C00
 1008 0176 0000     		.space	2
 1009              	.LC26:
 1010 0178 0D0A4368 		.ascii	"\015\012ChibiOS/RT Shell\015\012\000"
 1010      6962694F 
 1010      532F5254 
 1010      20536865 
 1010      6C6C0D0A 
ARM GAS  /tmp/ccVZHgwN.s 			page 20


 1011 018d 000000   		.space	3
 1012              	.LC27:
 1013 0190 63683E20 		.ascii	"ch> \000"
 1013      00
 1014 0195 000000   		.space	3
 1015              	.LC28:
 1016 0198 0D0A6C6F 		.ascii	"\015\012logout\000"
 1016      676F7574 
 1016      00
 1017 01a1 000000   		.space	3
 1018              	.LC29:
 1019 01a4 746F6F20 		.ascii	"too many arguments\015\012\000"
 1019      6D616E79 
 1019      20617267 
 1019      756D656E 
 1019      74730D0A 
 1020 01b9 000000   		.space	3
 1021              	.LC30:
 1022 01bc 65786974 		.ascii	"exit\000"
 1022      00
 1023 01c1 000000   		.space	3
 1024              	.LC31:
 1025 01c4 68656C70 		.ascii	"help\000"
 1025      00
 1026 01c9 000000   		.space	3
 1027              	.LC32:
 1028 01cc 436F6D6D 		.ascii	"Commands: help exit \000"
 1028      616E6473 
 1028      3A206865 
 1028      6C702065 
 1028      78697420 
 1029 01e1 000000   		.space	3
 1030              	.LC33:
 1031 01e4 25732000 		.ascii	"%s \000"
 1032              	.LC34:
 1033 01e8 257300   		.ascii	"%s\000"
 1034 01eb 00       		.space	1
 1035              	.LC35:
 1036 01ec 203F0D0A 		.ascii	" ?\015\012\000"
 1036      00
 1037 01f1 000000   		.section	.bss.shell_terminated,"aw",%nobits
 1038              		.align	2
 1039              		.set	.LANCHOR1,. + 0
 1040              		.type	shell_terminated, %object
 1041              		.size	shell_terminated, 4
 1042              	shell_terminated:
 1043 0000 00000000 		.space	4
 1044              		.text
 1045              	.Letext0:
 1046              		.file 2 "/home/prana/CodeSourcery/ARM_EABI/bin/../lib/gcc/arm-none-eabi/4.6.3/include/stddef.h"
 1047              		.file 3 "/home/prana/CodeSourcery/ARM_EABI/bin/../lib/gcc/arm-none-eabi/4.6.3/../../../../arm-none
 1048              		.file 4 "../../../os/ports/GCC/ARMCMx/chtypes.h"
 1049              		.file 5 "../../../os/kernel/include/chlists.h"
 1050              		.file 6 "../../../os/kernel/include/chthreads.h"
 1051              		.file 7 "../../../os/ports/GCC/ARMCMx/chcore_v7m.h"
 1052              		.file 8 "../../../os/kernel/include/chvt.h"
 1053              		.file 9 "../../../os/kernel/include/chschd.h"
ARM GAS  /tmp/ccVZHgwN.s 			page 21


 1054              		.file 10 "../../../os/kernel/include/chmtx.h"
 1055              		.file 11 "../../../os/kernel/include/chevents.h"
 1056              		.file 12 "../../../os/kernel/include/chstreams.h"
 1057              		.file 13 "../../../os/various/shell.h"
 1058              		.file 14 "../../../os/ports/common/ARMCMx/CMSIS/include/core_cm4.h"