ARM GAS  /tmp/cceVN5qN.s 			page 1


   1              		.syntax unified
   2              		.cpu cortex-m4
   3              		.fpu softvfp
   4              		.eabi_attribute 20, 1
   5              		.eabi_attribute 21, 1
   6              		.eabi_attribute 23, 3
   7              		.eabi_attribute 24, 1
   8              		.eabi_attribute 25, 1
   9              		.eabi_attribute 26, 1
  10              		.eabi_attribute 30, 2
  11              		.eabi_attribute 34, 1
  12              		.eabi_attribute 18, 4
  13              		.thumb
  14              		.file	"syscalls.c"
  15              		.text
  16              	.Ltext0:
  17              		.cfi_sections	.debug_frame
  18              		.section	.text._read_r,"ax",%progbits
  19              		.align	2
  20              		.p2align 4,,15
  21              		.global	_read_r
  22              		.thumb
  23              		.thumb_func
  24              		.type	_read_r, %function
  25              	_read_r:
  26              	.LFB0:
  27              		.file 1 "../../../os/various/syscalls.c"
  28              		.loc 1 75 0
  29              		.cfi_startproc
  30              		@ args = 0, pretend = 0, frame = 0
  31              		@ frame_needed = 0, uses_anonymous_args = 0
  32              		@ link register save eliminated.
  33              	.LVL0:
  34              		.loc 1 88 0
  35 0000 1623     		movs	r3, #22
  36              	.LVL1:
  37 0002 0360     		str	r3, [r0, #0]
  38              		.loc 1 91 0
  39 0004 4FF0FF30 		mov	r0, #-1
  40              	.LVL2:
  41 0008 7047     		bx	lr
  42              		.cfi_endproc
  43              	.LFE0:
  44              		.size	_read_r, .-_read_r
  45 000a 00BFAFF3 		.section	.text._lseek_r,"ax",%progbits
  45      0080
  46              		.align	2
  47              		.p2align 4,,15
  48              		.global	_lseek_r
  49              		.thumb
  50              		.thumb_func
  51              		.type	_lseek_r, %function
  52              	_lseek_r:
  53              	.LFB1:
  54              		.loc 1 96 0
  55              		.cfi_startproc
  56              		@ args = 0, pretend = 0, frame = 0
ARM GAS  /tmp/cceVN5qN.s 			page 2


  57              		@ frame_needed = 0, uses_anonymous_args = 0
  58              		@ link register save eliminated.
  59              	.LVL3:
  60              		.loc 1 103 0
  61 0000 0020     		movs	r0, #0
  62              	.LVL4:
  63 0002 7047     		bx	lr
  64              		.cfi_endproc
  65              	.LFE1:
  66              		.size	_lseek_r, .-_lseek_r
  67 0004 AFF30080 		.section	.text._write_r,"ax",%progbits
  67      AFF30080 
  67      AFF30080 
  68              		.align	2
  69              		.p2align 4,,15
  70              		.global	_write_r
  71              		.thumb
  72              		.thumb_func
  73              		.type	_write_r, %function
  74              	_write_r:
  75              	.LFB2:
  76              		.loc 1 108 0
  77              		.cfi_startproc
  78              		@ args = 0, pretend = 0, frame = 0
  79              		@ frame_needed = 0, uses_anonymous_args = 0
  80              		@ link register save eliminated.
  81              	.LVL5:
  82              		.loc 1 120 0
  83 0000 1846     		mov	r0, r3
  84              	.LVL6:
  85 0002 7047     		bx	lr
  86              		.cfi_endproc
  87              	.LFE2:
  88              		.size	_write_r, .-_write_r
  89 0004 AFF30080 		.section	.text._close_r,"ax",%progbits
  89      AFF30080 
  89      AFF30080 
  90              		.align	2
  91              		.p2align 4,,15
  92              		.global	_close_r
  93              		.thumb
  94              		.thumb_func
  95              		.type	_close_r, %function
  96              	_close_r:
  97              	.LFB3:
  98              		.loc 1 125 0
  99              		.cfi_startproc
 100              		@ args = 0, pretend = 0, frame = 0
 101              		@ frame_needed = 0, uses_anonymous_args = 0
 102              		@ link register save eliminated.
 103              	.LVL7:
 104              		.loc 1 130 0
 105 0000 0020     		movs	r0, #0
 106              	.LVL8:
 107 0002 7047     		bx	lr
 108              		.cfi_endproc
 109              	.LFE3:
ARM GAS  /tmp/cceVN5qN.s 			page 3


 110              		.size	_close_r, .-_close_r
 111 0004 AFF30080 		.section	.text._sbrk_r,"ax",%progbits
 111      AFF30080 
 111      AFF30080 
 112              		.align	2
 113              		.p2align 4,,15
 114              		.global	_sbrk_r
 115              		.thumb
 116              		.thumb_func
 117              		.type	_sbrk_r, %function
 118              	_sbrk_r:
 119              	.LFB4:
 120              		.loc 1 135 0
 121              		.cfi_startproc
 122              		@ args = 0, pretend = 0, frame = 0
 123              		@ frame_needed = 0, uses_anonymous_args = 0
 124              	.LVL9:
 125 0000 38B5     		push	{r3, r4, r5, lr}
 126              	.LCFI0:
 127              		.cfi_def_cfa_offset 16
 128              		.cfi_offset 14, -4
 129              		.cfi_offset 5, -8
 130              		.cfi_offset 4, -12
 131              		.cfi_offset 3, -16
 132              		.loc 1 139 0
 133 0002 0D1E     		subs	r5, r1, #0
 134              		.loc 1 135 0
 135 0004 0446     		mov	r4, r0
 136              		.loc 1 139 0
 137 0006 09DD     		ble	.L9
 138              	.LVL10:
 139              	.L6:
 140              		.loc 1 142 0
 141 0008 2846     		mov	r0, r5
 142 000a FFF7FEFF 		bl	chCoreAlloc
 143              	.LVL11:
 144              		.loc 1 143 0
 145 000e 00B1     		cbz	r0, .L10
 146              		.loc 1 152 0
 147 0010 38BD     		pop	{r3, r4, r5, pc}
 148              	.L10:
 149              		.loc 1 144 0
 150 0012 0C23     		movs	r3, #12
 151 0014 2360     		str	r3, [r4, #0]
 152              		.loc 1 145 0
 153 0016 4FF0FF30 		mov	r0, #-1
 154              	.LVL12:
 155              		.loc 1 152 0
 156 001a 38BD     		pop	{r3, r4, r5, pc}
 157              	.L9:
 158              		.loc 1 139 0 discriminator 1
 159 001c 40F20000 		movw	r0, #:lower16:.LC0
 160 0020 C0F20000 		movt	r0, #:upper16:.LC0
 161 0024 FFF7FEFF 		bl	chDbgPanic
 162 0028 EEE7     		b	.L6
 163              		.cfi_endproc
 164              	.LFE4:
ARM GAS  /tmp/cceVN5qN.s 			page 4


 165              		.size	_sbrk_r, .-_sbrk_r
 166 002a 00BFAFF3 		.section	.text._fstat_r,"ax",%progbits
 166      0080
 167              		.align	2
 168              		.p2align 4,,15
 169              		.global	_fstat_r
 170              		.thumb
 171              		.thumb_func
 172              		.type	_fstat_r, %function
 173              	_fstat_r:
 174              	.LFB5:
 175              		.loc 1 157 0
 176              		.cfi_startproc
 177              		@ args = 0, pretend = 0, frame = 0
 178              		@ frame_needed = 0, uses_anonymous_args = 0
 179              	.LVL13:
 180 0000 10B5     		push	{r4, lr}
 181              	.LCFI1:
 182              		.cfi_def_cfa_offset 8
 183              		.cfi_offset 14, -4
 184              		.cfi_offset 4, -8
 185              		.loc 1 161 0
 186 0002 1046     		mov	r0, r2
 187              	.LVL14:
 188              		.loc 1 157 0
 189 0004 1446     		mov	r4, r2
 190              		.loc 1 161 0
 191 0006 0021     		movs	r1, #0
 192              	.LVL15:
 193 0008 3C22     		movs	r2, #60
 194              	.LVL16:
 195 000a FFF7FEFF 		bl	memset
 196              	.LVL17:
 197              		.loc 1 162 0
 198 000e 4FF40053 		mov	r3, #8192
 199 0012 6360     		str	r3, [r4, #4]
 200              		.loc 1 164 0
 201 0014 0020     		movs	r0, #0
 202 0016 10BD     		pop	{r4, pc}
 203              		.cfi_endproc
 204              	.LFE5:
 205              		.size	_fstat_r, .-_fstat_r
 206 0018 AFF30080 		.section	.text._isatty_r,"ax",%progbits
 206      AFF30080 
 207              		.align	2
 208              		.p2align 4,,15
 209              		.global	_isatty_r
 210              		.thumb
 211              		.thumb_func
 212              		.type	_isatty_r, %function
 213              	_isatty_r:
 214              	.LFB6:
 215              		.loc 1 169 0
 216              		.cfi_startproc
 217              		@ args = 0, pretend = 0, frame = 0
 218              		@ frame_needed = 0, uses_anonymous_args = 0
 219              		@ link register save eliminated.
ARM GAS  /tmp/cceVN5qN.s 			page 5


 220              	.LVL18:
 221              		.loc 1 174 0
 222 0000 0120     		movs	r0, #1
 223              	.LVL19:
 224 0002 7047     		bx	lr
 225              		.cfi_endproc
 226              	.LFE6:
 227              		.size	_isatty_r, .-_isatty_r
 228 0004 AFF30080 		.section	.rodata.str1.4,"aMS",%progbits,1
 228      AFF30080 
 228      AFF30080 
 229              		.align	2
 230              	.LC0:
 231 0000 225F7362 		.ascii	"\"_sbrk_r\"()\000"
 231      726B5F72 
 231      22282900 
 232              		.text
 233              	.Letext0:
 234              		.file 2 "/home/prana/CodeSourcery/ARM_EABI/bin/../lib/gcc/arm-none-eabi/4.6.3/include/stddef.h"
 235              		.file 3 "/home/prana/CodeSourcery/ARM_EABI/bin/../lib/gcc/arm-none-eabi/4.6.3/../../../../arm-none
 236              		.file 4 "/home/prana/CodeSourcery/ARM_EABI/bin/../lib/gcc/arm-none-eabi/4.6.3/../../../../arm-none
 237              		.file 5 "/home/prana/CodeSourcery/ARM_EABI/bin/../lib/gcc/arm-none-eabi/4.6.3/../../../../arm-none
 238              		.file 6 "/home/prana/CodeSourcery/ARM_EABI/bin/../lib/gcc/arm-none-eabi/4.6.3/../../../../arm-none
 239              		.file 7 "/home/prana/CodeSourcery/ARM_EABI/bin/../lib/gcc/arm-none-eabi/4.6.3/../../../../arm-none