ARM GAS  /tmp/ccH6NGJA.s 			page 1


   1              		.syntax unified
   2              		.cpu cortex-m4
   3              		.fpu softvfp
   4              		.eabi_attribute 20, 1
   5              		.eabi_attribute 21, 1
   6              		.eabi_attribute 23, 3
   7              		.eabi_attribute 24, 1
   8              		.eabi_attribute 25, 1
   9              		.eabi_attribute 26, 1
  10              		.eabi_attribute 30, 2
  11              		.eabi_attribute 34, 1
  12              		.eabi_attribute 18, 4
  13              		.thumb
  14              		.file	"testsem.c"
  15              		.text
  16              	.Ltext0:
  17              		.cfi_sections	.debug_frame
  18              		.section	.text.sem3_setup,"ax",%progbits
  19              		.align	2
  20              		.p2align 4,,15
  21              		.thumb
  22              		.thumb_func
  23              		.type	sem3_setup, %function
  24              	sem3_setup:
  25              	.LFB6:
  26              		.file 1 "../../../test/testsem.c"
  27              		.loc 1 208 0
  28              		.cfi_startproc
  29              		@ args = 0, pretend = 0, frame = 0
  30              		@ frame_needed = 0, uses_anonymous_args = 0
  31              		@ link register save eliminated.
  32              		.loc 1 210 0
  33 0000 40F20000 		movw	r0, #:lower16:.LANCHOR0
  34 0004 C0F20000 		movt	r0, #:upper16:.LANCHOR0
  35 0008 0021     		movs	r1, #0
  36              		.loc 1 211 0
  37              		.loc 1 210 0
  38 000a FFF7FEBF 		b	chSemInit
  39              		.cfi_endproc
  40              	.LFE6:
  41              		.size	sem3_setup, .-sem3_setup
  42 000e 00BF     		.section	.text.sem2_setup,"ax",%progbits
  43              		.align	2
  44              		.p2align 4,,15
  45              		.thumb
  46              		.thumb_func
  47              		.type	sem2_setup, %function
  48              	sem2_setup:
  49              	.LFB3:
  50              		.loc 1 132 0
  51              		.cfi_startproc
  52              		@ args = 0, pretend = 0, frame = 0
  53              		@ frame_needed = 0, uses_anonymous_args = 0
  54              		@ link register save eliminated.
  55              		.loc 1 134 0
  56 0000 40F20000 		movw	r0, #:lower16:.LANCHOR0
  57 0004 C0F20000 		movt	r0, #:upper16:.LANCHOR0
ARM GAS  /tmp/ccH6NGJA.s 			page 2


  58 0008 0021     		movs	r1, #0
  59              		.loc 1 135 0
  60              		.loc 1 134 0
  61 000a FFF7FEBF 		b	chSemInit
  62              		.cfi_endproc
  63              	.LFE3:
  64              		.size	sem2_setup, .-sem2_setup
  65 000e 00BF     		.section	.text.sem1_setup,"ax",%progbits
  66              		.align	2
  67              		.p2align 4,,15
  68              		.thumb
  69              		.thumb_func
  70              		.type	sem1_setup, %function
  71              	sem1_setup:
  72              	.LFB0:
  73              		.loc 1 76 0
  74              		.cfi_startproc
  75              		@ args = 0, pretend = 0, frame = 0
  76              		@ frame_needed = 0, uses_anonymous_args = 0
  77              		@ link register save eliminated.
  78              		.loc 1 78 0
  79 0000 40F20000 		movw	r0, #:lower16:.LANCHOR0
  80 0004 C0F20000 		movt	r0, #:upper16:.LANCHOR0
  81 0008 0021     		movs	r1, #0
  82              		.loc 1 79 0
  83              		.loc 1 78 0
  84 000a FFF7FEBF 		b	chSemInit
  85              		.cfi_endproc
  86              	.LFE0:
  87              		.size	sem1_setup, .-sem1_setup
  88 000e 00BF     		.section	.text.sem4_execute,"ax",%progbits
  89              		.align	2
  90              		.p2align 4,,15
  91              		.thumb
  92              		.thumb_func
  93              		.type	sem4_execute, %function
  94              	sem4_execute:
  95              	.LFB10:
  96              		.loc 1 255 0
  97              		.cfi_startproc
  98              		@ args = 0, pretend = 0, frame = 16
  99              		@ frame_needed = 0, uses_anonymous_args = 0
 100 0000 00B5     		push	{lr}
 101              	.LCFI0:
 102              		.cfi_def_cfa_offset 4
 103              		.cfi_offset 14, -4
 104 0002 87B0     		sub	sp, sp, #28
 105              	.LCFI1:
 106              		.cfi_def_cfa_offset 32
 107              		.loc 1 259 0
 108 0004 0021     		movs	r1, #0
 109 0006 03A8     		add	r0, sp, #12
 110 0008 FFF7FEFF 		bl	chSemInit
 111              		.loc 1 260 0
 112 000c 0021     		movs	r1, #0
 113 000e 03A8     		add	r0, sp, #12
 114 0010 FFF7FEFF 		bl	chSemReset
ARM GAS  /tmp/ccH6NGJA.s 			page 3


 115              		.loc 1 261 0
 116 0014 0599     		ldr	r1, [sp, #20]
 117 0016 0120     		movs	r0, #1
 118 0018 0029     		cmp	r1, #0
 119 001a CCBF     		ite	gt
 120 001c 0021     		movgt	r1, #0
 121 001e 0121     		movle	r1, #1
 122 0020 FFF7FEFF 		bl	_test_assert
 123 0024 08B1     		cbz	r0, .L9
 124              	.L4:
 125              		.loc 1 283 0
 126 0026 07B0     		add	sp, sp, #28
 127 0028 00BD     		pop	{pc}
 128              	.L9:
 129              		.loc 1 265 0
 130 002a 40F2000C 		movw	ip, #:lower16:rlist
 131 002e C0F2000C 		movt	ip, #:upper16:rlist
 132              		.loc 1 264 0
 133 0032 40F20000 		movw	r0, #:lower16:wa
 134              		.loc 1 265 0
 135 0036 DCF81820 		ldr	r2, [ip, #24]
 136              		.loc 1 264 0
 137 003a C0F20000 		movt	r0, #:upper16:wa
 138 003e 9268     		ldr	r2, [r2, #8]
 139 0040 0068     		ldr	r0, [r0, #0]
 140 0042 03A9     		add	r1, sp, #12
 141 0044 40F20003 		movw	r3, #:lower16:thread4
 142 0048 013A     		subs	r2, r2, #1
 143 004a 0091     		str	r1, [sp, #0]
 144 004c C0F20003 		movt	r3, #:upper16:thread4
 145 0050 4FF49871 		mov	r1, #304
 146 0054 FFF7FEFF 		bl	chThdCreateStatic
 147 0058 40F20003 		movw	r3, #:lower16:threads
 148 005c C0F20003 		movt	r3, #:upper16:threads
 149 0060 1860     		str	r0, [r3, #0]
 150              		.loc 1 268 0
 151 0062 03A8     		add	r0, sp, #12
 152 0064 FFF7FEFF 		bl	chSemWait
 153              		.loc 1 271 0
 154 0068 0599     		ldr	r1, [sp, #20]
 155 006a 0220     		movs	r0, #2
 156 006c 0029     		cmp	r1, #0
 157 006e CCBF     		ite	gt
 158 0070 0021     		movgt	r1, #0
 159 0072 0121     		movle	r1, #1
 160 0074 FFF7FEFF 		bl	_test_assert
 161 0078 0028     		cmp	r0, #0
 162 007a D4D1     		bne	.L4
 163              		.loc 1 275 0
 164              	@ 275 "../../../test/testsem.c" 1
 165 007c FFF7FEFF 		bl      _port_lock
 166              	@ 0 "" 2
 167              		.thumb
 168 0080 FFF7FEFF 		bl	dbg_check_lock
 169 0084 059B     		ldr	r3, [sp, #20]
 170 0086 002B     		cmp	r3, #0
 171 0088 3DDD     		ble	.L10
ARM GAS  /tmp/ccH6NGJA.s 			page 4


 172              	.L6:
 173              		.loc 1 275 0 is_stmt 0 discriminator 2
 174 008a FFF7FEFF 		bl	chSchRescheduleS
 175 008e FFF7FEFF 		bl	dbg_check_unlock
 176              	@ 275 "../../../test/testsem.c" 1
 177 0092 FFF7FEFF 		bl      _port_unlock
 178              	@ 0 "" 2
 179              		.loc 1 276 0 is_stmt 1 discriminator 2
 180              		.thumb
 181 0096 0599     		ldr	r1, [sp, #20]
 182 0098 0320     		movs	r0, #3
 183 009a 0029     		cmp	r1, #0
 184 009c D4BF     		ite	le
 185 009e 0021     		movle	r1, #0
 186 00a0 0121     		movgt	r1, #1
 187 00a2 FFF7FEFF 		bl	_test_assert
 188 00a6 0028     		cmp	r0, #0
 189 00a8 BDD1     		bne	.L4
 190              		.loc 1 277 0
 191 00aa 059A     		ldr	r2, [sp, #20]
 192 00ac A2F10101 		sub	r1, r2, #1
 193 00b0 0420     		movs	r0, #4
 194 00b2 D1F1000E 		rsbs	lr, r1, #0
 195 00b6 4EEB0101 		adc	r1, lr, r1
 196 00ba FFF7FEFF 		bl	_test_assert
 197 00be 0028     		cmp	r0, #0
 198 00c0 B1D1     		bne	.L4
 199              		.loc 1 280 0
 200              	@ 280 "../../../test/testsem.c" 1
 201 00c2 FFF7FEFF 		bl      _port_lock
 202              	@ 0 "" 2
 203              		.thumb
 204 00c6 FFF7FEFF 		bl	dbg_check_lock
 205 00ca 0598     		ldr	r0, [sp, #20]
 206 00cc 0028     		cmp	r0, #0
 207 00ce 1EDD     		ble	.L11
 208              	.L7:
 209              		.loc 1 280 0 is_stmt 0 discriminator 2
 210 00d0 FFF7FEFF 		bl	chSchRescheduleS
 211 00d4 FFF7FEFF 		bl	dbg_check_unlock
 212              	@ 280 "../../../test/testsem.c" 1
 213 00d8 FFF7FEFF 		bl      _port_unlock
 214              	@ 0 "" 2
 215              		.loc 1 281 0 is_stmt 1 discriminator 2
 216              		.thumb
 217 00dc 0599     		ldr	r1, [sp, #20]
 218 00de 0320     		movs	r0, #3
 219 00e0 0029     		cmp	r1, #0
 220 00e2 D4BF     		ite	le
 221 00e4 0021     		movle	r1, #0
 222 00e6 0121     		movgt	r1, #1
 223 00e8 FFF7FEFF 		bl	_test_assert
 224 00ec 0028     		cmp	r0, #0
 225 00ee 9AD1     		bne	.L4
 226              		.loc 1 282 0
 227 00f0 0599     		ldr	r1, [sp, #20]
 228 00f2 A1F10103 		sub	r3, r1, #1
ARM GAS  /tmp/ccH6NGJA.s 			page 5


 229 00f6 0520     		movs	r0, #5
 230 00f8 D3F1000C 		rsbs	ip, r3, #0
 231 00fc 4CEB0301 		adc	r1, ip, r3
 232 0100 FFF7FEFF 		bl	_test_assert
 233 0104 8FE7     		b	.L4
 234              	.L10:
 235              		.loc 1 275 0 discriminator 1
 236 0106 03A8     		add	r0, sp, #12
 237 0108 FFF7FEFF 		bl	chSemSignalI
 238 010c BDE7     		b	.L6
 239              	.L11:
 240              		.loc 1 280 0 discriminator 1
 241 010e 03A8     		add	r0, sp, #12
 242 0110 FFF7FEFF 		bl	chSemSignalI
 243 0114 DCE7     		b	.L7
 244              		.cfi_endproc
 245              	.LFE10:
 246              		.size	sem4_execute, .-sem4_execute
 247 0116 00BFAFF3 		.section	.text.thread4,"ax",%progbits
 247      0080AFF3 
 247      0080
 248              		.align	2
 249              		.p2align 4,,15
 250              		.thumb
 251              		.thumb_func
 252              		.type	thread4, %function
 253              	thread4:
 254              	.LFB9:
 255              		.loc 1 249 0
 256              		.cfi_startproc
 257              		@ args = 0, pretend = 0, frame = 0
 258              		@ frame_needed = 0, uses_anonymous_args = 0
 259              	.LVL0:
 260 0000 10B5     		push	{r4, lr}
 261              	.LCFI2:
 262              		.cfi_def_cfa_offset 8
 263              		.cfi_offset 14, -4
 264              		.cfi_offset 4, -8
 265              		.loc 1 249 0
 266 0002 0446     		mov	r4, r0
 267              		.loc 1 251 0
 268              	@ 251 "../../../test/testsem.c" 1
 269 0004 FFF7FEFF 		bl      _port_lock
 270              	@ 0 "" 2
 271              		.thumb
 272 0008 FFF7FEFF 		bl	dbg_check_lock
 273              	.LVL1:
 274 000c A368     		ldr	r3, [r4, #8]
 275 000e 002B     		cmp	r3, #0
 276 0010 07DD     		ble	.L14
 277              		.loc 1 251 0 is_stmt 0 discriminator 2
 278 0012 FFF7FEFF 		bl	chSchRescheduleS
 279 0016 FFF7FEFF 		bl	dbg_check_unlock
 280              	@ 251 "../../../test/testsem.c" 1
 281 001a FFF7FEFF 		bl      _port_unlock
 282              	@ 0 "" 2
 283              		.loc 1 253 0 is_stmt 1 discriminator 2
ARM GAS  /tmp/ccH6NGJA.s 			page 6


 284              		.thumb
 285 001e 0020     		movs	r0, #0
 286 0020 10BD     		pop	{r4, pc}
 287              	.L14:
 288              		.loc 1 251 0 discriminator 1
 289 0022 2046     		mov	r0, r4
 290 0024 FFF7FEFF 		bl	chSemSignalI
 291 0028 FFF7FEFF 		bl	chSchRescheduleS
 292 002c FFF7FEFF 		bl	dbg_check_unlock
 293              	@ 251 "../../../test/testsem.c" 1
 294 0030 FFF7FEFF 		bl      _port_unlock
 295              	@ 0 "" 2
 296              		.loc 1 253 0 discriminator 1
 297              		.thumb
 298 0034 0020     		movs	r0, #0
 299 0036 10BD     		pop	{r4, pc}
 300              		.cfi_endproc
 301              	.LFE9:
 302              		.size	thread4, .-thread4
 303 0038 AFF30080 		.section	.text.thread3,"ax",%progbits
 303      AFF30080 
 304              		.align	2
 305              		.p2align 4,,15
 306              		.thumb
 307              		.thumb_func
 308              		.type	thread3, %function
 309              	thread3:
 310              	.LFB7:
 311              		.loc 1 213 0
 312              		.cfi_startproc
 313              		@ args = 0, pretend = 0, frame = 0
 314              		@ frame_needed = 0, uses_anonymous_args = 0
 315              	.LVL2:
 316 0000 10B5     		push	{r4, lr}
 317              	.LCFI3:
 318              		.cfi_def_cfa_offset 8
 319              		.cfi_offset 14, -4
 320              		.cfi_offset 4, -8
 321              		.loc 1 216 0
 322 0002 40F20004 		movw	r4, #:lower16:.LANCHOR0
 323 0006 C0F20004 		movt	r4, #:upper16:.LANCHOR0
 324 000a 2046     		mov	r0, r4
 325              	.LVL3:
 326 000c FFF7FEFF 		bl	chSemWait
 327              		.loc 1 217 0
 328 0010 2046     		mov	r0, r4
 329 0012 FFF7FEFF 		bl	chSemSignal
 330              		.loc 1 219 0
 331 0016 0020     		movs	r0, #0
 332 0018 10BD     		pop	{r4, pc}
 333              		.cfi_endproc
 334              	.LFE7:
 335              		.size	thread3, .-thread3
 336 001a 00BFAFF3 		.section	.text.thread1,"ax",%progbits
 336      0080
 337              		.align	2
 338              		.p2align 4,,15
ARM GAS  /tmp/ccH6NGJA.s 			page 7


 339              		.thumb
 340              		.thumb_func
 341              		.type	thread1, %function
 342              	thread1:
 343              	.LFB1:
 344              		.loc 1 81 0
 345              		.cfi_startproc
 346              		@ args = 0, pretend = 0, frame = 0
 347              		@ frame_needed = 0, uses_anonymous_args = 0
 348              	.LVL4:
 349 0000 10B5     		push	{r4, lr}
 350              	.LCFI4:
 351              		.cfi_def_cfa_offset 8
 352              		.cfi_offset 14, -4
 353              		.cfi_offset 4, -8
 354              		.loc 1 81 0
 355 0002 0446     		mov	r4, r0
 356              		.loc 1 83 0
 357 0004 40F20000 		movw	r0, #:lower16:.LANCHOR0
 358              	.LVL5:
 359 0008 C0F20000 		movt	r0, #:upper16:.LANCHOR0
 360 000c FFF7FEFF 		bl	chSemWait
 361              		.loc 1 84 0
 362 0010 2078     		ldrb	r0, [r4, #0]	@ zero_extendqisi2
 363 0012 FFF7FEFF 		bl	test_emit_token
 364              		.loc 1 86 0
 365 0016 0020     		movs	r0, #0
 366 0018 10BD     		pop	{r4, pc}
 367              		.cfi_endproc
 368              	.LFE1:
 369              		.size	thread1, .-thread1
 370 001a 00BFAFF3 		.section	.text.thread2,"ax",%progbits
 370      0080
 371              		.align	2
 372              		.p2align 4,,15
 373              		.thumb
 374              		.thumb_func
 375              		.type	thread2, %function
 376              	thread2:
 377              	.LFB4:
 378              		.loc 1 137 0
 379              		.cfi_startproc
 380              		@ args = 0, pretend = 0, frame = 0
 381              		@ frame_needed = 0, uses_anonymous_args = 0
 382              	.LVL6:
 383 0000 08B5     		push	{r3, lr}
 384              	.LCFI5:
 385              		.cfi_def_cfa_offset 8
 386              		.cfi_offset 14, -4
 387              		.cfi_offset 3, -8
 388              		.loc 1 140 0
 389 0002 3220     		movs	r0, #50
 390              	.LVL7:
 391 0004 FFF7FEFF 		bl	chThdSleep
 392              		.loc 1 141 0
 393              	@ 141 "../../../test/testsem.c" 1
 394 0008 FFF7FEFF 		bl      _port_lock
ARM GAS  /tmp/ccH6NGJA.s 			page 8


 395              	@ 0 "" 2
 396              		.thumb
 397 000c FFF7FEFF 		bl	dbg_check_lock
 398              		.loc 1 142 0
 399 0010 40F20000 		movw	r0, #:lower16:.LANCHOR0
 400 0014 C0F20000 		movt	r0, #:upper16:.LANCHOR0
 401 0018 FFF7FEFF 		bl	chSemSignalI
 402              		.loc 1 143 0
 403 001c FFF7FEFF 		bl	chSchRescheduleS
 404              		.loc 1 144 0
 405 0020 FFF7FEFF 		bl	dbg_check_unlock
 406              	@ 144 "../../../test/testsem.c" 1
 407 0024 FFF7FEFF 		bl      _port_unlock
 408              	@ 0 "" 2
 409              		.loc 1 146 0
 410              		.thumb
 411 0028 0020     		movs	r0, #0
 412 002a 08BD     		pop	{r3, pc}
 413              		.cfi_endproc
 414              	.LFE4:
 415              		.size	thread2, .-thread2
 416 002c AFF30080 		.section	.text.sem1_execute,"ax",%progbits
 417              		.align	2
 418              		.p2align 4,,15
 419              		.thumb
 420              		.thumb_func
 421              		.type	sem1_execute, %function
 422              	sem1_execute:
 423              	.LFB2:
 424              		.loc 1 88 0
 425              		.cfi_startproc
 426              		@ args = 0, pretend = 0, frame = 0
 427              		@ frame_needed = 0, uses_anonymous_args = 0
 428 0000 2DE9F041 		push	{r4, r5, r6, r7, r8, lr}
 429              	.LCFI6:
 430              		.cfi_def_cfa_offset 24
 431              		.cfi_offset 14, -4
 432              		.cfi_offset 8, -8
 433              		.cfi_offset 7, -12
 434              		.cfi_offset 6, -16
 435              		.cfi_offset 5, -20
 436              		.cfi_offset 4, -24
 437              		.loc 1 90 0
 438 0004 40F20006 		movw	r6, #:lower16:rlist
 439 0008 C0F20006 		movt	r6, #:upper16:rlist
 440 000c 40F20004 		movw	r4, #:lower16:wa
 441 0010 C0F20004 		movt	r4, #:upper16:wa
 442 0014 B769     		ldr	r7, [r6, #24]
 443 0016 D4F80080 		ldr	r8, [r4, #0]
 444 001a B868     		ldr	r0, [r7, #8]
 445              		.loc 1 88 0
 446 001c 82B0     		sub	sp, sp, #8
 447              	.LCFI7:
 448              		.cfi_def_cfa_offset 32
 449              		.loc 1 90 0
 450 001e 40F20007 		movw	r7, #:lower16:.LC0
 451 0022 40F20003 		movw	r3, #:lower16:thread1
ARM GAS  /tmp/ccH6NGJA.s 			page 9


 452 0026 421D     		adds	r2, r0, #5
 453 0028 4FF49871 		mov	r1, #304
 454 002c C0F20003 		movt	r3, #:upper16:thread1
 455 0030 C0F20007 		movt	r7, #:upper16:.LC0
 456 0034 4046     		mov	r0, r8
 457 0036 0097     		str	r7, [sp, #0]
 458 0038 FFF7FEFF 		bl	chThdCreateStatic
 459              		.loc 1 91 0
 460 003c B569     		ldr	r5, [r6, #24]
 461 003e D4F804C0 		ldr	ip, [r4, #4]
 462 0042 AA68     		ldr	r2, [r5, #8]
 463              		.loc 1 90 0
 464 0044 40F20005 		movw	r5, #:lower16:threads
 465 0048 C0F20005 		movt	r5, #:upper16:threads
 466              		.loc 1 91 0
 467 004c 40F2000E 		movw	lr, #:lower16:.LC1
 468 0050 40F20003 		movw	r3, #:lower16:thread1
 469              		.loc 1 90 0
 470 0054 2860     		str	r0, [r5, #0]
 471              		.loc 1 91 0
 472 0056 C0F2000E 		movt	lr, #:upper16:.LC1
 473 005a 4FF49871 		mov	r1, #304
 474 005e 0132     		adds	r2, r2, #1
 475 0060 C0F20003 		movt	r3, #:upper16:thread1
 476 0064 6046     		mov	r0, ip
 477 0066 CDF800E0 		str	lr, [sp, #0]
 478 006a FFF7FEFF 		bl	chThdCreateStatic
 479              		.loc 1 92 0
 480 006e B369     		ldr	r3, [r6, #24]
 481 0070 D4F808C0 		ldr	ip, [r4, #8]
 482 0074 9A68     		ldr	r2, [r3, #8]
 483              		.loc 1 91 0
 484 0076 6860     		str	r0, [r5, #4]
 485              		.loc 1 92 0
 486 0078 40F2000E 		movw	lr, #:lower16:.LC2
 487 007c 40F20003 		movw	r3, #:lower16:thread1
 488 0080 C0F2000E 		movt	lr, #:upper16:.LC2
 489 0084 4FF49871 		mov	r1, #304
 490 0088 0332     		adds	r2, r2, #3
 491 008a C0F20003 		movt	r3, #:upper16:thread1
 492 008e 6046     		mov	r0, ip
 493 0090 CDF800E0 		str	lr, [sp, #0]
 494 0094 FFF7FEFF 		bl	chThdCreateStatic
 495              		.loc 1 93 0
 496 0098 B169     		ldr	r1, [r6, #24]
 497 009a D4F80CC0 		ldr	ip, [r4, #12]
 498 009e 8A68     		ldr	r2, [r1, #8]
 499              		.loc 1 92 0
 500 00a0 A860     		str	r0, [r5, #8]
 501              		.loc 1 93 0
 502 00a2 40F2000E 		movw	lr, #:lower16:.LC3
 503 00a6 40F20003 		movw	r3, #:lower16:thread1
 504 00aa 6046     		mov	r0, ip
 505 00ac C0F2000E 		movt	lr, #:upper16:.LC3
 506 00b0 4FF49871 		mov	r1, #304
 507 00b4 0432     		adds	r2, r2, #4
 508 00b6 C0F20003 		movt	r3, #:upper16:thread1
ARM GAS  /tmp/ccH6NGJA.s 			page 10


 509 00ba CDF800E0 		str	lr, [sp, #0]
 510 00be FFF7FEFF 		bl	chThdCreateStatic
 511              		.loc 1 94 0
 512 00c2 B369     		ldr	r3, [r6, #24]
 513 00c4 D4F810E0 		ldr	lr, [r4, #16]
 514 00c8 9A68     		ldr	r2, [r3, #8]
 515              		.loc 1 93 0
 516 00ca E860     		str	r0, [r5, #12]
 517              		.loc 1 94 0
 518 00cc 40F20004 		movw	r4, #:lower16:.LC4
 519 00d0 40F20003 		movw	r3, #:lower16:thread1
 520 00d4 4FF49871 		mov	r1, #304
 521 00d8 0232     		adds	r2, r2, #2
 522 00da C0F20003 		movt	r3, #:upper16:thread1
 523 00de 7046     		mov	r0, lr
 524 00e0 C0F20004 		movt	r4, #:upper16:.LC4
 525 00e4 0094     		str	r4, [sp, #0]
 526 00e6 FFF7FEFF 		bl	chThdCreateStatic
 527              		.loc 1 95 0
 528 00ea 40F20004 		movw	r4, #:lower16:.LANCHOR0
 529 00ee C0F20004 		movt	r4, #:upper16:.LANCHOR0
 530              		.loc 1 94 0
 531 00f2 2861     		str	r0, [r5, #16]
 532              		.loc 1 95 0
 533 00f4 2046     		mov	r0, r4
 534 00f6 FFF7FEFF 		bl	chSemSignal
 535              		.loc 1 96 0
 536 00fa 2046     		mov	r0, r4
 537 00fc FFF7FEFF 		bl	chSemSignal
 538              		.loc 1 97 0
 539 0100 2046     		mov	r0, r4
 540 0102 FFF7FEFF 		bl	chSemSignal
 541              		.loc 1 98 0
 542 0106 2046     		mov	r0, r4
 543 0108 FFF7FEFF 		bl	chSemSignal
 544              		.loc 1 99 0
 545 010c 2046     		mov	r0, r4
 546 010e FFF7FEFF 		bl	chSemSignal
 547              		.loc 1 100 0
 548 0112 FFF7FEFF 		bl	test_wait_threads
 549              		.loc 1 104 0
 550 0116 40F20001 		movw	r1, #:lower16:.LC5
 551 011a 0120     		movs	r0, #1
 552 011c C0F20001 		movt	r1, #:upper16:.LC5
 553 0120 FFF7FEFF 		bl	_test_assert_sequence
 554 0124 10B1     		cbz	r0, .L20
 555              		.loc 1 112 0
 556 0126 02B0     		add	sp, sp, #8
 557 0128 BDE8F081 		pop	{r4, r5, r6, r7, r8, pc}
 558              	.L20:
 559              		.loc 1 106 0
 560 012c B069     		ldr	r0, [r6, #24]
 561 012e 8268     		ldr	r2, [r0, #8]
 562 0130 0097     		str	r7, [sp, #0]
 563 0132 40F20003 		movw	r3, #:lower16:thread1
 564 0136 4046     		mov	r0, r8
 565 0138 4FF49871 		mov	r1, #304
ARM GAS  /tmp/ccH6NGJA.s 			page 11


 566 013c 0532     		adds	r2, r2, #5
 567 013e C0F20003 		movt	r3, #:upper16:thread1
 568 0142 FFF7FEFF 		bl	chThdCreateStatic
 569 0146 2860     		str	r0, [r5, #0]
 570              		.loc 1 107 0
 571              	@ 107 "../../../test/testsem.c" 1
 572 0148 FFF7FEFF 		bl      _port_lock
 573              	@ 0 "" 2
 574              		.thumb
 575 014c FFF7FEFF 		bl	dbg_check_lock
 576              		.loc 1 108 0
 577 0150 2046     		mov	r0, r4
 578 0152 0221     		movs	r1, #2
 579 0154 FFF7FEFF 		bl	chSemAddCounterI
 580              		.loc 1 109 0
 581 0158 FFF7FEFF 		bl	dbg_check_unlock
 582              	@ 109 "../../../test/testsem.c" 1
 583 015c FFF7FEFF 		bl      _port_unlock
 584              	@ 0 "" 2
 585              		.loc 1 110 0
 586              		.thumb
 587 0160 FFF7FEFF 		bl	test_wait_threads
 588              		.loc 1 111 0
 589 0164 A368     		ldr	r3, [r4, #8]
 590 0166 A3F1010E 		sub	lr, r3, #1
 591 016a 0220     		movs	r0, #2
 592 016c DEF10001 		rsbs	r1, lr, #0
 593 0170 41EB0E01 		adc	r1, r1, lr
 594              		.loc 1 112 0
 595 0174 02B0     		add	sp, sp, #8
 596 0176 BDE8F041 		pop	{r4, r5, r6, r7, r8, lr}
 597              		.loc 1 111 0
 598 017a FFF7FEBF 		b	_test_assert
 599              		.cfi_endproc
 600              	.LFE2:
 601              		.size	sem1_execute, .-sem1_execute
 602 017e 00BF     		.section	.text.sem3_execute,"ax",%progbits
 603              		.align	2
 604              		.p2align 4,,15
 605              		.thumb
 606              		.thumb_func
 607              		.type	sem3_execute, %function
 608              	sem3_execute:
 609              	.LFB8:
 610              		.loc 1 221 0
 611              		.cfi_startproc
 612              		@ args = 0, pretend = 0, frame = 0
 613              		@ frame_needed = 0, uses_anonymous_args = 0
 614 0000 10B5     		push	{r4, lr}
 615              	.LCFI8:
 616              		.cfi_def_cfa_offset 8
 617              		.cfi_offset 14, -4
 618              		.cfi_offset 4, -8
 619              		.loc 1 223 0
 620 0002 40F2000E 		movw	lr, #:lower16:rlist
 621 0006 C0F2000E 		movt	lr, #:upper16:rlist
 622 000a 40F20000 		movw	r0, #:lower16:wa
ARM GAS  /tmp/ccH6NGJA.s 			page 12


 623 000e DEF81810 		ldr	r1, [lr, #24]
 624 0012 C0F20000 		movt	r0, #:upper16:wa
 625 0016 8A68     		ldr	r2, [r1, #8]
 626 0018 0068     		ldr	r0, [r0, #0]
 627              		.loc 1 221 0
 628 001a 82B0     		sub	sp, sp, #8
 629              	.LCFI9:
 630              		.cfi_def_cfa_offset 16
 631              		.loc 1 223 0
 632 001c 40F20003 		movw	r3, #:lower16:thread3
 633 0020 0132     		adds	r2, r2, #1
 634 0022 C0F20003 		movt	r3, #:upper16:thread3
 635 0026 0024     		movs	r4, #0
 636 0028 4FF49871 		mov	r1, #304
 637 002c 0094     		str	r4, [sp, #0]
 638 002e FFF7FEFF 		bl	chThdCreateStatic
 639 0032 40F2000C 		movw	ip, #:lower16:threads
 640 0036 C0F2000C 		movt	ip, #:upper16:threads
 641              		.loc 1 224 0
 642 003a 40F20004 		movw	r4, #:lower16:.LANCHOR0
 643 003e C0F20004 		movt	r4, #:upper16:.LANCHOR0
 644              		.loc 1 223 0
 645 0042 CCF80000 		str	r0, [ip, #0]
 646              		.loc 1 224 0
 647 0046 2146     		mov	r1, r4
 648 0048 2046     		mov	r0, r4
 649 004a FFF7FEFF 		bl	chSemSignalWait
 650              		.loc 1 225 0
 651 004e 2268     		ldr	r2, [r4, #0]
 652 0050 131B     		subs	r3, r2, r4
 653 0052 0120     		movs	r0, #1
 654 0054 5942     		rsbs	r1, r3, #0
 655 0056 41EB0301 		adc	r1, r1, r3
 656 005a FFF7FEFF 		bl	_test_assert
 657 005e 08B1     		cbz	r0, .L23
 658              	.L21:
 659              		.loc 1 231 0
 660 0060 02B0     		add	sp, sp, #8
 661 0062 10BD     		pop	{r4, pc}
 662              	.L23:
 663              		.loc 1 226 0
 664 0064 A368     		ldr	r3, [r4, #8]
 665 0066 0220     		movs	r0, #2
 666 0068 D3F10101 		rsbs	r1, r3, #1
 667 006c 38BF     		it	cc
 668 006e 0021     		movcc	r1, #0
 669 0070 FFF7FEFF 		bl	_test_assert
 670 0074 0028     		cmp	r0, #0
 671 0076 F3D1     		bne	.L21
 672              	.LBB4:
 673              	.LBB5:
 674              		.loc 1 228 0
 675 0078 2146     		mov	r1, r4
 676 007a 2046     		mov	r0, r4
 677 007c FFF7FEFF 		bl	chSemSignalWait
 678              		.loc 1 229 0
 679 0080 2368     		ldr	r3, [r4, #0]
ARM GAS  /tmp/ccH6NGJA.s 			page 13


 680 0082 191B     		subs	r1, r3, r4
 681 0084 0320     		movs	r0, #3
 682 0086 4A42     		rsbs	r2, r1, #0
 683 0088 42EB0101 		adc	r1, r2, r1
 684 008c FFF7FEFF 		bl	_test_assert
 685 0090 0028     		cmp	r0, #0
 686 0092 E5D1     		bne	.L21
 687              		.loc 1 230 0
 688 0094 A268     		ldr	r2, [r4, #8]
 689 0096 0420     		movs	r0, #4
 690 0098 D2F10101 		rsbs	r1, r2, #1
 691 009c 38BF     		it	cc
 692 009e 0021     		movcc	r1, #0
 693              	.LBE5:
 694              	.LBE4:
 695              		.loc 1 231 0
 696 00a0 02B0     		add	sp, sp, #8
 697 00a2 BDE81040 		pop	{r4, lr}
 698              	.LBB7:
 699              	.LBB6:
 700              		.loc 1 230 0
 701 00a6 FFF7FEBF 		b	_test_assert
 702              	.LBE6:
 703              	.LBE7:
 704              		.cfi_endproc
 705              	.LFE8:
 706              		.size	sem3_execute, .-sem3_execute
 707 00aa 00BFAFF3 		.section	.text.sem2_execute,"ax",%progbits
 707      0080
 708              		.align	2
 709              		.p2align 4,,15
 710              		.thumb
 711              		.thumb_func
 712              		.type	sem2_execute, %function
 713              	sem2_execute:
 714              	.LFB5:
 715              		.loc 1 148 0
 716              		.cfi_startproc
 717              		@ args = 0, pretend = 0, frame = 0
 718              		@ frame_needed = 0, uses_anonymous_args = 0
 719 0000 70B5     		push	{r4, r5, r6, lr}
 720              	.LCFI10:
 721              		.cfi_def_cfa_offset 16
 722              		.cfi_offset 14, -4
 723              		.cfi_offset 6, -8
 724              		.cfi_offset 5, -12
 725              		.cfi_offset 4, -16
 726              		.loc 1 156 0
 727 0002 40F20004 		movw	r4, #:lower16:.LANCHOR0
 728 0006 C0F20004 		movt	r4, #:upper16:.LANCHOR0
 729              		.loc 1 148 0
 730 000a 82B0     		sub	sp, sp, #8
 731              	.LCFI11:
 732              		.cfi_def_cfa_offset 24
 733              		.loc 1 156 0
 734 000c 0021     		movs	r1, #0
 735 000e 2046     		mov	r0, r4
ARM GAS  /tmp/ccH6NGJA.s 			page 14


 736 0010 FFF7FEFF 		bl	chSemWaitTimeout
 737              	.LVL8:
 738              		.loc 1 157 0
 739 0014 A0F1FF33 		sub	r3, r0, #-1
 740 0018 5942     		rsbs	r1, r3, #0
 741 001a 41EB0301 		adc	r1, r1, r3
 742 001e 0120     		movs	r0, #1
 743              	.LVL9:
 744 0020 FFF7FEFF 		bl	_test_assert
 745              	.LVL10:
 746 0024 08B1     		cbz	r0, .L26
 747              	.L24:
 748              		.loc 1 186 0
 749 0026 02B0     		add	sp, sp, #8
 750 0028 70BD     		pop	{r4, r5, r6, pc}
 751              	.L26:
 752              		.loc 1 158 0
 753 002a 2368     		ldr	r3, [r4, #0]
 754 002c 191B     		subs	r1, r3, r4
 755 002e 0220     		movs	r0, #2
 756 0030 4A42     		rsbs	r2, r1, #0
 757 0032 42EB0101 		adc	r1, r2, r1
 758 0036 FFF7FEFF 		bl	_test_assert
 759 003a 0028     		cmp	r0, #0
 760 003c F3D1     		bne	.L24
 761              		.loc 1 159 0
 762 003e A268     		ldr	r2, [r4, #8]
 763 0040 0320     		movs	r0, #3
 764 0042 D2F10101 		rsbs	r1, r2, #1
 765 0046 38BF     		it	cc
 766 0048 0021     		movcc	r1, #0
 767 004a FFF7FEFF 		bl	_test_assert
 768 004e 0028     		cmp	r0, #0
 769 0050 E9D1     		bne	.L24
 770              	.LBB10:
 771              	.LBB11:
 772              		.loc 1 164 0
 773 0052 40F2000E 		movw	lr, #:lower16:rlist
 774 0056 C0F2000E 		movt	lr, #:upper16:rlist
 775 005a 40F2000C 		movw	ip, #:lower16:wa
 776 005e DEF81820 		ldr	r2, [lr, #24]
 777 0062 C0F2000C 		movt	ip, #:upper16:wa
 778 0066 9168     		ldr	r1, [r2, #8]
 779 0068 DCF80050 		ldr	r5, [ip, #0]
 780 006c 0090     		str	r0, [sp, #0]
 781 006e 40F20003 		movw	r3, #:lower16:thread2
 782 0072 4A1E     		subs	r2, r1, #1
 783 0074 C0F20003 		movt	r3, #:upper16:thread2
 784 0078 4FF49871 		mov	r1, #304
 785 007c 2846     		mov	r0, r5
 786 007e FFF7FEFF 		bl	chThdCreateStatic
 787 0082 40F20005 		movw	r5, #:lower16:threads
 788 0086 C0F20005 		movt	r5, #:upper16:threads
 789              		.loc 1 166 0
 790 008a 4FF4FA71 		mov	r1, #500
 791              		.loc 1 164 0
 792 008e 2860     		str	r0, [r5, #0]
ARM GAS  /tmp/ccH6NGJA.s 			page 15


 793              		.loc 1 166 0
 794 0090 2046     		mov	r0, r4
 795 0092 FFF7FEFF 		bl	chSemWaitTimeout
 796 0096 0546     		mov	r5, r0
 797              	.LVL11:
 798              		.loc 1 167 0
 799 0098 FFF7FEFF 		bl	test_wait_threads
 800              	.LVL12:
 801              		.loc 1 168 0
 802 009c 0420     		movs	r0, #4
 803 009e D5F10101 		rsbs	r1, r5, #1
 804 00a2 38BF     		it	cc
 805 00a4 0021     		movcc	r1, #0
 806 00a6 FFF7FEFF 		bl	_test_assert
 807 00aa 0028     		cmp	r0, #0
 808 00ac BBD1     		bne	.L24
 809              		.loc 1 169 0
 810 00ae 2268     		ldr	r2, [r4, #0]
 811 00b0 111B     		subs	r1, r2, r4
 812 00b2 0520     		movs	r0, #5
 813 00b4 4B42     		rsbs	r3, r1, #0
 814 00b6 43EB0101 		adc	r1, r3, r1
 815 00ba FFF7FEFF 		bl	_test_assert
 816 00be 0028     		cmp	r0, #0
 817 00c0 B1D1     		bne	.L24
 818              		.loc 1 170 0
 819 00c2 A368     		ldr	r3, [r4, #8]
 820 00c4 0620     		movs	r0, #6
 821 00c6 D3F10101 		rsbs	r1, r3, #1
 822 00ca 38BF     		it	cc
 823 00cc 0021     		movcc	r1, #0
 824 00ce FFF7FEFF 		bl	_test_assert
 825 00d2 0028     		cmp	r0, #0
 826 00d4 A7D1     		bne	.L24
 827              		.loc 1 176 0
 828 00d6 40F20006 		movw	r6, #:lower16:vtlist
 829 00da C0F20006 		movt	r6, #:upper16:vtlist
 830              		.loc 1 175 0
 831 00de FFF7FEFF 		bl	test_wait_tick
 832              		.loc 1 178 0
 833 00e2 4120     		movs	r0, #65
 834              		.loc 1 176 0
 835 00e4 F668     		ldr	r6, [r6, #12]
 836              	.LVL13:
 837              		.loc 1 178 0
 838 00e6 FFF7FEFF 		bl	test_emit_token
 839              		.loc 1 179 0
 840 00ea 4FF4FA71 		mov	r1, #500
 841 00ee 2046     		mov	r0, r4
 842 00f0 FFF7FEFF 		bl	chSemWaitTimeout
 843              	.LVL14:
 844              		.loc 1 180 0
 845 00f4 A0F1FF31 		sub	r1, r0, #-1
 846 00f8 4842     		rsbs	r0, r1, #0
 847              	.LVL15:
 848 00fa 40EB0101 		adc	r1, r0, r1
 849              	.LVL16:
ARM GAS  /tmp/ccH6NGJA.s 			page 16


 850 00fe 0720     		movs	r0, #7
 851 0100 FFF7FEFF 		bl	_test_assert
 852 0104 0028     		cmp	r0, #0
 853 0106 8ED1     		bne	.L24
 854              		.loc 1 181 0
 855 0108 2368     		ldr	r3, [r4, #0]
 856 010a C4EB030C 		rsb	ip, r4, r3
 857 010e 0820     		movs	r0, #8
 858 0110 DCF10002 		rsbs	r2, ip, #0
 859 0114 42EB0C01 		adc	r1, r2, ip
 860 0118 FFF7FEFF 		bl	_test_assert
 861 011c 0028     		cmp	r0, #0
 862 011e 82D1     		bne	.L24
 863              		.loc 1 182 0
 864 0120 A168     		ldr	r1, [r4, #8]
 865 0122 0920     		movs	r0, #9
 866 0124 D1F10101 		rsbs	r1, r1, #1
 867 0128 38BF     		it	cc
 868 012a 0021     		movcc	r1, #0
 869 012c FFF7FEFF 		bl	_test_assert
 870 0130 0028     		cmp	r0, #0
 871 0132 7FF478AF 		bne	.L24
 872              	.LVL17:
 873              		.loc 1 178 0
 874 0136 4220     		movs	r0, #66
 875 0138 FFF7FEFF 		bl	test_emit_token
 876              		.loc 1 179 0
 877 013c 4FF4FA71 		mov	r1, #500
 878 0140 2046     		mov	r0, r4
 879 0142 FFF7FEFF 		bl	chSemWaitTimeout
 880              	.LVL18:
 881              		.loc 1 180 0
 882 0146 A0F1FF32 		sub	r2, r0, #-1
 883 014a 5042     		rsbs	r0, r2, #0
 884              	.LVL19:
 885 014c 40EB0201 		adc	r1, r0, r2
 886 0150 0720     		movs	r0, #7
 887 0152 FFF7FEFF 		bl	_test_assert
 888              	.LVL20:
 889 0156 0028     		cmp	r0, #0
 890 0158 7FF465AF 		bne	.L24
 891              		.loc 1 181 0
 892 015c 2268     		ldr	r2, [r4, #0]
 893 015e 111B     		subs	r1, r2, r4
 894 0160 0820     		movs	r0, #8
 895 0162 4B42     		rsbs	r3, r1, #0
 896 0164 43EB0101 		adc	r1, r3, r1
 897 0168 FFF7FEFF 		bl	_test_assert
 898 016c 0028     		cmp	r0, #0
 899 016e 7FF45AAF 		bne	.L24
 900              		.loc 1 182 0
 901 0172 A368     		ldr	r3, [r4, #8]
 902 0174 0920     		movs	r0, #9
 903 0176 D3F10101 		rsbs	r1, r3, #1
 904 017a 38BF     		it	cc
 905 017c 0021     		movcc	r1, #0
 906 017e FFF7FEFF 		bl	_test_assert
ARM GAS  /tmp/ccH6NGJA.s 			page 17


 907 0182 0028     		cmp	r0, #0
 908 0184 7FF44FAF 		bne	.L24
 909              	.LVL21:
 910              		.loc 1 178 0
 911 0188 4320     		movs	r0, #67
 912 018a FFF7FEFF 		bl	test_emit_token
 913              		.loc 1 179 0
 914 018e 4FF4FA71 		mov	r1, #500
 915 0192 2046     		mov	r0, r4
 916 0194 FFF7FEFF 		bl	chSemWaitTimeout
 917              	.LVL22:
 918              		.loc 1 180 0
 919 0198 A0F1FF31 		sub	r1, r0, #-1
 920 019c 4842     		rsbs	r0, r1, #0
 921              	.LVL23:
 922 019e 40EB0101 		adc	r1, r0, r1
 923              	.LVL24:
 924 01a2 0720     		movs	r0, #7
 925 01a4 FFF7FEFF 		bl	_test_assert
 926 01a8 0028     		cmp	r0, #0
 927 01aa 7FF43CAF 		bne	.L24
 928              		.loc 1 181 0
 929 01ae 2368     		ldr	r3, [r4, #0]
 930 01b0 C4EB030E 		rsb	lr, r4, r3
 931 01b4 0820     		movs	r0, #8
 932 01b6 DEF10002 		rsbs	r2, lr, #0
 933 01ba 42EB0E01 		adc	r1, r2, lr
 934 01be FFF7FEFF 		bl	_test_assert
 935 01c2 0028     		cmp	r0, #0
 936 01c4 7FF42FAF 		bne	.L24
 937              		.loc 1 182 0
 938 01c8 A168     		ldr	r1, [r4, #8]
 939 01ca 0920     		movs	r0, #9
 940 01cc D1F10101 		rsbs	r1, r1, #1
 941 01d0 38BF     		it	cc
 942 01d2 0021     		movcc	r1, #0
 943 01d4 FFF7FEFF 		bl	_test_assert
 944 01d8 0028     		cmp	r0, #0
 945 01da 7FF424AF 		bne	.L24
 946              	.LVL25:
 947              		.loc 1 178 0
 948 01de 4420     		movs	r0, #68
 949 01e0 FFF7FEFF 		bl	test_emit_token
 950              		.loc 1 179 0
 951 01e4 4FF4FA71 		mov	r1, #500
 952 01e8 2046     		mov	r0, r4
 953 01ea FFF7FEFF 		bl	chSemWaitTimeout
 954              	.LVL26:
 955              		.loc 1 180 0
 956 01ee A0F1FF32 		sub	r2, r0, #-1
 957 01f2 5042     		rsbs	r0, r2, #0
 958              	.LVL27:
 959 01f4 40EB0201 		adc	r1, r0, r2
 960 01f8 0720     		movs	r0, #7
 961 01fa FFF7FEFF 		bl	_test_assert
 962              	.LVL28:
 963 01fe 0028     		cmp	r0, #0
ARM GAS  /tmp/ccH6NGJA.s 			page 18


 964 0200 7FF411AF 		bne	.L24
 965              		.loc 1 181 0
 966 0204 2268     		ldr	r2, [r4, #0]
 967 0206 111B     		subs	r1, r2, r4
 968 0208 0820     		movs	r0, #8
 969 020a 4B42     		rsbs	r3, r1, #0
 970 020c 43EB0101 		adc	r1, r3, r1
 971 0210 FFF7FEFF 		bl	_test_assert
 972 0214 0028     		cmp	r0, #0
 973 0216 7FF406AF 		bne	.L24
 974              		.loc 1 182 0
 975 021a A368     		ldr	r3, [r4, #8]
 976 021c 0920     		movs	r0, #9
 977 021e D3F10101 		rsbs	r1, r3, #1
 978 0222 38BF     		it	cc
 979 0224 0021     		movcc	r1, #0
 980 0226 FFF7FEFF 		bl	_test_assert
 981 022a 0028     		cmp	r0, #0
 982 022c 7FF4FBAE 		bne	.L24
 983              	.LVL29:
 984              		.loc 1 178 0
 985 0230 4520     		movs	r0, #69
 986 0232 FFF7FEFF 		bl	test_emit_token
 987              		.loc 1 179 0
 988 0236 4FF4FA71 		mov	r1, #500
 989 023a 2046     		mov	r0, r4
 990 023c FFF7FEFF 		bl	chSemWaitTimeout
 991              	.LVL30:
 992              		.loc 1 180 0
 993 0240 A0F1FF30 		sub	r0, r0, #-1
 994              	.LVL31:
 995 0244 D0F1000C 		rsbs	ip, r0, #0
 996 0248 4CEB0001 		adc	r1, ip, r0
 997 024c 0720     		movs	r0, #7
 998              	.LVL32:
 999 024e FFF7FEFF 		bl	_test_assert
 1000 0252 0028     		cmp	r0, #0
 1001 0254 7FF4E7AE 		bne	.L24
 1002              		.loc 1 181 0
 1003 0258 2268     		ldr	r2, [r4, #0]
 1004 025a 111B     		subs	r1, r2, r4
 1005 025c 0820     		movs	r0, #8
 1006 025e D1F1000E 		rsbs	lr, r1, #0
 1007 0262 4EEB0101 		adc	r1, lr, r1
 1008 0266 FFF7FEFF 		bl	_test_assert
 1009 026a 0028     		cmp	r0, #0
 1010 026c 7FF4DBAE 		bne	.L24
 1011              		.loc 1 182 0
 1012 0270 A368     		ldr	r3, [r4, #8]
 1013 0272 0920     		movs	r0, #9
 1014 0274 D3F10101 		rsbs	r1, r3, #1
 1015 0278 38BF     		it	cc
 1016 027a 0021     		movcc	r1, #0
 1017 027c FFF7FEFF 		bl	_test_assert
 1018 0280 0028     		cmp	r0, #0
 1019 0282 7FF4D0AE 		bne	.L24
 1020              	.LVL33:
ARM GAS  /tmp/ccH6NGJA.s 			page 19


 1021              		.loc 1 184 0
 1022 0286 40F20001 		movw	r1, #:lower16:.LC5
 1023 028a 0A20     		movs	r0, #10
 1024 028c C0F20001 		movt	r1, #:upper16:.LC5
 1025 0290 FFF7FEFF 		bl	_test_assert_sequence
 1026 0294 0028     		cmp	r0, #0
 1027 0296 7FF4C6AE 		bne	.L24
 1028              		.loc 1 176 0
 1029 029a 06F51C62 		add	r2, r6, #2496
 1030              		.loc 1 185 0
 1031 029e 111D     		adds	r1, r2, #4
 1032 02a0 0B20     		movs	r0, #11
 1033 02a2 0932     		adds	r2, r2, #9
 1034              	.LBE11:
 1035              	.LBE10:
 1036              		.loc 1 186 0
 1037 02a4 02B0     		add	sp, sp, #8
 1038 02a6 BDE87040 		pop	{r4, r5, r6, lr}
 1039              	.LBB13:
 1040              	.LBB12:
 1041              		.loc 1 185 0
 1042 02aa FFF7FEBF 		b	_test_assert_time_window
 1043              	.LBE12:
 1044              	.LBE13:
 1045              		.cfi_endproc
 1046              	.LFE5:
 1047              		.size	sem2_execute, .-sem2_execute
 1048              		.global	patternsem
 1049              		.global	testsem4
 1050              		.global	testsem3
 1051              		.global	testsem2
 1052              		.global	testsem1
 1053 02ae 00BF     		.section	.rodata.testsem1,"a",%progbits
 1054              		.align	2
 1055              		.type	testsem1, %object
 1056              		.size	testsem1, 16
 1057              	testsem1:
 1058 0000 74000000 		.word	.LC9
 1059 0004 00000000 		.word	sem1_setup
 1060 0008 00000000 		.word	0
 1061 000c 00000000 		.word	sem1_execute
 1062              		.section	.rodata.testsem2,"a",%progbits
 1063              		.align	2
 1064              		.type	testsem2, %object
 1065              		.size	testsem2, 16
 1066              	testsem2:
 1067 0000 60000000 		.word	.LC8
 1068 0004 00000000 		.word	sem2_setup
 1069 0008 00000000 		.word	0
 1070 000c 00000000 		.word	sem2_execute
 1071              		.section	.rodata.testsem3,"a",%progbits
 1072              		.align	2
 1073              		.type	testsem3, %object
 1074              		.size	testsem3, 16
 1075              	testsem3:
 1076 0000 40000000 		.word	.LC7
 1077 0004 00000000 		.word	sem3_setup
ARM GAS  /tmp/ccH6NGJA.s 			page 20


 1078 0008 00000000 		.word	0
 1079 000c 00000000 		.word	sem3_execute
 1080              		.section	.rodata.testsem4,"a",%progbits
 1081              		.align	2
 1082              		.type	testsem4, %object
 1083              		.size	testsem4, 16
 1084              	testsem4:
 1085 0000 1C000000 		.word	.LC6
 1086 0004 00000000 		.word	0
 1087 0008 00000000 		.word	0
 1088 000c 00000000 		.word	sem4_execute
 1089              		.section	.data.sem1,"aw",%progbits
 1090              		.align	2
 1091              		.set	.LANCHOR0,. + 0
 1092              		.type	sem1, %object
 1093              		.size	sem1, 12
 1094              	sem1:
 1095 0000 00000000 		.word	sem1
 1096 0004 00000000 		.word	sem1
 1097 0008 00000000 		.word	0
 1098              		.section	.rodata.patternsem,"a",%progbits
 1099              		.align	2
 1100              		.type	patternsem, %object
 1101              		.size	patternsem, 20
 1102              	patternsem:
 1103 0000 00000000 		.word	testsem1
 1104 0004 00000000 		.word	testsem2
 1105 0008 00000000 		.word	testsem3
 1106 000c 00000000 		.word	testsem4
 1107 0010 00000000 		.word	0
 1108              		.section	.rodata.str1.4,"aMS",%progbits,1
 1109              		.align	2
 1110              	.LC0:
 1111 0000 4100     		.ascii	"A\000"
 1112 0002 0000     		.space	2
 1113              	.LC1:
 1114 0004 4200     		.ascii	"B\000"
 1115 0006 0000     		.space	2
 1116              	.LC2:
 1117 0008 4300     		.ascii	"C\000"
 1118 000a 0000     		.space	2
 1119              	.LC3:
 1120 000c 4400     		.ascii	"D\000"
 1121 000e 0000     		.space	2
 1122              	.LC4:
 1123 0010 4500     		.ascii	"E\000"
 1124 0012 0000     		.space	2
 1125              	.LC5:
 1126 0014 41424344 		.ascii	"ABCDE\000"
 1126      4500
 1127 001a 0000     		.space	2
 1128              	.LC6:
 1129 001c 42696E61 		.ascii	"Binary Semaphores, functionality\000"
 1129      72792053 
 1129      656D6170 
 1129      686F7265 
 1129      732C2066 
ARM GAS  /tmp/ccH6NGJA.s 			page 21


 1130 003d 000000   		.space	3
 1131              	.LC7:
 1132 0040 53656D61 		.ascii	"Semaphores, atomic signal-wait\000"
 1132      70686F72 
 1132      65732C20 
 1132      61746F6D 
 1132      69632073 
 1133 005f 00       		.space	1
 1134              	.LC8:
 1135 0060 53656D61 		.ascii	"Semaphores, timeout\000"
 1135      70686F72 
 1135      65732C20 
 1135      74696D65 
 1135      6F757400 
 1136              	.LC9:
 1137 0074 53656D61 		.ascii	"Semaphores, enqueuing\000"
 1137      70686F72 
 1137      65732C20 
 1137      656E7175 
 1137      6575696E 
 1138 008a 0000     		.text
 1139              	.Letext0:
 1140              		.file 2 "/home/prana/CodeSourcery/ARM_EABI/bin/../lib/gcc/arm-none-eabi/4.6.3/../../../../arm-none
 1141              		.file 3 "../../../os/ports/GCC/ARMCMx/chtypes.h"
 1142              		.file 4 "../../../os/kernel/include/chlists.h"
 1143              		.file 5 "../../../os/kernel/include/chthreads.h"
 1144              		.file 6 "../../../os/ports/GCC/ARMCMx/chcore_v7m.h"
 1145              		.file 7 "../../../os/kernel/include/chvt.h"
 1146              		.file 8 "../../../os/kernel/include/chschd.h"
 1147              		.file 9 "../../../os/kernel/include/chsem.h"
 1148              		.file 10 "../../../os/kernel/include/chbsem.h"
 1149              		.file 11 "../../../os/kernel/include/chmtx.h"
 1150              		.file 12 "../../../test/test.h"