ARM GAS  /tmp/ccmpFAWD.s 			page 1


   1              		.syntax unified
   2              		.cpu cortex-m4
   3              		.fpu softvfp
   4              		.eabi_attribute 20, 1
   5              		.eabi_attribute 21, 1
   6              		.eabi_attribute 23, 3
   7              		.eabi_attribute 24, 1
   8              		.eabi_attribute 25, 1
   9              		.eabi_attribute 26, 1
  10              		.eabi_attribute 30, 2
  11              		.eabi_attribute 34, 1
  12              		.eabi_attribute 18, 4
  13              		.thumb
  14              		.file	"testmtx.c"
  15              		.text
  16              	.Ltext0:
  17              		.cfi_sections	.debug_frame
  18              		.section	.text.mtx5_execute,"ax",%progbits
  19              		.align	2
  20              		.p2align 4,,15
  21              		.thumb
  22              		.thumb_func
  23              		.type	mtx5_execute, %function
  24              	mtx5_execute:
  25              	.LFB20:
  26              		.file 1 "../../../test/testmtx.c"
  27              		.loc 1 437 0
  28              		.cfi_startproc
  29              		@ args = 0, pretend = 0, frame = 0
  30              		@ frame_needed = 0, uses_anonymous_args = 0
  31 0000 70B5     		push	{r4, r5, r6, lr}
  32              	.LCFI0:
  33              		.cfi_def_cfa_offset 16
  34              		.cfi_offset 14, -4
  35              		.cfi_offset 6, -8
  36              		.cfi_offset 5, -12
  37              		.cfi_offset 4, -16
  38              		.loc 1 441 0
  39 0002 40F20005 		movw	r5, #:lower16:rlist
  40 0006 C0F20005 		movt	r5, #:upper16:rlist
  41              		.loc 1 443 0
  42 000a 40F20004 		movw	r4, #:lower16:.LANCHOR0
  43              		.loc 1 441 0
  44 000e AB69     		ldr	r3, [r5, #24]
  45              		.loc 1 443 0
  46 0010 C0F20004 		movt	r4, #:upper16:.LANCHOR0
  47 0014 2046     		mov	r0, r4
  48              		.loc 1 441 0
  49 0016 9E68     		ldr	r6, [r3, #8]
  50              	.LVL0:
  51              		.loc 1 443 0
  52 0018 FFF7FEFF 		bl	chMtxTryLock
  53              	.LVL1:
  54 001c 0146     		mov	r1, r0
  55              	.LVL2:
  56              		.loc 1 444 0
  57 001e 0120     		movs	r0, #1
ARM GAS  /tmp/ccmpFAWD.s 			page 2


  58              	.LVL3:
  59 0020 FFF7FEFF 		bl	_test_assert
  60              	.LVL4:
  61 0024 00B1     		cbz	r0, .L4
  62              	.L1:
  63 0026 70BD     		pop	{r4, r5, r6, pc}
  64              	.L4:
  65              		.loc 1 446 0
  66 0028 2046     		mov	r0, r4
  67 002a FFF7FEFF 		bl	chMtxTryLock
  68              	.LVL5:
  69              		.loc 1 447 0
  70 002e D0F10101 		rsbs	r1, r0, #1
  71 0032 38BF     		it	cc
  72 0034 0021     		movcc	r1, #0
  73 0036 0220     		movs	r0, #2
  74              	.LVL6:
  75 0038 FFF7FEFF 		bl	_test_assert
  76 003c 0028     		cmp	r0, #0
  77 003e F2D1     		bne	.L1
  78              		.loc 1 449 0
  79              	@ 449 "../../../test/testmtx.c" 1
  80 0040 FFF7FEFF 		bl      _port_lock
  81              	@ 0 "" 2
  82              		.thumb
  83 0044 FFF7FEFF 		bl	dbg_check_lock
  84              		.loc 1 450 0
  85 0048 FFF7FEFF 		bl	chMtxUnlockS
  86              		.loc 1 451 0
  87 004c FFF7FEFF 		bl	dbg_check_unlock
  88              	@ 451 "../../../test/testmtx.c" 1
  89 0050 FFF7FEFF 		bl      _port_unlock
  90              	@ 0 "" 2
  91              		.loc 1 453 0
  92              		.thumb
  93 0054 2368     		ldr	r3, [r4, #0]
  94 0056 1A1B     		subs	r2, r3, r4
  95 0058 0320     		movs	r0, #3
  96 005a 5142     		rsbs	r1, r2, #0
  97 005c 41EB0201 		adc	r1, r1, r2
  98 0060 FFF7FEFF 		bl	_test_assert
  99 0064 0028     		cmp	r0, #0
 100 0066 DED1     		bne	.L1
 101              		.loc 1 454 0
 102 0068 A168     		ldr	r1, [r4, #8]
 103 006a 0420     		movs	r0, #4
 104 006c D1F10101 		rsbs	r1, r1, #1
 105 0070 38BF     		it	cc
 106 0072 0021     		movcc	r1, #0
 107 0074 FFF7FEFF 		bl	_test_assert
 108 0078 0028     		cmp	r0, #0
 109 007a D4D1     		bne	.L1
 110              		.loc 1 455 0
 111 007c A869     		ldr	r0, [r5, #24]
 112 007e 8268     		ldr	r2, [r0, #8]
 113 0080 C6EB020C 		rsb	ip, r6, r2
 114 0084 0520     		movs	r0, #5
ARM GAS  /tmp/ccmpFAWD.s 			page 3


 115 0086 DCF10003 		rsbs	r3, ip, #0
 116 008a 43EB0C01 		adc	r1, r3, ip
 117 008e FFF7FEFF 		bl	_test_assert
 118 0092 0028     		cmp	r0, #0
 119 0094 C7D1     		bne	.L1
 120              		.loc 1 457 0
 121 0096 2046     		mov	r0, r4
 122 0098 FFF7FEFF 		bl	chMtxLock
 123              		.loc 1 458 0
 124 009c FFF7FEFF 		bl	chMtxUnlockAll
 125              		.loc 1 459 0
 126 00a0 2268     		ldr	r2, [r4, #0]
 127 00a2 131B     		subs	r3, r2, r4
 128 00a4 0620     		movs	r0, #6
 129 00a6 5942     		rsbs	r1, r3, #0
 130 00a8 41EB0301 		adc	r1, r1, r3
 131 00ac FFF7FEFF 		bl	_test_assert
 132 00b0 0028     		cmp	r0, #0
 133 00b2 B8D1     		bne	.L1
 134              		.loc 1 460 0
 135 00b4 A168     		ldr	r1, [r4, #8]
 136 00b6 0720     		movs	r0, #7
 137 00b8 D1F10101 		rsbs	r1, r1, #1
 138 00bc 38BF     		it	cc
 139 00be 0021     		movcc	r1, #0
 140              		.loc 1 461 0
 141 00c0 BDE87040 		pop	{r4, r5, r6, lr}
 142              		.loc 1 460 0
 143 00c4 FFF7FEBF 		b	_test_assert
 144              		.cfi_endproc
 145              	.LFE20:
 146              		.size	mtx5_execute, .-mtx5_execute
 147 00c8 AFF30080 		.section	.text.mtx5_setup,"ax",%progbits
 147      AFF30080 
 148              		.align	2
 149              		.p2align 4,,15
 150              		.thumb
 151              		.thumb_func
 152              		.type	mtx5_setup, %function
 153              	mtx5_setup:
 154              	.LFB19:
 155              		.loc 1 432 0
 156              		.cfi_startproc
 157              		@ args = 0, pretend = 0, frame = 0
 158              		@ frame_needed = 0, uses_anonymous_args = 0
 159              		@ link register save eliminated.
 160              		.loc 1 434 0
 161 0000 40F20000 		movw	r0, #:lower16:.LANCHOR0
 162 0004 C0F20000 		movt	r0, #:upper16:.LANCHOR0
 163              		.loc 1 435 0
 164              		.loc 1 434 0
 165 0008 FFF7FEBF 		b	chMtxInit
 166              		.cfi_endproc
 167              	.LFE19:
 168              		.size	mtx5_setup, .-mtx5_setup
 169 000c AFF30080 		.section	.text.mtx4_setup,"ax",%progbits
 170              		.align	2
ARM GAS  /tmp/ccmpFAWD.s 			page 4


 171              		.p2align 4,,15
 172              		.thumb
 173              		.thumb_func
 174              		.type	mtx4_setup, %function
 175              	mtx4_setup:
 176              	.LFB15:
 177              		.loc 1 345 0
 178              		.cfi_startproc
 179              		@ args = 0, pretend = 0, frame = 0
 180              		@ frame_needed = 0, uses_anonymous_args = 0
 181 0000 08B5     		push	{r3, lr}
 182              	.LCFI1:
 183              		.cfi_def_cfa_offset 8
 184              		.cfi_offset 14, -4
 185              		.cfi_offset 3, -8
 186              		.loc 1 347 0
 187 0002 40F20000 		movw	r0, #:lower16:.LANCHOR0
 188 0006 C0F20000 		movt	r0, #:upper16:.LANCHOR0
 189 000a FFF7FEFF 		bl	chMtxInit
 190              		.loc 1 348 0
 191 000e 40F20000 		movw	r0, #:lower16:.LANCHOR1
 192 0012 C0F20000 		movt	r0, #:upper16:.LANCHOR1
 193              		.loc 1 349 0
 194 0016 BDE80840 		pop	{r3, lr}
 195              		.loc 1 348 0
 196 001a FFF7FEBF 		b	chMtxInit
 197              		.cfi_endproc
 198              	.LFE15:
 199              		.size	mtx4_setup, .-mtx4_setup
 200 001e 00BF     		.section	.text.mtx3_setup,"ax",%progbits
 201              		.align	2
 202              		.p2align 4,,15
 203              		.thumb
 204              		.thumb_func
 205              		.type	mtx3_setup, %function
 206              	mtx3_setup:
 207              	.LFB8:
 208              		.loc 1 245 0
 209              		.cfi_startproc
 210              		@ args = 0, pretend = 0, frame = 0
 211              		@ frame_needed = 0, uses_anonymous_args = 0
 212 0000 08B5     		push	{r3, lr}
 213              	.LCFI2:
 214              		.cfi_def_cfa_offset 8
 215              		.cfi_offset 14, -4
 216              		.cfi_offset 3, -8
 217              		.loc 1 247 0
 218 0002 40F20000 		movw	r0, #:lower16:.LANCHOR0
 219 0006 C0F20000 		movt	r0, #:upper16:.LANCHOR0
 220 000a FFF7FEFF 		bl	chMtxInit
 221              		.loc 1 248 0
 222 000e 40F20000 		movw	r0, #:lower16:.LANCHOR1
 223 0012 C0F20000 		movt	r0, #:upper16:.LANCHOR1
 224              		.loc 1 249 0
 225 0016 BDE80840 		pop	{r3, lr}
 226              		.loc 1 248 0
 227 001a FFF7FEBF 		b	chMtxInit
ARM GAS  /tmp/ccmpFAWD.s 			page 5


 228              		.cfi_endproc
 229              	.LFE8:
 230              		.size	mtx3_setup, .-mtx3_setup
 231 001e 00BF     		.section	.text.mtx2_setup,"ax",%progbits
 232              		.align	2
 233              		.p2align 4,,15
 234              		.thumb
 235              		.thumb_func
 236              		.type	mtx2_setup, %function
 237              	mtx2_setup:
 238              	.LFB3:
 239              		.loc 1 155 0
 240              		.cfi_startproc
 241              		@ args = 0, pretend = 0, frame = 0
 242              		@ frame_needed = 0, uses_anonymous_args = 0
 243              		@ link register save eliminated.
 244              		.loc 1 157 0
 245 0000 40F20000 		movw	r0, #:lower16:.LANCHOR0
 246 0004 C0F20000 		movt	r0, #:upper16:.LANCHOR0
 247              		.loc 1 158 0
 248              		.loc 1 157 0
 249 0008 FFF7FEBF 		b	chMtxInit
 250              		.cfi_endproc
 251              	.LFE3:
 252              		.size	mtx2_setup, .-mtx2_setup
 253 000c AFF30080 		.section	.text.mtx1_setup,"ax",%progbits
 254              		.align	2
 255              		.p2align 4,,15
 256              		.thumb
 257              		.thumb_func
 258              		.type	mtx1_setup, %function
 259              	mtx1_setup:
 260              	.LFB0:
 261              		.loc 1 88 0
 262              		.cfi_startproc
 263              		@ args = 0, pretend = 0, frame = 0
 264              		@ frame_needed = 0, uses_anonymous_args = 0
 265              		@ link register save eliminated.
 266              		.loc 1 90 0
 267 0000 40F20000 		movw	r0, #:lower16:.LANCHOR0
 268 0004 C0F20000 		movt	r0, #:upper16:.LANCHOR0
 269              		.loc 1 91 0
 270              		.loc 1 90 0
 271 0008 FFF7FEBF 		b	chMtxInit
 272              		.cfi_endproc
 273              	.LFE0:
 274              		.size	mtx1_setup, .-mtx1_setup
 275 000c AFF30080 		.section	.text.thread4b,"ax",%progbits
 276              		.align	2
 277              		.p2align 4,,15
 278              		.thumb
 279              		.thumb_func
 280              		.type	thread4b, %function
 281              	thread4b:
 282              	.LFB17:
 283              		.loc 1 360 0
 284              		.cfi_startproc
ARM GAS  /tmp/ccmpFAWD.s 			page 6


 285              		@ args = 0, pretend = 0, frame = 0
 286              		@ frame_needed = 0, uses_anonymous_args = 0
 287              	.LVL7:
 288 0000 08B5     		push	{r3, lr}
 289              	.LCFI3:
 290              		.cfi_def_cfa_offset 8
 291              		.cfi_offset 14, -4
 292              		.cfi_offset 3, -8
 293              		.loc 1 363 0
 294 0002 9620     		movs	r0, #150
 295              	.LVL8:
 296 0004 FFF7FEFF 		bl	chThdSleep
 297              		.loc 1 364 0
 298 0008 40F20000 		movw	r0, #:lower16:.LANCHOR0
 299 000c C0F20000 		movt	r0, #:upper16:.LANCHOR0
 300 0010 FFF7FEFF 		bl	chMtxLock
 301              		.loc 1 365 0
 302 0014 FFF7FEFF 		bl	chMtxUnlock
 303              		.loc 1 367 0
 304 0018 0020     		movs	r0, #0
 305 001a 08BD     		pop	{r3, pc}
 306              		.cfi_endproc
 307              	.LFE17:
 308              		.size	thread4b, .-thread4b
 309 001c AFF30080 		.section	.text.thread4a,"ax",%progbits
 310              		.align	2
 311              		.p2align 4,,15
 312              		.thumb
 313              		.thumb_func
 314              		.type	thread4a, %function
 315              	thread4a:
 316              	.LFB16:
 317              		.loc 1 351 0
 318              		.cfi_startproc
 319              		@ args = 0, pretend = 0, frame = 0
 320              		@ frame_needed = 0, uses_anonymous_args = 0
 321              	.LVL9:
 322 0000 08B5     		push	{r3, lr}
 323              	.LCFI4:
 324              		.cfi_def_cfa_offset 8
 325              		.cfi_offset 14, -4
 326              		.cfi_offset 3, -8
 327              		.loc 1 354 0
 328 0002 3220     		movs	r0, #50
 329              	.LVL10:
 330 0004 FFF7FEFF 		bl	chThdSleep
 331              		.loc 1 355 0
 332 0008 40F20000 		movw	r0, #:lower16:.LANCHOR1
 333 000c C0F20000 		movt	r0, #:upper16:.LANCHOR1
 334 0010 FFF7FEFF 		bl	chMtxLock
 335              		.loc 1 356 0
 336 0014 FFF7FEFF 		bl	chMtxUnlock
 337              		.loc 1 358 0
 338 0018 0020     		movs	r0, #0
 339 001a 08BD     		pop	{r3, pc}
 340              		.cfi_endproc
 341              	.LFE16:
ARM GAS  /tmp/ccmpFAWD.s 			page 7


 342              		.size	thread4a, .-thread4a
 343 001c AFF30080 		.section	.text.mtx4_execute,"ax",%progbits
 344              		.align	2
 345              		.p2align 4,,15
 346              		.thumb
 347              		.thumb_func
 348              		.type	mtx4_execute, %function
 349              	mtx4_execute:
 350              	.LFB18:
 351              		.loc 1 369 0
 352              		.cfi_startproc
 353              		@ args = 0, pretend = 0, frame = 0
 354              		@ frame_needed = 0, uses_anonymous_args = 0
 355 0000 2DE9F047 		push	{r4, r5, r6, r7, r8, r9, sl, lr}
 356              	.LCFI5:
 357              		.cfi_def_cfa_offset 32
 358              		.cfi_offset 14, -4
 359              		.cfi_offset 10, -8
 360              		.cfi_offset 9, -12
 361              		.cfi_offset 8, -16
 362              		.cfi_offset 7, -20
 363              		.cfi_offset 6, -24
 364              		.cfi_offset 5, -28
 365              		.cfi_offset 4, -32
 366              		.loc 1 372 0
 367 0004 40F20004 		movw	r4, #:lower16:rlist
 368 0008 C0F20004 		movt	r4, #:upper16:rlist
 369              		.loc 1 375 0
 370 000c 40F20006 		movw	r6, #:lower16:wa
 371              		.loc 1 372 0
 372 0010 A769     		ldr	r7, [r4, #24]
 373              		.loc 1 375 0
 374 0012 C0F20006 		movt	r6, #:upper16:wa
 375              		.loc 1 372 0
 376 0016 BF68     		ldr	r7, [r7, #8]
 377              	.LVL11:
 378              		.loc 1 375 0
 379 0018 D6F80090 		ldr	r9, [r6, #0]
 380              		.loc 1 369 0
 381 001c 82B0     		sub	sp, sp, #8
 382              	.LCFI6:
 383              		.cfi_def_cfa_offset 40
 384              		.loc 1 373 0
 385 001e 07F10108 		add	r8, r7, #1
 386              	.LVL12:
 387              		.loc 1 375 0
 388 0022 40F20005 		movw	r5, #:lower16:.LC0
 389 0026 40F20003 		movw	r3, #:lower16:thread4a
 390 002a C0F20005 		movt	r5, #:upper16:.LC0
 391 002e 4FF49871 		mov	r1, #304
 392 0032 4246     		mov	r2, r8
 393 0034 C0F20003 		movt	r3, #:upper16:thread4a
 394 0038 4846     		mov	r0, r9
 395 003a 0095     		str	r5, [sp, #0]
 396 003c FFF7FEFF 		bl	chThdCreateStatic
 397              	.LVL13:
 398 0040 40F20005 		movw	r5, #:lower16:threads
ARM GAS  /tmp/ccmpFAWD.s 			page 8


 399              		.loc 1 376 0
 400 0044 D6F804A0 		ldr	sl, [r6, #4]
 401              		.loc 1 375 0
 402 0048 C0F20005 		movt	r5, #:upper16:threads
 403              		.loc 1 374 0
 404 004c BE1C     		adds	r6, r7, #2
 405              	.LVL14:
 406              		.loc 1 376 0
 407 004e 40F2000E 		movw	lr, #:lower16:.LC1
 408 0052 40F20003 		movw	r3, #:lower16:thread4b
 409              		.loc 1 375 0
 410 0056 2860     		str	r0, [r5, #0]
 411              		.loc 1 376 0
 412 0058 4FF49871 		mov	r1, #304
 413 005c C0F2000E 		movt	lr, #:upper16:.LC1
 414 0060 3246     		mov	r2, r6
 415 0062 C0F20003 		movt	r3, #:upper16:thread4b
 416 0066 5046     		mov	r0, sl
 417 0068 CDF800E0 		str	lr, [sp, #0]
 418 006c FFF7FEFF 		bl	chThdCreateStatic
 419 0070 6860     		str	r0, [r5, #4]
 420              		.loc 1 377 0
 421 0072 40F20000 		movw	r0, #:lower16:.LANCHOR1
 422 0076 C0F20000 		movt	r0, #:upper16:.LANCHOR1
 423 007a FFF7FEFF 		bl	chMtxLock
 424              		.loc 1 378 0
 425 007e A069     		ldr	r0, [r4, #24]
 426 0080 8268     		ldr	r2, [r0, #8]
 427 0082 D31B     		subs	r3, r2, r7
 428 0084 0120     		movs	r0, #1
 429 0086 5942     		rsbs	r1, r3, #0
 430 0088 41EB0301 		adc	r1, r1, r3
 431 008c FFF7FEFF 		bl	_test_assert
 432 0090 10B1     		cbz	r0, .L14
 433              	.L12:
 434              		.loc 1 413 0
 435 0092 02B0     		add	sp, sp, #8
 436 0094 BDE8F087 		pop	{r4, r5, r6, r7, r8, r9, sl, pc}
 437              	.L14:
 438              		.loc 1 379 0
 439 0098 6420     		movs	r0, #100
 440 009a FFF7FEFF 		bl	chThdSleep
 441              		.loc 1 380 0
 442 009e A069     		ldr	r0, [r4, #24]
 443 00a0 8268     		ldr	r2, [r0, #8]
 444 00a2 C8EB0203 		rsb	r3, r8, r2
 445 00a6 0220     		movs	r0, #2
 446 00a8 5942     		rsbs	r1, r3, #0
 447 00aa 41EB0301 		adc	r1, r1, r3
 448 00ae FFF7FEFF 		bl	_test_assert
 449 00b2 0028     		cmp	r0, #0
 450 00b4 EDD1     		bne	.L12
 451              		.loc 1 381 0
 452 00b6 40F20000 		movw	r0, #:lower16:.LANCHOR0
 453 00ba C0F20000 		movt	r0, #:upper16:.LANCHOR0
 454 00be FFF7FEFF 		bl	chMtxLock
 455              		.loc 1 382 0
ARM GAS  /tmp/ccmpFAWD.s 			page 9


 456 00c2 A269     		ldr	r2, [r4, #24]
 457 00c4 9368     		ldr	r3, [r2, #8]
 458 00c6 C8EB0301 		rsb	r1, r8, r3
 459 00ca 0320     		movs	r0, #3
 460 00cc D1F1000C 		rsbs	ip, r1, #0
 461 00d0 4CEB0101 		adc	r1, ip, r1
 462 00d4 FFF7FEFF 		bl	_test_assert
 463 00d8 0028     		cmp	r0, #0
 464 00da DAD1     		bne	.L12
 465              		.loc 1 383 0
 466 00dc 6420     		movs	r0, #100
 467 00de FFF7FEFF 		bl	chThdSleep
 468              		.loc 1 384 0
 469 00e2 A069     		ldr	r0, [r4, #24]
 470 00e4 8368     		ldr	r3, [r0, #8]
 471 00e6 991B     		subs	r1, r3, r6
 472 00e8 0420     		movs	r0, #4
 473 00ea D1F1000C 		rsbs	ip, r1, #0
 474 00ee 4CEB0101 		adc	r1, ip, r1
 475 00f2 FFF7FEFF 		bl	_test_assert
 476 00f6 0028     		cmp	r0, #0
 477 00f8 CBD1     		bne	.L12
 478              		.loc 1 385 0
 479 00fa FFF7FEFF 		bl	chMtxUnlock
 480              		.loc 1 386 0
 481 00fe A069     		ldr	r0, [r4, #24]
 482 0100 8368     		ldr	r3, [r0, #8]
 483 0102 C8EB0301 		rsb	r1, r8, r3
 484 0106 0520     		movs	r0, #5
 485 0108 4A42     		rsbs	r2, r1, #0
 486 010a 42EB0101 		adc	r1, r2, r1
 487 010e FFF7FEFF 		bl	_test_assert
 488 0112 0028     		cmp	r0, #0
 489 0114 BDD1     		bne	.L12
 490              		.loc 1 387 0
 491 0116 6420     		movs	r0, #100
 492 0118 FFF7FEFF 		bl	chThdSleep
 493              		.loc 1 388 0
 494 011c A069     		ldr	r0, [r4, #24]
 495 011e 8368     		ldr	r3, [r0, #8]
 496 0120 C8EB0301 		rsb	r1, r8, r3
 497 0124 0620     		movs	r0, #6
 498 0126 4A42     		rsbs	r2, r1, #0
 499 0128 42EB0101 		adc	r1, r2, r1
 500 012c FFF7FEFF 		bl	_test_assert
 501 0130 0028     		cmp	r0, #0
 502 0132 AED1     		bne	.L12
 503              		.loc 1 389 0
 504 0134 FFF7FEFF 		bl	chMtxUnlockAll
 505              		.loc 1 390 0
 506 0138 A069     		ldr	r0, [r4, #24]
 507 013a 8368     		ldr	r3, [r0, #8]
 508 013c D91B     		subs	r1, r3, r7
 509 013e 0720     		movs	r0, #7
 510 0140 4A42     		rsbs	r2, r1, #0
 511 0142 42EB0101 		adc	r1, r2, r1
 512 0146 FFF7FEFF 		bl	_test_assert
ARM GAS  /tmp/ccmpFAWD.s 			page 10


 513 014a 0028     		cmp	r0, #0
 514 014c A1D1     		bne	.L12
 515              		.loc 1 391 0
 516 014e FFF7FEFF 		bl	test_wait_threads
 517              		.loc 1 394 0
 518 0152 40F2000C 		movw	ip, #:lower16:.LC2
 519 0156 40F20003 		movw	r3, #:lower16:thread4a
 520 015a C0F2000C 		movt	ip, #:upper16:.LC2
 521 015e 4FF49871 		mov	r1, #304
 522 0162 4246     		mov	r2, r8
 523 0164 C0F20003 		movt	r3, #:upper16:thread4a
 524 0168 4846     		mov	r0, r9
 525 016a CDF800C0 		str	ip, [sp, #0]
 526 016e FFF7FEFF 		bl	chThdCreateStatic
 527              		.loc 1 395 0
 528 0172 40F2000E 		movw	lr, #:lower16:.LC3
 529 0176 40F20003 		movw	r3, #:lower16:thread4b
 530 017a 4FF49871 		mov	r1, #304
 531              		.loc 1 394 0
 532 017e 2860     		str	r0, [r5, #0]
 533              		.loc 1 395 0
 534 0180 C0F2000E 		movt	lr, #:upper16:.LC3
 535 0184 3246     		mov	r2, r6
 536 0186 C0F20003 		movt	r3, #:upper16:thread4b
 537 018a 5046     		mov	r0, sl
 538 018c CDF800E0 		str	lr, [sp, #0]
 539 0190 FFF7FEFF 		bl	chThdCreateStatic
 540 0194 6860     		str	r0, [r5, #4]
 541              		.loc 1 396 0
 542 0196 40F20000 		movw	r0, #:lower16:.LANCHOR1
 543 019a C0F20000 		movt	r0, #:upper16:.LANCHOR1
 544 019e FFF7FEFF 		bl	chMtxLock
 545              		.loc 1 397 0
 546 01a2 A369     		ldr	r3, [r4, #24]
 547 01a4 9968     		ldr	r1, [r3, #8]
 548 01a6 CA1B     		subs	r2, r1, r7
 549 01a8 0820     		movs	r0, #8
 550 01aa D2F1000C 		rsbs	ip, r2, #0
 551 01ae 4CEB0201 		adc	r1, ip, r2
 552 01b2 FFF7FEFF 		bl	_test_assert
 553 01b6 0028     		cmp	r0, #0
 554 01b8 7FF46BAF 		bne	.L12
 555              		.loc 1 398 0
 556 01bc 6420     		movs	r0, #100
 557 01be FFF7FEFF 		bl	chThdSleep
 558              		.loc 1 399 0
 559 01c2 A069     		ldr	r0, [r4, #24]
 560 01c4 8368     		ldr	r3, [r0, #8]
 561 01c6 C8EB0301 		rsb	r1, r8, r3
 562 01ca 0920     		movs	r0, #9
 563 01cc 4A42     		rsbs	r2, r1, #0
 564 01ce 42EB0101 		adc	r1, r2, r1
 565 01d2 FFF7FEFF 		bl	_test_assert
 566 01d6 0028     		cmp	r0, #0
 567 01d8 7FF45BAF 		bne	.L12
 568              		.loc 1 400 0
 569 01dc 40F20000 		movw	r0, #:lower16:.LANCHOR0
ARM GAS  /tmp/ccmpFAWD.s 			page 11


 570 01e0 C0F20000 		movt	r0, #:upper16:.LANCHOR0
 571 01e4 FFF7FEFF 		bl	chMtxLock
 572              		.loc 1 401 0
 573 01e8 A069     		ldr	r0, [r4, #24]
 574 01ea 8368     		ldr	r3, [r0, #8]
 575 01ec C8EB0301 		rsb	r1, r8, r3
 576 01f0 0A20     		movs	r0, #10
 577 01f2 4A42     		rsbs	r2, r1, #0
 578 01f4 42EB0101 		adc	r1, r2, r1
 579 01f8 FFF7FEFF 		bl	_test_assert
 580 01fc 0028     		cmp	r0, #0
 581 01fe 7FF448AF 		bne	.L12
 582              		.loc 1 402 0
 583 0202 6420     		movs	r0, #100
 584 0204 FFF7FEFF 		bl	chThdSleep
 585              		.loc 1 403 0
 586 0208 A469     		ldr	r4, [r4, #24]
 587 020a A368     		ldr	r3, [r4, #8]
 588 020c 991B     		subs	r1, r3, r6
 589 020e 0B20     		movs	r0, #11
 590 0210 4A42     		rsbs	r2, r1, #0
 591 0212 40F20004 		movw	r4, #:lower16:rlist
 592 0216 42EB0101 		adc	r1, r2, r1
 593 021a C0F20004 		movt	r4, #:upper16:rlist
 594 021e FFF7FEFF 		bl	_test_assert
 595 0222 0028     		cmp	r0, #0
 596 0224 7FF435AF 		bne	.L12
 597              		.loc 1 404 0
 598              	@ 404 "../../../test/testmtx.c" 1
 599 0228 FFF7FEFF 		bl      _port_lock
 600              	@ 0 "" 2
 601              		.thumb
 602 022c FFF7FEFF 		bl	dbg_check_lock
 603              		.loc 1 405 0
 604 0230 FFF7FEFF 		bl	chMtxUnlockS
 605              		.loc 1 406 0
 606 0234 FFF7FEFF 		bl	dbg_check_unlock
 607              	@ 406 "../../../test/testmtx.c" 1
 608 0238 FFF7FEFF 		bl      _port_unlock
 609              	@ 0 "" 2
 610              		.loc 1 407 0
 611              		.thumb
 612 023c A069     		ldr	r0, [r4, #24]
 613 023e 8268     		ldr	r2, [r0, #8]
 614 0240 C8EB020C 		rsb	ip, r8, r2
 615 0244 0C20     		movs	r0, #12
 616 0246 DCF1000E 		rsbs	lr, ip, #0
 617 024a 4EEB0C01 		adc	r1, lr, ip
 618 024e FFF7FEFF 		bl	_test_assert
 619 0252 0028     		cmp	r0, #0
 620 0254 7FF41DAF 		bne	.L12
 621              		.loc 1 408 0
 622 0258 6420     		movs	r0, #100
 623 025a FFF7FEFF 		bl	chThdSleep
 624              		.loc 1 409 0
 625 025e A069     		ldr	r0, [r4, #24]
 626 0260 8268     		ldr	r2, [r0, #8]
ARM GAS  /tmp/ccmpFAWD.s 			page 12


 627 0262 C8EB0203 		rsb	r3, r8, r2
 628 0266 0D20     		movs	r0, #13
 629 0268 5942     		rsbs	r1, r3, #0
 630 026a 41EB0301 		adc	r1, r1, r3
 631 026e FFF7FEFF 		bl	_test_assert
 632 0272 0028     		cmp	r0, #0
 633 0274 7FF40DAF 		bne	.L12
 634              		.loc 1 410 0
 635 0278 FFF7FEFF 		bl	chMtxUnlockAll
 636              		.loc 1 411 0
 637 027c A069     		ldr	r0, [r4, #24]
 638 027e 8268     		ldr	r2, [r0, #8]
 639 0280 D31B     		subs	r3, r2, r7
 640 0282 0E20     		movs	r0, #14
 641 0284 5942     		rsbs	r1, r3, #0
 642 0286 41EB0301 		adc	r1, r1, r3
 643 028a FFF7FEFF 		bl	_test_assert
 644 028e 0028     		cmp	r0, #0
 645 0290 7FF4FFAE 		bne	.L12
 646              		.loc 1 413 0
 647 0294 02B0     		add	sp, sp, #8
 648 0296 BDE8F047 		pop	{r4, r5, r6, r7, r8, r9, sl, lr}
 649              		.loc 1 412 0
 650 029a FFF7FEBF 		b	test_wait_threads
 651              		.cfi_endproc
 652              	.LFE18:
 653              		.size	mtx4_execute, .-mtx4_execute
 654 029e 00BF     		.section	.text.mtx1_execute,"ax",%progbits
 655              		.align	2
 656              		.p2align 4,,15
 657              		.thumb
 658              		.thumb_func
 659              		.type	mtx1_execute, %function
 660              	mtx1_execute:
 661              	.LFB2:
 662              		.loc 1 101 0
 663              		.cfi_startproc
 664              		@ args = 0, pretend = 0, frame = 0
 665              		@ frame_needed = 0, uses_anonymous_args = 0
 666 0000 F0B5     		push	{r4, r5, r6, r7, lr}
 667              	.LCFI7:
 668              		.cfi_def_cfa_offset 20
 669              		.cfi_offset 14, -4
 670              		.cfi_offset 7, -8
 671              		.cfi_offset 6, -12
 672              		.cfi_offset 5, -16
 673              		.cfi_offset 4, -20
 674              		.loc 1 103 0
 675 0002 40F20007 		movw	r7, #:lower16:rlist
 676 0006 C0F20007 		movt	r7, #:upper16:rlist
 677              		.loc 1 105 0
 678 000a 40F20005 		movw	r5, #:lower16:wa
 679              		.loc 1 103 0
 680 000e BE69     		ldr	r6, [r7, #24]
 681              		.loc 1 104 0
 682 0010 40F20000 		movw	r0, #:lower16:.LANCHOR0
 683              		.loc 1 101 0
ARM GAS  /tmp/ccmpFAWD.s 			page 13


 684 0014 83B0     		sub	sp, sp, #12
 685              	.LCFI8:
 686              		.cfi_def_cfa_offset 32
 687              		.loc 1 103 0
 688 0016 B668     		ldr	r6, [r6, #8]
 689              	.LVL15:
 690              		.loc 1 105 0
 691 0018 C0F20005 		movt	r5, #:upper16:wa
 692              		.loc 1 104 0
 693 001c C0F20000 		movt	r0, #:upper16:.LANCHOR0
 694 0020 FFF7FEFF 		bl	chMtxLock
 695              	.LVL16:
 696              		.loc 1 105 0
 697 0024 40F20004 		movw	r4, #:lower16:.LC4
 698 0028 40F20003 		movw	r3, #:lower16:thread1
 699 002c 721C     		adds	r2, r6, #1
 700 002e 2868     		ldr	r0, [r5, #0]
 701 0030 C0F20004 		movt	r4, #:upper16:.LC4
 702 0034 4FF49871 		mov	r1, #304
 703 0038 C0F20003 		movt	r3, #:upper16:thread1
 704 003c 0094     		str	r4, [sp, #0]
 705 003e FFF7FEFF 		bl	chThdCreateStatic
 706 0042 40F20004 		movw	r4, #:lower16:threads
 707 0046 C0F20004 		movt	r4, #:upper16:threads
 708              		.loc 1 106 0
 709 004a D5F804C0 		ldr	ip, [r5, #4]
 710              		.loc 1 105 0
 711 004e 2060     		str	r0, [r4, #0]
 712              		.loc 1 106 0
 713 0050 40F2000E 		movw	lr, #:lower16:.LC2
 714 0054 40F20003 		movw	r3, #:lower16:thread1
 715 0058 C0F2000E 		movt	lr, #:upper16:.LC2
 716 005c B21C     		adds	r2, r6, #2
 717 005e 4FF49871 		mov	r1, #304
 718 0062 C0F20003 		movt	r3, #:upper16:thread1
 719 0066 6046     		mov	r0, ip
 720 0068 CDF800E0 		str	lr, [sp, #0]
 721 006c FFF7FEFF 		bl	chThdCreateStatic
 722              		.loc 1 107 0
 723 0070 D5F808C0 		ldr	ip, [r5, #8]
 724              		.loc 1 106 0
 725 0074 6060     		str	r0, [r4, #4]
 726              		.loc 1 107 0
 727 0076 40F2000E 		movw	lr, #:lower16:.LC3
 728 007a 40F20003 		movw	r3, #:lower16:thread1
 729 007e C0F2000E 		movt	lr, #:upper16:.LC3
 730 0082 F21C     		adds	r2, r6, #3
 731 0084 4FF49871 		mov	r1, #304
 732 0088 C0F20003 		movt	r3, #:upper16:thread1
 733 008c 6046     		mov	r0, ip
 734 008e CDF800E0 		str	lr, [sp, #0]
 735 0092 FFF7FEFF 		bl	chThdCreateStatic
 736              		.loc 1 108 0
 737 0096 D5F80CC0 		ldr	ip, [r5, #12]
 738              		.loc 1 107 0
 739 009a A060     		str	r0, [r4, #8]
 740              		.loc 1 108 0
ARM GAS  /tmp/ccmpFAWD.s 			page 14


 741 009c 40F2000E 		movw	lr, #:lower16:.LC0
 742 00a0 40F20003 		movw	r3, #:lower16:thread1
 743 00a4 6046     		mov	r0, ip
 744 00a6 C0F2000E 		movt	lr, #:upper16:.LC0
 745 00aa 321D     		adds	r2, r6, #4
 746 00ac 4FF49871 		mov	r1, #304
 747 00b0 C0F20003 		movt	r3, #:upper16:thread1
 748 00b4 CDF800E0 		str	lr, [sp, #0]
 749 00b8 FFF7FEFF 		bl	chThdCreateStatic
 750              		.loc 1 109 0
 751 00bc D5F810E0 		ldr	lr, [r5, #16]
 752              		.loc 1 108 0
 753 00c0 E060     		str	r0, [r4, #12]
 754              		.loc 1 109 0
 755 00c2 40F20005 		movw	r5, #:lower16:.LC1
 756 00c6 40F20003 		movw	r3, #:lower16:thread1
 757 00ca 721D     		adds	r2, r6, #5
 758 00cc 4FF49871 		mov	r1, #304
 759 00d0 C0F20003 		movt	r3, #:upper16:thread1
 760 00d4 7046     		mov	r0, lr
 761 00d6 C0F20005 		movt	r5, #:upper16:.LC1
 762 00da 0095     		str	r5, [sp, #0]
 763 00dc FFF7FEFF 		bl	chThdCreateStatic
 764 00e0 2061     		str	r0, [r4, #16]
 765              		.loc 1 110 0
 766 00e2 FFF7FEFF 		bl	chMtxUnlock
 767              		.loc 1 111 0
 768 00e6 FFF7FEFF 		bl	test_wait_threads
 769              		.loc 1 112 0
 770 00ea B869     		ldr	r0, [r7, #24]
 771 00ec 8368     		ldr	r3, [r0, #8]
 772 00ee 9A1B     		subs	r2, r3, r6
 773 00f0 0120     		movs	r0, #1
 774 00f2 5142     		rsbs	r1, r2, #0
 775 00f4 41EB0201 		adc	r1, r1, r2
 776 00f8 FFF7FEFF 		bl	_test_assert
 777 00fc 08B1     		cbz	r0, .L17
 778              		.loc 1 114 0
 779 00fe 03B0     		add	sp, sp, #12
 780 0100 F0BD     		pop	{r4, r5, r6, r7, pc}
 781              	.L17:
 782              		.loc 1 113 0
 783 0102 40F20001 		movw	r1, #:lower16:.LC5
 784 0106 0220     		movs	r0, #2
 785 0108 C0F20001 		movt	r1, #:upper16:.LC5
 786              		.loc 1 114 0
 787 010c 03B0     		add	sp, sp, #12
 788 010e BDE8F040 		pop	{r4, r5, r6, r7, lr}
 789              		.loc 1 113 0
 790 0112 FFF7FEBF 		b	_test_assert_sequence
 791              		.cfi_endproc
 792              	.LFE2:
 793              		.size	mtx1_execute, .-mtx1_execute
 794 0116 00BFAFF3 		.section	.text.mtx3_execute,"ax",%progbits
 794      0080AFF3 
 794      0080
 795              		.align	2
ARM GAS  /tmp/ccmpFAWD.s 			page 15


 796              		.p2align 4,,15
 797              		.thumb
 798              		.thumb_func
 799              		.type	mtx3_execute, %function
 800              	mtx3_execute:
 801              	.LFB14:
 802              		.loc 1 312 0
 803              		.cfi_startproc
 804              		@ args = 0, pretend = 0, frame = 0
 805              		@ frame_needed = 0, uses_anonymous_args = 0
 806 0000 2DE9F041 		push	{r4, r5, r6, r7, r8, lr}
 807              	.LCFI9:
 808              		.cfi_def_cfa_offset 24
 809              		.cfi_offset 14, -4
 810              		.cfi_offset 8, -8
 811              		.cfi_offset 7, -12
 812              		.cfi_offset 6, -16
 813              		.cfi_offset 5, -20
 814              		.cfi_offset 4, -24
 815              		.loc 1 317 0
 816 0004 40F20006 		movw	r6, #:lower16:rlist
 817 0008 C0F20006 		movt	r6, #:upper16:rlist
 818              		.loc 1 312 0
 819 000c 82B0     		sub	sp, sp, #8
 820              	.LCFI10:
 821              		.cfi_def_cfa_offset 32
 822              		.loc 1 315 0
 823 000e FFF7FEFF 		bl	test_wait_tick
 824              		.loc 1 317 0
 825 0012 B769     		ldr	r7, [r6, #24]
 826 0014 40F20005 		movw	r5, #:lower16:wa
 827 0018 C0F20005 		movt	r5, #:upper16:wa
 828 001c BA68     		ldr	r2, [r7, #8]
 829 001e 2868     		ldr	r0, [r5, #0]
 830              		.loc 1 316 0
 831 0020 40F20008 		movw	r8, #:lower16:vtlist
 832 0024 C0F20008 		movt	r8, #:upper16:vtlist
 833              		.loc 1 317 0
 834 0028 40F20003 		movw	r3, #:lower16:thread3LL
 835 002c 0027     		movs	r7, #0
 836 002e 4FF49871 		mov	r1, #304
 837 0032 053A     		subs	r2, r2, #5
 838 0034 C0F20003 		movt	r3, #:upper16:thread3LL
 839              		.loc 1 316 0
 840 0038 D8F80C80 		ldr	r8, [r8, #12]
 841              	.LVL17:
 842              		.loc 1 317 0
 843 003c 0097     		str	r7, [sp, #0]
 844 003e FFF7FEFF 		bl	chThdCreateStatic
 845              		.loc 1 318 0
 846 0042 B469     		ldr	r4, [r6, #24]
 847 0044 D5F804E0 		ldr	lr, [r5, #4]
 848 0048 A268     		ldr	r2, [r4, #8]
 849 004a 0097     		str	r7, [sp, #0]
 850              		.loc 1 317 0
 851 004c 40F20004 		movw	r4, #:lower16:threads
 852 0050 C0F20004 		movt	r4, #:upper16:threads
ARM GAS  /tmp/ccmpFAWD.s 			page 16


 853              		.loc 1 318 0
 854 0054 40F20003 		movw	r3, #:lower16:thread3L
 855              		.loc 1 317 0
 856 0058 2060     		str	r0, [r4, #0]
 857              		.loc 1 318 0
 858 005a 4FF49871 		mov	r1, #304
 859 005e 7046     		mov	r0, lr
 860 0060 043A     		subs	r2, r2, #4
 861 0062 C0F20003 		movt	r3, #:upper16:thread3L
 862 0066 FFF7FEFF 		bl	chThdCreateStatic
 863              		.loc 1 319 0
 864 006a B369     		ldr	r3, [r6, #24]
 865 006c D5F808C0 		ldr	ip, [r5, #8]
 866 0070 9A68     		ldr	r2, [r3, #8]
 867              		.loc 1 318 0
 868 0072 6060     		str	r0, [r4, #4]
 869              		.loc 1 319 0
 870 0074 40F20003 		movw	r3, #:lower16:thread3M
 871 0078 6046     		mov	r0, ip
 872 007a 4FF49871 		mov	r1, #304
 873 007e 033A     		subs	r2, r2, #3
 874 0080 C0F20003 		movt	r3, #:upper16:thread3M
 875 0084 0097     		str	r7, [sp, #0]
 876 0086 FFF7FEFF 		bl	chThdCreateStatic
 877              		.loc 1 320 0
 878 008a B169     		ldr	r1, [r6, #24]
 879 008c D5F80CE0 		ldr	lr, [r5, #12]
 880 0090 8A68     		ldr	r2, [r1, #8]
 881              		.loc 1 319 0
 882 0092 A060     		str	r0, [r4, #8]
 883              		.loc 1 320 0
 884 0094 40F20003 		movw	r3, #:lower16:thread3H
 885 0098 7046     		mov	r0, lr
 886 009a 4FF49871 		mov	r1, #304
 887 009e 023A     		subs	r2, r2, #2
 888 00a0 C0F20003 		movt	r3, #:upper16:thread3H
 889 00a4 0097     		str	r7, [sp, #0]
 890 00a6 FFF7FEFF 		bl	chThdCreateStatic
 891              		.loc 1 321 0
 892 00aa B369     		ldr	r3, [r6, #24]
 893 00ac 2D69     		ldr	r5, [r5, #16]
 894 00ae 9A68     		ldr	r2, [r3, #8]
 895              		.loc 1 320 0
 896 00b0 E060     		str	r0, [r4, #12]
 897              		.loc 1 321 0
 898 00b2 40F20003 		movw	r3, #:lower16:thread3HH
 899 00b6 4FF49871 		mov	r1, #304
 900 00ba 013A     		subs	r2, r2, #1
 901 00bc C0F20003 		movt	r3, #:upper16:thread3HH
 902 00c0 2846     		mov	r0, r5
 903 00c2 0097     		str	r7, [sp, #0]
 904 00c4 FFF7FEFF 		bl	chThdCreateStatic
 905 00c8 2061     		str	r0, [r4, #16]
 906              		.loc 1 322 0
 907 00ca FFF7FEFF 		bl	test_wait_threads
 908              		.loc 1 323 0
 909 00ce 40F20001 		movw	r1, #:lower16:.LC5
ARM GAS  /tmp/ccmpFAWD.s 			page 17


 910 00d2 0120     		movs	r0, #1
 911 00d4 C0F20001 		movt	r1, #:upper16:.LC5
 912 00d8 FFF7FEFF 		bl	_test_assert_sequence
 913 00dc 10B1     		cbz	r0, .L20
 914              		.loc 1 325 0
 915 00de 02B0     		add	sp, sp, #8
 916 00e0 BDE8F081 		pop	{r4, r5, r6, r7, r8, pc}
 917              	.L20:
 918              		.loc 1 324 0
 919 00e4 0220     		movs	r0, #2
 920 00e6 08F16E01 		add	r1, r8, #110
 921 00ea 08F17302 		add	r2, r8, #115
 922              		.loc 1 325 0
 923 00ee 02B0     		add	sp, sp, #8
 924 00f0 BDE8F041 		pop	{r4, r5, r6, r7, r8, lr}
 925              		.loc 1 324 0
 926 00f4 FFF7FEBF 		b	_test_assert_time_window
 927              		.cfi_endproc
 928              	.LFE14:
 929              		.size	mtx3_execute, .-mtx3_execute
 930 00f8 AFF30080 		.section	.text.mtx2_execute,"ax",%progbits
 930      AFF30080 
 931              		.align	2
 932              		.p2align 4,,15
 933              		.thumb
 934              		.thumb_func
 935              		.type	mtx2_execute, %function
 936              	mtx2_execute:
 937              	.LFB7:
 938              		.loc 1 194 0
 939              		.cfi_startproc
 940              		@ args = 0, pretend = 0, frame = 0
 941              		@ frame_needed = 0, uses_anonymous_args = 0
 942 0000 2DE9F041 		push	{r4, r5, r6, r7, r8, lr}
 943              	.LCFI11:
 944              		.cfi_def_cfa_offset 24
 945              		.cfi_offset 14, -4
 946              		.cfi_offset 8, -8
 947              		.cfi_offset 7, -12
 948              		.cfi_offset 6, -16
 949              		.cfi_offset 5, -20
 950              		.cfi_offset 4, -24
 951              		.loc 1 199 0
 952 0004 40F20006 		movw	r6, #:lower16:rlist
 953 0008 C0F20006 		movt	r6, #:upper16:rlist
 954              		.loc 1 194 0
 955 000c 82B0     		sub	sp, sp, #8
 956              	.LCFI12:
 957              		.cfi_def_cfa_offset 32
 958              		.loc 1 197 0
 959 000e FFF7FEFF 		bl	test_wait_tick
 960              		.loc 1 199 0
 961 0012 B769     		ldr	r7, [r6, #24]
 962 0014 40F20005 		movw	r5, #:lower16:wa
 963 0018 BA68     		ldr	r2, [r7, #8]
 964 001a C0F20005 		movt	r5, #:upper16:wa
 965              		.loc 1 198 0
ARM GAS  /tmp/ccmpFAWD.s 			page 18


 966 001e 40F20004 		movw	r4, #:lower16:vtlist
 967 0022 C0F20004 		movt	r4, #:upper16:vtlist
 968              		.loc 1 199 0
 969 0026 40F20003 		movw	r3, #:lower16:thread2H
 970 002a 0027     		movs	r7, #0
 971 002c 2868     		ldr	r0, [r5, #0]
 972              		.loc 1 198 0
 973 002e D4F80C80 		ldr	r8, [r4, #12]
 974              	.LVL18:
 975              		.loc 1 199 0
 976 0032 0097     		str	r7, [sp, #0]
 977 0034 4FF49871 		mov	r1, #304
 978 0038 013A     		subs	r2, r2, #1
 979 003a C0F20003 		movt	r3, #:upper16:thread2H
 980 003e FFF7FEFF 		bl	chThdCreateStatic
 981              		.loc 1 200 0
 982 0042 B169     		ldr	r1, [r6, #24]
 983 0044 D5F804E0 		ldr	lr, [r5, #4]
 984 0048 8A68     		ldr	r2, [r1, #8]
 985 004a 0097     		str	r7, [sp, #0]
 986              		.loc 1 199 0
 987 004c 40F20004 		movw	r4, #:lower16:threads
 988 0050 C0F20004 		movt	r4, #:upper16:threads
 989              		.loc 1 200 0
 990 0054 40F20003 		movw	r3, #:lower16:thread2M
 991              		.loc 1 199 0
 992 0058 2060     		str	r0, [r4, #0]
 993              		.loc 1 200 0
 994 005a 4FF49871 		mov	r1, #304
 995 005e 7046     		mov	r0, lr
 996 0060 023A     		subs	r2, r2, #2
 997 0062 C0F20003 		movt	r3, #:upper16:thread2M
 998 0066 FFF7FEFF 		bl	chThdCreateStatic
 999              		.loc 1 201 0
 1000 006a B369     		ldr	r3, [r6, #24]
 1001 006c AD68     		ldr	r5, [r5, #8]
 1002 006e 9A68     		ldr	r2, [r3, #8]
 1003              		.loc 1 200 0
 1004 0070 6060     		str	r0, [r4, #4]
 1005              		.loc 1 201 0
 1006 0072 40F20003 		movw	r3, #:lower16:thread2L
 1007 0076 4FF49871 		mov	r1, #304
 1008 007a 033A     		subs	r2, r2, #3
 1009 007c C0F20003 		movt	r3, #:upper16:thread2L
 1010 0080 2846     		mov	r0, r5
 1011 0082 0097     		str	r7, [sp, #0]
 1012 0084 FFF7FEFF 		bl	chThdCreateStatic
 1013 0088 A060     		str	r0, [r4, #8]
 1014              		.loc 1 202 0
 1015 008a FFF7FEFF 		bl	test_wait_threads
 1016              		.loc 1 203 0
 1017 008e 40F20001 		movw	r1, #:lower16:.LC6
 1018 0092 0120     		movs	r0, #1
 1019 0094 C0F20001 		movt	r1, #:upper16:.LC6
 1020 0098 FFF7FEFF 		bl	_test_assert_sequence
 1021 009c 10B1     		cbz	r0, .L23
 1022              		.loc 1 205 0
ARM GAS  /tmp/ccmpFAWD.s 			page 19


 1023 009e 02B0     		add	sp, sp, #8
 1024 00a0 BDE8F081 		pop	{r4, r5, r6, r7, r8, pc}
 1025              	.L23:
 1026              		.loc 1 204 0
 1027 00a4 0220     		movs	r0, #2
 1028 00a6 08F16401 		add	r1, r8, #100
 1029 00aa 08F16902 		add	r2, r8, #105
 1030              		.loc 1 205 0
 1031 00ae 02B0     		add	sp, sp, #8
 1032 00b0 BDE8F041 		pop	{r4, r5, r6, r7, r8, lr}
 1033              		.loc 1 204 0
 1034 00b4 FFF7FEBF 		b	_test_assert_time_window
 1035              		.cfi_endproc
 1036              	.LFE7:
 1037              		.size	mtx2_execute, .-mtx2_execute
 1038              		.section	.text.thread3HH,"ax",%progbits
 1039              		.align	2
 1040              		.p2align 4,,15
 1041              		.thumb
 1042              		.thumb_func
 1043              		.type	thread3HH, %function
 1044              	thread3HH:
 1045              	.LFB13:
 1046              		.loc 1 301 0
 1047              		.cfi_startproc
 1048              		@ args = 0, pretend = 0, frame = 0
 1049              		@ frame_needed = 0, uses_anonymous_args = 0
 1050              	.LVL19:
 1051 0000 08B5     		push	{r3, lr}
 1052              	.LCFI13:
 1053              		.cfi_def_cfa_offset 8
 1054              		.cfi_offset 14, -4
 1055              		.cfi_offset 3, -8
 1056              		.loc 1 304 0
 1057 0002 3220     		movs	r0, #50
 1058              	.LVL20:
 1059 0004 FFF7FEFF 		bl	chThdSleep
 1060              		.loc 1 305 0
 1061 0008 40F20000 		movw	r0, #:lower16:.LANCHOR1
 1062 000c C0F20000 		movt	r0, #:upper16:.LANCHOR1
 1063 0010 FFF7FEFF 		bl	chMtxLock
 1064              		.loc 1 306 0
 1065 0014 0A20     		movs	r0, #10
 1066 0016 FFF7FEFF 		bl	test_cpu_pulse
 1067              		.loc 1 307 0
 1068 001a FFF7FEFF 		bl	chMtxUnlock
 1069              		.loc 1 308 0
 1070 001e 4120     		movs	r0, #65
 1071 0020 FFF7FEFF 		bl	test_emit_token
 1072              		.loc 1 310 0
 1073 0024 0020     		movs	r0, #0
 1074 0026 08BD     		pop	{r3, pc}
 1075              		.cfi_endproc
 1076              	.LFE13:
 1077              		.size	thread3HH, .-thread3HH
 1078 0028 AFF30080 		.section	.text.thread3H,"ax",%progbits
 1078      AFF30080 
ARM GAS  /tmp/ccmpFAWD.s 			page 20


 1079              		.align	2
 1080              		.p2align 4,,15
 1081              		.thumb
 1082              		.thumb_func
 1083              		.type	thread3H, %function
 1084              	thread3H:
 1085              	.LFB12:
 1086              		.loc 1 291 0
 1087              		.cfi_startproc
 1088              		@ args = 0, pretend = 0, frame = 0
 1089              		@ frame_needed = 0, uses_anonymous_args = 0
 1090              	.LVL21:
 1091 0000 08B5     		push	{r3, lr}
 1092              	.LCFI14:
 1093              		.cfi_def_cfa_offset 8
 1094              		.cfi_offset 14, -4
 1095              		.cfi_offset 3, -8
 1096              		.loc 1 294 0
 1097 0002 2820     		movs	r0, #40
 1098              	.LVL22:
 1099 0004 FFF7FEFF 		bl	chThdSleep
 1100              		.loc 1 295 0
 1101 0008 1420     		movs	r0, #20
 1102 000a FFF7FEFF 		bl	test_cpu_pulse
 1103              		.loc 1 296 0
 1104 000e 4220     		movs	r0, #66
 1105 0010 FFF7FEFF 		bl	test_emit_token
 1106              		.loc 1 298 0
 1107 0014 0020     		movs	r0, #0
 1108 0016 08BD     		pop	{r3, pc}
 1109              		.cfi_endproc
 1110              	.LFE12:
 1111              		.size	thread3H, .-thread3H
 1112 0018 AFF30080 		.section	.text.thread3M,"ax",%progbits
 1112      AFF30080 
 1113              		.align	2
 1114              		.p2align 4,,15
 1115              		.thumb
 1116              		.thumb_func
 1117              		.type	thread3M, %function
 1118              	thread3M:
 1119              	.LFB11:
 1120              		.loc 1 279 0
 1121              		.cfi_startproc
 1122              		@ args = 0, pretend = 0, frame = 0
 1123              		@ frame_needed = 0, uses_anonymous_args = 0
 1124              	.LVL23:
 1125 0000 08B5     		push	{r3, lr}
 1126              	.LCFI15:
 1127              		.cfi_def_cfa_offset 8
 1128              		.cfi_offset 14, -4
 1129              		.cfi_offset 3, -8
 1130              		.loc 1 282 0
 1131 0002 1420     		movs	r0, #20
 1132              	.LVL24:
 1133 0004 FFF7FEFF 		bl	chThdSleep
 1134              		.loc 1 283 0
ARM GAS  /tmp/ccmpFAWD.s 			page 21


 1135 0008 40F20000 		movw	r0, #:lower16:.LANCHOR1
 1136 000c C0F20000 		movt	r0, #:upper16:.LANCHOR1
 1137 0010 FFF7FEFF 		bl	chMtxLock
 1138              		.loc 1 284 0
 1139 0014 0A20     		movs	r0, #10
 1140 0016 FFF7FEFF 		bl	test_cpu_pulse
 1141              		.loc 1 285 0
 1142 001a FFF7FEFF 		bl	chMtxUnlock
 1143              		.loc 1 286 0
 1144 001e 4320     		movs	r0, #67
 1145 0020 FFF7FEFF 		bl	test_emit_token
 1146              		.loc 1 288 0
 1147 0024 0020     		movs	r0, #0
 1148 0026 08BD     		pop	{r3, pc}
 1149              		.cfi_endproc
 1150              	.LFE11:
 1151              		.size	thread3M, .-thread3M
 1152 0028 AFF30080 		.section	.text.thread3L,"ax",%progbits
 1152      AFF30080 
 1153              		.align	2
 1154              		.p2align 4,,15
 1155              		.thumb
 1156              		.thumb_func
 1157              		.type	thread3L, %function
 1158              	thread3L:
 1159              	.LFB10:
 1160              		.loc 1 263 0
 1161              		.cfi_startproc
 1162              		@ args = 0, pretend = 0, frame = 0
 1163              		@ frame_needed = 0, uses_anonymous_args = 0
 1164              	.LVL25:
 1165 0000 08B5     		push	{r3, lr}
 1166              	.LCFI16:
 1167              		.cfi_def_cfa_offset 8
 1168              		.cfi_offset 14, -4
 1169              		.cfi_offset 3, -8
 1170              		.loc 1 266 0
 1171 0002 0A20     		movs	r0, #10
 1172              	.LVL26:
 1173 0004 FFF7FEFF 		bl	chThdSleep
 1174              		.loc 1 267 0
 1175 0008 40F20000 		movw	r0, #:lower16:.LANCHOR1
 1176 000c C0F20000 		movt	r0, #:upper16:.LANCHOR1
 1177 0010 FFF7FEFF 		bl	chMtxLock
 1178              		.loc 1 268 0
 1179 0014 1420     		movs	r0, #20
 1180 0016 FFF7FEFF 		bl	test_cpu_pulse
 1181              		.loc 1 269 0
 1182 001a 40F20000 		movw	r0, #:lower16:.LANCHOR0
 1183 001e C0F20000 		movt	r0, #:upper16:.LANCHOR0
 1184 0022 FFF7FEFF 		bl	chMtxLock
 1185              		.loc 1 270 0
 1186 0026 0A20     		movs	r0, #10
 1187 0028 FFF7FEFF 		bl	test_cpu_pulse
 1188              		.loc 1 271 0
 1189 002c FFF7FEFF 		bl	chMtxUnlock
 1190              		.loc 1 272 0
ARM GAS  /tmp/ccmpFAWD.s 			page 22


 1191 0030 0A20     		movs	r0, #10
 1192 0032 FFF7FEFF 		bl	test_cpu_pulse
 1193              		.loc 1 273 0
 1194 0036 FFF7FEFF 		bl	chMtxUnlock
 1195              		.loc 1 274 0
 1196 003a 4420     		movs	r0, #68
 1197 003c FFF7FEFF 		bl	test_emit_token
 1198              		.loc 1 276 0
 1199 0040 0020     		movs	r0, #0
 1200 0042 08BD     		pop	{r3, pc}
 1201              		.cfi_endproc
 1202              	.LFE10:
 1203              		.size	thread3L, .-thread3L
 1204 0044 AFF30080 		.section	.text.thread3LL,"ax",%progbits
 1204      AFF30080 
 1204      AFF30080 
 1205              		.align	2
 1206              		.p2align 4,,15
 1207              		.thumb
 1208              		.thumb_func
 1209              		.type	thread3LL, %function
 1210              	thread3LL:
 1211              	.LFB9:
 1212              		.loc 1 252 0
 1213              		.cfi_startproc
 1214              		@ args = 0, pretend = 0, frame = 0
 1215              		@ frame_needed = 0, uses_anonymous_args = 0
 1216              	.LVL27:
 1217              		.loc 1 255 0
 1218 0000 40F20000 		movw	r0, #:lower16:.LANCHOR0
 1219              	.LVL28:
 1220              		.loc 1 252 0
 1221 0004 08B5     		push	{r3, lr}
 1222              	.LCFI17:
 1223              		.cfi_def_cfa_offset 8
 1224              		.cfi_offset 14, -4
 1225              		.cfi_offset 3, -8
 1226              		.loc 1 255 0
 1227 0006 C0F20000 		movt	r0, #:upper16:.LANCHOR0
 1228 000a FFF7FEFF 		bl	chMtxLock
 1229              		.loc 1 256 0
 1230 000e 1E20     		movs	r0, #30
 1231 0010 FFF7FEFF 		bl	test_cpu_pulse
 1232              		.loc 1 257 0
 1233 0014 FFF7FEFF 		bl	chMtxUnlock
 1234              		.loc 1 258 0
 1235 0018 4520     		movs	r0, #69
 1236 001a FFF7FEFF 		bl	test_emit_token
 1237              		.loc 1 260 0
 1238 001e 0020     		movs	r0, #0
 1239 0020 08BD     		pop	{r3, pc}
 1240              		.cfi_endproc
 1241              	.LFE9:
 1242              		.size	thread3LL, .-thread3LL
 1243 0022 00BFAFF3 		.section	.text.thread2L,"ax",%progbits
 1243      0080AFF3 
 1243      0080AFF3 
ARM GAS  /tmp/ccmpFAWD.s 			page 23


 1243      0080
 1244              		.align	2
 1245              		.p2align 4,,15
 1246              		.thumb
 1247              		.thumb_func
 1248              		.type	thread2L, %function
 1249              	thread2L:
 1250              	.LFB4:
 1251              		.loc 1 161 0
 1252              		.cfi_startproc
 1253              		@ args = 0, pretend = 0, frame = 0
 1254              		@ frame_needed = 0, uses_anonymous_args = 0
 1255              	.LVL29:
 1256              		.loc 1 164 0
 1257 0000 40F20000 		movw	r0, #:lower16:.LANCHOR0
 1258              	.LVL30:
 1259              		.loc 1 161 0
 1260 0004 08B5     		push	{r3, lr}
 1261              	.LCFI18:
 1262              		.cfi_def_cfa_offset 8
 1263              		.cfi_offset 14, -4
 1264              		.cfi_offset 3, -8
 1265              		.loc 1 164 0
 1266 0006 C0F20000 		movt	r0, #:upper16:.LANCHOR0
 1267 000a FFF7FEFF 		bl	chMtxLock
 1268              		.loc 1 165 0
 1269 000e 2820     		movs	r0, #40
 1270 0010 FFF7FEFF 		bl	test_cpu_pulse
 1271              		.loc 1 166 0
 1272 0014 FFF7FEFF 		bl	chMtxUnlock
 1273              		.loc 1 167 0
 1274 0018 0A20     		movs	r0, #10
 1275 001a FFF7FEFF 		bl	test_cpu_pulse
 1276              		.loc 1 168 0
 1277 001e 4320     		movs	r0, #67
 1278 0020 FFF7FEFF 		bl	test_emit_token
 1279              		.loc 1 170 0
 1280 0024 0020     		movs	r0, #0
 1281 0026 08BD     		pop	{r3, pc}
 1282              		.cfi_endproc
 1283              	.LFE4:
 1284              		.size	thread2L, .-thread2L
 1285 0028 AFF30080 		.section	.text.thread2M,"ax",%progbits
 1285      AFF30080 
 1286              		.align	2
 1287              		.p2align 4,,15
 1288              		.thumb
 1289              		.thumb_func
 1290              		.type	thread2M, %function
 1291              	thread2M:
 1292              	.LFB5:
 1293              		.loc 1 173 0
 1294              		.cfi_startproc
 1295              		@ args = 0, pretend = 0, frame = 0
 1296              		@ frame_needed = 0, uses_anonymous_args = 0
 1297              	.LVL31:
 1298 0000 08B5     		push	{r3, lr}
ARM GAS  /tmp/ccmpFAWD.s 			page 24


 1299              	.LCFI19:
 1300              		.cfi_def_cfa_offset 8
 1301              		.cfi_offset 14, -4
 1302              		.cfi_offset 3, -8
 1303              		.loc 1 176 0
 1304 0002 1420     		movs	r0, #20
 1305              	.LVL32:
 1306 0004 FFF7FEFF 		bl	chThdSleep
 1307              		.loc 1 177 0
 1308 0008 2820     		movs	r0, #40
 1309 000a FFF7FEFF 		bl	test_cpu_pulse
 1310              		.loc 1 178 0
 1311 000e 4220     		movs	r0, #66
 1312 0010 FFF7FEFF 		bl	test_emit_token
 1313              		.loc 1 180 0
 1314 0014 0020     		movs	r0, #0
 1315 0016 08BD     		pop	{r3, pc}
 1316              		.cfi_endproc
 1317              	.LFE5:
 1318              		.size	thread2M, .-thread2M
 1319 0018 AFF30080 		.section	.text.thread2H,"ax",%progbits
 1319      AFF30080 
 1320              		.align	2
 1321              		.p2align 4,,15
 1322              		.thumb
 1323              		.thumb_func
 1324              		.type	thread2H, %function
 1325              	thread2H:
 1326              	.LFB6:
 1327              		.loc 1 183 0
 1328              		.cfi_startproc
 1329              		@ args = 0, pretend = 0, frame = 0
 1330              		@ frame_needed = 0, uses_anonymous_args = 0
 1331              	.LVL33:
 1332 0000 08B5     		push	{r3, lr}
 1333              	.LCFI20:
 1334              		.cfi_def_cfa_offset 8
 1335              		.cfi_offset 14, -4
 1336              		.cfi_offset 3, -8
 1337              		.loc 1 186 0
 1338 0002 2820     		movs	r0, #40
 1339              	.LVL34:
 1340 0004 FFF7FEFF 		bl	chThdSleep
 1341              		.loc 1 187 0
 1342 0008 40F20000 		movw	r0, #:lower16:.LANCHOR0
 1343 000c C0F20000 		movt	r0, #:upper16:.LANCHOR0
 1344 0010 FFF7FEFF 		bl	chMtxLock
 1345              		.loc 1 188 0
 1346 0014 0A20     		movs	r0, #10
 1347 0016 FFF7FEFF 		bl	test_cpu_pulse
 1348              		.loc 1 189 0
 1349 001a FFF7FEFF 		bl	chMtxUnlock
 1350              		.loc 1 190 0
 1351 001e 4120     		movs	r0, #65
 1352 0020 FFF7FEFF 		bl	test_emit_token
 1353              		.loc 1 192 0
 1354 0024 0020     		movs	r0, #0
ARM GAS  /tmp/ccmpFAWD.s 			page 25


 1355 0026 08BD     		pop	{r3, pc}
 1356              		.cfi_endproc
 1357              	.LFE6:
 1358              		.size	thread2H, .-thread2H
 1359 0028 AFF30080 		.section	.text.thread1,"ax",%progbits
 1359      AFF30080 
 1360              		.align	2
 1361              		.p2align 4,,15
 1362              		.thumb
 1363              		.thumb_func
 1364              		.type	thread1, %function
 1365              	thread1:
 1366              	.LFB1:
 1367              		.loc 1 93 0
 1368              		.cfi_startproc
 1369              		@ args = 0, pretend = 0, frame = 0
 1370              		@ frame_needed = 0, uses_anonymous_args = 0
 1371              	.LVL35:
 1372 0000 10B5     		push	{r4, lr}
 1373              	.LCFI21:
 1374              		.cfi_def_cfa_offset 8
 1375              		.cfi_offset 14, -4
 1376              		.cfi_offset 4, -8
 1377              		.loc 1 93 0
 1378 0002 0446     		mov	r4, r0
 1379              		.loc 1 95 0
 1380 0004 40F20000 		movw	r0, #:lower16:.LANCHOR0
 1381              	.LVL36:
 1382 0008 C0F20000 		movt	r0, #:upper16:.LANCHOR0
 1383 000c FFF7FEFF 		bl	chMtxLock
 1384              		.loc 1 96 0
 1385 0010 2078     		ldrb	r0, [r4, #0]	@ zero_extendqisi2
 1386 0012 FFF7FEFF 		bl	test_emit_token
 1387              		.loc 1 97 0
 1388 0016 FFF7FEFF 		bl	chMtxUnlock
 1389              		.loc 1 99 0
 1390 001a 0020     		movs	r0, #0
 1391 001c 10BD     		pop	{r4, pc}
 1392              		.cfi_endproc
 1393              	.LFE1:
 1394              		.size	thread1, .-thread1
 1395              		.global	patternmtx
 1396              		.global	testmtx5
 1397              		.global	testmtx4
 1398              		.global	testmtx3
 1399              		.global	testmtx2
 1400              		.global	testmtx1
 1401 001e 00BF     		.section	.rodata.testmtx5,"a",%progbits
 1402              		.align	2
 1403              		.type	testmtx5, %object
 1404              		.size	testmtx5, 16
 1405              	testmtx5:
 1406 0000 20000000 		.word	.LC7
 1407 0004 00000000 		.word	mtx5_setup
 1408 0008 00000000 		.word	0
 1409 000c 00000000 		.word	mtx5_execute
 1410              		.section	.data.m1,"aw",%progbits
ARM GAS  /tmp/ccmpFAWD.s 			page 26


 1411              		.align	2
 1412              		.set	.LANCHOR0,. + 0
 1413              		.type	m1, %object
 1414              		.size	m1, 16
 1415              	m1:
 1416 0000 00000000 		.word	m1
 1417 0004 00000000 		.word	m1
 1418 0008 00000000 		.word	0
 1419 000c 00000000 		.word	0
 1420              		.section	.data.m2,"aw",%progbits
 1421              		.align	2
 1422              		.set	.LANCHOR1,. + 0
 1423              		.type	m2, %object
 1424              		.size	m2, 16
 1425              	m2:
 1426 0000 00000000 		.word	m2
 1427 0004 00000000 		.word	m2
 1428 0008 00000000 		.word	0
 1429 000c 00000000 		.word	0
 1430              		.section	.rodata.str1.4,"aMS",%progbits,1
 1431              		.align	2
 1432              	.LC0:
 1433 0000 4200     		.ascii	"B\000"
 1434 0002 0000     		.space	2
 1435              	.LC1:
 1436 0004 4100     		.ascii	"A\000"
 1437 0006 0000     		.space	2
 1438              	.LC2:
 1439 0008 4400     		.ascii	"D\000"
 1440 000a 0000     		.space	2
 1441              	.LC3:
 1442 000c 4300     		.ascii	"C\000"
 1443 000e 0000     		.space	2
 1444              	.LC4:
 1445 0010 4500     		.ascii	"E\000"
 1446 0012 0000     		.space	2
 1447              	.LC5:
 1448 0014 41424344 		.ascii	"ABCDE\000"
 1448      4500
 1449 001a 0000     		.space	2
 1450              	.LC6:
 1451 001c 41424300 		.ascii	"ABC\000"
 1452              	.LC7:
 1453 0020 4D757465 		.ascii	"Mutexes, status\000"
 1453      7865732C 
 1453      20737461 
 1453      74757300 
 1454              	.LC8:
 1455 0030 4D757465 		.ascii	"Mutexes, priority return\000"
 1455      7865732C 
 1455      20707269 
 1455      6F726974 
 1455      79207265 
 1456 0049 000000   		.space	3
 1457              	.LC9:
 1458 004c 4D757465 		.ascii	"Mutexes, priority inheritance, complex case\000"
 1458      7865732C 
ARM GAS  /tmp/ccmpFAWD.s 			page 27


 1458      20707269 
 1458      6F726974 
 1458      7920696E 
 1459              	.LC10:
 1460 0078 4D757465 		.ascii	"Mutexes, priority inheritance, simple case\000"
 1460      7865732C 
 1460      20707269 
 1460      6F726974 
 1460      7920696E 
 1461 00a3 00       		.space	1
 1462              	.LC11:
 1463 00a4 4D757465 		.ascii	"Mutexes, priority enqueuing test\000"
 1463      7865732C 
 1463      20707269 
 1463      6F726974 
 1463      7920656E 
 1464 00c5 000000   		.section	.rodata.patternmtx,"a",%progbits
 1465              		.align	2
 1466              		.type	patternmtx, %object
 1467              		.size	patternmtx, 24
 1468              	patternmtx:
 1469 0000 00000000 		.word	testmtx1
 1470 0004 00000000 		.word	testmtx2
 1471 0008 00000000 		.word	testmtx3
 1472 000c 00000000 		.word	testmtx4
 1473 0010 00000000 		.word	testmtx5
 1474 0014 00000000 		.word	0
 1475              		.section	.rodata.testmtx1,"a",%progbits
 1476              		.align	2
 1477              		.type	testmtx1, %object
 1478              		.size	testmtx1, 16
 1479              	testmtx1:
 1480 0000 A4000000 		.word	.LC11
 1481 0004 00000000 		.word	mtx1_setup
 1482 0008 00000000 		.word	0
 1483 000c 00000000 		.word	mtx1_execute
 1484              		.section	.rodata.testmtx2,"a",%progbits
 1485              		.align	2
 1486              		.type	testmtx2, %object
 1487              		.size	testmtx2, 16
 1488              	testmtx2:
 1489 0000 78000000 		.word	.LC10
 1490 0004 00000000 		.word	mtx2_setup
 1491 0008 00000000 		.word	0
 1492 000c 00000000 		.word	mtx2_execute
 1493              		.section	.rodata.testmtx3,"a",%progbits
 1494              		.align	2
 1495              		.type	testmtx3, %object
 1496              		.size	testmtx3, 16
 1497              	testmtx3:
 1498 0000 4C000000 		.word	.LC9
 1499 0004 00000000 		.word	mtx3_setup
 1500 0008 00000000 		.word	0
 1501 000c 00000000 		.word	mtx3_execute
 1502              		.section	.rodata.testmtx4,"a",%progbits
 1503              		.align	2
 1504              		.type	testmtx4, %object
ARM GAS  /tmp/ccmpFAWD.s 			page 28


 1505              		.size	testmtx4, 16
 1506              	testmtx4:
 1507 0000 30000000 		.word	.LC8
 1508 0004 00000000 		.word	mtx4_setup
 1509 0008 00000000 		.word	0
 1510 000c 00000000 		.word	mtx4_execute
 1511              		.text
 1512              	.Letext0:
 1513              		.file 2 "/home/prana/CodeSourcery/ARM_EABI/bin/../lib/gcc/arm-none-eabi/4.6.3/../../../../arm-none
 1514              		.file 3 "../../../os/ports/GCC/ARMCMx/chtypes.h"
 1515              		.file 4 "../../../os/kernel/include/chlists.h"
 1516              		.file 5 "../../../os/kernel/include/chthreads.h"
 1517              		.file 6 "../../../os/ports/GCC/ARMCMx/chcore_v7m.h"
 1518              		.file 7 "../../../os/kernel/include/chvt.h"
 1519              		.file 8 "../../../os/kernel/include/chschd.h"
 1520              		.file 9 "../../../os/kernel/include/chmtx.h"
 1521              		.file 10 "../../../test/test.h"