ARM GAS  /tmp/cc0gFAsE.s 			page 1


   1              		.syntax unified
   2              		.cpu cortex-m4
   3              		.fpu softvfp
   4              		.eabi_attribute 20, 1
   5              		.eabi_attribute 21, 1
   6              		.eabi_attribute 23, 3
   7              		.eabi_attribute 24, 1
   8              		.eabi_attribute 25, 1
   9              		.eabi_attribute 26, 1
  10              		.eabi_attribute 30, 2
  11              		.eabi_attribute 34, 1
  12              		.eabi_attribute 18, 4
  13              		.thumb
  14              		.file	"testevt.c"
  15              		.text
  16              	.Ltext0:
  17              		.cfi_sections	.debug_frame
  18              		.section	.text.evt2_setup,"ax",%progbits
  19              		.align	2
  20              		.p2align 4,,15
  21              		.thumb
  22              		.thumb_func
  23              		.type	evt2_setup, %function
  24              	evt2_setup:
  25              	.LFB5:
  26              		.file 1 "../../../test/testevt.c"
  27              		.loc 1 132 0
  28              		.cfi_startproc
  29              		@ args = 0, pretend = 0, frame = 0
  30              		@ frame_needed = 0, uses_anonymous_args = 0
  31              		@ link register save eliminated.
  32              		.loc 1 134 0
  33 0000 4FF0FF30 		mov	r0, #-1
  34              		.loc 1 135 0
  35              		.loc 1 134 0
  36 0004 FFF7FEBF 		b	chEvtGetAndClearEvents
  37              		.cfi_endproc
  38              	.LFE5:
  39              		.size	evt2_setup, .-evt2_setup
  40 0008 AFF30080 		.section	.text.evt1_setup,"ax",%progbits
  40      AFF30080 
  41              		.align	2
  42              		.p2align 4,,15
  43              		.thumb
  44              		.thumb_func
  45              		.type	evt1_setup, %function
  46              	evt1_setup:
  47              	.LFB0:
  48              		.loc 1 79 0
  49              		.cfi_startproc
  50              		@ args = 0, pretend = 0, frame = 0
  51              		@ frame_needed = 0, uses_anonymous_args = 0
  52              		@ link register save eliminated.
  53              		.loc 1 81 0
  54 0000 4FF0FF30 		mov	r0, #-1
  55              		.loc 1 82 0
  56              		.loc 1 81 0
ARM GAS  /tmp/cc0gFAsE.s 			page 2


  57 0004 FFF7FEBF 		b	chEvtGetAndClearEvents
  58              		.cfi_endproc
  59              	.LFE0:
  60              		.size	evt1_setup, .-evt1_setup
  61 0008 AFF30080 		.section	.text.thread2,"ax",%progbits
  61      AFF30080 
  62              		.align	2
  63              		.p2align 4,,15
  64              		.thumb
  65              		.thumb_func
  66              		.type	thread2, %function
  67              	thread2:
  68              	.LFB7:
  69              		.loc 1 144 0
  70              		.cfi_startproc
  71              		@ args = 0, pretend = 0, frame = 0
  72              		@ frame_needed = 0, uses_anonymous_args = 0
  73              	.LVL0:
  74              		.loc 1 147 0
  75 0000 40F20000 		movw	r0, #:lower16:.LANCHOR0
  76              	.LVL1:
  77              		.loc 1 144 0
  78 0004 08B5     		push	{r3, lr}
  79              	.LCFI0:
  80              		.cfi_def_cfa_offset 8
  81              		.cfi_offset 14, -4
  82              		.cfi_offset 3, -8
  83              		.loc 1 147 0
  84 0006 0021     		movs	r1, #0
  85 0008 C0F20000 		movt	r0, #:upper16:.LANCHOR0
  86 000c FFF7FEFF 		bl	chEvtBroadcastFlags
  87              		.loc 1 148 0
  88 0010 3220     		movs	r0, #50
  89 0012 FFF7FEFF 		bl	chThdSleep
  90              		.loc 1 149 0
  91 0016 40F20000 		movw	r0, #:lower16:.LANCHOR1
  92 001a C0F20000 		movt	r0, #:upper16:.LANCHOR1
  93 001e 0021     		movs	r1, #0
  94 0020 FFF7FEFF 		bl	chEvtBroadcastFlags
  95              		.loc 1 151 0
  96 0024 0020     		movs	r0, #0
  97 0026 08BD     		pop	{r3, pc}
  98              		.cfi_endproc
  99              	.LFE7:
 100              		.size	thread2, .-thread2
 101 0028 AFF30080 		.section	.text.thread1,"ax",%progbits
 101      AFF30080 
 102              		.align	2
 103              		.p2align 4,,15
 104              		.thumb
 105              		.thumb_func
 106              		.type	thread1, %function
 107              	thread1:
 108              	.LFB6:
 109              		.loc 1 137 0
 110              		.cfi_startproc
 111              		@ args = 0, pretend = 0, frame = 0
ARM GAS  /tmp/cc0gFAsE.s 			page 3


 112              		@ frame_needed = 0, uses_anonymous_args = 0
 113              	.LVL2:
 114 0000 10B5     		push	{r4, lr}
 115              	.LCFI1:
 116              		.cfi_def_cfa_offset 8
 117              		.cfi_offset 14, -4
 118              		.cfi_offset 4, -8
 119              		.loc 1 137 0
 120 0002 0446     		mov	r4, r0
 121              		.loc 1 139 0
 122 0004 3220     		movs	r0, #50
 123              	.LVL3:
 124 0006 FFF7FEFF 		bl	chThdSleep
 125              		.loc 1 140 0
 126 000a 2046     		mov	r0, r4
 127 000c 0121     		movs	r1, #1
 128 000e FFF7FEFF 		bl	chEvtSignal
 129              		.loc 1 142 0
 130 0012 0020     		movs	r0, #0
 131 0014 10BD     		pop	{r4, pc}
 132              		.cfi_endproc
 133              	.LFE6:
 134              		.size	thread1, .-thread1
 135 0016 00BFAFF3 		.section	.text.evt1_execute,"ax",%progbits
 135      0080AFF3 
 135      0080
 136              		.align	2
 137              		.p2align 4,,15
 138              		.thumb
 139              		.thumb_func
 140              		.type	evt1_execute, %function
 141              	evt1_execute:
 142              	.LFB4:
 143              		.loc 1 89 0
 144              		.cfi_startproc
 145              		@ args = 0, pretend = 0, frame = 32
 146              		@ frame_needed = 0, uses_anonymous_args = 0
 147 0000 10B5     		push	{r4, lr}
 148              	.LCFI2:
 149              		.cfi_def_cfa_offset 8
 150              		.cfi_offset 14, -4
 151              		.cfi_offset 4, -8
 152              		.loc 1 95 0
 153 0002 40F20004 		movw	r4, #:lower16:.LANCHOR0
 154              		.loc 1 89 0
 155 0006 88B0     		sub	sp, sp, #32
 156              	.LCFI3:
 157              		.cfi_def_cfa_offset 40
 158              		.loc 1 95 0
 159 0008 C0F20004 		movt	r4, #:upper16:.LANCHOR0
 160              		.loc 1 96 0
 161 000c 0122     		movs	r2, #1
 162 000e 2046     		mov	r0, r4
 163 0010 6946     		mov	r1, sp
 164              		.loc 1 95 0
 165 0012 2460     		str	r4, [r4, #0]
 166              		.loc 1 96 0
ARM GAS  /tmp/cc0gFAsE.s 			page 4


 167 0014 FFF7FEFF 		bl	chEvtRegisterMask
 168              		.loc 1 97 0
 169 0018 2046     		mov	r0, r4
 170 001a 04A9     		add	r1, sp, #16
 171 001c 0222     		movs	r2, #2
 172 001e FFF7FEFF 		bl	chEvtRegisterMask
 173              		.loc 1 98 0
 174 0022 2168     		ldr	r1, [r4, #0]
 175 0024 0120     		movs	r0, #1
 176 0026 091B     		subs	r1, r1, r4
 177 0028 18BF     		it	ne
 178 002a 0121     		movne	r1, #1
 179 002c FFF7FEFF 		bl	_test_assert
 180 0030 08B1     		cbz	r0, .L8
 181              	.L5:
 182              		.loc 1 109 0
 183 0032 08B0     		add	sp, sp, #32
 184 0034 10BD     		pop	{r4, pc}
 185              	.L8:
 186              		.loc 1 99 0
 187 0036 2046     		mov	r0, r4
 188 0038 6946     		mov	r1, sp
 189 003a FFF7FEFF 		bl	chEvtUnregister
 190              		.loc 1 100 0
 191 003e 2268     		ldr	r2, [r4, #0]
 192 0040 0220     		movs	r0, #2
 193 0042 111B     		subs	r1, r2, r4
 194 0044 18BF     		it	ne
 195 0046 0121     		movne	r1, #1
 196 0048 FFF7FEFF 		bl	_test_assert
 197 004c 0028     		cmp	r0, #0
 198 004e F0D1     		bne	.L5
 199              		.loc 1 101 0
 200 0050 2046     		mov	r0, r4
 201 0052 04A9     		add	r1, sp, #16
 202 0054 FFF7FEFF 		bl	chEvtUnregister
 203              		.loc 1 102 0
 204 0058 2168     		ldr	r1, [r4, #0]
 205 005a 0B1B     		subs	r3, r1, r4
 206 005c 0320     		movs	r0, #3
 207 005e D3F1000C 		rsbs	ip, r3, #0
 208 0062 4CEB0301 		adc	r1, ip, r3
 209 0066 FFF7FEFF 		bl	_test_assert
 210 006a 0028     		cmp	r0, #0
 211 006c E1D1     		bne	.L5
 212              		.loc 1 107 0
 213 006e 40F20000 		movw	r0, #:lower16:.LANCHOR2
 214 0072 0721     		movs	r1, #7
 215 0074 C0F20000 		movt	r0, #:upper16:.LANCHOR2
 216 0078 FFF7FEFF 		bl	chEvtDispatch
 217              		.loc 1 108 0
 218 007c 40F20001 		movw	r1, #:lower16:.LC0
 219 0080 0420     		movs	r0, #4
 220 0082 C0F20001 		movt	r1, #:upper16:.LC0
 221 0086 FFF7FEFF 		bl	_test_assert_sequence
 222 008a D2E7     		b	.L5
 223              		.cfi_endproc
ARM GAS  /tmp/cc0gFAsE.s 			page 5


 224              	.LFE4:
 225              		.size	evt1_execute, .-evt1_execute
 226 008c AFF30080 		.section	.text.h3,"ax",%progbits
 227              		.align	2
 228              		.p2align 4,,15
 229              		.thumb
 230              		.thumb_func
 231              		.type	h3, %function
 232              	h3:
 233              	.LFB3:
 234              		.loc 1 86 0
 235              		.cfi_startproc
 236              		@ args = 0, pretend = 0, frame = 0
 237              		@ frame_needed = 0, uses_anonymous_args = 0
 238              		@ link register save eliminated.
 239              	.LVL4:
 240              		.loc 1 86 0
 241 0000 4320     		movs	r0, #67
 242              	.LVL5:
 243 0002 FFF7FEBF 		b	test_emit_token
 244              		.cfi_endproc
 245              	.LFE3:
 246              		.size	h3, .-h3
 247 0006 00BFAFF3 		.section	.text.h2,"ax",%progbits
 247      0080AFF3 
 247      0080
 248              		.align	2
 249              		.p2align 4,,15
 250              		.thumb
 251              		.thumb_func
 252              		.type	h2, %function
 253              	h2:
 254              	.LFB2:
 255              		.loc 1 85 0
 256              		.cfi_startproc
 257              		@ args = 0, pretend = 0, frame = 0
 258              		@ frame_needed = 0, uses_anonymous_args = 0
 259              		@ link register save eliminated.
 260              	.LVL6:
 261              		.loc 1 85 0
 262 0000 4220     		movs	r0, #66
 263              	.LVL7:
 264 0002 FFF7FEBF 		b	test_emit_token
 265              		.cfi_endproc
 266              	.LFE2:
 267              		.size	h2, .-h2
 268 0006 00BFAFF3 		.section	.text.h1,"ax",%progbits
 268      0080AFF3 
 268      0080
 269              		.align	2
 270              		.p2align 4,,15
 271              		.thumb
 272              		.thumb_func
 273              		.type	h1, %function
 274              	h1:
 275              	.LFB1:
 276              		.loc 1 84 0
ARM GAS  /tmp/cc0gFAsE.s 			page 6


 277              		.cfi_startproc
 278              		@ args = 0, pretend = 0, frame = 0
 279              		@ frame_needed = 0, uses_anonymous_args = 0
 280              		@ link register save eliminated.
 281              	.LVL8:
 282              		.loc 1 84 0
 283 0000 4120     		movs	r0, #65
 284              	.LVL9:
 285 0002 FFF7FEBF 		b	test_emit_token
 286              		.cfi_endproc
 287              	.LFE1:
 288              		.size	h1, .-h1
 289 0006 00BFAFF3 		.section	.text.evt2_execute,"ax",%progbits
 289      0080AFF3 
 289      0080
 290              		.align	2
 291              		.p2align 4,,15
 292              		.thumb
 293              		.thumb_func
 294              		.type	evt2_execute, %function
 295              	evt2_execute:
 296              	.LFB8:
 297              		.loc 1 153 0
 298              		.cfi_startproc
 299              		@ args = 0, pretend = 0, frame = 32
 300              		@ frame_needed = 0, uses_anonymous_args = 0
 301 0000 2DE9F043 		push	{r4, r5, r6, r7, r8, r9, lr}
 302              	.LCFI4:
 303              		.cfi_def_cfa_offset 28
 304              		.cfi_offset 14, -4
 305              		.cfi_offset 9, -8
 306              		.cfi_offset 8, -12
 307              		.cfi_offset 7, -16
 308              		.cfi_offset 6, -20
 309              		.cfi_offset 5, -24
 310              		.cfi_offset 4, -28
 311              		.loc 1 161 0
 312 0004 0520     		movs	r0, #5
 313              		.loc 1 153 0
 314 0006 8BB0     		sub	sp, sp, #44
 315              	.LCFI5:
 316              		.cfi_def_cfa_offset 72
 317              		.loc 1 161 0
 318 0008 FFF7FEFF 		bl	chEvtAddEvents
 319              		.loc 1 162 0
 320 000c 4FF0FF30 		mov	r0, #-1
 321 0010 FFF7FEFF 		bl	chEvtWaitOne
 322              	.LVL10:
 323              		.loc 1 163 0
 324 0014 A0F10100 		sub	r0, r0, #1
 325              	.LVL11:
 326 0018 4142     		rsbs	r1, r0, #0
 327 001a 41EB0001 		adc	r1, r1, r0
 328 001e 0120     		movs	r0, #1
 329              	.LVL12:
 330 0020 FFF7FEFF 		bl	_test_assert
 331 0024 10B1     		cbz	r0, .L14
ARM GAS  /tmp/cc0gFAsE.s 			page 7


 332              	.L12:
 333              		.loc 1 226 0
 334 0026 0BB0     		add	sp, sp, #44
 335 0028 BDE8F083 		pop	{r4, r5, r6, r7, r8, r9, pc}
 336              	.L14:
 337              		.loc 1 164 0
 338 002c 4FF0FF30 		mov	r0, #-1
 339 0030 FFF7FEFF 		bl	chEvtWaitOne
 340              	.LVL13:
 341              		.loc 1 165 0
 342 0034 A0F10403 		sub	r3, r0, #4
 343 0038 5A42     		rsbs	r2, r3, #0
 344 003a 42EB0301 		adc	r1, r2, r3
 345 003e 0220     		movs	r0, #2
 346              	.LVL14:
 347 0040 FFF7FEFF 		bl	_test_assert
 348              	.LVL15:
 349 0044 0028     		cmp	r0, #0
 350 0046 EED1     		bne	.L12
 351              		.loc 1 166 0
 352 0048 4FF0FF30 		mov	r0, #-1
 353 004c FFF7FEFF 		bl	chEvtGetAndClearEvents
 354              	.LVL16:
 355              		.loc 1 167 0
 356 0050 D0F10101 		rsbs	r1, r0, #1
 357 0054 38BF     		it	cc
 358 0056 0021     		movcc	r1, #0
 359 0058 0320     		movs	r0, #3
 360              	.LVL17:
 361 005a FFF7FEFF 		bl	_test_assert
 362 005e 0028     		cmp	r0, #0
 363 0060 E1D1     		bne	.L12
 364              	.LBB4:
 365              	.LBB5:
 366              		.loc 1 174 0
 367 0062 40F20006 		movw	r6, #:lower16:rlist
 368 0066 C0F20006 		movt	r6, #:upper16:rlist
 369 006a 40F20007 		movw	r7, #:lower16:wa
 370              		.loc 1 172 0
 371 006e FFF7FEFF 		bl	test_wait_tick
 372              		.loc 1 174 0
 373 0072 C0F20007 		movt	r7, #:upper16:wa
 374 0076 B569     		ldr	r5, [r6, #24]
 375 0078 D7F80080 		ldr	r8, [r7, #0]
 376 007c AC68     		ldr	r4, [r5, #8]
 377 007e 0095     		str	r5, [sp, #0]
 378              		.loc 1 173 0
 379 0080 40F20005 		movw	r5, #:lower16:vtlist
 380 0084 C0F20005 		movt	r5, #:upper16:vtlist
 381              		.loc 1 174 0
 382 0088 40F20003 		movw	r3, #:lower16:thread1
 383 008c 621E     		subs	r2, r4, #1
 384 008e 4FF49871 		mov	r1, #304
 385 0092 C0F20003 		movt	r3, #:upper16:thread1
 386 0096 4046     		mov	r0, r8
 387              		.loc 1 173 0
 388 0098 EF68     		ldr	r7, [r5, #12]
ARM GAS  /tmp/cc0gFAsE.s 			page 8


 389              	.LVL18:
 390              		.loc 1 174 0
 391 009a 40F20004 		movw	r4, #:lower16:threads
 392 009e FFF7FEFF 		bl	chThdCreateStatic
 393 00a2 C0F20004 		movt	r4, #:upper16:threads
 394 00a6 2060     		str	r0, [r4, #0]
 395              		.loc 1 176 0
 396 00a8 4FF0FF30 		mov	r0, #-1
 397 00ac FFF7FEFF 		bl	chEvtWaitOne
 398              		.loc 1 177 0
 399 00b0 07F13201 		add	r1, r7, #50
 400              		.loc 1 176 0
 401 00b4 8146     		mov	r9, r0
 402              	.LVL19:
 403              		.loc 1 177 0
 404 00b6 07F13702 		add	r2, r7, #55
 405 00ba 0420     		movs	r0, #4
 406              	.LVL20:
 407 00bc FFF7FEFF 		bl	_test_assert_time_window
 408 00c0 0028     		cmp	r0, #0
 409 00c2 B0D1     		bne	.L12
 410              		.loc 1 178 0
 411 00c4 A9F10101 		sub	r1, r9, #1
 412 00c8 0520     		movs	r0, #5
 413 00ca D1F1000C 		rsbs	ip, r1, #0
 414 00ce 4CEB0101 		adc	r1, ip, r1
 415 00d2 FFF7FEFF 		bl	_test_assert
 416 00d6 0028     		cmp	r0, #0
 417 00d8 A5D1     		bne	.L12
 418              		.loc 1 179 0
 419 00da 4FF0FF30 		mov	r0, #-1
 420 00de FFF7FEFF 		bl	chEvtGetAndClearEvents
 421              	.LVL21:
 422              		.loc 1 180 0
 423 00e2 D0F10101 		rsbs	r1, r0, #1
 424 00e6 38BF     		it	cc
 425 00e8 0021     		movcc	r1, #0
 426 00ea 0620     		movs	r0, #6
 427              	.LVL22:
 428 00ec FFF7FEFF 		bl	_test_assert
 429 00f0 0028     		cmp	r0, #0
 430 00f2 98D1     		bne	.L12
 431              		.loc 1 181 0
 432 00f4 FFF7FEFF 		bl	test_wait_threads
 433              		.loc 1 186 0
 434 00f8 0520     		movs	r0, #5
 435 00fa FFF7FEFF 		bl	chEvtAddEvents
 436              		.loc 1 187 0
 437 00fe 4FF0FF30 		mov	r0, #-1
 438 0102 FFF7FEFF 		bl	chEvtWaitAny
 439              	.LVL23:
 440              		.loc 1 188 0
 441 0106 A0F10502 		sub	r2, r0, #5
 442 010a 5042     		rsbs	r0, r2, #0
 443              	.LVL24:
 444 010c 40EB0201 		adc	r1, r0, r2
 445 0110 0720     		movs	r0, #7
ARM GAS  /tmp/cc0gFAsE.s 			page 9


 446 0112 FFF7FEFF 		bl	_test_assert
 447              	.LVL25:
 448 0116 0028     		cmp	r0, #0
 449 0118 85D1     		bne	.L12
 450              		.loc 1 189 0
 451 011a 4FF0FF30 		mov	r0, #-1
 452 011e FFF7FEFF 		bl	chEvtGetAndClearEvents
 453              	.LVL26:
 454              		.loc 1 190 0
 455 0122 D0F10101 		rsbs	r1, r0, #1
 456 0126 38BF     		it	cc
 457 0128 0021     		movcc	r1, #0
 458 012a 0820     		movs	r0, #8
 459              	.LVL27:
 460 012c FFF7FEFF 		bl	_test_assert
 461 0130 0028     		cmp	r0, #0
 462 0132 7FF478AF 		bne	.L12
 463              		.loc 1 195 0
 464 0136 FFF7FEFF 		bl	test_wait_tick
 465              		.loc 1 197 0
 466 013a B369     		ldr	r3, [r6, #24]
 467              		.loc 1 196 0
 468 013c EF68     		ldr	r7, [r5, #12]
 469              	.LVL28:
 470              		.loc 1 197 0
 471 013e 9868     		ldr	r0, [r3, #8]
 472 0140 0093     		str	r3, [sp, #0]
 473 0142 40F20003 		movw	r3, #:lower16:thread1
 474 0146 421E     		subs	r2, r0, #1
 475 0148 4FF49871 		mov	r1, #304
 476 014c C0F20003 		movt	r3, #:upper16:thread1
 477 0150 4046     		mov	r0, r8
 478 0152 FFF7FEFF 		bl	chThdCreateStatic
 479 0156 2060     		str	r0, [r4, #0]
 480              		.loc 1 199 0
 481 0158 4FF0FF30 		mov	r0, #-1
 482 015c FFF7FEFF 		bl	chEvtWaitAny
 483              		.loc 1 200 0
 484 0160 07F13201 		add	r1, r7, #50
 485              		.loc 1 199 0
 486 0164 8146     		mov	r9, r0
 487              	.LVL29:
 488              		.loc 1 200 0
 489 0166 07F13702 		add	r2, r7, #55
 490 016a 0920     		movs	r0, #9
 491              	.LVL30:
 492 016c FFF7FEFF 		bl	_test_assert_time_window
 493 0170 0028     		cmp	r0, #0
 494 0172 7FF458AF 		bne	.L12
 495              		.loc 1 201 0
 496 0176 A9F10101 		sub	r1, r9, #1
 497 017a 0A20     		movs	r0, #10
 498 017c D1F1000E 		rsbs	lr, r1, #0
 499 0180 4EEB0101 		adc	r1, lr, r1
 500 0184 FFF7FEFF 		bl	_test_assert
 501 0188 0028     		cmp	r0, #0
 502 018a 7FF44CAF 		bne	.L12
ARM GAS  /tmp/cc0gFAsE.s 			page 10


 503              		.loc 1 202 0
 504 018e 4FF0FF30 		mov	r0, #-1
 505 0192 FFF7FEFF 		bl	chEvtGetAndClearEvents
 506              	.LVL31:
 507              		.loc 1 203 0
 508 0196 D0F10101 		rsbs	r1, r0, #1
 509 019a 38BF     		it	cc
 510 019c 0021     		movcc	r1, #0
 511 019e 0B20     		movs	r0, #11
 512              	.LVL32:
 513 01a0 FFF7FEFF 		bl	_test_assert
 514 01a4 0028     		cmp	r0, #0
 515 01a6 7FF43EAF 		bne	.L12
 516              		.loc 1 209 0
 517 01aa 40F20007 		movw	r7, #:lower16:.LANCHOR0
 518              	.LVL33:
 519              		.loc 1 210 0
 520 01ae 40F20009 		movw	r9, #:lower16:.LANCHOR1
 521              		.loc 1 209 0
 522 01b2 C0F20007 		movt	r7, #:upper16:.LANCHOR0
 523              		.loc 1 210 0
 524 01b6 C0F20009 		movt	r9, #:upper16:.LANCHOR1
 525              		.loc 1 204 0
 526 01ba FFF7FEFF 		bl	test_wait_threads
 527              		.loc 1 211 0
 528 01be 3846     		mov	r0, r7
 529 01c0 02A9     		add	r1, sp, #8
 530 01c2 0122     		movs	r2, #1
 531              		.loc 1 209 0
 532 01c4 3F60     		str	r7, [r7, #0]
 533              		.loc 1 210 0
 534 01c6 C9F80090 		str	r9, [r9, #0]
 535              		.loc 1 211 0
 536 01ca FFF7FEFF 		bl	chEvtRegisterMask
 537              		.loc 1 212 0
 538 01ce 06A9     		add	r1, sp, #24
 539 01d0 0422     		movs	r2, #4
 540 01d2 4846     		mov	r0, r9
 541 01d4 FFF7FEFF 		bl	chEvtRegisterMask
 542              		.loc 1 213 0
 543 01d8 FFF7FEFF 		bl	test_wait_tick
 544              		.loc 1 215 0
 545 01dc B669     		ldr	r6, [r6, #24]
 546              		.loc 1 214 0
 547 01de ED68     		ldr	r5, [r5, #12]
 548              	.LVL34:
 549              		.loc 1 215 0
 550 01e0 B268     		ldr	r2, [r6, #8]
 551 01e2 40F20003 		movw	r3, #:lower16:thread2
 552 01e6 40F20006 		movw	r6, #:lower16:.LC1
 553 01ea 4FF49871 		mov	r1, #304
 554 01ee 013A     		subs	r2, r2, #1
 555 01f0 C0F20003 		movt	r3, #:upper16:thread2
 556 01f4 C0F20006 		movt	r6, #:upper16:.LC1
 557 01f8 4046     		mov	r0, r8
 558 01fa 0096     		str	r6, [sp, #0]
 559 01fc FFF7FEFF 		bl	chThdCreateStatic
ARM GAS  /tmp/cc0gFAsE.s 			page 11


 560 0200 2060     		str	r0, [r4, #0]
 561              		.loc 1 217 0
 562 0202 0520     		movs	r0, #5
 563 0204 FFF7FEFF 		bl	chEvtWaitAll
 564              		.loc 1 218 0
 565 0208 0C20     		movs	r0, #12
 566 020a 05F13201 		add	r1, r5, #50
 567 020e 05F13702 		add	r2, r5, #55
 568 0212 FFF7FEFF 		bl	_test_assert_time_window
 569 0216 0028     		cmp	r0, #0
 570 0218 7FF405AF 		bne	.L12
 571              		.loc 1 219 0
 572 021c 4FF0FF30 		mov	r0, #-1
 573 0220 FFF7FEFF 		bl	chEvtGetAndClearEvents
 574              	.LVL35:
 575              		.loc 1 220 0
 576 0224 D0F10101 		rsbs	r1, r0, #1
 577 0228 38BF     		it	cc
 578 022a 0021     		movcc	r1, #0
 579 022c 0D20     		movs	r0, #13
 580              	.LVL36:
 581 022e FFF7FEFF 		bl	_test_assert
 582 0232 0028     		cmp	r0, #0
 583 0234 7FF4F7AE 		bne	.L12
 584              		.loc 1 221 0
 585 0238 FFF7FEFF 		bl	test_wait_threads
 586              		.loc 1 222 0
 587 023c 3846     		mov	r0, r7
 588 023e 02A9     		add	r1, sp, #8
 589 0240 FFF7FEFF 		bl	chEvtUnregister
 590              		.loc 1 223 0
 591 0244 4846     		mov	r0, r9
 592 0246 06A9     		add	r1, sp, #24
 593 0248 FFF7FEFF 		bl	chEvtUnregister
 594              		.loc 1 224 0
 595 024c 3A68     		ldr	r2, [r7, #0]
 596 024e D11B     		subs	r1, r2, r7
 597 0250 0E20     		movs	r0, #14
 598 0252 4B42     		rsbs	r3, r1, #0
 599 0254 43EB0101 		adc	r1, r3, r1
 600 0258 FFF7FEFF 		bl	_test_assert
 601 025c 0028     		cmp	r0, #0
 602 025e 7FF4E2AE 		bne	.L12
 603              		.loc 1 225 0
 604 0262 D9F80020 		ldr	r2, [r9, #0]
 605 0266 C9EB0201 		rsb	r1, r9, r2
 606 026a 0F20     		movs	r0, #15
 607 026c 4B42     		rsbs	r3, r1, #0
 608 026e 43EB0101 		adc	r1, r3, r1
 609 0272 FFF7FEFF 		bl	_test_assert
 610 0276 D6E6     		b	.L12
 611              	.LBE5:
 612              	.LBE4:
 613              		.cfi_endproc
 614              	.LFE8:
 615              		.size	evt2_execute, .-evt2_execute
 616              		.global	patternevt
ARM GAS  /tmp/cc0gFAsE.s 			page 12


 617              		.global	testevt2
 618              		.global	testevt1
 619              		.section	.rodata.patternevt,"a",%progbits
 620              		.align	2
 621              		.type	patternevt, %object
 622              		.size	patternevt, 12
 623              	patternevt:
 624 0000 00000000 		.word	testevt1
 625 0004 00000000 		.word	testevt2
 626 0008 00000000 		.word	0
 627              		.section	.rodata.testevt2,"a",%progbits
 628              		.align	2
 629              		.type	testevt2, %object
 630              		.size	testevt2, 16
 631              	testevt2:
 632 0000 08000000 		.word	.LC2
 633 0004 00000000 		.word	evt2_setup
 634 0008 00000000 		.word	0
 635 000c 00000000 		.word	evt2_execute
 636              		.section	.rodata.str1.4,"aMS",%progbits,1
 637              		.align	2
 638              	.LC0:
 639 0000 41424300 		.ascii	"ABC\000"
 640              	.LC1:
 641 0004 4100     		.ascii	"A\000"
 642 0006 0000     		.space	2
 643              	.LC2:
 644 0008 4576656E 		.ascii	"Events, wait and broadcast\000"
 644      74732C20 
 644      77616974 
 644      20616E64 
 644      2062726F 
 645 0023 00       		.space	1
 646              	.LC3:
 647 0024 4576656E 		.ascii	"Events, registration and dispatch\000"
 647      74732C20 
 647      72656769 
 647      73747261 
 647      74696F6E 
 648 0046 0000     		.section	.rodata.testevt1,"a",%progbits
 649              		.align	2
 650              		.type	testevt1, %object
 651              		.size	testevt1, 16
 652              	testevt1:
 653 0000 24000000 		.word	.LC3
 654 0004 00000000 		.word	evt1_setup
 655 0008 00000000 		.word	0
 656 000c 00000000 		.word	evt1_execute
 657              		.section	.rodata.evhndl,"a",%progbits
 658              		.align	2
 659              		.set	.LANCHOR2,. + 0
 660              		.type	evhndl, %object
 661              		.size	evhndl, 12
 662              	evhndl:
 663 0000 00000000 		.word	h1
 664 0004 00000000 		.word	h2
 665 0008 00000000 		.word	h3
ARM GAS  /tmp/cc0gFAsE.s 			page 13


 666              		.section	.data.es1,"aw",%progbits
 667              		.align	2
 668              		.set	.LANCHOR0,. + 0
 669              		.type	es1, %object
 670              		.size	es1, 4
 671              	es1:
 672 0000 00000000 		.word	es1
 673              		.section	.data.es2,"aw",%progbits
 674              		.align	2
 675              		.set	.LANCHOR1,. + 0
 676              		.type	es2, %object
 677              		.size	es2, 4
 678              	es2:
 679 0000 00000000 		.word	es2
 680              		.text
 681              	.Letext0:
 682              		.file 2 "/home/prana/CodeSourcery/ARM_EABI/bin/../lib/gcc/arm-none-eabi/4.6.3/../../../../arm-none
 683              		.file 3 "../../../os/ports/GCC/ARMCMx/chtypes.h"
 684              		.file 4 "../../../os/kernel/include/chlists.h"
 685              		.file 5 "../../../os/kernel/include/chthreads.h"
 686              		.file 6 "../../../os/ports/GCC/ARMCMx/chcore_v7m.h"
 687              		.file 7 "../../../os/kernel/include/chvt.h"
 688              		.file 8 "../../../os/kernel/include/chschd.h"
 689              		.file 9 "../../../os/kernel/include/chmtx.h"
 690              		.file 10 "../../../os/kernel/include/chevents.h"
 691              		.file 11 "../../../test/test.h"