ARM GAS  /tmp/ccfXkqaE.s 			page 1


   1              		.syntax unified
   2              		.cpu cortex-m4
   3              		.fpu softvfp
   4              		.eabi_attribute 20, 1
   5              		.eabi_attribute 21, 1
   6              		.eabi_attribute 23, 3
   7              		.eabi_attribute 24, 1
   8              		.eabi_attribute 25, 1
   9              		.eabi_attribute 26, 1
  10              		.eabi_attribute 30, 2
  11              		.eabi_attribute 34, 1
  12              		.eabi_attribute 18, 4
  13              		.thumb
  14              		.file	"testpools.c"
  15              		.text
  16              	.Ltext0:
  17              		.cfi_sections	.debug_frame
  18              		.section	.text.null_provider,"ax",%progbits
  19              		.align	2
  20              		.p2align 4,,15
  21              		.thumb
  22              		.thumb_func
  23              		.type	null_provider, %function
  24              	null_provider:
  25              	.LFB0:
  26              		.file 1 "../../../test/testpools.c"
  27              		.loc 1 64 0
  28              		.cfi_startproc
  29              		@ args = 0, pretend = 0, frame = 0
  30              		@ frame_needed = 0, uses_anonymous_args = 0
  31              		@ link register save eliminated.
  32              	.LVL0:
  33              		.loc 1 68 0
  34 0000 0020     		movs	r0, #0
  35              	.LVL1:
  36 0002 7047     		bx	lr
  37              		.cfi_endproc
  38              	.LFE0:
  39              		.size	null_provider, .-null_provider
  40 0004 AFF30080 		.section	.text.pools1_setup,"ax",%progbits
  40      AFF30080 
  40      AFF30080 
  41              		.align	2
  42              		.p2align 4,,15
  43              		.thumb
  44              		.thumb_func
  45              		.type	pools1_setup, %function
  46              	pools1_setup:
  47              	.LFB1:
  48              		.loc 1 70 0
  49              		.cfi_startproc
  50              		@ args = 0, pretend = 0, frame = 0
  51              		@ frame_needed = 0, uses_anonymous_args = 0
  52              		@ link register save eliminated.
  53              		.loc 1 72 0
  54 0000 40F20000 		movw	r0, #:lower16:.LANCHOR0
  55 0004 C0F20000 		movt	r0, #:upper16:.LANCHOR0
ARM GAS  /tmp/ccfXkqaE.s 			page 2


  56 0008 4FF49871 		mov	r1, #304
  57 000c 0022     		movs	r2, #0
  58              		.loc 1 73 0
  59              		.loc 1 72 0
  60 000e FFF7FEBF 		b	chPoolInit
  61              		.cfi_endproc
  62              	.LFE1:
  63              		.size	pools1_setup, .-pools1_setup
  64 0012 00BFAFF3 		.section	.text.pools1_execute,"ax",%progbits
  64      0080AFF3 
  64      0080AFF3 
  64      0080
  65              		.align	2
  66              		.p2align 4,,15
  67              		.thumb
  68              		.thumb_func
  69              		.type	pools1_execute, %function
  70              	pools1_execute:
  71              	.LFB2:
  72              		.loc 1 75 0
  73              		.cfi_startproc
  74              		@ args = 0, pretend = 0, frame = 0
  75              		@ frame_needed = 0, uses_anonymous_args = 0
  76 0000 38B5     		push	{r3, r4, r5, lr}
  77              	.LCFI0:
  78              		.cfi_def_cfa_offset 16
  79              		.cfi_offset 14, -4
  80              		.cfi_offset 5, -8
  81              		.cfi_offset 4, -12
  82              		.cfi_offset 3, -16
  83              		.loc 1 79 0
  84 0002 40F20004 		movw	r4, #:lower16:wa
  85 0006 C0F20004 		movt	r4, #:upper16:wa
  86 000a 40F20000 		movw	r0, #:lower16:.LANCHOR0
  87 000e 2568     		ldr	r5, [r4, #0]
  88 0010 0522     		movs	r2, #5
  89 0012 2946     		mov	r1, r5
  90 0014 C0F20000 		movt	r0, #:upper16:.LANCHOR0
  91 0018 FFF7FEFF 		bl	chPoolLoadArray
  92              	.LVL2:
  93              		.loc 1 83 0
  94 001c 40F20000 		movw	r0, #:lower16:.LANCHOR0
  95 0020 C0F20000 		movt	r0, #:upper16:.LANCHOR0
  96 0024 FFF7FEFF 		bl	chPoolAlloc
  97 0028 011C     		adds	r1, r0, #0
  98 002a 18BF     		it	ne
  99 002c 0121     		movne	r1, #1
 100 002e 0120     		movs	r0, #1
 101 0030 FFF7FEFF 		bl	_test_assert
 102 0034 0028     		cmp	r0, #0
 103 0036 40F0BE80 		bne	.L3
 104              	.LVL3:
 105 003a 40F20000 		movw	r0, #:lower16:.LANCHOR0
 106 003e C0F20000 		movt	r0, #:upper16:.LANCHOR0
 107 0042 FFF7FEFF 		bl	chPoolAlloc
 108 0046 011C     		adds	r1, r0, #0
 109 0048 18BF     		it	ne
ARM GAS  /tmp/ccfXkqaE.s 			page 3


 110 004a 0121     		movne	r1, #1
 111 004c 0120     		movs	r0, #1
 112 004e FFF7FEFF 		bl	_test_assert
 113 0052 0028     		cmp	r0, #0
 114 0054 40F0AF80 		bne	.L3
 115              	.LVL4:
 116 0058 40F20000 		movw	r0, #:lower16:.LANCHOR0
 117 005c C0F20000 		movt	r0, #:upper16:.LANCHOR0
 118 0060 FFF7FEFF 		bl	chPoolAlloc
 119 0064 011C     		adds	r1, r0, #0
 120 0066 18BF     		it	ne
 121 0068 0121     		movne	r1, #1
 122 006a 0120     		movs	r0, #1
 123 006c FFF7FEFF 		bl	_test_assert
 124 0070 0028     		cmp	r0, #0
 125 0072 40F0A080 		bne	.L3
 126              	.LVL5:
 127 0076 40F20000 		movw	r0, #:lower16:.LANCHOR0
 128 007a C0F20000 		movt	r0, #:upper16:.LANCHOR0
 129 007e FFF7FEFF 		bl	chPoolAlloc
 130 0082 011C     		adds	r1, r0, #0
 131 0084 18BF     		it	ne
 132 0086 0121     		movne	r1, #1
 133 0088 0120     		movs	r0, #1
 134 008a FFF7FEFF 		bl	_test_assert
 135 008e 0028     		cmp	r0, #0
 136 0090 40F09180 		bne	.L3
 137              	.LVL6:
 138 0094 40F20000 		movw	r0, #:lower16:.LANCHOR0
 139 0098 C0F20000 		movt	r0, #:upper16:.LANCHOR0
 140 009c FFF7FEFF 		bl	chPoolAlloc
 141 00a0 011C     		adds	r1, r0, #0
 142 00a2 18BF     		it	ne
 143 00a4 0121     		movne	r1, #1
 144 00a6 0120     		movs	r0, #1
 145 00a8 FFF7FEFF 		bl	_test_assert
 146 00ac 0028     		cmp	r0, #0
 147 00ae 40F08280 		bne	.L3
 148              	.LVL7:
 149              		.loc 1 86 0
 150 00b2 40F20000 		movw	r0, #:lower16:.LANCHOR0
 151 00b6 C0F20000 		movt	r0, #:upper16:.LANCHOR0
 152 00ba FFF7FEFF 		bl	chPoolAlloc
 153 00be D0F10101 		rsbs	r1, r0, #1
 154 00c2 38BF     		it	cc
 155 00c4 0021     		movcc	r1, #0
 156 00c6 0220     		movs	r0, #2
 157 00c8 FFF7FEFF 		bl	_test_assert
 158 00cc 0028     		cmp	r0, #0
 159 00ce 72D1     		bne	.L3
 160              	.LBB4:
 161              	.LBB5:
 162              		.loc 1 90 0
 163 00d0 40F20000 		movw	r0, #:lower16:.LANCHOR0
 164 00d4 C0F20000 		movt	r0, #:upper16:.LANCHOR0
 165 00d8 2946     		mov	r1, r5
 166 00da FFF7FEFF 		bl	chPoolFree
ARM GAS  /tmp/ccfXkqaE.s 			page 4


 167              	.LVL8:
 168 00de 40F20000 		movw	r0, #:lower16:.LANCHOR0
 169 00e2 C0F20000 		movt	r0, #:upper16:.LANCHOR0
 170 00e6 6168     		ldr	r1, [r4, #4]
 171 00e8 FFF7FEFF 		bl	chPoolFree
 172              	.LVL9:
 173 00ec 40F20000 		movw	r0, #:lower16:.LANCHOR0
 174 00f0 C0F20000 		movt	r0, #:upper16:.LANCHOR0
 175 00f4 A168     		ldr	r1, [r4, #8]
 176 00f6 FFF7FEFF 		bl	chPoolFree
 177              	.LVL10:
 178 00fa 40F20000 		movw	r0, #:lower16:.LANCHOR0
 179 00fe C0F20000 		movt	r0, #:upper16:.LANCHOR0
 180 0102 E168     		ldr	r1, [r4, #12]
 181 0104 FFF7FEFF 		bl	chPoolFree
 182              	.LVL11:
 183 0108 40F20000 		movw	r0, #:lower16:.LANCHOR0
 184 010c 2169     		ldr	r1, [r4, #16]
 185 010e C0F20000 		movt	r0, #:upper16:.LANCHOR0
 186 0112 FFF7FEFF 		bl	chPoolFree
 187              	.LVL12:
 188              		.loc 1 94 0
 189 0116 40F20000 		movw	r0, #:lower16:.LANCHOR0
 190 011a C0F20000 		movt	r0, #:upper16:.LANCHOR0
 191 011e FFF7FEFF 		bl	chPoolAlloc
 192 0122 011C     		adds	r1, r0, #0
 193 0124 18BF     		it	ne
 194 0126 0121     		movne	r1, #1
 195 0128 0320     		movs	r0, #3
 196 012a FFF7FEFF 		bl	_test_assert
 197 012e 0028     		cmp	r0, #0
 198 0130 41D1     		bne	.L3
 199              	.LVL13:
 200 0132 40F20000 		movw	r0, #:lower16:.LANCHOR0
 201 0136 C0F20000 		movt	r0, #:upper16:.LANCHOR0
 202 013a FFF7FEFF 		bl	chPoolAlloc
 203 013e 011C     		adds	r1, r0, #0
 204 0140 18BF     		it	ne
 205 0142 0121     		movne	r1, #1
 206 0144 0320     		movs	r0, #3
 207 0146 FFF7FEFF 		bl	_test_assert
 208 014a A0BB     		cbnz	r0, .L3
 209              	.LVL14:
 210 014c 40F20000 		movw	r0, #:lower16:.LANCHOR0
 211 0150 C0F20000 		movt	r0, #:upper16:.LANCHOR0
 212 0154 FFF7FEFF 		bl	chPoolAlloc
 213 0158 011C     		adds	r1, r0, #0
 214 015a 18BF     		it	ne
 215 015c 0121     		movne	r1, #1
 216 015e 0320     		movs	r0, #3
 217 0160 FFF7FEFF 		bl	_test_assert
 218 0164 38BB     		cbnz	r0, .L3
 219              	.LVL15:
 220 0166 40F20000 		movw	r0, #:lower16:.LANCHOR0
 221 016a C0F20000 		movt	r0, #:upper16:.LANCHOR0
 222 016e FFF7FEFF 		bl	chPoolAlloc
 223 0172 011C     		adds	r1, r0, #0
ARM GAS  /tmp/ccfXkqaE.s 			page 5


 224 0174 18BF     		it	ne
 225 0176 0121     		movne	r1, #1
 226 0178 0320     		movs	r0, #3
 227 017a FFF7FEFF 		bl	_test_assert
 228 017e D0B9     		cbnz	r0, .L3
 229              	.LVL16:
 230 0180 40F20000 		movw	r0, #:lower16:.LANCHOR0
 231 0184 C0F20000 		movt	r0, #:upper16:.LANCHOR0
 232 0188 FFF7FEFF 		bl	chPoolAlloc
 233 018c 011C     		adds	r1, r0, #0
 234 018e 18BF     		it	ne
 235 0190 0121     		movne	r1, #1
 236 0192 0320     		movs	r0, #3
 237 0194 FFF7FEFF 		bl	_test_assert
 238 0198 68B9     		cbnz	r0, .L3
 239              	.LVL17:
 240              		.loc 1 97 0
 241 019a 40F20000 		movw	r0, #:lower16:.LANCHOR0
 242 019e C0F20000 		movt	r0, #:upper16:.LANCHOR0
 243 01a2 FFF7FEFF 		bl	chPoolAlloc
 244 01a6 D0F10101 		rsbs	r1, r0, #1
 245 01aa 38BF     		it	cc
 246 01ac 0021     		movcc	r1, #0
 247 01ae 0420     		movs	r0, #4
 248 01b0 FFF7FEFF 		bl	_test_assert
 249 01b4 00B1     		cbz	r0, .L6
 250              	.LVL18:
 251              	.L3:
 252 01b6 38BD     		pop	{r3, r4, r5, pc}
 253              	.LVL19:
 254              	.L6:
 255              		.loc 1 100 0
 256 01b8 40F20000 		movw	r0, #:lower16:.LANCHOR0
 257 01bc 40F20002 		movw	r2, #:lower16:null_provider
 258 01c0 1021     		movs	r1, #16
 259 01c2 C0F20002 		movt	r2, #:upper16:null_provider
 260 01c6 C0F20000 		movt	r0, #:upper16:.LANCHOR0
 261 01ca FFF7FEFF 		bl	chPoolInit
 262              		.loc 1 101 0
 263 01ce 40F20000 		movw	r0, #:lower16:.LANCHOR0
 264 01d2 C0F20000 		movt	r0, #:upper16:.LANCHOR0
 265 01d6 FFF7FEFF 		bl	chPoolAlloc
 266 01da D0F10101 		rsbs	r1, r0, #1
 267 01de 38BF     		it	cc
 268 01e0 0021     		movcc	r1, #0
 269 01e2 0520     		movs	r0, #5
 270              	.LBE5:
 271              	.LBE4:
 272              		.loc 1 102 0
 273 01e4 BDE83840 		pop	{r3, r4, r5, lr}
 274              	.LBB7:
 275              	.LBB6:
 276              		.loc 1 101 0
 277 01e8 FFF7FEBF 		b	_test_assert
 278              	.LBE6:
 279              	.LBE7:
 280              		.cfi_endproc
ARM GAS  /tmp/ccfXkqaE.s 			page 6


 281              	.LFE2:
 282              		.size	pools1_execute, .-pools1_execute
 283              		.global	patternpools
 284              		.global	testpools1
 285 01ec AFF30080 		.section	.rodata.str1.4,"aMS",%progbits,1
 286              		.align	2
 287              	.LC0:
 288 0000 4D656D6F 		.ascii	"Memory Pools, queue/dequeue\000"
 288      72792050 
 288      6F6F6C73 
 288      2C207175 
 288      6575652F 
 289              		.section	.rodata.patternpools,"a",%progbits
 290              		.align	2
 291              		.type	patternpools, %object
 292              		.size	patternpools, 8
 293              	patternpools:
 294 0000 00000000 		.word	testpools1
 295 0004 00000000 		.word	0
 296              		.section	.data.mp1,"aw",%progbits
 297              		.align	2
 298              		.set	.LANCHOR0,. + 0
 299              		.type	mp1, %object
 300              		.size	mp1, 12
 301              	mp1:
 302 0000 00000000 		.word	0
 303 0004 30010000 		.word	304
 304 0008 00000000 		.word	0
 305              		.section	.rodata.testpools1,"a",%progbits
 306              		.align	2
 307              		.type	testpools1, %object
 308              		.size	testpools1, 16
 309              	testpools1:
 310 0000 00000000 		.word	.LC0
 311 0004 00000000 		.word	pools1_setup
 312 0008 00000000 		.word	0
 313 000c 00000000 		.word	pools1_execute
 314              		.text
 315              	.Letext0:
 316              		.file 2 "/home/prana/CodeSourcery/ARM_EABI/bin/../lib/gcc/arm-none-eabi/4.6.3/include/stddef.h"
 317              		.file 3 "../../../os/kernel/include/chmemcore.h"
 318              		.file 4 "../../../os/kernel/include/chmempools.h"
 319              		.file 5 "../../../test/test.h"