ARM GAS  /tmp/ccayCWiC.s 			page 1


   1              		.syntax unified
   2              		.cpu cortex-m4
   3              		.fpu softvfp
   4              		.eabi_attribute 20, 1
   5              		.eabi_attribute 21, 1
   6              		.eabi_attribute 23, 3
   7              		.eabi_attribute 24, 1
   8              		.eabi_attribute 25, 1
   9              		.eabi_attribute 26, 1
  10              		.eabi_attribute 30, 2
  11              		.eabi_attribute 34, 1
  12              		.eabi_attribute 18, 4
  13              		.thumb
  14              		.file	"testbmk.c"
  15              		.text
  16              	.Ltext0:
  17              		.cfi_sections	.debug_frame
  18              		.section	.text.thread2,"ax",%progbits
  19              		.align	2
  20              		.p2align 4,,15
  21              		.thumb
  22              		.thumb_func
  23              		.type	thread2, %function
  24              	thread2:
  25              	.LFB4:
  26              		.file 1 "../../../test/testbmk.c"
  27              		.loc 1 158 0
  28              		.cfi_startproc
  29              		@ args = 0, pretend = 0, frame = 0
  30              		@ frame_needed = 0, uses_anonymous_args = 0
  31              		@ link register save eliminated.
  32              	.LVL0:
  33              		.loc 1 161 0
  34 0000 7047     		bx	lr
  35              		.cfi_endproc
  36              	.LFE4:
  37              		.size	thread2, .-thread2
  38 0002 00BFAFF3 		.section	.text.tmo,"ax",%progbits
  38      0080AFF3 
  38      0080AFF3 
  38      0080
  39              		.align	2
  40              		.p2align 4,,15
  41              		.thumb
  42              		.thumb_func
  43              		.type	tmo, %function
  44              	tmo:
  45              	.LFB16:
  46              		.loc 1 504 0
  47              		.cfi_startproc
  48              		@ args = 0, pretend = 0, frame = 0
  49              		@ frame_needed = 0, uses_anonymous_args = 0
  50              		@ link register save eliminated.
  51              	.LVL1:
  52              		.loc 1 504 0
  53 0000 7047     		bx	lr
  54              		.cfi_endproc
ARM GAS  /tmp/ccayCWiC.s 			page 2


  55              	.LFE16:
  56              		.size	tmo, .-tmo
  57 0002 00BFAFF3 		.section	.text.bmk13_execute,"ax",%progbits
  57      0080AFF3 
  57      0080AFF3 
  57      0080
  58              		.align	2
  59              		.p2align 4,,15
  60              		.thumb
  61              		.thumb_func
  62              		.type	bmk13_execute, %function
  63              	bmk13_execute:
  64              	.LFB22:
  65              		.loc 1 637 0
  66              		.cfi_startproc
  67              		@ args = 0, pretend = 0, frame = 0
  68              		@ frame_needed = 0, uses_anonymous_args = 0
  69              		.loc 1 639 0
  70 0000 40F20000 		movw	r0, #:lower16:.LC0
  71              		.loc 1 637 0
  72 0004 10B5     		push	{r4, lr}
  73              	.LCFI0:
  74              		.cfi_def_cfa_offset 8
  75              		.cfi_offset 14, -4
  76              		.cfi_offset 4, -8
  77              		.loc 1 639 0
  78 0006 C0F20000 		movt	r0, #:upper16:.LC0
  79              		.loc 1 645 0
  80 000a 40F20004 		movw	r4, #:lower16:.LC1
  81 000e C0F20004 		movt	r4, #:upper16:.LC1
  82              		.loc 1 639 0
  83 0012 FFF7FEFF 		bl	test_print
  84              		.loc 1 640 0
  85 0016 4FF4D270 		mov	r0, #420
  86 001a FFF7FEFF 		bl	test_printn
  87              		.loc 1 645 0
  88 001e 2046     		mov	r0, r4
  89 0020 FFF7FEFF 		bl	test_println
  90              		.loc 1 646 0
  91 0024 40F20000 		movw	r0, #:lower16:.LC2
  92 0028 C0F20000 		movt	r0, #:upper16:.LC2
  93 002c FFF7FEFF 		bl	test_print
  94              		.loc 1 647 0
  95 0030 4820     		movs	r0, #72
  96 0032 FFF7FEFF 		bl	test_printn
  97              		.loc 1 648 0
  98 0036 2046     		mov	r0, r4
  99 0038 FFF7FEFF 		bl	test_println
 100              		.loc 1 649 0
 101 003c 40F20000 		movw	r0, #:lower16:.LC3
 102 0040 C0F20000 		movt	r0, #:upper16:.LC3
 103 0044 FFF7FEFF 		bl	test_print
 104              		.loc 1 650 0
 105 0048 1420     		movs	r0, #20
 106 004a FFF7FEFF 		bl	test_printn
 107              		.loc 1 651 0
 108 004e 2046     		mov	r0, r4
ARM GAS  /tmp/ccayCWiC.s 			page 3


 109 0050 FFF7FEFF 		bl	test_println
 110              		.loc 1 652 0
 111 0054 40F20000 		movw	r0, #:lower16:.LC4
 112 0058 C0F20000 		movt	r0, #:upper16:.LC4
 113 005c FFF7FEFF 		bl	test_print
 114              		.loc 1 653 0
 115 0060 0C20     		movs	r0, #12
 116 0062 FFF7FEFF 		bl	test_printn
 117              		.loc 1 654 0
 118 0066 2046     		mov	r0, r4
 119 0068 FFF7FEFF 		bl	test_println
 120              		.loc 1 656 0
 121 006c 40F20000 		movw	r0, #:lower16:.LC5
 122 0070 C0F20000 		movt	r0, #:upper16:.LC5
 123 0074 FFF7FEFF 		bl	test_print
 124              		.loc 1 657 0
 125 0078 0420     		movs	r0, #4
 126 007a FFF7FEFF 		bl	test_printn
 127              		.loc 1 658 0
 128 007e 2046     		mov	r0, r4
 129 0080 FFF7FEFF 		bl	test_println
 130              		.loc 1 659 0
 131 0084 40F20000 		movw	r0, #:lower16:.LC6
 132 0088 C0F20000 		movt	r0, #:upper16:.LC6
 133 008c FFF7FEFF 		bl	test_print
 134              		.loc 1 660 0
 135 0090 1020     		movs	r0, #16
 136 0092 FFF7FEFF 		bl	test_printn
 137              		.loc 1 661 0
 138 0096 2046     		mov	r0, r4
 139 0098 FFF7FEFF 		bl	test_println
 140              		.loc 1 664 0
 141 009c 40F20000 		movw	r0, #:lower16:.LC7
 142 00a0 C0F20000 		movt	r0, #:upper16:.LC7
 143 00a4 FFF7FEFF 		bl	test_print
 144              		.loc 1 665 0
 145 00a8 1020     		movs	r0, #16
 146 00aa FFF7FEFF 		bl	test_printn
 147              		.loc 1 666 0
 148 00ae 2046     		mov	r0, r4
 149 00b0 FFF7FEFF 		bl	test_println
 150              		.loc 1 674 0
 151 00b4 40F20000 		movw	r0, #:lower16:.LC8
 152 00b8 C0F20000 		movt	r0, #:upper16:.LC8
 153 00bc FFF7FEFF 		bl	test_print
 154              		.loc 1 675 0
 155 00c0 2420     		movs	r0, #36
 156 00c2 FFF7FEFF 		bl	test_printn
 157              		.loc 1 676 0
 158 00c6 2046     		mov	r0, r4
 159 00c8 FFF7FEFF 		bl	test_println
 160              		.loc 1 679 0
 161 00cc 40F20000 		movw	r0, #:lower16:.LC9
 162 00d0 C0F20000 		movt	r0, #:upper16:.LC9
 163 00d4 FFF7FEFF 		bl	test_print
 164              		.loc 1 680 0
 165 00d8 2820     		movs	r0, #40
ARM GAS  /tmp/ccayCWiC.s 			page 4


 166 00da FFF7FEFF 		bl	test_printn
 167              		.loc 1 681 0
 168 00de 2046     		mov	r0, r4
 169              		.loc 1 683 0
 170 00e0 BDE81040 		pop	{r4, lr}
 171              		.loc 1 681 0
 172 00e4 FFF7FEBF 		b	test_println
 173              		.cfi_endproc
 174              	.LFE22:
 175              		.size	bmk13_execute, .-bmk13_execute
 176 00e8 AFF30080 		.section	.text.bmk12_execute,"ax",%progbits
 176      AFF30080 
 177              		.align	2
 178              		.p2align 4,,15
 179              		.thumb
 180              		.thumb_func
 181              		.type	bmk12_execute, %function
 182              	bmk12_execute:
 183              	.LFB21:
 184              		.loc 1 598 0
 185              		.cfi_startproc
 186              		@ args = 0, pretend = 0, frame = 0
 187              		@ frame_needed = 0, uses_anonymous_args = 0
 188              	.LVL2:
 189 0000 38B5     		push	{r3, r4, r5, lr}
 190              	.LCFI1:
 191              		.cfi_def_cfa_offset 16
 192              		.cfi_offset 14, -4
 193              		.cfi_offset 5, -8
 194              		.cfi_offset 4, -12
 195              		.cfi_offset 3, -16
 196              		.loc 1 601 0
 197 0002 FFF7FEFF 		bl	test_wait_tick
 198              		.loc 1 602 0
 199 0006 4FF47A70 		mov	r0, #1000
 200 000a FFF7FEFF 		bl	test_start_timer
 201 000e 40F20005 		movw	r5, #:lower16:test_timer_done
 202              		.loc 1 599 0
 203 0012 0024     		movs	r4, #0
 204 0014 C0F20005 		movt	r5, #:upper16:test_timer_done
 205              	.LVL3:
 206              	.L5:
 207              		.loc 1 604 0 discriminator 1
 208 0018 40F20000 		movw	r0, #:lower16:.LANCHOR0
 209 001c C0F20000 		movt	r0, #:upper16:.LANCHOR0
 210 0020 FFF7FEFF 		bl	chMtxLock
 211              		.loc 1 605 0 discriminator 1
 212 0024 FFF7FEFF 		bl	chMtxUnlock
 213              		.loc 1 606 0 discriminator 1
 214 0028 40F20000 		movw	r0, #:lower16:.LANCHOR0
 215 002c C0F20000 		movt	r0, #:upper16:.LANCHOR0
 216 0030 FFF7FEFF 		bl	chMtxLock
 217              		.loc 1 607 0 discriminator 1
 218 0034 FFF7FEFF 		bl	chMtxUnlock
 219              		.loc 1 608 0 discriminator 1
 220 0038 40F20000 		movw	r0, #:lower16:.LANCHOR0
 221 003c C0F20000 		movt	r0, #:upper16:.LANCHOR0
ARM GAS  /tmp/ccayCWiC.s 			page 5


 222 0040 FFF7FEFF 		bl	chMtxLock
 223              		.loc 1 609 0 discriminator 1
 224 0044 FFF7FEFF 		bl	chMtxUnlock
 225              		.loc 1 610 0 discriminator 1
 226 0048 40F20000 		movw	r0, #:lower16:.LANCHOR0
 227 004c C0F20000 		movt	r0, #:upper16:.LANCHOR0
 228 0050 FFF7FEFF 		bl	chMtxLock
 229              		.loc 1 611 0 discriminator 1
 230 0054 FFF7FEFF 		bl	chMtxUnlock
 231              		.loc 1 616 0 discriminator 1
 232 0058 2B68     		ldr	r3, [r5, #0]
 233              		.loc 1 612 0 discriminator 1
 234 005a 0134     		adds	r4, r4, #1
 235              	.LVL4:
 236              		.loc 1 616 0 discriminator 1
 237 005c 002B     		cmp	r3, #0
 238 005e DBD0     		beq	.L5
 239              		.loc 1 617 0
 240 0060 40F20000 		movw	r0, #:lower16:.LC10
 241 0064 C0F20000 		movt	r0, #:upper16:.LC10
 242 0068 FFF7FEFF 		bl	test_print
 243              		.loc 1 618 0
 244 006c A000     		lsls	r0, r4, #2
 245 006e FFF7FEFF 		bl	test_printn
 246              		.loc 1 619 0
 247 0072 40F20000 		movw	r0, #:lower16:.LC11
 248 0076 C0F20000 		movt	r0, #:upper16:.LC11
 249              		.loc 1 620 0
 250 007a BDE83840 		pop	{r3, r4, r5, lr}
 251              		.loc 1 619 0
 252 007e FFF7FEBF 		b	test_println
 253              		.cfi_endproc
 254              	.LFE21:
 255              		.size	bmk12_execute, .-bmk12_execute
 256 0082 00BFAFF3 		.section	.text.bmk12_setup,"ax",%progbits
 256      0080AFF3 
 256      0080AFF3 
 256      0080
 257              		.align	2
 258              		.p2align 4,,15
 259              		.thumb
 260              		.thumb_func
 261              		.type	bmk12_setup, %function
 262              	bmk12_setup:
 263              	.LFB20:
 264              		.loc 1 593 0
 265              		.cfi_startproc
 266              		@ args = 0, pretend = 0, frame = 0
 267              		@ frame_needed = 0, uses_anonymous_args = 0
 268              		@ link register save eliminated.
 269              		.loc 1 595 0
 270 0000 40F20000 		movw	r0, #:lower16:.LANCHOR0
 271 0004 C0F20000 		movt	r0, #:upper16:.LANCHOR0
 272              		.loc 1 596 0
 273              		.loc 1 595 0
 274 0008 FFF7FEBF 		b	chMtxInit
 275              		.cfi_endproc
ARM GAS  /tmp/ccayCWiC.s 			page 6


 276              	.LFE20:
 277              		.size	bmk12_setup, .-bmk12_setup
 278 000c AFF30080 		.section	.text.thread3,"ax",%progbits
 279              		.align	2
 280              		.p2align 4,,15
 281              		.thumb
 282              		.thumb_func
 283              		.type	thread3, %function
 284              	thread3:
 285              	.LFB10:
 286              		.loc 1 345 0
 287              		.cfi_startproc
 288              		@ args = 0, pretend = 0, frame = 0
 289              		@ frame_needed = 0, uses_anonymous_args = 0
 290              	.LVL5:
 291 0000 10B5     		push	{r4, lr}
 292              	.LCFI2:
 293              		.cfi_def_cfa_offset 8
 294              		.cfi_offset 14, -4
 295              		.cfi_offset 4, -8
 296              		.loc 1 348 0
 297 0002 40F20004 		movw	r4, #:lower16:rlist
 298 0006 C0F20004 		movt	r4, #:upper16:rlist
 299 000a A069     		ldr	r0, [r4, #24]
 300              	.LVL6:
 301 000c 90F82130 		ldrb	r3, [r0, #33]	@ zero_extendqisi2
 302 0010 5A07     		lsls	r2, r3, #29
 303 0012 0AD4     		bmi	.L10
 304              	.L12:
 305              		.loc 1 349 0
 306 0014 40F20000 		movw	r0, #:lower16:.LANCHOR1
 307 0018 C0F20000 		movt	r0, #:upper16:.LANCHOR1
 308 001c FFF7FEFF 		bl	chSemWait
 309              		.loc 1 348 0
 310 0020 A269     		ldr	r2, [r4, #24]
 311 0022 92F82110 		ldrb	r1, [r2, #33]	@ zero_extendqisi2
 312 0026 4B07     		lsls	r3, r1, #29
 313 0028 F4D5     		bpl	.L12
 314              	.L10:
 315              		.loc 1 351 0
 316 002a 0020     		movs	r0, #0
 317 002c 10BD     		pop	{r4, pc}
 318              		.cfi_endproc
 319              	.LFE10:
 320              		.size	thread3, .-thread3
 321 002e 00BF     		.section	.text.bmk11_execute,"ax",%progbits
 322              		.align	2
 323              		.p2align 4,,15
 324              		.thumb
 325              		.thumb_func
 326              		.type	bmk11_execute, %function
 327              	bmk11_execute:
 328              	.LFB19:
 329              		.loc 1 551 0
 330              		.cfi_startproc
 331              		@ args = 0, pretend = 0, frame = 0
 332              		@ frame_needed = 0, uses_anonymous_args = 0
ARM GAS  /tmp/ccayCWiC.s 			page 7


 333              	.LVL7:
 334 0000 38B5     		push	{r3, r4, r5, lr}
 335              	.LCFI3:
 336              		.cfi_def_cfa_offset 16
 337              		.cfi_offset 14, -4
 338              		.cfi_offset 5, -8
 339              		.cfi_offset 4, -12
 340              		.cfi_offset 3, -16
 341              		.loc 1 554 0
 342 0002 FFF7FEFF 		bl	test_wait_tick
 343              		.loc 1 555 0
 344 0006 4FF47A70 		mov	r0, #1000
 345 000a FFF7FEFF 		bl	test_start_timer
 346 000e 40F20005 		movw	r5, #:lower16:test_timer_done
 347              		.loc 1 552 0
 348 0012 0024     		movs	r4, #0
 349 0014 C0F20005 		movt	r5, #:upper16:test_timer_done
 350              	.LVL8:
 351              	.L15:
 352              		.loc 1 557 0 discriminator 1
 353 0018 40F20000 		movw	r0, #:lower16:.LANCHOR1
 354 001c C0F20000 		movt	r0, #:upper16:.LANCHOR1
 355 0020 FFF7FEFF 		bl	chSemWait
 356              		.loc 1 558 0 discriminator 1
 357 0024 40F20000 		movw	r0, #:lower16:.LANCHOR1
 358 0028 C0F20000 		movt	r0, #:upper16:.LANCHOR1
 359 002c FFF7FEFF 		bl	chSemSignal
 360              		.loc 1 559 0 discriminator 1
 361 0030 40F20000 		movw	r0, #:lower16:.LANCHOR1
 362 0034 C0F20000 		movt	r0, #:upper16:.LANCHOR1
 363 0038 FFF7FEFF 		bl	chSemWait
 364              		.loc 1 560 0 discriminator 1
 365 003c 40F20000 		movw	r0, #:lower16:.LANCHOR1
 366 0040 C0F20000 		movt	r0, #:upper16:.LANCHOR1
 367 0044 FFF7FEFF 		bl	chSemSignal
 368              		.loc 1 561 0 discriminator 1
 369 0048 40F20000 		movw	r0, #:lower16:.LANCHOR1
 370 004c C0F20000 		movt	r0, #:upper16:.LANCHOR1
 371 0050 FFF7FEFF 		bl	chSemWait
 372              		.loc 1 562 0 discriminator 1
 373 0054 40F20000 		movw	r0, #:lower16:.LANCHOR1
 374 0058 C0F20000 		movt	r0, #:upper16:.LANCHOR1
 375 005c FFF7FEFF 		bl	chSemSignal
 376              		.loc 1 563 0 discriminator 1
 377 0060 40F20000 		movw	r0, #:lower16:.LANCHOR1
 378 0064 C0F20000 		movt	r0, #:upper16:.LANCHOR1
 379 0068 FFF7FEFF 		bl	chSemWait
 380              		.loc 1 564 0 discriminator 1
 381 006c 40F20000 		movw	r0, #:lower16:.LANCHOR1
 382 0070 C0F20000 		movt	r0, #:upper16:.LANCHOR1
 383 0074 FFF7FEFF 		bl	chSemSignal
 384              		.loc 1 569 0 discriminator 1
 385 0078 2B68     		ldr	r3, [r5, #0]
 386              		.loc 1 565 0 discriminator 1
 387 007a 0134     		adds	r4, r4, #1
 388              	.LVL9:
 389              		.loc 1 569 0 discriminator 1
ARM GAS  /tmp/ccayCWiC.s 			page 8


 390 007c 002B     		cmp	r3, #0
 391 007e CBD0     		beq	.L15
 392              		.loc 1 570 0
 393 0080 40F20000 		movw	r0, #:lower16:.LC10
 394 0084 C0F20000 		movt	r0, #:upper16:.LC10
 395 0088 FFF7FEFF 		bl	test_print
 396              		.loc 1 571 0
 397 008c A000     		lsls	r0, r4, #2
 398 008e FFF7FEFF 		bl	test_printn
 399              		.loc 1 572 0
 400 0092 40F20000 		movw	r0, #:lower16:.LC12
 401 0096 C0F20000 		movt	r0, #:upper16:.LC12
 402              		.loc 1 573 0
 403 009a BDE83840 		pop	{r3, r4, r5, lr}
 404              		.loc 1 572 0
 405 009e FFF7FEBF 		b	test_println
 406              		.cfi_endproc
 407              	.LFE19:
 408              		.size	bmk11_execute, .-bmk11_execute
 409 00a2 00BFAFF3 		.section	.text.bmk11_setup,"ax",%progbits
 409      0080AFF3 
 409      0080AFF3 
 409      0080
 410              		.align	2
 411              		.p2align 4,,15
 412              		.thumb
 413              		.thumb_func
 414              		.type	bmk11_setup, %function
 415              	bmk11_setup:
 416              	.LFB18:
 417              		.loc 1 546 0
 418              		.cfi_startproc
 419              		@ args = 0, pretend = 0, frame = 0
 420              		@ frame_needed = 0, uses_anonymous_args = 0
 421              		@ link register save eliminated.
 422              		.loc 1 548 0
 423 0000 40F20000 		movw	r0, #:lower16:.LANCHOR1
 424 0004 C0F20000 		movt	r0, #:upper16:.LANCHOR1
 425 0008 0121     		movs	r1, #1
 426              		.loc 1 549 0
 427              		.loc 1 548 0
 428 000a FFF7FEBF 		b	chSemInit
 429              		.cfi_endproc
 430              	.LFE18:
 431              		.size	bmk11_setup, .-bmk11_setup
 432 000e 00BF     		.section	.text.bmk7_setup,"ax",%progbits
 433              		.align	2
 434              		.p2align 4,,15
 435              		.thumb
 436              		.thumb_func
 437              		.type	bmk7_setup, %function
 438              	bmk7_setup:
 439              	.LFB11:
 440              		.loc 1 353 0
 441              		.cfi_startproc
 442              		@ args = 0, pretend = 0, frame = 0
 443              		@ frame_needed = 0, uses_anonymous_args = 0
ARM GAS  /tmp/ccayCWiC.s 			page 9


 444              		@ link register save eliminated.
 445              		.loc 1 355 0
 446 0000 40F20000 		movw	r0, #:lower16:.LANCHOR1
 447 0004 C0F20000 		movt	r0, #:upper16:.LANCHOR1
 448 0008 0021     		movs	r1, #0
 449              		.loc 1 356 0
 450              		.loc 1 355 0
 451 000a FFF7FEBF 		b	chSemInit
 452              		.cfi_endproc
 453              	.LFE11:
 454              		.size	bmk7_setup, .-bmk7_setup
 455 000e 00BF     		.section	.text.bmk10_execute,"ax",%progbits
 456              		.align	2
 457              		.p2align 4,,15
 458              		.thumb
 459              		.thumb_func
 460              		.type	bmk10_execute, %function
 461              	bmk10_execute:
 462              	.LFB17:
 463              		.loc 1 506 0
 464              		.cfi_startproc
 465              		@ args = 0, pretend = 0, frame = 0
 466              		@ frame_needed = 0, uses_anonymous_args = 0
 467              	.LVL10:
 468 0000 38B5     		push	{r3, r4, r5, lr}
 469              	.LCFI4:
 470              		.cfi_def_cfa_offset 16
 471              		.cfi_offset 14, -4
 472              		.cfi_offset 5, -8
 473              		.cfi_offset 4, -12
 474              		.cfi_offset 3, -16
 475              		.loc 1 510 0
 476 0002 FFF7FEFF 		bl	test_wait_tick
 477              		.loc 1 511 0
 478 0006 4FF47A70 		mov	r0, #1000
 479 000a FFF7FEFF 		bl	test_start_timer
 480 000e 40F20005 		movw	r5, #:lower16:test_timer_done
 481              		.loc 1 508 0
 482 0012 0024     		movs	r4, #0
 483 0014 C0F20005 		movt	r5, #:upper16:test_timer_done
 484              	.LVL11:
 485              	.L20:
 486              		.loc 1 513 0 discriminator 1
 487              	@ 513 "../../../test/testbmk.c" 1
 488 0018 FFF7FEFF 		bl      _port_lock
 489              	@ 0 "" 2
 490              		.thumb
 491 001c FFF7FEFF 		bl	dbg_check_lock
 492              		.loc 1 514 0 discriminator 1
 493 0020 40F20000 		movw	r0, #:lower16:.LANCHOR2
 494 0024 40F20002 		movw	r2, #:lower16:tmo
 495 0028 0121     		movs	r1, #1
 496 002a 0023     		movs	r3, #0
 497 002c C0F20000 		movt	r0, #:upper16:.LANCHOR2
 498 0030 C0F20002 		movt	r2, #:upper16:tmo
 499 0034 FFF7FEFF 		bl	chVTSetI
 500              		.loc 1 515 0 discriminator 1
ARM GAS  /tmp/ccayCWiC.s 			page 10


 501 0038 40F20000 		movw	r0, #:lower16:.LANCHOR3
 502 003c 40F20002 		movw	r2, #:lower16:tmo
 503 0040 42F21071 		movw	r1, #10000
 504 0044 C0F20002 		movt	r2, #:upper16:tmo
 505 0048 0023     		movs	r3, #0
 506 004a C0F20000 		movt	r0, #:upper16:.LANCHOR3
 507 004e FFF7FEFF 		bl	chVTSetI
 508              		.loc 1 516 0 discriminator 1
 509 0052 40F20000 		movw	r0, #:lower16:.LANCHOR2
 510 0056 C0F20000 		movt	r0, #:upper16:.LANCHOR2
 511 005a FFF7FEFF 		bl	chVTResetI
 512              		.loc 1 517 0 discriminator 1
 513 005e 40F20000 		movw	r0, #:lower16:.LANCHOR3
 514 0062 C0F20000 		movt	r0, #:upper16:.LANCHOR3
 515 0066 FFF7FEFF 		bl	chVTResetI
 516              		.loc 1 518 0 discriminator 1
 517 006a FFF7FEFF 		bl	dbg_check_unlock
 518              	@ 518 "../../../test/testbmk.c" 1
 519 006e FFF7FEFF 		bl      _port_unlock
 520              	@ 0 "" 2
 521              		.loc 1 523 0 discriminator 1
 522              		.thumb
 523 0072 2B68     		ldr	r3, [r5, #0]
 524              		.loc 1 519 0 discriminator 1
 525 0074 0134     		adds	r4, r4, #1
 526              	.LVL12:
 527              		.loc 1 523 0 discriminator 1
 528 0076 002B     		cmp	r3, #0
 529 0078 CED0     		beq	.L20
 530              		.loc 1 524 0
 531 007a 40F20000 		movw	r0, #:lower16:.LC10
 532 007e C0F20000 		movt	r0, #:upper16:.LC10
 533 0082 FFF7FEFF 		bl	test_print
 534              		.loc 1 525 0
 535 0086 6000     		lsls	r0, r4, #1
 536 0088 FFF7FEFF 		bl	test_printn
 537              		.loc 1 526 0
 538 008c 40F20000 		movw	r0, #:lower16:.LC13
 539 0090 C0F20000 		movt	r0, #:upper16:.LC13
 540              		.loc 1 527 0
 541 0094 BDE83840 		pop	{r3, r4, r5, lr}
 542              		.loc 1 526 0
 543 0098 FFF7FEBF 		b	test_println
 544              		.cfi_endproc
 545              	.LFE17:
 546              		.size	bmk10_execute, .-bmk10_execute
 547              		.section	.text.bmk9_execute,"ax",%progbits
 548              		.align	2
 549              		.p2align 4,,15
 550              		.thumb
 551              		.thumb_func
 552              		.type	bmk9_execute, %function
 553              	bmk9_execute:
 554              	.LFB15:
 555              		.loc 1 458 0
 556              		.cfi_startproc
 557              		@ args = 0, pretend = 0, frame = 0
ARM GAS  /tmp/ccayCWiC.s 			page 11


 558              		@ frame_needed = 0, uses_anonymous_args = 0
 559 0000 30B5     		push	{r4, r5, lr}
 560              	.LCFI5:
 561              		.cfi_def_cfa_offset 12
 562              		.cfi_offset 14, -4
 563              		.cfi_offset 5, -8
 564              		.cfi_offset 4, -12
 565              		.loc 1 463 0
 566 0002 40F20000 		movw	r0, #:lower16:.LANCHOR4
 567              		.loc 1 458 0
 568 0006 83B0     		sub	sp, sp, #12
 569              	.LCFI6:
 570              		.cfi_def_cfa_offset 24
 571              		.loc 1 463 0
 572 0008 0024     		movs	r4, #0
 573 000a 40F20001 		movw	r1, #:lower16:.LANCHOR5
 574 000e C0F20001 		movt	r1, #:upper16:.LANCHOR5
 575 0012 1022     		movs	r2, #16
 576 0014 2346     		mov	r3, r4
 577 0016 C0F20000 		movt	r0, #:upper16:.LANCHOR4
 578 001a 0094     		str	r4, [sp, #0]
 579 001c FFF7FEFF 		bl	chIQInit
 580              	.LVL13:
 581              		.loc 1 465 0
 582 0020 FFF7FEFF 		bl	test_wait_tick
 583              		.loc 1 466 0
 584 0024 4FF47A70 		mov	r0, #1000
 585 0028 FFF7FEFF 		bl	test_start_timer
 586 002c 40F20005 		movw	r5, #:lower16:test_timer_done
 587 0030 C0F20005 		movt	r5, #:upper16:test_timer_done
 588              	.LVL14:
 589              	.L23:
 590              		.loc 1 468 0 discriminator 1
 591              	@ 468 "../../../test/testbmk.c" 1
 592 0034 FFF7FEFF 		bl      _port_lock
 593              	@ 0 "" 2
 594              		.thumb
 595 0038 FFF7FEFF 		bl	dbg_check_lock
 596              		.loc 1 469 0 discriminator 1
 597 003c 40F20000 		movw	r0, #:lower16:.LANCHOR4
 598 0040 0021     		movs	r1, #0
 599 0042 C0F20000 		movt	r0, #:upper16:.LANCHOR4
 600 0046 FFF7FEFF 		bl	chIQPutI
 601              		.loc 1 470 0 discriminator 1
 602 004a 40F20000 		movw	r0, #:lower16:.LANCHOR4
 603 004e 0121     		movs	r1, #1
 604 0050 C0F20000 		movt	r0, #:upper16:.LANCHOR4
 605 0054 FFF7FEFF 		bl	chIQPutI
 606              		.loc 1 471 0 discriminator 1
 607 0058 40F20000 		movw	r0, #:lower16:.LANCHOR4
 608 005c 0221     		movs	r1, #2
 609 005e C0F20000 		movt	r0, #:upper16:.LANCHOR4
 610 0062 FFF7FEFF 		bl	chIQPutI
 611              		.loc 1 472 0 discriminator 1
 612 0066 40F20000 		movw	r0, #:lower16:.LANCHOR4
 613 006a 0321     		movs	r1, #3
 614 006c C0F20000 		movt	r0, #:upper16:.LANCHOR4
ARM GAS  /tmp/ccayCWiC.s 			page 12


 615 0070 FFF7FEFF 		bl	chIQPutI
 616              		.loc 1 473 0 discriminator 1
 617 0074 FFF7FEFF 		bl	dbg_check_unlock
 618              	@ 473 "../../../test/testbmk.c" 1
 619 0078 FFF7FEFF 		bl      _port_unlock
 620              	@ 0 "" 2
 621              		.loc 1 474 0 discriminator 1
 622              		.thumb
 623 007c 40F20000 		movw	r0, #:lower16:.LANCHOR4
 624 0080 4FF0FF31 		mov	r1, #-1
 625 0084 C0F20000 		movt	r0, #:upper16:.LANCHOR4
 626 0088 FFF7FEFF 		bl	chIQGetTimeout
 627              		.loc 1 475 0 discriminator 1
 628 008c 40F20000 		movw	r0, #:lower16:.LANCHOR4
 629 0090 4FF0FF31 		mov	r1, #-1
 630 0094 C0F20000 		movt	r0, #:upper16:.LANCHOR4
 631 0098 FFF7FEFF 		bl	chIQGetTimeout
 632              		.loc 1 476 0 discriminator 1
 633 009c 40F20000 		movw	r0, #:lower16:.LANCHOR4
 634 00a0 4FF0FF31 		mov	r1, #-1
 635 00a4 C0F20000 		movt	r0, #:upper16:.LANCHOR4
 636 00a8 FFF7FEFF 		bl	chIQGetTimeout
 637              		.loc 1 477 0 discriminator 1
 638 00ac 40F20000 		movw	r0, #:lower16:.LANCHOR4
 639 00b0 C0F20000 		movt	r0, #:upper16:.LANCHOR4
 640 00b4 4FF0FF31 		mov	r1, #-1
 641 00b8 FFF7FEFF 		bl	chIQGetTimeout
 642              		.loc 1 482 0 discriminator 1
 643 00bc 2B68     		ldr	r3, [r5, #0]
 644              		.loc 1 478 0 discriminator 1
 645 00be 0134     		adds	r4, r4, #1
 646              	.LVL15:
 647              		.loc 1 482 0 discriminator 1
 648 00c0 002B     		cmp	r3, #0
 649 00c2 B7D0     		beq	.L23
 650              		.loc 1 483 0
 651 00c4 40F20000 		movw	r0, #:lower16:.LC10
 652 00c8 C0F20000 		movt	r0, #:upper16:.LC10
 653 00cc FFF7FEFF 		bl	test_print
 654              		.loc 1 484 0
 655 00d0 A000     		lsls	r0, r4, #2
 656 00d2 FFF7FEFF 		bl	test_printn
 657              		.loc 1 485 0
 658 00d6 40F20000 		movw	r0, #:lower16:.LC14
 659 00da C0F20000 		movt	r0, #:upper16:.LC14
 660              		.loc 1 486 0
 661 00de 03B0     		add	sp, sp, #12
 662 00e0 BDE83040 		pop	{r4, r5, lr}
 663              		.loc 1 485 0
 664 00e4 FFF7FEBF 		b	test_println
 665              		.cfi_endproc
 666              	.LFE15:
 667              		.size	bmk9_execute, .-bmk9_execute
 668 00e8 AFF30080 		.section	.text.bmk6_execute,"ax",%progbits
 668      AFF30080 
 669              		.align	2
 670              		.p2align 4,,15
ARM GAS  /tmp/ccayCWiC.s 			page 13


 671              		.thumb
 672              		.thumb_func
 673              		.type	bmk6_execute, %function
 674              	bmk6_execute:
 675              	.LFB9:
 676              		.loc 1 308 0
 677              		.cfi_startproc
 678              		@ args = 0, pretend = 0, frame = 0
 679              		@ frame_needed = 0, uses_anonymous_args = 0
 680              	.LVL16:
 681 0000 2DE9F041 		push	{r4, r5, r6, r7, r8, lr}
 682              	.LCFI7:
 683              		.cfi_def_cfa_offset 24
 684              		.cfi_offset 14, -4
 685              		.cfi_offset 8, -8
 686              		.cfi_offset 7, -12
 687              		.cfi_offset 6, -16
 688              		.cfi_offset 5, -20
 689              		.cfi_offset 4, -24
 690              		.loc 1 312 0
 691 0004 40F20000 		movw	r0, #:lower16:rlist
 692 0008 C0F20000 		movt	r0, #:upper16:rlist
 693              		.loc 1 311 0
 694 000c 40F20003 		movw	r3, #:lower16:wa
 695              		.loc 1 312 0
 696 0010 8269     		ldr	r2, [r0, #24]
 697              		.loc 1 311 0
 698 0012 C0F20003 		movt	r3, #:upper16:wa
 699              		.loc 1 308 0
 700 0016 82B0     		sub	sp, sp, #8
 701              	.LCFI8:
 702              		.cfi_def_cfa_offset 32
 703              		.loc 1 312 0
 704 0018 9768     		ldr	r7, [r2, #8]
 705              		.loc 1 311 0
 706 001a D3F80080 		ldr	r8, [r3, #0]
 707              	.LVL17:
 708              		.loc 1 313 0
 709 001e FFF7FEFF 		bl	test_wait_tick
 710              	.LVL18:
 711              		.loc 1 314 0
 712 0022 4FF47A70 		mov	r0, #1000
 713 0026 FFF7FEFF 		bl	test_start_timer
 714              		.loc 1 310 0
 715 002a 0024     		movs	r4, #0
 716 002c 40F20005 		movw	r5, #:lower16:test_timer_done
 717              		.loc 1 312 0
 718 0030 0137     		adds	r7, r7, #1
 719              	.LVL19:
 720 0032 C0F20005 		movt	r5, #:upper16:test_timer_done
 721              		.loc 1 316 0
 722 0036 2646     		mov	r6, r4
 723              	.LVL20:
 724              	.L26:
 725              		.loc 1 316 0 is_stmt 0 discriminator 1
 726 0038 40F20003 		movw	r3, #:lower16:thread2
 727 003c 4FF49871 		mov	r1, #304
ARM GAS  /tmp/ccayCWiC.s 			page 14


 728 0040 4046     		mov	r0, r8
 729 0042 3A46     		mov	r2, r7
 730 0044 C0F20003 		movt	r3, #:upper16:thread2
 731 0048 0096     		str	r6, [sp, #0]
 732 004a FFF7FEFF 		bl	chThdCreateStatic
 733              		.loc 1 321 0 is_stmt 1 discriminator 1
 734 004e 2968     		ldr	r1, [r5, #0]
 735              		.loc 1 317 0 discriminator 1
 736 0050 0134     		adds	r4, r4, #1
 737              	.LVL21:
 738              		.loc 1 321 0 discriminator 1
 739 0052 0029     		cmp	r1, #0
 740 0054 F0D0     		beq	.L26
 741              		.loc 1 322 0
 742 0056 40F20000 		movw	r0, #:lower16:.LC10
 743 005a C0F20000 		movt	r0, #:upper16:.LC10
 744 005e FFF7FEFF 		bl	test_print
 745              		.loc 1 323 0
 746 0062 2046     		mov	r0, r4
 747 0064 FFF7FEFF 		bl	test_printn
 748              		.loc 1 324 0
 749 0068 40F20000 		movw	r0, #:lower16:.LC15
 750 006c C0F20000 		movt	r0, #:upper16:.LC15
 751              		.loc 1 325 0
 752 0070 02B0     		add	sp, sp, #8
 753 0072 BDE8F041 		pop	{r4, r5, r6, r7, r8, lr}
 754              		.loc 1 324 0
 755 0076 FFF7FEBF 		b	test_println
 756              		.cfi_endproc
 757              	.LFE9:
 758              		.size	bmk6_execute, .-bmk6_execute
 759 007a 00BFAFF3 		.section	.text.bmk8_execute,"ax",%progbits
 759      0080
 760              		.align	2
 761              		.p2align 4,,15
 762              		.thumb
 763              		.thumb_func
 764              		.type	bmk8_execute, %function
 765              	bmk8_execute:
 766              	.LFB14:
 767              		.loc 1 420 0
 768              		.cfi_startproc
 769              		@ args = 0, pretend = 0, frame = 8
 770              		@ frame_needed = 0, uses_anonymous_args = 0
 771 0000 2DE9F041 		push	{r4, r5, r6, r7, r8, lr}
 772              	.LCFI9:
 773              		.cfi_def_cfa_offset 24
 774              		.cfi_offset 14, -4
 775              		.cfi_offset 8, -8
 776              		.cfi_offset 7, -12
 777              		.cfi_offset 6, -16
 778              		.cfi_offset 5, -20
 779              		.cfi_offset 4, -24
 780              		.loc 1 426 0
 781 0004 40F20007 		movw	r7, #:lower16:rlist
 782              		.loc 1 420 0
 783 0008 84B0     		sub	sp, sp, #16
ARM GAS  /tmp/ccayCWiC.s 			page 15


 784              	.LCFI10:
 785              		.cfi_def_cfa_offset 40
 786              		.loc 1 423 0
 787 000a 04AC     		add	r4, sp, #16
 788              		.loc 1 426 0
 789 000c C0F20007 		movt	r7, #:upper16:rlist
 790              		.loc 1 423 0
 791 0010 0020     		movs	r0, #0
 792 0012 44F8040D 		str	r0, [r4, #-4]!
 793              	.LVL22:
 794              		.loc 1 424 0
 795 0016 FFF7FEFF 		bl	test_wait_tick
 796              		.loc 1 426 0
 797 001a BD69     		ldr	r5, [r7, #24]
 798 001c 40F20006 		movw	r6, #:lower16:wa
 799 0020 C0F20006 		movt	r6, #:upper16:wa
 800 0024 AA68     		ldr	r2, [r5, #8]
 801 0026 3068     		ldr	r0, [r6, #0]
 802 0028 0094     		str	r4, [sp, #0]
 803 002a 40F20005 		movw	r5, #:lower16:thread8
 804 002e C0F20005 		movt	r5, #:upper16:thread8
 805 0032 013A     		subs	r2, r2, #1
 806 0034 2B46     		mov	r3, r5
 807 0036 4FF49871 		mov	r1, #304
 808 003a FFF7FEFF 		bl	chThdCreateStatic
 809              		.loc 1 427 0
 810 003e B969     		ldr	r1, [r7, #24]
 811 0040 D6F804E0 		ldr	lr, [r6, #4]
 812 0044 8B68     		ldr	r3, [r1, #8]
 813 0046 0094     		str	r4, [sp, #0]
 814              		.loc 1 426 0
 815 0048 40F20008 		movw	r8, #:lower16:threads
 816 004c C0F20008 		movt	r8, #:upper16:threads
 817              		.loc 1 427 0
 818 0050 5A1E     		subs	r2, r3, #1
 819              		.loc 1 426 0
 820 0052 C8F80000 		str	r0, [r8, #0]
 821              		.loc 1 427 0
 822 0056 2B46     		mov	r3, r5
 823 0058 7046     		mov	r0, lr
 824 005a 4FF49871 		mov	r1, #304
 825 005e FFF7FEFF 		bl	chThdCreateStatic
 826              		.loc 1 428 0
 827 0062 BA69     		ldr	r2, [r7, #24]
 828 0064 D6F808C0 		ldr	ip, [r6, #8]
 829 0068 9368     		ldr	r3, [r2, #8]
 830              		.loc 1 427 0
 831 006a C8F80400 		str	r0, [r8, #4]
 832              		.loc 1 428 0
 833 006e 5A1E     		subs	r2, r3, #1
 834 0070 6046     		mov	r0, ip
 835 0072 2B46     		mov	r3, r5
 836 0074 4FF49871 		mov	r1, #304
 837 0078 0094     		str	r4, [sp, #0]
 838 007a FFF7FEFF 		bl	chThdCreateStatic
 839              		.loc 1 429 0
 840 007e B969     		ldr	r1, [r7, #24]
ARM GAS  /tmp/ccayCWiC.s 			page 16


 841 0080 D6F80CE0 		ldr	lr, [r6, #12]
 842 0084 8A68     		ldr	r2, [r1, #8]
 843              		.loc 1 428 0
 844 0086 C8F80800 		str	r0, [r8, #8]
 845              		.loc 1 429 0
 846 008a 013A     		subs	r2, r2, #1
 847 008c 7046     		mov	r0, lr
 848 008e 2B46     		mov	r3, r5
 849 0090 4FF49871 		mov	r1, #304
 850 0094 0094     		str	r4, [sp, #0]
 851 0096 FFF7FEFF 		bl	chThdCreateStatic
 852              		.loc 1 430 0
 853 009a BB69     		ldr	r3, [r7, #24]
 854 009c 3669     		ldr	r6, [r6, #16]
 855 009e 9A68     		ldr	r2, [r3, #8]
 856              		.loc 1 429 0
 857 00a0 C8F80C00 		str	r0, [r8, #12]
 858              		.loc 1 430 0
 859 00a4 4FF49871 		mov	r1, #304
 860 00a8 013A     		subs	r2, r2, #1
 861 00aa 2B46     		mov	r3, r5
 862 00ac 3046     		mov	r0, r6
 863 00ae 0094     		str	r4, [sp, #0]
 864 00b0 FFF7FEFF 		bl	chThdCreateStatic
 865 00b4 C8F81000 		str	r0, [r8, #16]
 866              		.loc 1 432 0
 867 00b8 4FF47A70 		mov	r0, #1000
 868 00bc FFF7FEFF 		bl	chThdSleep
 869              		.loc 1 433 0
 870 00c0 FFF7FEFF 		bl	test_terminate_threads
 871              		.loc 1 434 0
 872 00c4 FFF7FEFF 		bl	test_wait_threads
 873              		.loc 1 436 0
 874 00c8 40F20000 		movw	r0, #:lower16:.LC10
 875 00cc C0F20000 		movt	r0, #:upper16:.LC10
 876 00d0 FFF7FEFF 		bl	test_print
 877              		.loc 1 437 0
 878 00d4 0398     		ldr	r0, [sp, #12]
 879 00d6 FFF7FEFF 		bl	test_printn
 880              		.loc 1 438 0
 881 00da 40F20000 		movw	r0, #:lower16:.LC16
 882 00de C0F20000 		movt	r0, #:upper16:.LC16
 883 00e2 FFF7FEFF 		bl	test_println
 884              		.loc 1 439 0
 885 00e6 04B0     		add	sp, sp, #16
 886 00e8 BDE8F081 		pop	{r4, r5, r6, r7, r8, pc}
 887              		.cfi_endproc
 888              	.LFE14:
 889              		.size	bmk8_execute, .-bmk8_execute
 890 00ec AFF30080 		.section	.text.thread8,"ax",%progbits
 891              		.align	2
 892              		.p2align 4,,15
 893              		.thumb
 894              		.thumb_func
 895              		.type	thread8, %function
 896              	thread8:
 897              	.LFB13:
ARM GAS  /tmp/ccayCWiC.s 			page 17


 898              		.loc 1 405 0
 899              		.cfi_startproc
 900              		@ args = 0, pretend = 0, frame = 0
 901              		@ frame_needed = 0, uses_anonymous_args = 0
 902              	.LVL23:
 903 0000 38B5     		push	{r3, r4, r5, lr}
 904              	.LCFI11:
 905              		.cfi_def_cfa_offset 16
 906              		.cfi_offset 14, -4
 907              		.cfi_offset 5, -8
 908              		.cfi_offset 4, -12
 909              		.cfi_offset 3, -16
 910 0002 40F20004 		movw	r4, #:lower16:rlist
 911              		.loc 1 405 0
 912 0006 0546     		mov	r5, r0
 913 0008 C0F20004 		movt	r4, #:upper16:rlist
 914              	.LVL24:
 915              	.L30:
 916              		.loc 1 408 0 discriminator 1
 917 000c FFF7FEFF 		bl	chThdYield
 918              		.loc 1 409 0 discriminator 1
 919 0010 FFF7FEFF 		bl	chThdYield
 920              		.loc 1 410 0 discriminator 1
 921 0014 FFF7FEFF 		bl	chThdYield
 922              		.loc 1 411 0 discriminator 1
 923 0018 FFF7FEFF 		bl	chThdYield
 924              		.loc 1 412 0 discriminator 1
 925 001c 2968     		ldr	r1, [r5, #0]
 926              		.loc 1 416 0 discriminator 1
 927 001e A069     		ldr	r0, [r4, #24]
 928              		.loc 1 412 0 discriminator 1
 929 0020 0A1D     		adds	r2, r1, #4
 930 0022 2A60     		str	r2, [r5, #0]
 931              		.loc 1 416 0 discriminator 1
 932 0024 90F82130 		ldrb	r3, [r0, #33]	@ zero_extendqisi2
 933 0028 5907     		lsls	r1, r3, #29
 934 002a EFD5     		bpl	.L30
 935              		.loc 1 418 0
 936 002c 0020     		movs	r0, #0
 937 002e 38BD     		pop	{r3, r4, r5, pc}
 938              		.cfi_endproc
 939              	.LFE13:
 940              		.size	thread8, .-thread8
 941              		.section	.text.bmk7_execute,"ax",%progbits
 942              		.align	2
 943              		.p2align 4,,15
 944              		.thumb
 945              		.thumb_func
 946              		.type	bmk7_execute, %function
 947              	bmk7_execute:
 948              	.LFB12:
 949              		.loc 1 358 0
 950              		.cfi_startproc
 951              		@ args = 0, pretend = 0, frame = 0
 952              		@ frame_needed = 0, uses_anonymous_args = 0
 953 0000 F0B5     		push	{r4, r5, r6, r7, lr}
 954              	.LCFI12:
ARM GAS  /tmp/ccayCWiC.s 			page 18


 955              		.cfi_def_cfa_offset 20
 956              		.cfi_offset 14, -4
 957              		.cfi_offset 7, -8
 958              		.cfi_offset 6, -12
 959              		.cfi_offset 5, -16
 960              		.cfi_offset 4, -20
 961              		.loc 1 361 0
 962 0002 40F20006 		movw	r6, #:lower16:rlist
 963 0006 C0F20006 		movt	r6, #:upper16:rlist
 964 000a 40F20005 		movw	r5, #:lower16:wa
 965 000e B769     		ldr	r7, [r6, #24]
 966 0010 C0F20005 		movt	r5, #:upper16:wa
 967 0014 BA68     		ldr	r2, [r7, #8]
 968 0016 2868     		ldr	r0, [r5, #0]
 969              		.loc 1 358 0
 970 0018 83B0     		sub	sp, sp, #12
 971              	.LCFI13:
 972              		.cfi_def_cfa_offset 32
 973              		.loc 1 361 0
 974 001a 40F20003 		movw	r3, #:lower16:thread3
 975 001e 0027     		movs	r7, #0
 976 0020 4FF49871 		mov	r1, #304
 977 0024 0532     		adds	r2, r2, #5
 978 0026 C0F20003 		movt	r3, #:upper16:thread3
 979 002a 0097     		str	r7, [sp, #0]
 980 002c FFF7FEFF 		bl	chThdCreateStatic
 981              		.loc 1 362 0
 982 0030 B469     		ldr	r4, [r6, #24]
 983 0032 D5F804E0 		ldr	lr, [r5, #4]
 984 0036 A268     		ldr	r2, [r4, #8]
 985 0038 0097     		str	r7, [sp, #0]
 986              		.loc 1 361 0
 987 003a 40F20004 		movw	r4, #:lower16:threads
 988 003e C0F20004 		movt	r4, #:upper16:threads
 989              		.loc 1 362 0
 990 0042 40F20003 		movw	r3, #:lower16:thread3
 991              		.loc 1 361 0
 992 0046 2060     		str	r0, [r4, #0]
 993              		.loc 1 362 0
 994 0048 4FF49871 		mov	r1, #304
 995 004c 7046     		mov	r0, lr
 996 004e 0432     		adds	r2, r2, #4
 997 0050 C0F20003 		movt	r3, #:upper16:thread3
 998 0054 FFF7FEFF 		bl	chThdCreateStatic
 999              		.loc 1 363 0
 1000 0058 B369     		ldr	r3, [r6, #24]
 1001 005a D5F808C0 		ldr	ip, [r5, #8]
 1002 005e 9A68     		ldr	r2, [r3, #8]
 1003              		.loc 1 362 0
 1004 0060 6060     		str	r0, [r4, #4]
 1005              		.loc 1 363 0
 1006 0062 40F20003 		movw	r3, #:lower16:thread3
 1007 0066 6046     		mov	r0, ip
 1008 0068 4FF49871 		mov	r1, #304
 1009 006c 0332     		adds	r2, r2, #3
 1010 006e C0F20003 		movt	r3, #:upper16:thread3
 1011 0072 0097     		str	r7, [sp, #0]
ARM GAS  /tmp/ccayCWiC.s 			page 19


 1012 0074 FFF7FEFF 		bl	chThdCreateStatic
 1013              		.loc 1 364 0
 1014 0078 B169     		ldr	r1, [r6, #24]
 1015 007a D5F80CE0 		ldr	lr, [r5, #12]
 1016 007e 8A68     		ldr	r2, [r1, #8]
 1017              		.loc 1 363 0
 1018 0080 A060     		str	r0, [r4, #8]
 1019              		.loc 1 364 0
 1020 0082 40F20003 		movw	r3, #:lower16:thread3
 1021 0086 7046     		mov	r0, lr
 1022 0088 4FF49871 		mov	r1, #304
 1023 008c 0232     		adds	r2, r2, #2
 1024 008e C0F20003 		movt	r3, #:upper16:thread3
 1025 0092 0097     		str	r7, [sp, #0]
 1026 0094 FFF7FEFF 		bl	chThdCreateStatic
 1027              		.loc 1 365 0
 1028 0098 B369     		ldr	r3, [r6, #24]
 1029 009a 2D69     		ldr	r5, [r5, #16]
 1030 009c 9A68     		ldr	r2, [r3, #8]
 1031              		.loc 1 364 0
 1032 009e E060     		str	r0, [r4, #12]
 1033              		.loc 1 365 0
 1034 00a0 40F20003 		movw	r3, #:lower16:thread3
 1035 00a4 4FF49871 		mov	r1, #304
 1036 00a8 0132     		adds	r2, r2, #1
 1037 00aa C0F20003 		movt	r3, #:upper16:thread3
 1038 00ae 2846     		mov	r0, r5
 1039 00b0 0097     		str	r7, [sp, #0]
 1040 00b2 FFF7FEFF 		bl	chThdCreateStatic
 1041 00b6 2061     		str	r0, [r4, #16]
 1042              	.LVL25:
 1043              		.loc 1 368 0
 1044 00b8 FFF7FEFF 		bl	test_wait_tick
 1045              		.loc 1 369 0
 1046 00bc 4FF47A70 		mov	r0, #1000
 1047 00c0 FFF7FEFF 		bl	test_start_timer
 1048 00c4 40F20004 		movw	r4, #:lower16:test_timer_done
 1049 00c8 C0F20004 		movt	r4, #:upper16:test_timer_done
 1050              	.LVL26:
 1051              	.L33:
 1052              		.loc 1 371 0 discriminator 1
 1053 00cc 40F20000 		movw	r0, #:lower16:.LANCHOR1
 1054 00d0 C0F20000 		movt	r0, #:upper16:.LANCHOR1
 1055 00d4 0021     		movs	r1, #0
 1056 00d6 FFF7FEFF 		bl	chSemReset
 1057              		.loc 1 376 0 discriminator 1
 1058 00da 2068     		ldr	r0, [r4, #0]
 1059              		.loc 1 372 0 discriminator 1
 1060 00dc 0137     		adds	r7, r7, #1
 1061              	.LVL27:
 1062              		.loc 1 376 0 discriminator 1
 1063 00de 0028     		cmp	r0, #0
 1064 00e0 F4D0     		beq	.L33
 1065              		.loc 1 377 0
 1066 00e2 FFF7FEFF 		bl	test_terminate_threads
 1067              		.loc 1 378 0
 1068 00e6 40F20000 		movw	r0, #:lower16:.LANCHOR1
ARM GAS  /tmp/ccayCWiC.s 			page 20


 1069 00ea 0021     		movs	r1, #0
 1070 00ec C0F20000 		movt	r0, #:upper16:.LANCHOR1
 1071 00f0 FFF7FEFF 		bl	chSemReset
 1072              		.loc 1 379 0
 1073 00f4 FFF7FEFF 		bl	test_wait_threads
 1074              		.loc 1 381 0
 1075 00f8 40F20000 		movw	r0, #:lower16:.LC10
 1076 00fc C0F20000 		movt	r0, #:upper16:.LC10
 1077 0100 FFF7FEFF 		bl	test_print
 1078              		.loc 1 382 0
 1079 0104 3846     		mov	r0, r7
 1080 0106 FFF7FEFF 		bl	test_printn
 1081              		.loc 1 383 0
 1082 010a 40F20000 		movw	r0, #:lower16:.LC17
 1083 010e C0F20000 		movt	r0, #:upper16:.LC17
 1084              		.loc 1 384 0
 1085 0112 07EB4707 		add	r7, r7, r7, lsl #1
 1086              	.LVL28:
 1087              		.loc 1 383 0
 1088 0116 FFF7FEFF 		bl	test_print
 1089              		.loc 1 384 0
 1090 011a 7800     		lsls	r0, r7, #1
 1091 011c FFF7FEFF 		bl	test_printn
 1092              		.loc 1 385 0
 1093 0120 40F20000 		movw	r0, #:lower16:.LC16
 1094 0124 C0F20000 		movt	r0, #:upper16:.LC16
 1095              		.loc 1 386 0
 1096 0128 03B0     		add	sp, sp, #12
 1097 012a BDE8F040 		pop	{r4, r5, r6, r7, lr}
 1098              		.loc 1 385 0
 1099 012e FFF7FEBF 		b	test_println
 1100              		.cfi_endproc
 1101              	.LFE12:
 1102              		.size	bmk7_execute, .-bmk7_execute
 1103 0132 00BFAFF3 		.section	.text.bmk5_execute,"ax",%progbits
 1103      0080AFF3 
 1103      0080AFF3 
 1103      0080
 1104              		.align	2
 1105              		.p2align 4,,15
 1106              		.thumb
 1107              		.thumb_func
 1108              		.type	bmk5_execute, %function
 1109              	bmk5_execute:
 1110              	.LFB8:
 1111              		.loc 1 269 0
 1112              		.cfi_startproc
 1113              		@ args = 0, pretend = 0, frame = 0
 1114              		@ frame_needed = 0, uses_anonymous_args = 0
 1115              	.LVL29:
 1116 0000 2DE9F041 		push	{r4, r5, r6, r7, r8, lr}
 1117              	.LCFI14:
 1118              		.cfi_def_cfa_offset 24
 1119              		.cfi_offset 14, -4
 1120              		.cfi_offset 8, -8
 1121              		.cfi_offset 7, -12
 1122              		.cfi_offset 6, -16
ARM GAS  /tmp/ccayCWiC.s 			page 21


 1123              		.cfi_offset 5, -20
 1124              		.cfi_offset 4, -24
 1125              		.loc 1 273 0
 1126 0004 40F20000 		movw	r0, #:lower16:rlist
 1127 0008 C0F20000 		movt	r0, #:upper16:rlist
 1128              		.loc 1 272 0
 1129 000c 40F20003 		movw	r3, #:lower16:wa
 1130              		.loc 1 273 0
 1131 0010 8269     		ldr	r2, [r0, #24]
 1132              		.loc 1 272 0
 1133 0012 C0F20003 		movt	r3, #:upper16:wa
 1134              		.loc 1 269 0
 1135 0016 82B0     		sub	sp, sp, #8
 1136              	.LCFI15:
 1137              		.cfi_def_cfa_offset 32
 1138              		.loc 1 273 0
 1139 0018 9768     		ldr	r7, [r2, #8]
 1140              		.loc 1 272 0
 1141 001a D3F80080 		ldr	r8, [r3, #0]
 1142              	.LVL30:
 1143              		.loc 1 274 0
 1144 001e FFF7FEFF 		bl	test_wait_tick
 1145              	.LVL31:
 1146              		.loc 1 275 0
 1147 0022 4FF47A70 		mov	r0, #1000
 1148 0026 FFF7FEFF 		bl	test_start_timer
 1149              		.loc 1 271 0
 1150 002a 0024     		movs	r4, #0
 1151 002c 40F20005 		movw	r5, #:lower16:test_timer_done
 1152              		.loc 1 273 0
 1153 0030 013F     		subs	r7, r7, #1
 1154              	.LVL32:
 1155 0032 C0F20005 		movt	r5, #:upper16:test_timer_done
 1156              		.loc 1 277 0
 1157 0036 2646     		mov	r6, r4
 1158              	.LVL33:
 1159              	.L36:
 1160              		.loc 1 277 0 is_stmt 0 discriminator 1
 1161 0038 40F20003 		movw	r3, #:lower16:thread2
 1162 003c 4FF49871 		mov	r1, #304
 1163 0040 3A46     		mov	r2, r7
 1164 0042 C0F20003 		movt	r3, #:upper16:thread2
 1165 0046 4046     		mov	r0, r8
 1166 0048 0096     		str	r6, [sp, #0]
 1167 004a FFF7FEFF 		bl	chThdCreateStatic
 1168 004e FFF7FEFF 		bl	chThdWait
 1169              		.loc 1 282 0 is_stmt 1 discriminator 1
 1170 0052 2968     		ldr	r1, [r5, #0]
 1171              		.loc 1 278 0 discriminator 1
 1172 0054 0134     		adds	r4, r4, #1
 1173              	.LVL34:
 1174              		.loc 1 282 0 discriminator 1
 1175 0056 0029     		cmp	r1, #0
 1176 0058 EED0     		beq	.L36
 1177              		.loc 1 283 0
 1178 005a 40F20000 		movw	r0, #:lower16:.LC10
 1179 005e C0F20000 		movt	r0, #:upper16:.LC10
ARM GAS  /tmp/ccayCWiC.s 			page 22


 1180 0062 FFF7FEFF 		bl	test_print
 1181              		.loc 1 284 0
 1182 0066 2046     		mov	r0, r4
 1183 0068 FFF7FEFF 		bl	test_printn
 1184              		.loc 1 285 0
 1185 006c 40F20000 		movw	r0, #:lower16:.LC15
 1186 0070 C0F20000 		movt	r0, #:upper16:.LC15
 1187              		.loc 1 286 0
 1188 0074 02B0     		add	sp, sp, #8
 1189 0076 BDE8F041 		pop	{r4, r5, r6, r7, r8, lr}
 1190              		.loc 1 285 0
 1191 007a FFF7FEBF 		b	test_println
 1192              		.cfi_endproc
 1193              	.LFE8:
 1194              		.size	bmk5_execute, .-bmk5_execute
 1195 007e 00BF     		.section	.text.bmk4_execute,"ax",%progbits
 1196              		.align	2
 1197              		.p2align 4,,15
 1198              		.thumb
 1199              		.thumb_func
 1200              		.type	bmk4_execute, %function
 1201              	bmk4_execute:
 1202              	.LFB7:
 1203              		.loc 1 221 0
 1204              		.cfi_startproc
 1205              		@ args = 0, pretend = 0, frame = 0
 1206              		@ frame_needed = 0, uses_anonymous_args = 0
 1207 0000 70B5     		push	{r4, r5, r6, lr}
 1208              	.LCFI16:
 1209              		.cfi_def_cfa_offset 16
 1210              		.cfi_offset 14, -4
 1211              		.cfi_offset 6, -8
 1212              		.cfi_offset 5, -12
 1213              		.cfi_offset 4, -16
 1214              		.loc 1 225 0
 1215 0002 40F20004 		movw	r4, #:lower16:rlist
 1216 0006 C0F20004 		movt	r4, #:upper16:rlist
 1217 000a 40F20000 		movw	r0, #:lower16:wa
 1218 000e A169     		ldr	r1, [r4, #24]
 1219 0010 C0F20000 		movt	r0, #:upper16:wa
 1220 0014 8A68     		ldr	r2, [r1, #8]
 1221 0016 0068     		ldr	r0, [r0, #0]
 1222              		.loc 1 221 0
 1223 0018 82B0     		sub	sp, sp, #8
 1224              	.LCFI17:
 1225              		.cfi_def_cfa_offset 24
 1226              		.loc 1 225 0
 1227 001a 40F20003 		movw	r3, #:lower16:thread4
 1228 001e 4FF49871 		mov	r1, #304
 1229 0022 0132     		adds	r2, r2, #1
 1230 0024 C0F20003 		movt	r3, #:upper16:thread4
 1231 0028 0024     		movs	r4, #0
 1232 002a 0094     		str	r4, [sp, #0]
 1233 002c FFF7FEFF 		bl	chThdCreateStatic
 1234 0030 40F20003 		movw	r3, #:lower16:threads
 1235 0034 C0F20003 		movt	r3, #:upper16:threads
 1236 0038 0546     		mov	r5, r0
ARM GAS  /tmp/ccayCWiC.s 			page 23


 1237 003a 1860     		str	r0, [r3, #0]
 1238              	.LVL35:
 1239              		.loc 1 227 0
 1240 003c FFF7FEFF 		bl	test_wait_tick
 1241              	.LVL36:
 1242              		.loc 1 228 0
 1243 0040 4FF47A70 		mov	r0, #1000
 1244 0044 FFF7FEFF 		bl	test_start_timer
 1245 0048 40F20006 		movw	r6, #:lower16:test_timer_done
 1246 004c C0F20006 		movt	r6, #:upper16:test_timer_done
 1247              	.LVL37:
 1248              	.L39:
 1249              		.loc 1 230 0 discriminator 1
 1250              	@ 230 "../../../test/testbmk.c" 1
 1251 0050 FFF7FEFF 		bl      _port_lock
 1252              	@ 0 "" 2
 1253              		.thumb
 1254 0054 FFF7FEFF 		bl	dbg_check_lock
 1255              		.loc 1 231 0 discriminator 1
 1256 0058 2846     		mov	r0, r5
 1257 005a 0021     		movs	r1, #0
 1258 005c FFF7FEFF 		bl	chSchWakeupS
 1259              		.loc 1 232 0 discriminator 1
 1260 0060 2846     		mov	r0, r5
 1261 0062 0021     		movs	r1, #0
 1262 0064 FFF7FEFF 		bl	chSchWakeupS
 1263              		.loc 1 233 0 discriminator 1
 1264 0068 2846     		mov	r0, r5
 1265 006a 0021     		movs	r1, #0
 1266 006c FFF7FEFF 		bl	chSchWakeupS
 1267              		.loc 1 234 0 discriminator 1
 1268 0070 2846     		mov	r0, r5
 1269 0072 0021     		movs	r1, #0
 1270 0074 FFF7FEFF 		bl	chSchWakeupS
 1271              		.loc 1 235 0 discriminator 1
 1272 0078 FFF7FEFF 		bl	dbg_check_unlock
 1273              	@ 235 "../../../test/testbmk.c" 1
 1274 007c FFF7FEFF 		bl      _port_unlock
 1275              	@ 0 "" 2
 1276              		.loc 1 240 0 discriminator 1
 1277              		.thumb
 1278 0080 3368     		ldr	r3, [r6, #0]
 1279              		.loc 1 236 0 discriminator 1
 1280 0082 0434     		adds	r4, r4, #4
 1281              	.LVL38:
 1282              		.loc 1 240 0 discriminator 1
 1283 0084 002B     		cmp	r3, #0
 1284 0086 E3D0     		beq	.L39
 1285              		.loc 1 241 0
 1286              	@ 241 "../../../test/testbmk.c" 1
 1287 0088 FFF7FEFF 		bl      _port_lock
 1288              	@ 0 "" 2
 1289              		.thumb
 1290 008c FFF7FEFF 		bl	dbg_check_lock
 1291              		.loc 1 242 0
 1292 0090 2846     		mov	r0, r5
 1293 0092 4FF0FF31 		mov	r1, #-1
ARM GAS  /tmp/ccayCWiC.s 			page 24


 1294 0096 FFF7FEFF 		bl	chSchWakeupS
 1295              		.loc 1 243 0
 1296 009a FFF7FEFF 		bl	dbg_check_unlock
 1297              	@ 243 "../../../test/testbmk.c" 1
 1298 009e FFF7FEFF 		bl      _port_unlock
 1299              	@ 0 "" 2
 1300              		.loc 1 245 0
 1301              		.thumb
 1302 00a2 FFF7FEFF 		bl	test_wait_threads
 1303              		.loc 1 246 0
 1304 00a6 40F20000 		movw	r0, #:lower16:.LC10
 1305 00aa C0F20000 		movt	r0, #:upper16:.LC10
 1306 00ae FFF7FEFF 		bl	test_print
 1307              		.loc 1 247 0
 1308 00b2 6000     		lsls	r0, r4, #1
 1309 00b4 FFF7FEFF 		bl	test_printn
 1310              		.loc 1 248 0
 1311 00b8 40F20000 		movw	r0, #:lower16:.LC16
 1312 00bc C0F20000 		movt	r0, #:upper16:.LC16
 1313              		.loc 1 249 0
 1314 00c0 02B0     		add	sp, sp, #8
 1315 00c2 BDE87040 		pop	{r4, r5, r6, lr}
 1316              		.loc 1 248 0
 1317 00c6 FFF7FEBF 		b	test_println
 1318              		.cfi_endproc
 1319              	.LFE7:
 1320              		.size	bmk4_execute, .-bmk4_execute
 1321 00ca 00BFAFF3 		.section	.text.msg_loop_test,"ax",%progbits
 1321      0080
 1322              		.align	2
 1323              		.p2align 4,,15
 1324              		.thumb
 1325              		.thumb_func
 1326              		.type	msg_loop_test, %function
 1327              	msg_loop_test:
 1328              	.LFB1:
 1329              		.loc 1 84 0
 1330              		.cfi_startproc
 1331              		@ args = 0, pretend = 0, frame = 0
 1332              		@ frame_needed = 0, uses_anonymous_args = 0
 1333              	.LVL39:
 1334 0000 70B5     		push	{r4, r5, r6, lr}
 1335              	.LCFI18:
 1336              		.cfi_def_cfa_offset 16
 1337              		.cfi_offset 14, -4
 1338              		.cfi_offset 6, -8
 1339              		.cfi_offset 5, -12
 1340              		.cfi_offset 4, -16
 1341              		.loc 1 84 0
 1342 0002 0646     		mov	r6, r0
 1343              		.loc 1 87 0
 1344 0004 FFF7FEFF 		bl	test_wait_tick
 1345              	.LVL40:
 1346              		.loc 1 88 0
 1347 0008 4FF47A70 		mov	r0, #1000
 1348 000c FFF7FEFF 		bl	test_start_timer
 1349 0010 40F20005 		movw	r5, #:lower16:test_timer_done
ARM GAS  /tmp/ccayCWiC.s 			page 25


 1350              		.loc 1 86 0
 1351 0014 0024     		movs	r4, #0
 1352 0016 C0F20005 		movt	r5, #:upper16:test_timer_done
 1353              	.LVL41:
 1354              	.L42:
 1355              		.loc 1 90 0 discriminator 1
 1356 001a 3046     		mov	r0, r6
 1357 001c 0121     		movs	r1, #1
 1358 001e FFF7FEFF 		bl	chMsgSend
 1359              		.loc 1 95 0 discriminator 1
 1360 0022 2B68     		ldr	r3, [r5, #0]
 1361              		.loc 1 91 0 discriminator 1
 1362 0024 0134     		adds	r4, r4, #1
 1363              	.LVL42:
 1364              		.loc 1 95 0 discriminator 1
 1365 0026 002B     		cmp	r3, #0
 1366 0028 F7D0     		beq	.L42
 1367              		.loc 1 96 0
 1368 002a 3046     		mov	r0, r6
 1369 002c 0021     		movs	r1, #0
 1370 002e FFF7FEFF 		bl	chMsgSend
 1371              		.loc 1 98 0
 1372 0032 2046     		mov	r0, r4
 1373 0034 70BD     		pop	{r4, r5, r6, pc}
 1374              		.cfi_endproc
 1375              	.LFE1:
 1376              		.size	msg_loop_test, .-msg_loop_test
 1377 0036 00BFAFF3 		.section	.text.bmk3_execute,"ax",%progbits
 1377      0080AFF3 
 1377      0080
 1378              		.align	2
 1379              		.p2align 4,,15
 1380              		.thumb
 1381              		.thumb_func
 1382              		.type	bmk3_execute, %function
 1383              	bmk3_execute:
 1384              	.LFB5:
 1385              		.loc 1 173 0
 1386              		.cfi_startproc
 1387              		@ args = 0, pretend = 0, frame = 0
 1388              		@ frame_needed = 0, uses_anonymous_args = 0
 1389 0000 2DE9F041 		push	{r4, r5, r6, r7, r8, lr}
 1390              	.LCFI19:
 1391              		.cfi_def_cfa_offset 24
 1392              		.cfi_offset 14, -4
 1393              		.cfi_offset 8, -8
 1394              		.cfi_offset 7, -12
 1395              		.cfi_offset 6, -16
 1396              		.cfi_offset 5, -20
 1397              		.cfi_offset 4, -24
 1398              		.loc 1 176 0
 1399 0004 40F20006 		movw	r6, #:lower16:rlist
 1400 0008 C0F20006 		movt	r6, #:upper16:rlist
 1401 000c 40F20005 		movw	r5, #:lower16:wa
 1402 0010 B169     		ldr	r1, [r6, #24]
 1403 0012 C0F20005 		movt	r5, #:upper16:wa
 1404 0016 8C68     		ldr	r4, [r1, #8]
ARM GAS  /tmp/ccayCWiC.s 			page 26


 1405 0018 2868     		ldr	r0, [r5, #0]
 1406              		.loc 1 173 0
 1407 001a 82B0     		sub	sp, sp, #8
 1408              	.LCFI20:
 1409              		.cfi_def_cfa_offset 32
 1410              		.loc 1 176 0
 1411 001c 40F20003 		movw	r3, #:lower16:thread1
 1412 0020 4FF00008 		mov	r8, #0
 1413 0024 621C     		adds	r2, r4, #1
 1414 0026 4FF49871 		mov	r1, #304
 1415 002a C0F20003 		movt	r3, #:upper16:thread1
 1416 002e CDF80080 		str	r8, [sp, #0]
 1417 0032 FFF7FEFF 		bl	chThdCreateStatic
 1418              		.loc 1 177 0
 1419 0036 B769     		ldr	r7, [r6, #24]
 1420 0038 D5F804E0 		ldr	lr, [r5, #4]
 1421 003c BB68     		ldr	r3, [r7, #8]
 1422 003e CDF80080 		str	r8, [sp, #0]
 1423              		.loc 1 176 0
 1424 0042 40F20004 		movw	r4, #:lower16:threads
 1425 0046 C0F20004 		movt	r4, #:upper16:threads
 1426              		.loc 1 177 0
 1427 004a 40F20007 		movw	r7, #:lower16:thread2
 1428 004e C0F20007 		movt	r7, #:upper16:thread2
 1429 0052 9A1E     		subs	r2, r3, #2
 1430              		.loc 1 176 0
 1431 0054 2060     		str	r0, [r4, #0]
 1432              		.loc 1 177 0
 1433 0056 3B46     		mov	r3, r7
 1434 0058 7046     		mov	r0, lr
 1435 005a 4FF49871 		mov	r1, #304
 1436 005e FFF7FEFF 		bl	chThdCreateStatic
 1437              		.loc 1 178 0
 1438 0062 B269     		ldr	r2, [r6, #24]
 1439 0064 D5F808C0 		ldr	ip, [r5, #8]
 1440 0068 9368     		ldr	r3, [r2, #8]
 1441              		.loc 1 177 0
 1442 006a 6060     		str	r0, [r4, #4]
 1443              		.loc 1 178 0
 1444 006c DA1E     		subs	r2, r3, #3
 1445 006e 6046     		mov	r0, ip
 1446 0070 3B46     		mov	r3, r7
 1447 0072 4FF49871 		mov	r1, #304
 1448 0076 CDF80080 		str	r8, [sp, #0]
 1449 007a FFF7FEFF 		bl	chThdCreateStatic
 1450              		.loc 1 179 0
 1451 007e B169     		ldr	r1, [r6, #24]
 1452 0080 D5F80CE0 		ldr	lr, [r5, #12]
 1453 0084 8A68     		ldr	r2, [r1, #8]
 1454              		.loc 1 178 0
 1455 0086 A060     		str	r0, [r4, #8]
 1456              		.loc 1 179 0
 1457 0088 043A     		subs	r2, r2, #4
 1458 008a 7046     		mov	r0, lr
 1459 008c 3B46     		mov	r3, r7
 1460 008e 4FF49871 		mov	r1, #304
 1461 0092 CDF80080 		str	r8, [sp, #0]
ARM GAS  /tmp/ccayCWiC.s 			page 27


 1462 0096 FFF7FEFF 		bl	chThdCreateStatic
 1463              		.loc 1 180 0
 1464 009a B369     		ldr	r3, [r6, #24]
 1465 009c 2D69     		ldr	r5, [r5, #16]
 1466 009e 9A68     		ldr	r2, [r3, #8]
 1467              		.loc 1 179 0
 1468 00a0 E060     		str	r0, [r4, #12]
 1469              		.loc 1 180 0
 1470 00a2 4FF49871 		mov	r1, #304
 1471 00a6 053A     		subs	r2, r2, #5
 1472 00a8 3B46     		mov	r3, r7
 1473 00aa 2846     		mov	r0, r5
 1474 00ac CDF80080 		str	r8, [sp, #0]
 1475 00b0 FFF7FEFF 		bl	chThdCreateStatic
 1476 00b4 2061     		str	r0, [r4, #16]
 1477              		.loc 1 181 0
 1478 00b6 2068     		ldr	r0, [r4, #0]
 1479 00b8 FFF7FEFF 		bl	msg_loop_test
 1480 00bc 0446     		mov	r4, r0
 1481              	.LVL43:
 1482              		.loc 1 182 0
 1483 00be FFF7FEFF 		bl	test_wait_threads
 1484              	.LVL44:
 1485              		.loc 1 183 0
 1486 00c2 40F20000 		movw	r0, #:lower16:.LC10
 1487 00c6 C0F20000 		movt	r0, #:upper16:.LC10
 1488 00ca FFF7FEFF 		bl	test_print
 1489              		.loc 1 184 0
 1490 00ce 2046     		mov	r0, r4
 1491 00d0 FFF7FEFF 		bl	test_printn
 1492              		.loc 1 185 0
 1493 00d4 40F20000 		movw	r0, #:lower16:.LC18
 1494 00d8 C0F20000 		movt	r0, #:upper16:.LC18
 1495 00dc FFF7FEFF 		bl	test_print
 1496              		.loc 1 186 0
 1497 00e0 6000     		lsls	r0, r4, #1
 1498 00e2 FFF7FEFF 		bl	test_printn
 1499              		.loc 1 187 0
 1500 00e6 40F20000 		movw	r0, #:lower16:.LC16
 1501 00ea C0F20000 		movt	r0, #:upper16:.LC16
 1502              		.loc 1 188 0
 1503 00ee 02B0     		add	sp, sp, #8
 1504 00f0 BDE8F041 		pop	{r4, r5, r6, r7, r8, lr}
 1505              		.loc 1 187 0
 1506 00f4 FFF7FEBF 		b	test_println
 1507              		.cfi_endproc
 1508              	.LFE5:
 1509              		.size	bmk3_execute, .-bmk3_execute
 1510 00f8 AFF30080 		.section	.text.bmk2_execute,"ax",%progbits
 1510      AFF30080 
 1511              		.align	2
 1512              		.p2align 4,,15
 1513              		.thumb
 1514              		.thumb_func
 1515              		.type	bmk2_execute, %function
 1516              	bmk2_execute:
 1517              	.LFB3:
ARM GAS  /tmp/ccayCWiC.s 			page 28


 1518              		.loc 1 138 0
 1519              		.cfi_startproc
 1520              		@ args = 0, pretend = 0, frame = 0
 1521              		@ frame_needed = 0, uses_anonymous_args = 0
 1522              		.loc 1 141 0
 1523 0000 40F2000C 		movw	ip, #:lower16:rlist
 1524              		.loc 1 138 0
 1525 0004 10B5     		push	{r4, lr}
 1526              	.LCFI21:
 1527              		.cfi_def_cfa_offset 8
 1528              		.cfi_offset 14, -4
 1529              		.cfi_offset 4, -8
 1530              		.loc 1 141 0
 1531 0006 C0F2000C 		movt	ip, #:upper16:rlist
 1532 000a 40F20000 		movw	r0, #:lower16:wa
 1533 000e DCF81810 		ldr	r1, [ip, #24]
 1534 0012 C0F20000 		movt	r0, #:upper16:wa
 1535 0016 8A68     		ldr	r2, [r1, #8]
 1536 0018 0068     		ldr	r0, [r0, #0]
 1537              		.loc 1 138 0
 1538 001a 82B0     		sub	sp, sp, #8
 1539              	.LCFI22:
 1540              		.cfi_def_cfa_offset 16
 1541              		.loc 1 141 0
 1542 001c 40F20003 		movw	r3, #:lower16:thread1
 1543 0020 4FF49871 		mov	r1, #304
 1544 0024 0132     		adds	r2, r2, #1
 1545 0026 0024     		movs	r4, #0
 1546 0028 C0F20003 		movt	r3, #:upper16:thread1
 1547 002c 0094     		str	r4, [sp, #0]
 1548 002e FFF7FEFF 		bl	chThdCreateStatic
 1549 0032 40F20003 		movw	r3, #:lower16:threads
 1550 0036 C0F20003 		movt	r3, #:upper16:threads
 1551 003a 1860     		str	r0, [r3, #0]
 1552              		.loc 1 142 0
 1553 003c FFF7FEFF 		bl	msg_loop_test
 1554 0040 0446     		mov	r4, r0
 1555              	.LVL45:
 1556              		.loc 1 143 0
 1557 0042 FFF7FEFF 		bl	test_wait_threads
 1558              	.LVL46:
 1559              		.loc 1 144 0
 1560 0046 40F20000 		movw	r0, #:lower16:.LC10
 1561 004a C0F20000 		movt	r0, #:upper16:.LC10
 1562 004e FFF7FEFF 		bl	test_print
 1563              		.loc 1 145 0
 1564 0052 2046     		mov	r0, r4
 1565 0054 FFF7FEFF 		bl	test_printn
 1566              		.loc 1 146 0
 1567 0058 40F20000 		movw	r0, #:lower16:.LC18
 1568 005c C0F20000 		movt	r0, #:upper16:.LC18
 1569 0060 FFF7FEFF 		bl	test_print
 1570              		.loc 1 147 0
 1571 0064 6000     		lsls	r0, r4, #1
 1572 0066 FFF7FEFF 		bl	test_printn
 1573              		.loc 1 148 0
 1574 006a 40F20000 		movw	r0, #:lower16:.LC16
ARM GAS  /tmp/ccayCWiC.s 			page 29


 1575 006e C0F20000 		movt	r0, #:upper16:.LC16
 1576              		.loc 1 149 0
 1577 0072 02B0     		add	sp, sp, #8
 1578 0074 BDE81040 		pop	{r4, lr}
 1579              		.loc 1 148 0
 1580 0078 FFF7FEBF 		b	test_println
 1581              		.cfi_endproc
 1582              	.LFE3:
 1583              		.size	bmk2_execute, .-bmk2_execute
 1584 007c AFF30080 		.section	.text.bmk1_execute,"ax",%progbits
 1585              		.align	2
 1586              		.p2align 4,,15
 1587              		.thumb
 1588              		.thumb_func
 1589              		.type	bmk1_execute, %function
 1590              	bmk1_execute:
 1591              	.LFB2:
 1592              		.loc 1 109 0
 1593              		.cfi_startproc
 1594              		@ args = 0, pretend = 0, frame = 0
 1595              		@ frame_needed = 0, uses_anonymous_args = 0
 1596              		.loc 1 112 0
 1597 0000 40F2000C 		movw	ip, #:lower16:rlist
 1598              		.loc 1 109 0
 1599 0004 10B5     		push	{r4, lr}
 1600              	.LCFI23:
 1601              		.cfi_def_cfa_offset 8
 1602              		.cfi_offset 14, -4
 1603              		.cfi_offset 4, -8
 1604              		.loc 1 112 0
 1605 0006 C0F2000C 		movt	ip, #:upper16:rlist
 1606 000a 40F20000 		movw	r0, #:lower16:wa
 1607 000e DCF81810 		ldr	r1, [ip, #24]
 1608 0012 C0F20000 		movt	r0, #:upper16:wa
 1609 0016 8A68     		ldr	r2, [r1, #8]
 1610 0018 0068     		ldr	r0, [r0, #0]
 1611              		.loc 1 109 0
 1612 001a 82B0     		sub	sp, sp, #8
 1613              	.LCFI24:
 1614              		.cfi_def_cfa_offset 16
 1615              		.loc 1 112 0
 1616 001c 40F20003 		movw	r3, #:lower16:thread1
 1617 0020 4FF49871 		mov	r1, #304
 1618 0024 013A     		subs	r2, r2, #1
 1619 0026 0024     		movs	r4, #0
 1620 0028 C0F20003 		movt	r3, #:upper16:thread1
 1621 002c 0094     		str	r4, [sp, #0]
 1622 002e FFF7FEFF 		bl	chThdCreateStatic
 1623 0032 40F20003 		movw	r3, #:lower16:threads
 1624 0036 C0F20003 		movt	r3, #:upper16:threads
 1625 003a 1860     		str	r0, [r3, #0]
 1626              		.loc 1 113 0
 1627 003c FFF7FEFF 		bl	msg_loop_test
 1628 0040 0446     		mov	r4, r0
 1629              	.LVL47:
 1630              		.loc 1 114 0
 1631 0042 FFF7FEFF 		bl	test_wait_threads
ARM GAS  /tmp/ccayCWiC.s 			page 30


 1632              	.LVL48:
 1633              		.loc 1 115 0
 1634 0046 40F20000 		movw	r0, #:lower16:.LC10
 1635 004a C0F20000 		movt	r0, #:upper16:.LC10
 1636 004e FFF7FEFF 		bl	test_print
 1637              		.loc 1 116 0
 1638 0052 2046     		mov	r0, r4
 1639 0054 FFF7FEFF 		bl	test_printn
 1640              		.loc 1 117 0
 1641 0058 40F20000 		movw	r0, #:lower16:.LC18
 1642 005c C0F20000 		movt	r0, #:upper16:.LC18
 1643 0060 FFF7FEFF 		bl	test_print
 1644              		.loc 1 118 0
 1645 0064 6000     		lsls	r0, r4, #1
 1646 0066 FFF7FEFF 		bl	test_printn
 1647              		.loc 1 119 0
 1648 006a 40F20000 		movw	r0, #:lower16:.LC16
 1649 006e C0F20000 		movt	r0, #:upper16:.LC16
 1650              		.loc 1 120 0
 1651 0072 02B0     		add	sp, sp, #8
 1652 0074 BDE81040 		pop	{r4, lr}
 1653              		.loc 1 119 0
 1654 0078 FFF7FEBF 		b	test_println
 1655              		.cfi_endproc
 1656              	.LFE2:
 1657              		.size	bmk1_execute, .-bmk1_execute
 1658 007c AFF30080 		.section	.text.thread1,"ax",%progbits
 1659              		.align	2
 1660              		.p2align 4,,15
 1661              		.thumb
 1662              		.thumb_func
 1663              		.type	thread1, %function
 1664              	thread1:
 1665              	.LFB0:
 1666              		.loc 1 68 0
 1667              		.cfi_startproc
 1668              		@ args = 0, pretend = 0, frame = 0
 1669              		@ frame_needed = 0, uses_anonymous_args = 0
 1670              	.LVL49:
 1671 0000 10B5     		push	{r4, lr}
 1672              	.LCFI25:
 1673              		.cfi_def_cfa_offset 8
 1674              		.cfi_offset 14, -4
 1675              		.cfi_offset 4, -8
 1676              	.LVL50:
 1677              	.L48:
 1678              		.loc 1 74 0 discriminator 1
 1679 0002 FFF7FEFF 		bl	chMsgWait
 1680              	.LVL51:
 1681              		.loc 1 75 0 discriminator 1
 1682 0006 846B     		ldr	r4, [r0, #56]
 1683              	.LVL52:
 1684              		.loc 1 76 0 discriminator 1
 1685 0008 2146     		mov	r1, r4
 1686 000a FFF7FEFF 		bl	chMsgRelease
 1687              	.LVL53:
 1688              		.loc 1 77 0 discriminator 1
ARM GAS  /tmp/ccayCWiC.s 			page 31


 1689 000e 002C     		cmp	r4, #0
 1690 0010 F7D1     		bne	.L48
 1691              		.loc 1 79 0
 1692 0012 2046     		mov	r0, r4
 1693 0014 10BD     		pop	{r4, pc}
 1694              		.cfi_endproc
 1695              	.LFE0:
 1696              		.size	thread1, .-thread1
 1697 0016 00BFAFF3 		.section	.text.thread4,"ax",%progbits
 1697      0080AFF3 
 1697      0080
 1698              		.align	2
 1699              		.p2align 4,,15
 1700              		.global	thread4
 1701              		.thumb
 1702              		.thumb_func
 1703              		.type	thread4, %function
 1704              	thread4:
 1705              	.LFB6:
 1706              		.loc 1 207 0
 1707              		.cfi_startproc
 1708              		@ args = 0, pretend = 0, frame = 0
 1709              		@ frame_needed = 0, uses_anonymous_args = 0
 1710              	.LVL54:
 1711              		.loc 1 209 0
 1712 0000 40F20003 		movw	r3, #:lower16:rlist
 1713 0004 C0F20003 		movt	r3, #:upper16:rlist
 1714              		.loc 1 207 0
 1715 0008 10B5     		push	{r4, lr}
 1716              	.LCFI26:
 1717              		.cfi_def_cfa_offset 8
 1718              		.cfi_offset 14, -4
 1719              		.cfi_offset 4, -8
 1720              		.loc 1 209 0
 1721 000a 9C69     		ldr	r4, [r3, #24]
 1722              	.LVL55:
 1723              		.loc 1 212 0
 1724              	@ 212 "../../../test/testbmk.c" 1
 1725 000c FFF7FEFF 		bl      _port_lock
 1726              	@ 0 "" 2
 1727              	.LVL56:
 1728              		.thumb
 1729 0010 FFF7FEFF 		bl	dbg_check_lock
 1730              	.LVL57:
 1731              	.L51:
 1732              		.loc 1 214 0 discriminator 1
 1733 0014 0220     		movs	r0, #2
 1734 0016 FFF7FEFF 		bl	chSchGoSleepS
 1735              	.LVL58:
 1736              		.loc 1 216 0 discriminator 1
 1737 001a A06A     		ldr	r0, [r4, #40]
 1738 001c 0028     		cmp	r0, #0
 1739 001e F9D0     		beq	.L51
 1740              		.loc 1 217 0
 1741 0020 FFF7FEFF 		bl	dbg_check_unlock
 1742              	.LVL59:
 1743              	@ 217 "../../../test/testbmk.c" 1
ARM GAS  /tmp/ccayCWiC.s 			page 32


 1744 0024 FFF7FEFF 		bl      _port_unlock
 1745              	@ 0 "" 2
 1746              		.loc 1 219 0
 1747              		.thumb
 1748 0028 0020     		movs	r0, #0
 1749 002a 10BD     		pop	{r4, pc}
 1750              		.cfi_endproc
 1751              	.LFE6:
 1752              		.size	thread4, .-thread4
 1753              		.global	patternbmk
 1754              		.global	testbmk13
 1755              		.global	testbmk12
 1756              		.global	testbmk11
 1757              		.global	testbmk10
 1758              		.global	testbmk9
 1759              		.global	testbmk8
 1760              		.global	testbmk7
 1761              		.global	testbmk6
 1762              		.global	testbmk5
 1763              		.global	testbmk4
 1764              		.global	testbmk3
 1765              		.global	testbmk2
 1766              		.global	testbmk1
 1767 002c AFF30080 		.section	.rodata.testbmk8,"a",%progbits
 1768              		.align	2
 1769              		.type	testbmk8, %object
 1770              		.size	testbmk8, 16
 1771              	testbmk8:
 1772 0000 C0010000 		.word	.LC24
 1773 0004 00000000 		.word	0
 1774 0008 00000000 		.word	0
 1775 000c 00000000 		.word	bmk8_execute
 1776              		.section	.rodata.patternbmk,"a",%progbits
 1777              		.align	2
 1778              		.type	patternbmk, %object
 1779              		.size	patternbmk, 56
 1780              	patternbmk:
 1781 0000 00000000 		.word	testbmk1
 1782 0004 00000000 		.word	testbmk2
 1783 0008 00000000 		.word	testbmk3
 1784 000c 00000000 		.word	testbmk4
 1785 0010 00000000 		.word	testbmk5
 1786 0014 00000000 		.word	testbmk6
 1787 0018 00000000 		.word	testbmk7
 1788 001c 00000000 		.word	testbmk8
 1789 0020 00000000 		.word	testbmk9
 1790 0024 00000000 		.word	testbmk10
 1791 0028 00000000 		.word	testbmk11
 1792 002c 00000000 		.word	testbmk12
 1793 0030 00000000 		.word	testbmk13
 1794 0034 00000000 		.word	0
 1795              		.section	.bss.iq.4752,"aw",%nobits
 1796              		.align	2
 1797              		.set	.LANCHOR4,. + 0
 1798              		.type	iq.4752, %object
 1799              		.size	iq.4752, 36
 1800              	iq.4752:
ARM GAS  /tmp/ccayCWiC.s 			page 33


 1801 0000 00000000 		.space	36
 1801      00000000 
 1801      00000000 
 1801      00000000 
 1801      00000000 
 1802              		.section	.rodata.testbmk2,"a",%progbits
 1803              		.align	2
 1804              		.type	testbmk2, %object
 1805              		.size	testbmk2, 16
 1806              	testbmk2:
 1807 0000 88020000 		.word	.LC30
 1808 0004 00000000 		.word	0
 1809 0008 00000000 		.word	0
 1810 000c 00000000 		.word	bmk2_execute
 1811              		.section	.rodata.testbmk10,"a",%progbits
 1812              		.align	2
 1813              		.type	testbmk10, %object
 1814              		.size	testbmk10, 16
 1815              	testbmk10:
 1816 0000 78010000 		.word	.LC22
 1817 0004 00000000 		.word	0
 1818 0008 00000000 		.word	0
 1819 000c 00000000 		.word	bmk10_execute
 1820              		.section	.rodata.testbmk4,"a",%progbits
 1821              		.align	2
 1822              		.type	testbmk4, %object
 1823              		.size	testbmk4, 16
 1824              	testbmk4:
 1825 0000 54020000 		.word	.LC28
 1826 0004 00000000 		.word	0
 1827 0008 00000000 		.word	0
 1828 000c 00000000 		.word	bmk4_execute
 1829              		.section	.bss.mtx1,"aw",%nobits
 1830              		.align	2
 1831              		.set	.LANCHOR0,. + 0
 1832              		.type	mtx1, %object
 1833              		.size	mtx1, 16
 1834              	mtx1:
 1835 0000 00000000 		.space	16
 1835      00000000 
 1835      00000000 
 1835      00000000 
 1836              		.section	.rodata.testbmk3,"a",%progbits
 1837              		.align	2
 1838              		.type	testbmk3, %object
 1839              		.size	testbmk3, 16
 1840              	testbmk3:
 1841 0000 70020000 		.word	.LC29
 1842 0004 00000000 		.word	0
 1843 0008 00000000 		.word	0
 1844 000c 00000000 		.word	bmk3_execute
 1845              		.section	.rodata.testbmk13,"a",%progbits
 1846              		.align	2
 1847              		.type	testbmk13, %object
 1848              		.size	testbmk13, 16
 1849              	testbmk13:
 1850 0000 18010000 		.word	.LC19
ARM GAS  /tmp/ccayCWiC.s 			page 34


 1851 0004 00000000 		.word	0
 1852 0008 00000000 		.word	0
 1853 000c 00000000 		.word	bmk13_execute
 1854              		.section	.rodata.str1.4,"aMS",%progbits,1
 1855              		.align	2
 1856              	.LC0:
 1857 0000 2D2D2D20 		.ascii	"--- System: \000"
 1857      53797374 
 1857      656D3A20 
 1857      00
 1858 000d 000000   		.space	3
 1859              	.LC1:
 1860 0010 20627974 		.ascii	" bytes\000"
 1860      657300
 1861 0017 00       		.space	1
 1862              	.LC2:
 1863 0018 2D2D2D20 		.ascii	"--- Thread: \000"
 1863      54687265 
 1863      61643A20 
 1863      00
 1864 0025 000000   		.space	3
 1865              	.LC3:
 1866 0028 2D2D2D20 		.ascii	"--- Timer : \000"
 1866      54696D65 
 1866      72203A20 
 1866      00
 1867 0035 000000   		.space	3
 1868              	.LC4:
 1869 0038 2D2D2D20 		.ascii	"--- Semaph: \000"
 1869      53656D61 
 1869      70683A20 
 1869      00
 1870 0045 000000   		.space	3
 1871              	.LC5:
 1872 0048 2D2D2D20 		.ascii	"--- EventS: \000"
 1872      4576656E 
 1872      74533A20 
 1872      00
 1873 0055 000000   		.space	3
 1874              	.LC6:
 1875 0058 2D2D2D20 		.ascii	"--- EventL: \000"
 1875      4576656E 
 1875      744C3A20 
 1875      00
 1876 0065 000000   		.space	3
 1877              	.LC7:
 1878 0068 2D2D2D20 		.ascii	"--- Mutex : \000"
 1878      4D757465 
 1878      78203A20 
 1878      00
 1879 0075 000000   		.space	3
 1880              	.LC8:
 1881 0078 2D2D2D20 		.ascii	"--- Queue : \000"
 1881      51756575 
 1881      65203A20 
 1881      00
 1882 0085 000000   		.space	3
ARM GAS  /tmp/ccayCWiC.s 			page 35


 1883              	.LC9:
 1884 0088 2D2D2D20 		.ascii	"--- MailB.: \000"
 1884      4D61696C 
 1884      422E3A20 
 1884      00
 1885 0095 000000   		.space	3
 1886              	.LC10:
 1887 0098 2D2D2D20 		.ascii	"--- Score : \000"
 1887      53636F72 
 1887      65203A20 
 1887      00
 1888 00a5 000000   		.space	3
 1889              	.LC11:
 1890 00a8 206C6F63 		.ascii	" lock+unlock/S\000"
 1890      6B2B756E 
 1890      6C6F636B 
 1890      2F5300
 1891 00b7 00       		.space	1
 1892              	.LC12:
 1893 00b8 20776169 		.ascii	" wait+signal/S\000"
 1893      742B7369 
 1893      676E616C 
 1893      2F5300
 1894 00c7 00       		.space	1
 1895              	.LC13:
 1896 00c8 2074696D 		.ascii	" timers/S\000"
 1896      6572732F 
 1896      5300
 1897 00d2 0000     		.space	2
 1898              	.LC14:
 1899 00d4 20627974 		.ascii	" bytes/S\000"
 1899      65732F53 
 1899      00
 1900 00dd 000000   		.space	3
 1901              	.LC15:
 1902 00e0 20746872 		.ascii	" threads/S\000"
 1902      65616473 
 1902      2F5300
 1903 00eb 00       		.space	1
 1904              	.LC16:
 1905 00ec 20637478 		.ascii	" ctxswc/S\000"
 1905      7377632F 
 1905      5300
 1906 00f6 0000     		.space	2
 1907              	.LC17:
 1908 00f8 20726573 		.ascii	" reschedules/S, \000"
 1908      63686564 
 1908      756C6573 
 1908      2F532C20 
 1908      00
 1909 0109 000000   		.space	3
 1910              	.LC18:
 1911 010c 206D7367 		.ascii	" msgs/S, \000"
 1911      732F532C 
 1911      2000
 1912 0116 0000     		.space	2
 1913              	.LC19:
ARM GAS  /tmp/ccayCWiC.s 			page 36


 1914 0118 42656E63 		.ascii	"Benchmark, RAM footprint\000"
 1914      686D6172 
 1914      6B2C2052 
 1914      414D2066 
 1914      6F6F7470 
 1915 0131 000000   		.space	3
 1916              	.LC20:
 1917 0134 42656E63 		.ascii	"Benchmark, mutexes lock/unlock\000"
 1917      686D6172 
 1917      6B2C206D 
 1917      75746578 
 1917      6573206C 
 1918 0153 00       		.space	1
 1919              	.LC21:
 1920 0154 42656E63 		.ascii	"Benchmark, semaphores wait/signal\000"
 1920      686D6172 
 1920      6B2C2073 
 1920      656D6170 
 1920      686F7265 
 1921 0176 0000     		.space	2
 1922              	.LC22:
 1923 0178 42656E63 		.ascii	"Benchmark, virtual timers set/reset\000"
 1923      686D6172 
 1923      6B2C2076 
 1923      69727475 
 1923      616C2074 
 1924              	.LC23:
 1925 019c 42656E63 		.ascii	"Benchmark, I/O Queues throughput\000"
 1925      686D6172 
 1925      6B2C2049 
 1925      2F4F2051 
 1925      75657565 
 1926 01bd 000000   		.space	3
 1927              	.LC24:
 1928 01c0 42656E63 		.ascii	"Benchmark, round robin context switching\000"
 1928      686D6172 
 1928      6B2C2072 
 1928      6F756E64 
 1928      20726F62 
 1929 01e9 000000   		.space	3
 1930              	.LC25:
 1931 01ec 42656E63 		.ascii	"Benchmark, mass reschedule, 5 threads\000"
 1931      686D6172 
 1931      6B2C206D 
 1931      61737320 
 1931      72657363 
 1932 0212 0000     		.space	2
 1933              	.LC26:
 1934 0214 42656E63 		.ascii	"Benchmark, threads, create only\000"
 1934      686D6172 
 1934      6B2C2074 
 1934      68726561 
 1934      64732C20 
 1935              	.LC27:
 1936 0234 42656E63 		.ascii	"Benchmark, threads, full cycle\000"
 1936      686D6172 
 1936      6B2C2074 
ARM GAS  /tmp/ccayCWiC.s 			page 37


 1936      68726561 
 1936      64732C20 
 1937 0253 00       		.space	1
 1938              	.LC28:
 1939 0254 42656E63 		.ascii	"Benchmark, context switch\000"
 1939      686D6172 
 1939      6B2C2063 
 1939      6F6E7465 
 1939      78742073 
 1940 026e 0000     		.space	2
 1941              	.LC29:
 1942 0270 42656E63 		.ascii	"Benchmark, messages #3\000"
 1942      686D6172 
 1942      6B2C206D 
 1942      65737361 
 1942      67657320 
 1943 0287 00       		.space	1
 1944              	.LC30:
 1945 0288 42656E63 		.ascii	"Benchmark, messages #2\000"
 1945      686D6172 
 1945      6B2C206D 
 1945      65737361 
 1945      67657320 
 1946 029f 00       		.space	1
 1947              	.LC31:
 1948 02a0 42656E63 		.ascii	"Benchmark, messages #1\000"
 1948      686D6172 
 1948      6B2C206D 
 1948      65737361 
 1948      67657320 
 1949 02b7 00       		.section	.bss.vt2.4763,"aw",%nobits
 1950              		.align	2
 1951              		.set	.LANCHOR3,. + 0
 1952              		.type	vt2.4763, %object
 1953              		.size	vt2.4763, 20
 1954              	vt2.4763:
 1955 0000 00000000 		.space	20
 1955      00000000 
 1955      00000000 
 1955      00000000 
 1955      00000000 
 1956              		.section	.rodata.testbmk9,"a",%progbits
 1957              		.align	2
 1958              		.type	testbmk9, %object
 1959              		.size	testbmk9, 16
 1960              	testbmk9:
 1961 0000 9C010000 		.word	.LC23
 1962 0004 00000000 		.word	0
 1963 0008 00000000 		.word	0
 1964 000c 00000000 		.word	bmk9_execute
 1965              		.section	.bss.sem1,"aw",%nobits
 1966              		.align	2
 1967              		.set	.LANCHOR1,. + 0
 1968              		.type	sem1, %object
 1969              		.size	sem1, 12
 1970              	sem1:
 1971 0000 00000000 		.space	12
ARM GAS  /tmp/ccayCWiC.s 			page 38


 1971      00000000 
 1971      00000000 
 1972              		.section	.bss.vt1.4762,"aw",%nobits
 1973              		.align	2
 1974              		.set	.LANCHOR2,. + 0
 1975              		.type	vt1.4762, %object
 1976              		.size	vt1.4762, 20
 1977              	vt1.4762:
 1978 0000 00000000 		.space	20
 1978      00000000 
 1978      00000000 
 1978      00000000 
 1978      00000000 
 1979              		.section	.rodata.testbmk1,"a",%progbits
 1980              		.align	2
 1981              		.type	testbmk1, %object
 1982              		.size	testbmk1, 16
 1983              	testbmk1:
 1984 0000 A0020000 		.word	.LC31
 1985 0004 00000000 		.word	0
 1986 0008 00000000 		.word	0
 1987 000c 00000000 		.word	bmk1_execute
 1988              		.section	.rodata.testbmk11,"a",%progbits
 1989              		.align	2
 1990              		.type	testbmk11, %object
 1991              		.size	testbmk11, 16
 1992              	testbmk11:
 1993 0000 54010000 		.word	.LC21
 1994 0004 00000000 		.word	bmk11_setup
 1995 0008 00000000 		.word	0
 1996 000c 00000000 		.word	bmk11_execute
 1997              		.section	.rodata.testbmk12,"a",%progbits
 1998              		.align	2
 1999              		.type	testbmk12, %object
 2000              		.size	testbmk12, 16
 2001              	testbmk12:
 2002 0000 34010000 		.word	.LC20
 2003 0004 00000000 		.word	bmk12_setup
 2004 0008 00000000 		.word	0
 2005 000c 00000000 		.word	bmk12_execute
 2006              		.section	.bss.ib.4751,"aw",%nobits
 2007              		.align	2
 2008              		.set	.LANCHOR5,. + 0
 2009              		.type	ib.4751, %object
 2010              		.size	ib.4751, 16
 2011              	ib.4751:
 2012 0000 00000000 		.space	16
 2012      00000000 
 2012      00000000 
 2012      00000000 
 2013              		.section	.rodata.testbmk5,"a",%progbits
 2014              		.align	2
 2015              		.type	testbmk5, %object
 2016              		.size	testbmk5, 16
 2017              	testbmk5:
 2018 0000 34020000 		.word	.LC27
 2019 0004 00000000 		.word	0
ARM GAS  /tmp/ccayCWiC.s 			page 39


 2020 0008 00000000 		.word	0
 2021 000c 00000000 		.word	bmk5_execute
 2022              		.section	.rodata.testbmk6,"a",%progbits
 2023              		.align	2
 2024              		.type	testbmk6, %object
 2025              		.size	testbmk6, 16
 2026              	testbmk6:
 2027 0000 14020000 		.word	.LC26
 2028 0004 00000000 		.word	0
 2029 0008 00000000 		.word	0
 2030 000c 00000000 		.word	bmk6_execute
 2031              		.section	.rodata.testbmk7,"a",%progbits
 2032              		.align	2
 2033              		.type	testbmk7, %object
 2034              		.size	testbmk7, 16
 2035              	testbmk7:
 2036 0000 EC010000 		.word	.LC25
 2037 0004 00000000 		.word	bmk7_setup
 2038 0008 00000000 		.word	0
 2039 000c 00000000 		.word	bmk7_execute
 2040              		.text
 2041              	.Letext0:
 2042              		.file 2 "/home/prana/CodeSourcery/ARM_EABI/bin/../lib/gcc/arm-none-eabi/4.6.3/include/stddef.h"
 2043              		.file 3 "/home/prana/CodeSourcery/ARM_EABI/bin/../lib/gcc/arm-none-eabi/4.6.3/../../../../arm-none
 2044              		.file 4 "../../../os/ports/GCC/ARMCMx/chtypes.h"
 2045              		.file 5 "../../../os/kernel/include/chlists.h"
 2046              		.file 6 "../../../os/kernel/include/chthreads.h"
 2047              		.file 7 "../../../os/ports/GCC/ARMCMx/chcore_v7m.h"
 2048              		.file 8 "../../../os/kernel/include/chvt.h"
 2049              		.file 9 "../../../os/kernel/include/chschd.h"
 2050              		.file 10 "../../../os/kernel/include/chsem.h"
 2051              		.file 11 "../../../os/kernel/include/chmtx.h"
 2052              		.file 12 "../../../os/kernel/include/chqueues.h"
 2053              		.file 13 "../../../test/test.h"
 2054              		.section	.debug_info,"",%progbits
 2055              	.Ldebug_info0:
 2056 0000 C70B0000 		.4byte	0xbc7
 2057 0004 0200     		.2byte	0x2
 2058 0006 00000000 		.4byte	.Ldebug_abbrev0
 2059 000a 04       		.byte	0x4
 2060 000b 01       		.uleb128 0x1
 2061 000c 47040000 		.4byte	.LASF131
 2062 0010 01       		.byte	0x1
 2063 0011 3F030000 		.4byte	.LASF132
 2064 0015 B4010000 		.4byte	.LASF133
 2065 0019 00000000 		.4byte	0
 2066 001d 00000000 		.4byte	0
 2067 0021 00000000 		.4byte	.Ldebug_ranges0+0
 2068 0025 00000000 		.4byte	.Ldebug_line0
 2069 0029 02       		.uleb128 0x2
 2070 002a 04       		.byte	0x4
 2071 002b 05       		.byte	0x5
 2072 002c 696E7400 		.ascii	"int\000"
 2073 0030 03       		.uleb128 0x3
 2074 0031 06000000 		.4byte	.LASF2
 2075 0035 02       		.byte	0x2
 2076 0036 D4       		.byte	0xd4
ARM GAS  /tmp/ccayCWiC.s 			page 40


 2077 0037 3B000000 		.4byte	0x3b
 2078 003b 04       		.uleb128 0x4
 2079 003c 04       		.byte	0x4
 2080 003d 07       		.byte	0x7
 2081 003e 3C010000 		.4byte	.LASF0
 2082 0042 04       		.uleb128 0x4
 2083 0043 01       		.byte	0x1
 2084 0044 06       		.byte	0x6
 2085 0045 6E000000 		.4byte	.LASF1
 2086 0049 03       		.uleb128 0x3
 2087 004a D8040000 		.4byte	.LASF3
 2088 004e 03       		.byte	0x3
 2089 004f 2A       		.byte	0x2a
 2090 0050 54000000 		.4byte	0x54
 2091 0054 04       		.uleb128 0x4
 2092 0055 01       		.byte	0x1
 2093 0056 08       		.byte	0x8
 2094 0057 96030000 		.4byte	.LASF4
 2095 005b 04       		.uleb128 0x4
 2096 005c 02       		.byte	0x2
 2097 005d 05       		.byte	0x5
 2098 005e AE030000 		.4byte	.LASF5
 2099 0062 04       		.uleb128 0x4
 2100 0063 02       		.byte	0x2
 2101 0064 07       		.byte	0x7
 2102 0065 E7010000 		.4byte	.LASF6
 2103 0069 03       		.uleb128 0x3
 2104 006a 8E030000 		.4byte	.LASF7
 2105 006e 03       		.byte	0x3
 2106 006f 4F       		.byte	0x4f
 2107 0070 74000000 		.4byte	0x74
 2108 0074 04       		.uleb128 0x4
 2109 0075 04       		.byte	0x4
 2110 0076 05       		.byte	0x5
 2111 0077 9F000000 		.4byte	.LASF8
 2112 007b 03       		.uleb128 0x3
 2113 007c 29040000 		.4byte	.LASF9
 2114 0080 03       		.byte	0x3
 2115 0081 50       		.byte	0x50
 2116 0082 86000000 		.4byte	0x86
 2117 0086 04       		.uleb128 0x4
 2118 0087 04       		.byte	0x4
 2119 0088 07       		.byte	0x7
 2120 0089 6D010000 		.4byte	.LASF10
 2121 008d 04       		.uleb128 0x4
 2122 008e 08       		.byte	0x8
 2123 008f 05       		.byte	0x5
 2124 0090 60000000 		.4byte	.LASF11
 2125 0094 03       		.uleb128 0x3
 2126 0095 19000000 		.4byte	.LASF12
 2127 0099 03       		.byte	0x3
 2128 009a 78       		.byte	0x78
 2129 009b 9F000000 		.4byte	0x9f
 2130 009f 04       		.uleb128 0x4
 2131 00a0 08       		.byte	0x8
 2132 00a1 07       		.byte	0x7
 2133 00a2 22000000 		.4byte	.LASF13
ARM GAS  /tmp/ccayCWiC.s 			page 41


 2134 00a6 03       		.uleb128 0x3
 2135 00a7 7A000000 		.4byte	.LASF14
 2136 00ab 04       		.byte	0x4
 2137 00ac 27       		.byte	0x27
 2138 00ad 69000000 		.4byte	0x69
 2139 00b1 03       		.uleb128 0x3
 2140 00b2 12020000 		.4byte	.LASF15
 2141 00b6 04       		.byte	0x4
 2142 00b7 28       		.byte	0x28
 2143 00b8 49000000 		.4byte	0x49
 2144 00bc 03       		.uleb128 0x3
 2145 00bd A8000000 		.4byte	.LASF16
 2146 00c1 04       		.byte	0x4
 2147 00c2 29       		.byte	0x29
 2148 00c3 49000000 		.4byte	0x49
 2149 00c7 03       		.uleb128 0x3
 2150 00c8 70030000 		.4byte	.LASF17
 2151 00cc 04       		.byte	0x4
 2152 00cd 2C       		.byte	0x2c
 2153 00ce 7B000000 		.4byte	0x7b
 2154 00d2 03       		.uleb128 0x3
 2155 00d3 FF010000 		.4byte	.LASF18
 2156 00d7 04       		.byte	0x4
 2157 00d8 2D       		.byte	0x2d
 2158 00d9 69000000 		.4byte	0x69
 2159 00dd 03       		.uleb128 0x3
 2160 00de 26020000 		.4byte	.LASF19
 2161 00e2 04       		.byte	0x4
 2162 00e3 2F       		.byte	0x2f
 2163 00e4 7B000000 		.4byte	0x7b
 2164 00e8 03       		.uleb128 0x3
 2165 00e9 64040000 		.4byte	.LASF20
 2166 00ed 04       		.byte	0x4
 2167 00ee 31       		.byte	0x31
 2168 00ef 7B000000 		.4byte	0x7b
 2169 00f3 03       		.uleb128 0x3
 2170 00f4 2B010000 		.4byte	.LASF21
 2171 00f8 04       		.byte	0x4
 2172 00f9 32       		.byte	0x32
 2173 00fa 69000000 		.4byte	0x69
 2174 00fe 03       		.uleb128 0x3
 2175 00ff F0030000 		.4byte	.LASF22
 2176 0103 05       		.byte	0x5
 2177 0104 23       		.byte	0x23
 2178 0105 09010000 		.4byte	0x109
 2179 0109 05       		.uleb128 0x5
 2180 010a F0030000 		.4byte	.LASF22
 2181 010e 48       		.byte	0x48
 2182 010f 06       		.byte	0x6
 2183 0110 57       		.byte	0x57
 2184 0111 12020000 		.4byte	0x212
 2185 0115 06       		.uleb128 0x6
 2186 0116 D6030000 		.4byte	.LASF23
 2187 011a 06       		.byte	0x6
 2188 011b 58       		.byte	0x58
 2189 011c 37020000 		.4byte	0x237
 2190 0120 02       		.byte	0x2
ARM GAS  /tmp/ccayCWiC.s 			page 42


 2191 0121 23       		.byte	0x23
 2192 0122 00       		.uleb128 0
 2193 0123 06       		.uleb128 0x6
 2194 0124 61030000 		.4byte	.LASF24
 2195 0128 06       		.byte	0x6
 2196 0129 5A       		.byte	0x5a
 2197 012a 37020000 		.4byte	0x237
 2198 012e 02       		.byte	0x2
 2199 012f 23       		.byte	0x23
 2200 0130 04       		.uleb128 0x4
 2201 0131 06       		.uleb128 0x6
 2202 0132 4F000000 		.4byte	.LASF25
 2203 0136 06       		.byte	0x6
 2204 0137 5C       		.byte	0x5c
 2205 0138 C7000000 		.4byte	0xc7
 2206 013c 02       		.byte	0x2
 2207 013d 23       		.byte	0x23
 2208 013e 08       		.uleb128 0x8
 2209 013f 06       		.uleb128 0x6
 2210 0140 22050000 		.4byte	.LASF26
 2211 0144 06       		.byte	0x6
 2212 0145 5D       		.byte	0x5d
 2213 0146 10030000 		.4byte	0x310
 2214 014a 02       		.byte	0x2
 2215 014b 23       		.byte	0x23
 2216 014c 0C       		.uleb128 0xc
 2217 014d 06       		.uleb128 0x6
 2218 014e CF000000 		.4byte	.LASF27
 2219 0152 06       		.byte	0x6
 2220 0153 5F       		.byte	0x5f
 2221 0154 37020000 		.4byte	0x237
 2222 0158 02       		.byte	0x2
 2223 0159 23       		.byte	0x23
 2224 015a 10       		.uleb128 0x10
 2225 015b 06       		.uleb128 0x6
 2226 015c EC020000 		.4byte	.LASF28
 2227 0160 06       		.byte	0x6
 2228 0161 60       		.byte	0x60
 2229 0162 37020000 		.4byte	0x237
 2230 0166 02       		.byte	0x2
 2231 0167 23       		.byte	0x23
 2232 0168 14       		.uleb128 0x14
 2233 0169 06       		.uleb128 0x6
 2234 016a E7040000 		.4byte	.LASF29
 2235 016e 06       		.byte	0x6
 2236 016f 67       		.byte	0x67
 2237 0170 D2040000 		.4byte	0x4d2
 2238 0174 02       		.byte	0x2
 2239 0175 23       		.byte	0x23
 2240 0176 18       		.uleb128 0x18
 2241 0177 06       		.uleb128 0x6
 2242 0178 31010000 		.4byte	.LASF30
 2243 017c 06       		.byte	0x6
 2244 017d 6D       		.byte	0x6d
 2245 017e E4040000 		.4byte	0x4e4
 2246 0182 02       		.byte	0x2
 2247 0183 23       		.byte	0x23
ARM GAS  /tmp/ccayCWiC.s 			page 43


 2248 0184 1C       		.uleb128 0x1c
 2249 0185 06       		.uleb128 0x6
 2250 0186 B8030000 		.4byte	.LASF31
 2251 018a 06       		.byte	0x6
 2252 018b 72       		.byte	0x72
 2253 018c BC000000 		.4byte	0xbc
 2254 0190 02       		.byte	0x2
 2255 0191 23       		.byte	0x23
 2256 0192 20       		.uleb128 0x20
 2257 0193 06       		.uleb128 0x6
 2258 0194 DD030000 		.4byte	.LASF32
 2259 0198 06       		.byte	0x6
 2260 0199 76       		.byte	0x76
 2261 019a B1000000 		.4byte	0xb1
 2262 019e 02       		.byte	0x2
 2263 019f 23       		.byte	0x23
 2264 01a0 21       		.uleb128 0x21
 2265 01a1 06       		.uleb128 0x6
 2266 01a2 8F040000 		.4byte	.LASF33
 2267 01a6 06       		.byte	0x6
 2268 01a7 88       		.byte	0x88
 2269 01a8 B4030000 		.4byte	0x3b4
 2270 01ac 02       		.byte	0x2
 2271 01ad 23       		.byte	0x23
 2272 01ae 24       		.uleb128 0x24
 2273 01af 07       		.uleb128 0x7
 2274 01b0 705F7500 		.ascii	"p_u\000"
 2275 01b4 06       		.byte	0x6
 2276 01b5 AD       		.byte	0xad
 2277 01b6 9D040000 		.4byte	0x49d
 2278 01ba 02       		.byte	0x2
 2279 01bb 23       		.byte	0x23
 2280 01bc 28       		.uleb128 0x28
 2281 01bd 06       		.uleb128 0x6
 2282 01be 28050000 		.4byte	.LASF34
 2283 01c2 06       		.byte	0x6
 2284 01c3 B2       		.byte	0xb2
 2285 01c4 5F020000 		.4byte	0x25f
 2286 01c8 02       		.byte	0x2
 2287 01c9 23       		.byte	0x23
 2288 01ca 2C       		.uleb128 0x2c
 2289 01cb 06       		.uleb128 0x6
 2290 01cc 9D040000 		.4byte	.LASF35
 2291 01d0 06       		.byte	0x6
 2292 01d1 B8       		.byte	0xb8
 2293 01d2 3D020000 		.4byte	0x23d
 2294 01d6 02       		.byte	0x2
 2295 01d7 23       		.byte	0x23
 2296 01d8 30       		.uleb128 0x30
 2297 01d9 06       		.uleb128 0x6
 2298 01da 00000000 		.4byte	.LASF36
 2299 01de 06       		.byte	0x6
 2300 01df BC       		.byte	0xbc
 2301 01e0 D2000000 		.4byte	0xd2
 2302 01e4 02       		.byte	0x2
 2303 01e5 23       		.byte	0x23
 2304 01e6 38       		.uleb128 0x38
ARM GAS  /tmp/ccayCWiC.s 			page 44


 2305 01e7 06       		.uleb128 0x6
 2306 01e8 1E040000 		.4byte	.LASF37
 2307 01ec 06       		.byte	0x6
 2308 01ed C2       		.byte	0xc2
 2309 01ee DD000000 		.4byte	0xdd
 2310 01f2 02       		.byte	0x2
 2311 01f3 23       		.byte	0x23
 2312 01f4 3C       		.uleb128 0x3c
 2313 01f5 06       		.uleb128 0x6
 2314 01f6 A4030000 		.4byte	.LASF38
 2315 01fa 06       		.byte	0x6
 2316 01fb C9       		.byte	0xc9
 2317 01fc EA040000 		.4byte	0x4ea
 2318 0200 02       		.byte	0x2
 2319 0201 23       		.byte	0x23
 2320 0202 40       		.uleb128 0x40
 2321 0203 06       		.uleb128 0x6
 2322 0204 6E040000 		.4byte	.LASF39
 2323 0208 06       		.byte	0x6
 2324 0209 CD       		.byte	0xcd
 2325 020a C7000000 		.4byte	0xc7
 2326 020e 02       		.byte	0x2
 2327 020f 23       		.byte	0x23
 2328 0210 44       		.uleb128 0x44
 2329 0211 00       		.byte	0
 2330 0212 08       		.uleb128 0x8
 2331 0213 08       		.byte	0x8
 2332 0214 05       		.byte	0x5
 2333 0215 5A       		.byte	0x5a
 2334 0216 37020000 		.4byte	0x237
 2335 021a 06       		.uleb128 0x6
 2336 021b D6030000 		.4byte	.LASF23
 2337 021f 05       		.byte	0x5
 2338 0220 5B       		.byte	0x5b
 2339 0221 37020000 		.4byte	0x237
 2340 0225 02       		.byte	0x2
 2341 0226 23       		.byte	0x23
 2342 0227 00       		.uleb128 0
 2343 0228 06       		.uleb128 0x6
 2344 0229 61030000 		.4byte	.LASF24
 2345 022d 05       		.byte	0x5
 2346 022e 5D       		.byte	0x5d
 2347 022f 37020000 		.4byte	0x237
 2348 0233 02       		.byte	0x2
 2349 0234 23       		.byte	0x23
 2350 0235 04       		.uleb128 0x4
 2351 0236 00       		.byte	0
 2352 0237 09       		.uleb128 0x9
 2353 0238 04       		.byte	0x4
 2354 0239 FE000000 		.4byte	0xfe
 2355 023d 03       		.uleb128 0x3
 2356 023e 12030000 		.4byte	.LASF40
 2357 0242 05       		.byte	0x5
 2358 0243 5F       		.byte	0x5f
 2359 0244 12020000 		.4byte	0x212
 2360 0248 08       		.uleb128 0x8
 2361 0249 04       		.byte	0x4
ARM GAS  /tmp/ccayCWiC.s 			page 45


 2362 024a 05       		.byte	0x5
 2363 024b 64       		.byte	0x64
 2364 024c 5F020000 		.4byte	0x25f
 2365 0250 06       		.uleb128 0x6
 2366 0251 D6030000 		.4byte	.LASF23
 2367 0255 05       		.byte	0x5
 2368 0256 66       		.byte	0x66
 2369 0257 37020000 		.4byte	0x237
 2370 025b 02       		.byte	0x2
 2371 025c 23       		.byte	0x23
 2372 025d 00       		.uleb128 0
 2373 025e 00       		.byte	0
 2374 025f 03       		.uleb128 0x3
 2375 0260 1A020000 		.4byte	.LASF41
 2376 0264 05       		.byte	0x5
 2377 0265 69       		.byte	0x69
 2378 0266 48020000 		.4byte	0x248
 2379 026a 03       		.uleb128 0x3
 2380 026b F4000000 		.4byte	.LASF42
 2381 026f 07       		.byte	0x7
 2382 0270 DE       		.byte	0xde
 2383 0271 75020000 		.4byte	0x275
 2384 0275 0A       		.uleb128 0xa
 2385 0276 04       		.byte	0x4
 2386 0277 03       		.uleb128 0x3
 2387 0278 59020000 		.4byte	.LASF43
 2388 027c 07       		.byte	0x7
 2389 027d E4       		.byte	0xe4
 2390 027e 94000000 		.4byte	0x94
 2391 0282 0B       		.uleb128 0xb
 2392 0283 96040000 		.4byte	.LASF44
 2393 0287 24       		.byte	0x24
 2394 0288 07       		.byte	0x7
 2395 0289 0501     		.2byte	0x105
 2396 028b 10030000 		.4byte	0x310
 2397 028f 0C       		.uleb128 0xc
 2398 0290 723400   		.ascii	"r4\000"
 2399 0293 07       		.byte	0x7
 2400 0294 1801     		.2byte	0x118
 2401 0296 6A020000 		.4byte	0x26a
 2402 029a 02       		.byte	0x2
 2403 029b 23       		.byte	0x23
 2404 029c 00       		.uleb128 0
 2405 029d 0C       		.uleb128 0xc
 2406 029e 723500   		.ascii	"r5\000"
 2407 02a1 07       		.byte	0x7
 2408 02a2 1901     		.2byte	0x119
 2409 02a4 6A020000 		.4byte	0x26a
 2410 02a8 02       		.byte	0x2
 2411 02a9 23       		.byte	0x23
 2412 02aa 04       		.uleb128 0x4
 2413 02ab 0C       		.uleb128 0xc
 2414 02ac 723600   		.ascii	"r6\000"
 2415 02af 07       		.byte	0x7
 2416 02b0 1A01     		.2byte	0x11a
 2417 02b2 6A020000 		.4byte	0x26a
 2418 02b6 02       		.byte	0x2
ARM GAS  /tmp/ccayCWiC.s 			page 46


 2419 02b7 23       		.byte	0x23
 2420 02b8 08       		.uleb128 0x8
 2421 02b9 0C       		.uleb128 0xc
 2422 02ba 723700   		.ascii	"r7\000"
 2423 02bd 07       		.byte	0x7
 2424 02be 1B01     		.2byte	0x11b
 2425 02c0 6A020000 		.4byte	0x26a
 2426 02c4 02       		.byte	0x2
 2427 02c5 23       		.byte	0x23
 2428 02c6 0C       		.uleb128 0xc
 2429 02c7 0C       		.uleb128 0xc
 2430 02c8 723800   		.ascii	"r8\000"
 2431 02cb 07       		.byte	0x7
 2432 02cc 1C01     		.2byte	0x11c
 2433 02ce 6A020000 		.4byte	0x26a
 2434 02d2 02       		.byte	0x2
 2435 02d3 23       		.byte	0x23
 2436 02d4 10       		.uleb128 0x10
 2437 02d5 0C       		.uleb128 0xc
 2438 02d6 723900   		.ascii	"r9\000"
 2439 02d9 07       		.byte	0x7
 2440 02da 1D01     		.2byte	0x11d
 2441 02dc 6A020000 		.4byte	0x26a
 2442 02e0 02       		.byte	0x2
 2443 02e1 23       		.byte	0x23
 2444 02e2 14       		.uleb128 0x14
 2445 02e3 0C       		.uleb128 0xc
 2446 02e4 72313000 		.ascii	"r10\000"
 2447 02e8 07       		.byte	0x7
 2448 02e9 1E01     		.2byte	0x11e
 2449 02eb 6A020000 		.4byte	0x26a
 2450 02ef 02       		.byte	0x2
 2451 02f0 23       		.byte	0x23
 2452 02f1 18       		.uleb128 0x18
 2453 02f2 0C       		.uleb128 0xc
 2454 02f3 72313100 		.ascii	"r11\000"
 2455 02f7 07       		.byte	0x7
 2456 02f8 1F01     		.2byte	0x11f
 2457 02fa 6A020000 		.4byte	0x26a
 2458 02fe 02       		.byte	0x2
 2459 02ff 23       		.byte	0x23
 2460 0300 1C       		.uleb128 0x1c
 2461 0301 0C       		.uleb128 0xc
 2462 0302 6C7200   		.ascii	"lr\000"
 2463 0305 07       		.byte	0x7
 2464 0306 2001     		.2byte	0x120
 2465 0308 6A020000 		.4byte	0x26a
 2466 030c 02       		.byte	0x2
 2467 030d 23       		.byte	0x23
 2468 030e 20       		.uleb128 0x20
 2469 030f 00       		.byte	0
 2470 0310 0B       		.uleb128 0xb
 2471 0311 AC010000 		.4byte	.LASF45
 2472 0315 04       		.byte	0x4
 2473 0316 07       		.byte	0x7
 2474 0317 2A01     		.2byte	0x12a
 2475 0319 2D030000 		.4byte	0x32d
ARM GAS  /tmp/ccayCWiC.s 			page 47


 2476 031d 0C       		.uleb128 0xc
 2477 031e 72313300 		.ascii	"r13\000"
 2478 0322 07       		.byte	0x7
 2479 0323 2B01     		.2byte	0x12b
 2480 0325 2D030000 		.4byte	0x32d
 2481 0329 02       		.byte	0x2
 2482 032a 23       		.byte	0x23
 2483 032b 00       		.uleb128 0
 2484 032c 00       		.byte	0
 2485 032d 09       		.uleb128 0x9
 2486 032e 04       		.byte	0x4
 2487 032f 82020000 		.4byte	0x282
 2488 0333 03       		.uleb128 0x3
 2489 0334 79040000 		.4byte	.LASF46
 2490 0338 08       		.byte	0x8
 2491 0339 4E       		.byte	0x4e
 2492 033a 3E030000 		.4byte	0x33e
 2493 033e 09       		.uleb128 0x9
 2494 033f 04       		.byte	0x4
 2495 0340 44030000 		.4byte	0x344
 2496 0344 0D       		.uleb128 0xd
 2497 0345 01       		.byte	0x1
 2498 0346 50030000 		.4byte	0x350
 2499 034a 0E       		.uleb128 0xe
 2500 034b 75020000 		.4byte	0x275
 2501 034f 00       		.byte	0
 2502 0350 03       		.uleb128 0x3
 2503 0351 3A040000 		.4byte	.LASF47
 2504 0355 08       		.byte	0x8
 2505 0356 53       		.byte	0x53
 2506 0357 5B030000 		.4byte	0x35b
 2507 035b 05       		.uleb128 0x5
 2508 035c 3A040000 		.4byte	.LASF47
 2509 0360 14       		.byte	0x14
 2510 0361 08       		.byte	0x8
 2511 0362 5A       		.byte	0x5a
 2512 0363 AE030000 		.4byte	0x3ae
 2513 0367 06       		.uleb128 0x6
 2514 0368 57010000 		.4byte	.LASF48
 2515 036c 08       		.byte	0x8
 2516 036d 5B       		.byte	0x5b
 2517 036e AE030000 		.4byte	0x3ae
 2518 0372 02       		.byte	0x2
 2519 0373 23       		.byte	0x23
 2520 0374 00       		.uleb128 0
 2521 0375 06       		.uleb128 0x6
 2522 0376 FD000000 		.4byte	.LASF49
 2523 037a 08       		.byte	0x8
 2524 037b 5D       		.byte	0x5d
 2525 037c AE030000 		.4byte	0x3ae
 2526 0380 02       		.byte	0x2
 2527 0381 23       		.byte	0x23
 2528 0382 04       		.uleb128 0x4
 2529 0383 06       		.uleb128 0x6
 2530 0384 6D020000 		.4byte	.LASF50
 2531 0388 08       		.byte	0x8
 2532 0389 5F       		.byte	0x5f
ARM GAS  /tmp/ccayCWiC.s 			page 48


 2533 038a E8000000 		.4byte	0xe8
 2534 038e 02       		.byte	0x2
 2535 038f 23       		.byte	0x23
 2536 0390 08       		.uleb128 0x8
 2537 0391 06       		.uleb128 0x6
 2538 0392 AF020000 		.4byte	.LASF51
 2539 0396 08       		.byte	0x8
 2540 0397 60       		.byte	0x60
 2541 0398 33030000 		.4byte	0x333
 2542 039c 02       		.byte	0x2
 2543 039d 23       		.byte	0x23
 2544 039e 0C       		.uleb128 0xc
 2545 039f 06       		.uleb128 0x6
 2546 03a0 A8040000 		.4byte	.LASF52
 2547 03a4 08       		.byte	0x8
 2548 03a5 62       		.byte	0x62
 2549 03a6 75020000 		.4byte	0x275
 2550 03aa 02       		.byte	0x2
 2551 03ab 23       		.byte	0x23
 2552 03ac 10       		.uleb128 0x10
 2553 03ad 00       		.byte	0
 2554 03ae 09       		.uleb128 0x9
 2555 03af 04       		.byte	0x4
 2556 03b0 50030000 		.4byte	0x350
 2557 03b4 0F       		.uleb128 0xf
 2558 03b5 E8000000 		.4byte	0xe8
 2559 03b9 08       		.uleb128 0x8
 2560 03ba 1C       		.byte	0x1c
 2561 03bb 09       		.byte	0x9
 2562 03bc 57       		.byte	0x57
 2563 03bd 16040000 		.4byte	0x416
 2564 03c1 06       		.uleb128 0x6
 2565 03c2 32040000 		.4byte	.LASF53
 2566 03c6 09       		.byte	0x9
 2567 03c7 58       		.byte	0x58
 2568 03c8 3D020000 		.4byte	0x23d
 2569 03cc 02       		.byte	0x2
 2570 03cd 23       		.byte	0x23
 2571 03ce 00       		.uleb128 0
 2572 03cf 06       		.uleb128 0x6
 2573 03d0 C8030000 		.4byte	.LASF54
 2574 03d4 09       		.byte	0x9
 2575 03d5 59       		.byte	0x59
 2576 03d6 C7000000 		.4byte	0xc7
 2577 03da 02       		.byte	0x2
 2578 03db 23       		.byte	0x23
 2579 03dc 08       		.uleb128 0x8
 2580 03dd 06       		.uleb128 0x6
 2581 03de 04030000 		.4byte	.LASF55
 2582 03e2 09       		.byte	0x9
 2583 03e3 5B       		.byte	0x5b
 2584 03e4 10030000 		.4byte	0x310
 2585 03e8 02       		.byte	0x2
 2586 03e9 23       		.byte	0x23
 2587 03ea 0C       		.uleb128 0xc
 2588 03eb 06       		.uleb128 0x6
 2589 03ec EC000000 		.4byte	.LASF56
ARM GAS  /tmp/ccayCWiC.s 			page 49


 2590 03f0 09       		.byte	0x9
 2591 03f1 5E       		.byte	0x5e
 2592 03f2 37020000 		.4byte	0x237
 2593 03f6 02       		.byte	0x2
 2594 03f7 23       		.byte	0x23
 2595 03f8 10       		.uleb128 0x10
 2596 03f9 06       		.uleb128 0x6
 2597 03fa 37030000 		.4byte	.LASF57
 2598 03fe 09       		.byte	0x9
 2599 03ff 5F       		.byte	0x5f
 2600 0400 37020000 		.4byte	0x237
 2601 0404 02       		.byte	0x2
 2602 0405 23       		.byte	0x23
 2603 0406 14       		.uleb128 0x14
 2604 0407 06       		.uleb128 0x6
 2605 0408 2D030000 		.4byte	.LASF58
 2606 040c 09       		.byte	0x9
 2607 040d 62       		.byte	0x62
 2608 040e 37020000 		.4byte	0x237
 2609 0412 02       		.byte	0x2
 2610 0413 23       		.byte	0x23
 2611 0414 18       		.uleb128 0x18
 2612 0415 00       		.byte	0
 2613 0416 03       		.uleb128 0x3
 2614 0417 BF040000 		.4byte	.LASF59
 2615 041b 09       		.byte	0x9
 2616 041c 64       		.byte	0x64
 2617 041d B9030000 		.4byte	0x3b9
 2618 0421 05       		.uleb128 0x5
 2619 0422 AF040000 		.4byte	.LASF60
 2620 0426 0C       		.byte	0xc
 2621 0427 0A       		.byte	0xa
 2622 0428 25       		.byte	0x25
 2623 0429 4A040000 		.4byte	0x44a
 2624 042d 06       		.uleb128 0x6
 2625 042e D7000000 		.4byte	.LASF61
 2626 0432 0A       		.byte	0xa
 2627 0433 26       		.byte	0x26
 2628 0434 3D020000 		.4byte	0x23d
 2629 0438 02       		.byte	0x2
 2630 0439 23       		.byte	0x23
 2631 043a 00       		.uleb128 0
 2632 043b 06       		.uleb128 0x6
 2633 043c A6010000 		.4byte	.LASF62
 2634 0440 0A       		.byte	0xa
 2635 0441 28       		.byte	0x28
 2636 0442 F3000000 		.4byte	0xf3
 2637 0446 02       		.byte	0x2
 2638 0447 23       		.byte	0x23
 2639 0448 08       		.uleb128 0x8
 2640 0449 00       		.byte	0
 2641 044a 03       		.uleb128 0x3
 2642 044b AF040000 		.4byte	.LASF60
 2643 044f 0A       		.byte	0xa
 2644 0450 29       		.byte	0x29
 2645 0451 21040000 		.4byte	0x421
 2646 0455 05       		.uleb128 0x5
ARM GAS  /tmp/ccayCWiC.s 			page 50


 2647 0456 3D020000 		.4byte	.LASF63
 2648 045a 10       		.byte	0x10
 2649 045b 0B       		.byte	0xb
 2650 045c 25       		.byte	0x25
 2651 045d 8C040000 		.4byte	0x48c
 2652 0461 06       		.uleb128 0x6
 2653 0462 81000000 		.4byte	.LASF64
 2654 0466 0B       		.byte	0xb
 2655 0467 26       		.byte	0x26
 2656 0468 3D020000 		.4byte	0x23d
 2657 046c 02       		.byte	0x2
 2658 046d 23       		.byte	0x23
 2659 046e 00       		.uleb128 0
 2660 046f 06       		.uleb128 0x6
 2661 0470 1A050000 		.4byte	.LASF65
 2662 0474 0B       		.byte	0xb
 2663 0475 28       		.byte	0x28
 2664 0476 37020000 		.4byte	0x237
 2665 047a 02       		.byte	0x2
 2666 047b 23       		.byte	0x23
 2667 047c 08       		.uleb128 0x8
 2668 047d 06       		.uleb128 0x6
 2669 047e 5D040000 		.4byte	.LASF66
 2670 0482 0B       		.byte	0xb
 2671 0483 2A       		.byte	0x2a
 2672 0484 8C040000 		.4byte	0x48c
 2673 0488 02       		.byte	0x2
 2674 0489 23       		.byte	0x23
 2675 048a 0C       		.uleb128 0xc
 2676 048b 00       		.byte	0
 2677 048c 09       		.uleb128 0x9
 2678 048d 04       		.byte	0x4
 2679 048e 55040000 		.4byte	0x455
 2680 0492 03       		.uleb128 0x3
 2681 0493 3D020000 		.4byte	.LASF63
 2682 0497 0B       		.byte	0xb
 2683 0498 2C       		.byte	0x2c
 2684 0499 55040000 		.4byte	0x455
 2685 049d 10       		.uleb128 0x10
 2686 049e 04       		.byte	0x4
 2687 049f 06       		.byte	0x6
 2688 04a0 8F       		.byte	0x8f
 2689 04a1 D2040000 		.4byte	0x4d2
 2690 04a5 11       		.uleb128 0x11
 2691 04a6 12000000 		.4byte	.LASF67
 2692 04aa 06       		.byte	0x6
 2693 04ab 96       		.byte	0x96
 2694 04ac D2000000 		.4byte	0xd2
 2695 04b0 11       		.uleb128 0x11
 2696 04b1 39000000 		.4byte	.LASF68
 2697 04b5 06       		.byte	0x6
 2698 04b6 9D       		.byte	0x9d
 2699 04b7 D2000000 		.4byte	0xd2
 2700 04bb 11       		.uleb128 0x11
 2701 04bc E0040000 		.4byte	.LASF69
 2702 04c0 06       		.byte	0x6
 2703 04c1 A4       		.byte	0xa4
ARM GAS  /tmp/ccayCWiC.s 			page 51


 2704 04c2 75020000 		.4byte	0x275
 2705 04c6 11       		.uleb128 0x11
 2706 04c7 CF030000 		.4byte	.LASF70
 2707 04cb 06       		.byte	0x6
 2708 04cc AB       		.byte	0xab
 2709 04cd DD000000 		.4byte	0xdd
 2710 04d1 00       		.byte	0
 2711 04d2 09       		.uleb128 0x9
 2712 04d3 04       		.byte	0x4
 2713 04d4 D8040000 		.4byte	0x4d8
 2714 04d8 12       		.uleb128 0x12
 2715 04d9 DD040000 		.4byte	0x4dd
 2716 04dd 04       		.uleb128 0x4
 2717 04de 01       		.byte	0x1
 2718 04df 08       		.byte	0x8
 2719 04e0 53040000 		.4byte	.LASF71
 2720 04e4 09       		.uleb128 0x9
 2721 04e5 04       		.byte	0x4
 2722 04e6 77020000 		.4byte	0x277
 2723 04ea 09       		.uleb128 0x9
 2724 04eb 04       		.byte	0x4
 2725 04ec 92040000 		.4byte	0x492
 2726 04f0 03       		.uleb128 0x3
 2727 04f1 4C020000 		.4byte	.LASF72
 2728 04f5 0C       		.byte	0xc
 2729 04f6 30       		.byte	0x30
 2730 04f7 FB040000 		.4byte	0x4fb
 2731 04fb 05       		.uleb128 0x5
 2732 04fc 4C020000 		.4byte	.LASF72
 2733 0500 24       		.byte	0x24
 2734 0501 0C       		.byte	0xc
 2735 0502 3E       		.byte	0x3e
 2736 0503 78050000 		.4byte	0x578
 2737 0507 06       		.uleb128 0x6
 2738 0508 56000000 		.4byte	.LASF73
 2739 050c 0C       		.byte	0xc
 2740 050d 3F       		.byte	0x3f
 2741 050e 3D020000 		.4byte	0x23d
 2742 0512 02       		.byte	0x2
 2743 0513 23       		.byte	0x23
 2744 0514 00       		.uleb128 0
 2745 0515 06       		.uleb128 0x6
 2746 0516 A5020000 		.4byte	.LASF74
 2747 051a 0C       		.byte	0xc
 2748 051b 40       		.byte	0x40
 2749 051c 30000000 		.4byte	0x30
 2750 0520 02       		.byte	0x2
 2751 0521 23       		.byte	0x23
 2752 0522 08       		.uleb128 0x8
 2753 0523 06       		.uleb128 0x6
 2754 0524 BE000000 		.4byte	.LASF75
 2755 0528 0C       		.byte	0xc
 2756 0529 41       		.byte	0x41
 2757 052a 9B050000 		.4byte	0x59b
 2758 052e 02       		.byte	0x2
 2759 052f 23       		.byte	0x23
 2760 0530 0C       		.uleb128 0xc
ARM GAS  /tmp/ccayCWiC.s 			page 52


 2761 0531 06       		.uleb128 0x6
 2762 0532 B9040000 		.4byte	.LASF76
 2763 0536 0C       		.byte	0xc
 2764 0537 42       		.byte	0x42
 2765 0538 9B050000 		.4byte	0x59b
 2766 053c 02       		.byte	0x2
 2767 053d 23       		.byte	0x23
 2768 053e 10       		.uleb128 0x10
 2769 053f 06       		.uleb128 0x6
 2770 0540 C7000000 		.4byte	.LASF77
 2771 0544 0C       		.byte	0xc
 2772 0545 44       		.byte	0x44
 2773 0546 9B050000 		.4byte	0x59b
 2774 054a 02       		.byte	0x2
 2775 054b 23       		.byte	0x23
 2776 054c 14       		.uleb128 0x14
 2777 054d 06       		.uleb128 0x6
 2778 054e 78030000 		.4byte	.LASF78
 2779 0552 0C       		.byte	0xc
 2780 0553 45       		.byte	0x45
 2781 0554 9B050000 		.4byte	0x59b
 2782 0558 02       		.byte	0x2
 2783 0559 23       		.byte	0x23
 2784 055a 18       		.uleb128 0x18
 2785 055b 06       		.uleb128 0x6
 2786 055c C9040000 		.4byte	.LASF79
 2787 0560 0C       		.byte	0xc
 2788 0561 46       		.byte	0x46
 2789 0562 78050000 		.4byte	0x578
 2790 0566 02       		.byte	0x2
 2791 0567 23       		.byte	0x23
 2792 0568 1C       		.uleb128 0x1c
 2793 0569 06       		.uleb128 0x6
 2794 056a 13050000 		.4byte	.LASF80
 2795 056e 0C       		.byte	0xc
 2796 056f 47       		.byte	0x47
 2797 0570 75020000 		.4byte	0x275
 2798 0574 02       		.byte	0x2
 2799 0575 23       		.byte	0x23
 2800 0576 20       		.uleb128 0x20
 2801 0577 00       		.byte	0
 2802 0578 03       		.uleb128 0x3
 2803 0579 57030000 		.4byte	.LASF81
 2804 057d 0C       		.byte	0xc
 2805 057e 33       		.byte	0x33
 2806 057f 83050000 		.4byte	0x583
 2807 0583 09       		.uleb128 0x9
 2808 0584 04       		.byte	0x4
 2809 0585 89050000 		.4byte	0x589
 2810 0589 0D       		.uleb128 0xd
 2811 058a 01       		.byte	0x1
 2812 058b 95050000 		.4byte	0x595
 2813 058f 0E       		.uleb128 0xe
 2814 0590 95050000 		.4byte	0x595
 2815 0594 00       		.byte	0
 2816 0595 09       		.uleb128 0x9
 2817 0596 04       		.byte	0x4
ARM GAS  /tmp/ccayCWiC.s 			page 53


 2818 0597 F0040000 		.4byte	0x4f0
 2819 059b 09       		.uleb128 0x9
 2820 059c 04       		.byte	0x4
 2821 059d 49000000 		.4byte	0x49
 2822 05a1 03       		.uleb128 0x3
 2823 05a2 32020000 		.4byte	.LASF82
 2824 05a6 0C       		.byte	0xc
 2825 05a7 7B       		.byte	0x7b
 2826 05a8 F0040000 		.4byte	0x4f0
 2827 05ac 05       		.uleb128 0x5
 2828 05ad 0B040000 		.4byte	.LASF83
 2829 05b1 10       		.byte	0x10
 2830 05b2 0D       		.byte	0xd
 2831 05b3 3F       		.byte	0x3f
 2832 05b4 F1050000 		.4byte	0x5f1
 2833 05b8 06       		.uleb128 0x6
 2834 05b9 A1010000 		.4byte	.LASF84
 2835 05bd 0D       		.byte	0xd
 2836 05be 40       		.byte	0x40
 2837 05bf D2040000 		.4byte	0x4d2
 2838 05c3 02       		.byte	0x2
 2839 05c4 23       		.byte	0x23
 2840 05c5 00       		.uleb128 0
 2841 05c6 06       		.uleb128 0x6
 2842 05c7 27030000 		.4byte	.LASF85
 2843 05cb 0D       		.byte	0xd
 2844 05cc 41       		.byte	0x41
 2845 05cd F3050000 		.4byte	0x5f3
 2846 05d1 02       		.byte	0x2
 2847 05d2 23       		.byte	0x23
 2848 05d3 04       		.uleb128 0x4
 2849 05d4 06       		.uleb128 0x6
 2850 05d5 7F010000 		.4byte	.LASF86
 2851 05d9 0D       		.byte	0xd
 2852 05da 42       		.byte	0x42
 2853 05db F3050000 		.4byte	0x5f3
 2854 05df 02       		.byte	0x2
 2855 05e0 23       		.byte	0x23
 2856 05e1 08       		.uleb128 0x8
 2857 05e2 06       		.uleb128 0x6
 2858 05e3 68030000 		.4byte	.LASF87
 2859 05e7 0D       		.byte	0xd
 2860 05e8 43       		.byte	0x43
 2861 05e9 F3050000 		.4byte	0x5f3
 2862 05ed 02       		.byte	0x2
 2863 05ee 23       		.byte	0x23
 2864 05ef 0C       		.uleb128 0xc
 2865 05f0 00       		.byte	0
 2866 05f1 13       		.uleb128 0x13
 2867 05f2 01       		.byte	0x1
 2868 05f3 09       		.uleb128 0x9
 2869 05f4 04       		.byte	0x4
 2870 05f5 F1050000 		.4byte	0x5f1
 2871 05f9 14       		.uleb128 0x14
 2872 05fa FC020000 		.4byte	.LASF92
 2873 05fe 01       		.byte	0x1
 2874 05ff 9E       		.byte	0x9e
ARM GAS  /tmp/ccayCWiC.s 			page 54


 2875 0600 01       		.byte	0x1
 2876 0601 D2000000 		.4byte	0xd2
 2877 0605 00000000 		.4byte	.LFB4
 2878 0609 02000000 		.4byte	.LFE4
 2879 060d 02       		.byte	0x2
 2880 060e 7D       		.byte	0x7d
 2881 060f 00       		.sleb128 0
 2882 0610 20060000 		.4byte	0x620
 2883 0614 15       		.uleb128 0x15
 2884 0615 7000     		.ascii	"p\000"
 2885 0617 01       		.byte	0x1
 2886 0618 9E       		.byte	0x9e
 2887 0619 75020000 		.4byte	0x275
 2888 061d 01       		.byte	0x1
 2889 061e 50       		.byte	0x50
 2890 061f 00       		.byte	0
 2891 0620 16       		.uleb128 0x16
 2892 0621 746D6F00 		.ascii	"tmo\000"
 2893 0625 01       		.byte	0x1
 2894 0626 F801     		.2byte	0x1f8
 2895 0628 01       		.byte	0x1
 2896 0629 00000000 		.4byte	.LFB16
 2897 062d 02000000 		.4byte	.LFE16
 2898 0631 02       		.byte	0x2
 2899 0632 7D       		.byte	0x7d
 2900 0633 00       		.sleb128 0
 2901 0634 47060000 		.4byte	0x647
 2902 0638 17       		.uleb128 0x17
 2903 0639 D9020000 		.4byte	.LASF88
 2904 063d 01       		.byte	0x1
 2905 063e F801     		.2byte	0x1f8
 2906 0640 75020000 		.4byte	0x275
 2907 0644 01       		.byte	0x1
 2908 0645 50       		.byte	0x50
 2909 0646 00       		.byte	0
 2910 0647 18       		.uleb128 0x18
 2911 0648 14010000 		.4byte	.LASF90
 2912 064c 01       		.byte	0x1
 2913 064d 7D02     		.2byte	0x27d
 2914 064f 01       		.byte	0x1
 2915 0650 00000000 		.4byte	.LFB22
 2916 0654 E8000000 		.4byte	.LFE22
 2917 0658 00000000 		.4byte	.LLST0
 2918 065c 19       		.uleb128 0x19
 2919 065d 80030000 		.4byte	.LASF89
 2920 0661 01       		.byte	0x1
 2921 0662 5602     		.2byte	0x256
 2922 0664 01       		.byte	0x1
 2923 0665 00000000 		.4byte	.LFB21
 2924 0669 82000000 		.4byte	.LFE21
 2925 066d 20000000 		.4byte	.LLST1
 2926 0671 84060000 		.4byte	0x684
 2927 0675 1A       		.uleb128 0x1a
 2928 0676 6E00     		.ascii	"n\000"
 2929 0678 01       		.byte	0x1
 2930 0679 5702     		.2byte	0x257
 2931 067b 7B000000 		.4byte	0x7b
ARM GAS  /tmp/ccayCWiC.s 			page 55


 2932 067f 40000000 		.4byte	.LLST2
 2933 0683 00       		.byte	0
 2934 0684 1B       		.uleb128 0x1b
 2935 0685 CD020000 		.4byte	.LASF91
 2936 0689 01       		.byte	0x1
 2937 068a 5102     		.2byte	0x251
 2938 068c 01       		.byte	0x1
 2939 068d 00000000 		.4byte	.LFB20
 2940 0691 0C000000 		.4byte	.LFE20
 2941 0695 02       		.byte	0x2
 2942 0696 7D       		.byte	0x7d
 2943 0697 00       		.sleb128 0
 2944 0698 1C       		.uleb128 0x1c
 2945 0699 89000000 		.4byte	.LASF93
 2946 069d 01       		.byte	0x1
 2947 069e 5901     		.2byte	0x159
 2948 06a0 01       		.byte	0x1
 2949 06a1 D2000000 		.4byte	0xd2
 2950 06a5 00000000 		.4byte	.LFB10
 2951 06a9 2E000000 		.4byte	.LFE10
 2952 06ad 5F000000 		.4byte	.LLST3
 2953 06b1 C4060000 		.4byte	0x6c4
 2954 06b5 1D       		.uleb128 0x1d
 2955 06b6 7000     		.ascii	"p\000"
 2956 06b8 01       		.byte	0x1
 2957 06b9 5901     		.2byte	0x159
 2958 06bb 75020000 		.4byte	0x275
 2959 06bf 7F000000 		.4byte	.LLST4
 2960 06c3 00       		.byte	0
 2961 06c4 19       		.uleb128 0x19
 2962 06c5 49010000 		.4byte	.LASF94
 2963 06c9 01       		.byte	0x1
 2964 06ca 2702     		.2byte	0x227
 2965 06cc 01       		.byte	0x1
 2966 06cd 00000000 		.4byte	.LFB19
 2967 06d1 A2000000 		.4byte	.LFE19
 2968 06d5 92000000 		.4byte	.LLST5
 2969 06d9 EC060000 		.4byte	0x6ec
 2970 06dd 1A       		.uleb128 0x1a
 2971 06de 6E00     		.ascii	"n\000"
 2972 06e0 01       		.byte	0x1
 2973 06e1 2802     		.2byte	0x228
 2974 06e3 7B000000 		.4byte	0x7b
 2975 06e7 B2000000 		.4byte	.LLST6
 2976 06eb 00       		.byte	0
 2977 06ec 1B       		.uleb128 0x1b
 2978 06ed 75020000 		.4byte	.LASF95
 2979 06f1 01       		.byte	0x1
 2980 06f2 2202     		.2byte	0x222
 2981 06f4 01       		.byte	0x1
 2982 06f5 00000000 		.4byte	.LFB18
 2983 06f9 0E000000 		.4byte	.LFE18
 2984 06fd 02       		.byte	0x2
 2985 06fe 7D       		.byte	0x7d
 2986 06ff 00       		.sleb128 0
 2987 0700 1B       		.uleb128 0x1b
 2988 0701 EE040000 		.4byte	.LASF96
ARM GAS  /tmp/ccayCWiC.s 			page 56


 2989 0705 01       		.byte	0x1
 2990 0706 6101     		.2byte	0x161
 2991 0708 01       		.byte	0x1
 2992 0709 00000000 		.4byte	.LFB11
 2993 070d 0E000000 		.4byte	.LFE11
 2994 0711 02       		.byte	0x2
 2995 0712 7D       		.byte	0x7d
 2996 0713 00       		.sleb128 0
 2997 0714 19       		.uleb128 0x19
 2998 0715 5F010000 		.4byte	.LASF97
 2999 0719 01       		.byte	0x1
 3000 071a FA01     		.2byte	0x1fa
 3001 071c 01       		.byte	0x1
 3002 071d 00000000 		.4byte	.LFB17
 3003 0721 9C000000 		.4byte	.LFE17
 3004 0725 D1000000 		.4byte	.LLST7
 3005 0729 60070000 		.4byte	0x760
 3006 072d 1E       		.uleb128 0x1e
 3007 072e 76743100 		.ascii	"vt1\000"
 3008 0732 01       		.byte	0x1
 3009 0733 FB01     		.2byte	0x1fb
 3010 0735 50030000 		.4byte	0x350
 3011 0739 05       		.byte	0x5
 3012 073a 03       		.byte	0x3
 3013 073b 00000000 		.4byte	vt1.4762
 3014 073f 1E       		.uleb128 0x1e
 3015 0740 76743200 		.ascii	"vt2\000"
 3016 0744 01       		.byte	0x1
 3017 0745 FB01     		.2byte	0x1fb
 3018 0747 50030000 		.4byte	0x350
 3019 074b 05       		.byte	0x5
 3020 074c 03       		.byte	0x3
 3021 074d 00000000 		.4byte	vt2.4763
 3022 0751 1A       		.uleb128 0x1a
 3023 0752 6E00     		.ascii	"n\000"
 3024 0754 01       		.byte	0x1
 3025 0755 FC01     		.2byte	0x1fc
 3026 0757 7B000000 		.4byte	0x7b
 3027 075b F1000000 		.4byte	.LLST8
 3028 075f 00       		.byte	0
 3029 0760 19       		.uleb128 0x19
 3030 0761 05020000 		.4byte	.LASF98
 3031 0765 01       		.byte	0x1
 3032 0766 CA01     		.2byte	0x1ca
 3033 0768 01       		.byte	0x1
 3034 0769 00000000 		.4byte	.LFB15
 3035 076d E8000000 		.4byte	.LFE15
 3036 0771 10010000 		.4byte	.LLST9
 3037 0775 AA070000 		.4byte	0x7aa
 3038 0779 1A       		.uleb128 0x1a
 3039 077a 6E00     		.ascii	"n\000"
 3040 077c 01       		.byte	0x1
 3041 077d CB01     		.2byte	0x1cb
 3042 077f 7B000000 		.4byte	0x7b
 3043 0783 3C010000 		.4byte	.LLST10
 3044 0787 1E       		.uleb128 0x1e
 3045 0788 696200   		.ascii	"ib\000"
ARM GAS  /tmp/ccayCWiC.s 			page 57


 3046 078b 01       		.byte	0x1
 3047 078c CC01     		.2byte	0x1cc
 3048 078e AA070000 		.4byte	0x7aa
 3049 0792 05       		.byte	0x5
 3050 0793 03       		.byte	0x3
 3051 0794 00000000 		.4byte	ib.4751
 3052 0798 1E       		.uleb128 0x1e
 3053 0799 697100   		.ascii	"iq\000"
 3054 079c 01       		.byte	0x1
 3055 079d CD01     		.2byte	0x1cd
 3056 079f A1050000 		.4byte	0x5a1
 3057 07a3 05       		.byte	0x5
 3058 07a4 03       		.byte	0x3
 3059 07a5 00000000 		.4byte	iq.4752
 3060 07a9 00       		.byte	0
 3061 07aa 1F       		.uleb128 0x1f
 3062 07ab 49000000 		.4byte	0x49
 3063 07af BA070000 		.4byte	0x7ba
 3064 07b3 20       		.uleb128 0x20
 3065 07b4 3B000000 		.4byte	0x3b
 3066 07b8 0F       		.byte	0xf
 3067 07b9 00       		.byte	0
 3068 07ba 19       		.uleb128 0x19
 3069 07bb 06050000 		.4byte	.LASF99
 3070 07bf 01       		.byte	0x1
 3071 07c0 3401     		.2byte	0x134
 3072 07c2 01       		.byte	0x1
 3073 07c3 00000000 		.4byte	.LFB9
 3074 07c7 7A000000 		.4byte	.LFE9
 3075 07cb 5B010000 		.4byte	.LLST11
 3076 07cf 00080000 		.4byte	0x800
 3077 07d3 1A       		.uleb128 0x1a
 3078 07d4 6E00     		.ascii	"n\000"
 3079 07d6 01       		.byte	0x1
 3080 07d7 3601     		.2byte	0x136
 3081 07d9 7B000000 		.4byte	0x7b
 3082 07dd 87010000 		.4byte	.LLST12
 3083 07e1 1A       		.uleb128 0x1a
 3084 07e2 77617000 		.ascii	"wap\000"
 3085 07e6 01       		.byte	0x1
 3086 07e7 3701     		.2byte	0x137
 3087 07e9 75020000 		.4byte	0x275
 3088 07ed A6010000 		.4byte	.LLST13
 3089 07f1 21       		.uleb128 0x21
 3090 07f2 0D000000 		.4byte	.LASF100
 3091 07f6 01       		.byte	0x1
 3092 07f7 3801     		.2byte	0x138
 3093 07f9 C7000000 		.4byte	0xc7
 3094 07fd 01       		.byte	0x1
 3095 07fe 57       		.byte	0x57
 3096 07ff 00       		.byte	0
 3097 0800 19       		.uleb128 0x19
 3098 0801 DF000000 		.4byte	.LASF101
 3099 0805 01       		.byte	0x1
 3100 0806 A401     		.2byte	0x1a4
 3101 0808 01       		.byte	0x1
 3102 0809 00000000 		.4byte	.LFB14
ARM GAS  /tmp/ccayCWiC.s 			page 58


 3103 080d EC000000 		.4byte	.LFE14
 3104 0811 BA010000 		.4byte	.LLST14
 3105 0815 27080000 		.4byte	0x827
 3106 0819 1E       		.uleb128 0x1e
 3107 081a 6E00     		.ascii	"n\000"
 3108 081c 01       		.byte	0x1
 3109 081d A501     		.2byte	0x1a5
 3110 081f 7B000000 		.4byte	0x7b
 3111 0823 02       		.byte	0x2
 3112 0824 74       		.byte	0x74
 3113 0825 7C       		.sleb128 -4
 3114 0826 00       		.byte	0
 3115 0827 1C       		.uleb128 0x1c
 3116 0828 1F030000 		.4byte	.LASF102
 3117 082c 01       		.byte	0x1
 3118 082d 9501     		.2byte	0x195
 3119 082f 01       		.byte	0x1
 3120 0830 D2000000 		.4byte	0xd2
 3121 0834 00000000 		.4byte	.LFB13
 3122 0838 30000000 		.4byte	.LFE13
 3123 083c E6010000 		.4byte	.LLST15
 3124 0840 53080000 		.4byte	0x853
 3125 0844 1D       		.uleb128 0x1d
 3126 0845 7000     		.ascii	"p\000"
 3127 0847 01       		.byte	0x1
 3128 0848 9501     		.2byte	0x195
 3129 084a 75020000 		.4byte	0x275
 3130 084e 06020000 		.4byte	.LLST16
 3131 0852 00       		.byte	0
 3132 0853 19       		.uleb128 0x19
 3133 0854 42000000 		.4byte	.LASF103
 3134 0858 01       		.byte	0x1
 3135 0859 6601     		.2byte	0x166
 3136 085b 01       		.byte	0x1
 3137 085c 00000000 		.4byte	.LFB12
 3138 0860 32010000 		.4byte	.LFE12
 3139 0864 24020000 		.4byte	.LLST17
 3140 0868 7B080000 		.4byte	0x87b
 3141 086c 1A       		.uleb128 0x1a
 3142 086d 6E00     		.ascii	"n\000"
 3143 086f 01       		.byte	0x1
 3144 0870 6701     		.2byte	0x167
 3145 0872 7B000000 		.4byte	0x7b
 3146 0876 50020000 		.4byte	.LLST18
 3147 087a 00       		.byte	0
 3148 087b 19       		.uleb128 0x19
 3149 087c 82040000 		.4byte	.LASF104
 3150 0880 01       		.byte	0x1
 3151 0881 0D01     		.2byte	0x10d
 3152 0883 01       		.byte	0x1
 3153 0884 00000000 		.4byte	.LFB8
 3154 0888 7E000000 		.4byte	.LFE8
 3155 088c 6F020000 		.4byte	.LLST19
 3156 0890 C1080000 		.4byte	0x8c1
 3157 0894 1A       		.uleb128 0x1a
 3158 0895 6E00     		.ascii	"n\000"
 3159 0897 01       		.byte	0x1
ARM GAS  /tmp/ccayCWiC.s 			page 59


 3160 0898 0F01     		.2byte	0x10f
 3161 089a 7B000000 		.4byte	0x7b
 3162 089e 9B020000 		.4byte	.LLST20
 3163 08a2 1A       		.uleb128 0x1a
 3164 08a3 77617000 		.ascii	"wap\000"
 3165 08a7 01       		.byte	0x1
 3166 08a8 1001     		.2byte	0x110
 3167 08aa 75020000 		.4byte	0x275
 3168 08ae BA020000 		.4byte	.LLST21
 3169 08b2 21       		.uleb128 0x21
 3170 08b3 0D000000 		.4byte	.LASF100
 3171 08b7 01       		.byte	0x1
 3172 08b8 1101     		.2byte	0x111
 3173 08ba C7000000 		.4byte	0xc7
 3174 08be 01       		.byte	0x1
 3175 08bf 57       		.byte	0x57
 3176 08c0 00       		.byte	0
 3177 08c1 22       		.uleb128 0x22
 3178 08c2 F9040000 		.4byte	.LASF105
 3179 08c6 01       		.byte	0x1
 3180 08c7 DD       		.byte	0xdd
 3181 08c8 01       		.byte	0x1
 3182 08c9 00000000 		.4byte	.LFB7
 3183 08cd CA000000 		.4byte	.LFE7
 3184 08d1 CE020000 		.4byte	.LLST22
 3185 08d5 F5080000 		.4byte	0x8f5
 3186 08d9 23       		.uleb128 0x23
 3187 08da 747000   		.ascii	"tp\000"
 3188 08dd 01       		.byte	0x1
 3189 08de DE       		.byte	0xde
 3190 08df 37020000 		.4byte	0x237
 3191 08e3 FA020000 		.4byte	.LLST23
 3192 08e7 23       		.uleb128 0x23
 3193 08e8 6E00     		.ascii	"n\000"
 3194 08ea 01       		.byte	0x1
 3195 08eb DF       		.byte	0xdf
 3196 08ec 7B000000 		.4byte	0x7b
 3197 08f0 18030000 		.4byte	.LLST24
 3198 08f4 00       		.byte	0
 3199 08f5 24       		.uleb128 0x24
 3200 08f6 91000000 		.4byte	.LASF106
 3201 08fa 01       		.byte	0x1
 3202 08fb 54       		.byte	0x54
 3203 08fc 01       		.byte	0x1
 3204 08fd 3B000000 		.4byte	0x3b
 3205 0901 00000000 		.4byte	.LFB1
 3206 0905 36000000 		.4byte	.LFE1
 3207 0909 37030000 		.4byte	.LLST25
 3208 090d 2D090000 		.4byte	0x92d
 3209 0911 25       		.uleb128 0x25
 3210 0912 747000   		.ascii	"tp\000"
 3211 0915 01       		.byte	0x1
 3212 0916 54       		.byte	0x54
 3213 0917 37020000 		.4byte	0x237
 3214 091b 57030000 		.4byte	.LLST26
 3215 091f 23       		.uleb128 0x23
 3216 0920 6E00     		.ascii	"n\000"
ARM GAS  /tmp/ccayCWiC.s 			page 60


 3217 0922 01       		.byte	0x1
 3218 0923 56       		.byte	0x56
 3219 0924 7B000000 		.4byte	0x7b
 3220 0928 75030000 		.4byte	.LLST27
 3221 092c 00       		.byte	0
 3222 092d 22       		.uleb128 0x22
 3223 092e B7020000 		.4byte	.LASF107
 3224 0932 01       		.byte	0x1
 3225 0933 AD       		.byte	0xad
 3226 0934 01       		.byte	0x1
 3227 0935 00000000 		.4byte	.LFB5
 3228 0939 F8000000 		.4byte	.LFE5
 3229 093d 94030000 		.4byte	.LLST28
 3230 0941 53090000 		.4byte	0x953
 3231 0945 23       		.uleb128 0x23
 3232 0946 6E00     		.ascii	"n\000"
 3233 0948 01       		.byte	0x1
 3234 0949 AE       		.byte	0xae
 3235 094a 7B000000 		.4byte	0x7b
 3236 094e C0030000 		.4byte	.LLST29
 3237 0952 00       		.byte	0
 3238 0953 22       		.uleb128 0x22
 3239 0954 DF020000 		.4byte	.LASF108
 3240 0958 01       		.byte	0x1
 3241 0959 8A       		.byte	0x8a
 3242 095a 01       		.byte	0x1
 3243 095b 00000000 		.4byte	.LFB3
 3244 095f 7C000000 		.4byte	.LFE3
 3245 0963 DE030000 		.4byte	.LLST30
 3246 0967 79090000 		.4byte	0x979
 3247 096b 23       		.uleb128 0x23
 3248 096c 6E00     		.ascii	"n\000"
 3249 096e 01       		.byte	0x1
 3250 096f 8B       		.byte	0x8b
 3251 0970 7B000000 		.4byte	0x7b
 3252 0974 0A040000 		.4byte	.LLST31
 3253 0978 00       		.byte	0
 3254 0979 22       		.uleb128 0x22
 3255 097a B1000000 		.4byte	.LASF109
 3256 097e 01       		.byte	0x1
 3257 097f 6D       		.byte	0x6d
 3258 0980 01       		.byte	0x1
 3259 0981 00000000 		.4byte	.LFB2
 3260 0985 7C000000 		.4byte	.LFE2
 3261 0989 28040000 		.4byte	.LLST32
 3262 098d 9F090000 		.4byte	0x99f
 3263 0991 23       		.uleb128 0x23
 3264 0992 6E00     		.ascii	"n\000"
 3265 0994 01       		.byte	0x1
 3266 0995 6E       		.byte	0x6e
 3267 0996 7B000000 		.4byte	0x7b
 3268 099a 54040000 		.4byte	.LLST33
 3269 099e 00       		.byte	0
 3270 099f 24       		.uleb128 0x24
 3271 09a0 F4020000 		.4byte	.LASF110
 3272 09a4 01       		.byte	0x1
 3273 09a5 44       		.byte	0x44
ARM GAS  /tmp/ccayCWiC.s 			page 61


 3274 09a6 01       		.byte	0x1
 3275 09a7 D2000000 		.4byte	0xd2
 3276 09ab 00000000 		.4byte	.LFB0
 3277 09af 16000000 		.4byte	.LFE0
 3278 09b3 72040000 		.4byte	.LLST34
 3279 09b7 E6090000 		.4byte	0x9e6
 3280 09bb 25       		.uleb128 0x25
 3281 09bc 7000     		.ascii	"p\000"
 3282 09be 01       		.byte	0x1
 3283 09bf 44       		.byte	0x44
 3284 09c0 75020000 		.4byte	0x275
 3285 09c4 92040000 		.4byte	.LLST35
 3286 09c8 23       		.uleb128 0x23
 3287 09c9 747000   		.ascii	"tp\000"
 3288 09cc 01       		.byte	0x1
 3289 09cd 45       		.byte	0x45
 3290 09ce 37020000 		.4byte	0x237
 3291 09d2 A5040000 		.4byte	.LLST36
 3292 09d6 23       		.uleb128 0x23
 3293 09d7 6D736700 		.ascii	"msg\000"
 3294 09db 01       		.byte	0x1
 3295 09dc 46       		.byte	0x46
 3296 09dd D2000000 		.4byte	0xd2
 3297 09e1 B8040000 		.4byte	.LLST37
 3298 09e5 00       		.byte	0
 3299 09e6 26       		.uleb128 0x26
 3300 09e7 01       		.byte	0x1
 3301 09e8 0A030000 		.4byte	.LASF134
 3302 09ec 01       		.byte	0x1
 3303 09ed CF       		.byte	0xcf
 3304 09ee 01       		.byte	0x1
 3305 09ef D2000000 		.4byte	0xd2
 3306 09f3 00000000 		.4byte	.LFB6
 3307 09f7 2C000000 		.4byte	.LFE6
 3308 09fb D7040000 		.4byte	.LLST38
 3309 09ff 2F0A0000 		.4byte	0xa2f
 3310 0a03 25       		.uleb128 0x25
 3311 0a04 7000     		.ascii	"p\000"
 3312 0a06 01       		.byte	0x1
 3313 0a07 CF       		.byte	0xcf
 3314 0a08 75020000 		.4byte	0x275
 3315 0a0c F7040000 		.4byte	.LLST39
 3316 0a10 23       		.uleb128 0x23
 3317 0a11 6D736700 		.ascii	"msg\000"
 3318 0a15 01       		.byte	0x1
 3319 0a16 D0       		.byte	0xd0
 3320 0a17 D2000000 		.4byte	0xd2
 3321 0a1b 0A050000 		.4byte	.LLST40
 3322 0a1f 27       		.uleb128 0x27
 3323 0a20 58040000 		.4byte	.LASF111
 3324 0a24 01       		.byte	0x1
 3325 0a25 D1       		.byte	0xd1
 3326 0a26 37020000 		.4byte	0x237
 3327 0a2a 1E050000 		.4byte	.LLST41
 3328 0a2e 00       		.byte	0
 3329 0a2f 28       		.uleb128 0x28
 3330 0a30 0F010000 		.4byte	.LASF112
ARM GAS  /tmp/ccayCWiC.s 			page 62


 3331 0a34 01       		.byte	0x1
 3332 0a35 3F       		.byte	0x3f
 3333 0a36 4A040000 		.4byte	0x44a
 3334 0a3a 05       		.byte	0x5
 3335 0a3b 03       		.byte	0x3
 3336 0a3c 00000000 		.4byte	sem1
 3337 0a40 28       		.uleb128 0x28
 3338 0a41 FA010000 		.4byte	.LASF113
 3339 0a45 01       		.byte	0x1
 3340 0a46 41       		.byte	0x41
 3341 0a47 92040000 		.4byte	0x492
 3342 0a4b 05       		.byte	0x5
 3343 0a4c 03       		.byte	0x3
 3344 0a4d 00000000 		.4byte	mtx1
 3345 0a51 29       		.uleb128 0x29
 3346 0a52 D2040000 		.4byte	.LASF114
 3347 0a56 09       		.byte	0x9
 3348 0a57 68       		.byte	0x68
 3349 0a58 16040000 		.4byte	0x416
 3350 0a5c 01       		.byte	0x1
 3351 0a5d 01       		.byte	0x1
 3352 0a5e 1F       		.uleb128 0x1f
 3353 0a5f 37020000 		.4byte	0x237
 3354 0a63 6E0A0000 		.4byte	0xa6e
 3355 0a67 20       		.uleb128 0x20
 3356 0a68 3B000000 		.4byte	0x3b
 3357 0a6c 04       		.byte	0x4
 3358 0a6d 00       		.byte	0
 3359 0a6e 29       		.uleb128 0x29
 3360 0a6f C0030000 		.4byte	.LASF115
 3361 0a73 0D       		.byte	0xd
 3362 0a74 A9       		.byte	0xa9
 3363 0a75 5E0A0000 		.4byte	0xa5e
 3364 0a79 01       		.byte	0x1
 3365 0a7a 01       		.byte	0x1
 3366 0a7b 1F       		.uleb128 0x1f
 3367 0a7c 75020000 		.4byte	0x275
 3368 0a80 860A0000 		.4byte	0xa86
 3369 0a84 2A       		.uleb128 0x2a
 3370 0a85 00       		.byte	0
 3371 0a86 2B       		.uleb128 0x2b
 3372 0a87 776100   		.ascii	"wa\000"
 3373 0a8a 0D       		.byte	0xd
 3374 0a8b AB       		.byte	0xab
 3375 0a8c 920A0000 		.4byte	0xa92
 3376 0a90 01       		.byte	0x1
 3377 0a91 01       		.byte	0x1
 3378 0a92 12       		.uleb128 0x12
 3379 0a93 7B0A0000 		.4byte	0xa7b
 3380 0a97 29       		.uleb128 0x29
 3381 0a98 88010000 		.4byte	.LASF116
 3382 0a9c 0D       		.byte	0xd
 3383 0a9d AC       		.byte	0xac
 3384 0a9e A6000000 		.4byte	0xa6
 3385 0aa2 01       		.byte	0x1
 3386 0aa3 01       		.byte	0x1
 3387 0aa4 2C       		.uleb128 0x2c
ARM GAS  /tmp/ccayCWiC.s 			page 63


 3388 0aa5 81020000 		.4byte	.LASF117
 3389 0aa9 01       		.byte	0x1
 3390 0aaa 7A       		.byte	0x7a
 3391 0aab B60A0000 		.4byte	0xab6
 3392 0aaf 01       		.byte	0x1
 3393 0ab0 05       		.byte	0x5
 3394 0ab1 03       		.byte	0x3
 3395 0ab2 00000000 		.4byte	testbmk1
 3396 0ab6 12       		.uleb128 0x12
 3397 0ab7 AC050000 		.4byte	0x5ac
 3398 0abb 2C       		.uleb128 0x2c
 3399 0abc 8A020000 		.4byte	.LASF118
 3400 0ac0 01       		.byte	0x1
 3401 0ac1 97       		.byte	0x97
 3402 0ac2 B60A0000 		.4byte	0xab6
 3403 0ac6 01       		.byte	0x1
 3404 0ac7 05       		.byte	0x5
 3405 0ac8 03       		.byte	0x3
 3406 0ac9 00000000 		.4byte	testbmk2
 3407 0acd 2C       		.uleb128 0x2c
 3408 0ace 93020000 		.4byte	.LASF119
 3409 0ad2 01       		.byte	0x1
 3410 0ad3 BE       		.byte	0xbe
 3411 0ad4 B60A0000 		.4byte	0xab6
 3412 0ad8 01       		.byte	0x1
 3413 0ad9 05       		.byte	0x5
 3414 0ada 03       		.byte	0x3
 3415 0adb 00000000 		.4byte	testbmk3
 3416 0adf 2C       		.uleb128 0x2c
 3417 0ae0 9C020000 		.4byte	.LASF120
 3418 0ae4 01       		.byte	0x1
 3419 0ae5 FB       		.byte	0xfb
 3420 0ae6 B60A0000 		.4byte	0xab6
 3421 0aea 01       		.byte	0x1
 3422 0aeb 05       		.byte	0x5
 3423 0aec 03       		.byte	0x3
 3424 0aed 00000000 		.4byte	testbmk4
 3425 0af1 2D       		.uleb128 0x2d
 3426 0af2 43020000 		.4byte	.LASF121
 3427 0af6 01       		.byte	0x1
 3428 0af7 2001     		.2byte	0x120
 3429 0af9 B60A0000 		.4byte	0xab6
 3430 0afd 01       		.byte	0x1
 3431 0afe 05       		.byte	0x5
 3432 0aff 03       		.byte	0x3
 3433 0b00 00000000 		.4byte	testbmk5
 3434 0b04 2D       		.uleb128 0x2d
 3435 0b05 98010000 		.4byte	.LASF122
 3436 0b09 01       		.byte	0x1
 3437 0b0a 4701     		.2byte	0x147
 3438 0b0c B60A0000 		.4byte	0xab6
 3439 0b10 01       		.byte	0x1
 3440 0b11 05       		.byte	0x5
 3441 0b12 03       		.byte	0x3
 3442 0b13 00000000 		.4byte	testbmk6
 3443 0b17 2D       		.uleb128 0x2d
 3444 0b18 22010000 		.4byte	.LASF123
ARM GAS  /tmp/ccayCWiC.s 			page 64


 3445 0b1c 01       		.byte	0x1
 3446 0b1d 8401     		.2byte	0x184
 3447 0b1f B60A0000 		.4byte	0xab6
 3448 0b23 01       		.byte	0x1
 3449 0b24 05       		.byte	0x5
 3450 0b25 03       		.byte	0x3
 3451 0b26 00000000 		.4byte	testbmk7
 3452 0b2a 2D       		.uleb128 0x2d
 3453 0b2b 64020000 		.4byte	.LASF124
 3454 0b2f 01       		.byte	0x1
 3455 0b30 B901     		.2byte	0x1b9
 3456 0b32 B60A0000 		.4byte	0xab6
 3457 0b36 01       		.byte	0x1
 3458 0b37 05       		.byte	0x5
 3459 0b38 03       		.byte	0x3
 3460 0b39 00000000 		.4byte	testbmk8
 3461 0b3d 2D       		.uleb128 0x2d
 3462 0b3e C4020000 		.4byte	.LASF125
 3463 0b42 01       		.byte	0x1
 3464 0b43 E801     		.2byte	0x1e8
 3465 0b45 B60A0000 		.4byte	0xab6
 3466 0b49 01       		.byte	0x1
 3467 0b4a 05       		.byte	0x5
 3468 0b4b 03       		.byte	0x3
 3469 0b4c 00000000 		.4byte	testbmk9
 3470 0b50 2D       		.uleb128 0x2d
 3471 0b51 F7030000 		.4byte	.LASF126
 3472 0b55 01       		.byte	0x1
 3473 0b56 1102     		.2byte	0x211
 3474 0b58 B60A0000 		.4byte	0xab6
 3475 0b5c 01       		.byte	0x1
 3476 0b5d 05       		.byte	0x5
 3477 0b5e 03       		.byte	0x3
 3478 0b5f 00000000 		.4byte	testbmk10
 3479 0b63 2D       		.uleb128 0x2d
 3480 0b64 01040000 		.4byte	.LASF127
 3481 0b68 01       		.byte	0x1
 3482 0b69 3F02     		.2byte	0x23f
 3483 0b6b B60A0000 		.4byte	0xab6
 3484 0b6f 01       		.byte	0x1
 3485 0b70 05       		.byte	0x5
 3486 0b71 03       		.byte	0x3
 3487 0b72 00000000 		.4byte	testbmk11
 3488 0b76 2D       		.uleb128 0x2d
 3489 0b77 05010000 		.4byte	.LASF128
 3490 0b7b 01       		.byte	0x1
 3491 0b7c 6E02     		.2byte	0x26e
 3492 0b7e B60A0000 		.4byte	0xab6
 3493 0b82 01       		.byte	0x1
 3494 0b83 05       		.byte	0x5
 3495 0b84 03       		.byte	0x3
 3496 0b85 00000000 		.4byte	testbmk12
 3497 0b89 2D       		.uleb128 0x2d
 3498 0b8a 14040000 		.4byte	.LASF129
 3499 0b8e 01       		.byte	0x1
 3500 0b8f AD02     		.2byte	0x2ad
 3501 0b91 B60A0000 		.4byte	0xab6
ARM GAS  /tmp/ccayCWiC.s 			page 65


 3502 0b95 01       		.byte	0x1
 3503 0b96 05       		.byte	0x5
 3504 0b97 03       		.byte	0x3
 3505 0b98 00000000 		.4byte	testbmk13
 3506 0b9c 1F       		.uleb128 0x1f
 3507 0b9d AC0B0000 		.4byte	0xbac
 3508 0ba1 AC0B0000 		.4byte	0xbac
 3509 0ba5 20       		.uleb128 0x20
 3510 0ba6 3B000000 		.4byte	0x3b
 3511 0baa 0D       		.byte	0xd
 3512 0bab 00       		.byte	0
 3513 0bac 09       		.uleb128 0x9
 3514 0bad 04       		.byte	0x4
 3515 0bae B60A0000 		.4byte	0xab6
 3516 0bb2 2D       		.uleb128 0x2d
 3517 0bb3 E5030000 		.4byte	.LASF130
 3518 0bb7 01       		.byte	0x1
 3519 0bb8 B702     		.2byte	0x2b7
 3520 0bba C50B0000 		.4byte	0xbc5
 3521 0bbe 01       		.byte	0x1
 3522 0bbf 05       		.byte	0x5
 3523 0bc0 03       		.byte	0x3
 3524 0bc1 00000000 		.4byte	patternbmk
 3525 0bc5 12       		.uleb128 0x12
 3526 0bc6 9C0B0000 		.4byte	0xb9c
 3527 0bca 00       		.byte	0
 3528              		.section	.debug_abbrev,"",%progbits
 3529              	.Ldebug_abbrev0:
 3530 0000 01       		.uleb128 0x1
 3531 0001 11       		.uleb128 0x11
 3532 0002 01       		.byte	0x1
 3533 0003 25       		.uleb128 0x25
 3534 0004 0E       		.uleb128 0xe
 3535 0005 13       		.uleb128 0x13
 3536 0006 0B       		.uleb128 0xb
 3537 0007 03       		.uleb128 0x3
 3538 0008 0E       		.uleb128 0xe
 3539 0009 1B       		.uleb128 0x1b
 3540 000a 0E       		.uleb128 0xe
 3541 000b 11       		.uleb128 0x11
 3542 000c 01       		.uleb128 0x1
 3543 000d 52       		.uleb128 0x52
 3544 000e 01       		.uleb128 0x1
 3545 000f 55       		.uleb128 0x55
 3546 0010 06       		.uleb128 0x6
 3547 0011 10       		.uleb128 0x10
 3548 0012 06       		.uleb128 0x6
 3549 0013 00       		.byte	0
 3550 0014 00       		.byte	0
 3551 0015 02       		.uleb128 0x2
 3552 0016 24       		.uleb128 0x24
 3553 0017 00       		.byte	0
 3554 0018 0B       		.uleb128 0xb
 3555 0019 0B       		.uleb128 0xb
 3556 001a 3E       		.uleb128 0x3e
 3557 001b 0B       		.uleb128 0xb
 3558 001c 03       		.uleb128 0x3
ARM GAS  /tmp/ccayCWiC.s 			page 66


 3559 001d 08       		.uleb128 0x8
 3560 001e 00       		.byte	0
 3561 001f 00       		.byte	0
 3562 0020 03       		.uleb128 0x3
 3563 0021 16       		.uleb128 0x16
 3564 0022 00       		.byte	0
 3565 0023 03       		.uleb128 0x3
 3566 0024 0E       		.uleb128 0xe
 3567 0025 3A       		.uleb128 0x3a
 3568 0026 0B       		.uleb128 0xb
 3569 0027 3B       		.uleb128 0x3b
 3570 0028 0B       		.uleb128 0xb
 3571 0029 49       		.uleb128 0x49
 3572 002a 13       		.uleb128 0x13
 3573 002b 00       		.byte	0
 3574 002c 00       		.byte	0
 3575 002d 04       		.uleb128 0x4
 3576 002e 24       		.uleb128 0x24
 3577 002f 00       		.byte	0
 3578 0030 0B       		.uleb128 0xb
 3579 0031 0B       		.uleb128 0xb
 3580 0032 3E       		.uleb128 0x3e
 3581 0033 0B       		.uleb128 0xb
 3582 0034 03       		.uleb128 0x3
 3583 0035 0E       		.uleb128 0xe
 3584 0036 00       		.byte	0
 3585 0037 00       		.byte	0
 3586 0038 05       		.uleb128 0x5
 3587 0039 13       		.uleb128 0x13
 3588 003a 01       		.byte	0x1
 3589 003b 03       		.uleb128 0x3
 3590 003c 0E       		.uleb128 0xe
 3591 003d 0B       		.uleb128 0xb
 3592 003e 0B       		.uleb128 0xb
 3593 003f 3A       		.uleb128 0x3a
 3594 0040 0B       		.uleb128 0xb
 3595 0041 3B       		.uleb128 0x3b
 3596 0042 0B       		.uleb128 0xb
 3597 0043 01       		.uleb128 0x1
 3598 0044 13       		.uleb128 0x13
 3599 0045 00       		.byte	0
 3600 0046 00       		.byte	0
 3601 0047 06       		.uleb128 0x6
 3602 0048 0D       		.uleb128 0xd
 3603 0049 00       		.byte	0
 3604 004a 03       		.uleb128 0x3
 3605 004b 0E       		.uleb128 0xe
 3606 004c 3A       		.uleb128 0x3a
 3607 004d 0B       		.uleb128 0xb
 3608 004e 3B       		.uleb128 0x3b
 3609 004f 0B       		.uleb128 0xb
 3610 0050 49       		.uleb128 0x49
 3611 0051 13       		.uleb128 0x13
 3612 0052 38       		.uleb128 0x38
 3613 0053 0A       		.uleb128 0xa
 3614 0054 00       		.byte	0
 3615 0055 00       		.byte	0
ARM GAS  /tmp/ccayCWiC.s 			page 67


 3616 0056 07       		.uleb128 0x7
 3617 0057 0D       		.uleb128 0xd
 3618 0058 00       		.byte	0
 3619 0059 03       		.uleb128 0x3
 3620 005a 08       		.uleb128 0x8
 3621 005b 3A       		.uleb128 0x3a
 3622 005c 0B       		.uleb128 0xb
 3623 005d 3B       		.uleb128 0x3b
 3624 005e 0B       		.uleb128 0xb
 3625 005f 49       		.uleb128 0x49
 3626 0060 13       		.uleb128 0x13
 3627 0061 38       		.uleb128 0x38
 3628 0062 0A       		.uleb128 0xa
 3629 0063 00       		.byte	0
 3630 0064 00       		.byte	0
 3631 0065 08       		.uleb128 0x8
 3632 0066 13       		.uleb128 0x13
 3633 0067 01       		.byte	0x1
 3634 0068 0B       		.uleb128 0xb
 3635 0069 0B       		.uleb128 0xb
 3636 006a 3A       		.uleb128 0x3a
 3637 006b 0B       		.uleb128 0xb
 3638 006c 3B       		.uleb128 0x3b
 3639 006d 0B       		.uleb128 0xb
 3640 006e 01       		.uleb128 0x1
 3641 006f 13       		.uleb128 0x13
 3642 0070 00       		.byte	0
 3643 0071 00       		.byte	0
 3644 0072 09       		.uleb128 0x9
 3645 0073 0F       		.uleb128 0xf
 3646 0074 00       		.byte	0
 3647 0075 0B       		.uleb128 0xb
 3648 0076 0B       		.uleb128 0xb
 3649 0077 49       		.uleb128 0x49
 3650 0078 13       		.uleb128 0x13
 3651 0079 00       		.byte	0
 3652 007a 00       		.byte	0
 3653 007b 0A       		.uleb128 0xa
 3654 007c 0F       		.uleb128 0xf
 3655 007d 00       		.byte	0
 3656 007e 0B       		.uleb128 0xb
 3657 007f 0B       		.uleb128 0xb
 3658 0080 00       		.byte	0
 3659 0081 00       		.byte	0
 3660 0082 0B       		.uleb128 0xb
 3661 0083 13       		.uleb128 0x13
 3662 0084 01       		.byte	0x1
 3663 0085 03       		.uleb128 0x3
 3664 0086 0E       		.uleb128 0xe
 3665 0087 0B       		.uleb128 0xb
 3666 0088 0B       		.uleb128 0xb
 3667 0089 3A       		.uleb128 0x3a
 3668 008a 0B       		.uleb128 0xb
 3669 008b 3B       		.uleb128 0x3b
 3670 008c 05       		.uleb128 0x5
 3671 008d 01       		.uleb128 0x1
 3672 008e 13       		.uleb128 0x13
ARM GAS  /tmp/ccayCWiC.s 			page 68


 3673 008f 00       		.byte	0
 3674 0090 00       		.byte	0
 3675 0091 0C       		.uleb128 0xc
 3676 0092 0D       		.uleb128 0xd
 3677 0093 00       		.byte	0
 3678 0094 03       		.uleb128 0x3
 3679 0095 08       		.uleb128 0x8
 3680 0096 3A       		.uleb128 0x3a
 3681 0097 0B       		.uleb128 0xb
 3682 0098 3B       		.uleb128 0x3b
 3683 0099 05       		.uleb128 0x5
 3684 009a 49       		.uleb128 0x49
 3685 009b 13       		.uleb128 0x13
 3686 009c 38       		.uleb128 0x38
 3687 009d 0A       		.uleb128 0xa
 3688 009e 00       		.byte	0
 3689 009f 00       		.byte	0
 3690 00a0 0D       		.uleb128 0xd
 3691 00a1 15       		.uleb128 0x15
 3692 00a2 01       		.byte	0x1
 3693 00a3 27       		.uleb128 0x27
 3694 00a4 0C       		.uleb128 0xc
 3695 00a5 01       		.uleb128 0x1
 3696 00a6 13       		.uleb128 0x13
 3697 00a7 00       		.byte	0
 3698 00a8 00       		.byte	0
 3699 00a9 0E       		.uleb128 0xe
 3700 00aa 05       		.uleb128 0x5
 3701 00ab 00       		.byte	0
 3702 00ac 49       		.uleb128 0x49
 3703 00ad 13       		.uleb128 0x13
 3704 00ae 00       		.byte	0
 3705 00af 00       		.byte	0
 3706 00b0 0F       		.uleb128 0xf
 3707 00b1 35       		.uleb128 0x35
 3708 00b2 00       		.byte	0
 3709 00b3 49       		.uleb128 0x49
 3710 00b4 13       		.uleb128 0x13
 3711 00b5 00       		.byte	0
 3712 00b6 00       		.byte	0
 3713 00b7 10       		.uleb128 0x10
 3714 00b8 17       		.uleb128 0x17
 3715 00b9 01       		.byte	0x1
 3716 00ba 0B       		.uleb128 0xb
 3717 00bb 0B       		.uleb128 0xb
 3718 00bc 3A       		.uleb128 0x3a
 3719 00bd 0B       		.uleb128 0xb
 3720 00be 3B       		.uleb128 0x3b
 3721 00bf 0B       		.uleb128 0xb
 3722 00c0 01       		.uleb128 0x1
 3723 00c1 13       		.uleb128 0x13
 3724 00c2 00       		.byte	0
 3725 00c3 00       		.byte	0
 3726 00c4 11       		.uleb128 0x11
 3727 00c5 0D       		.uleb128 0xd
 3728 00c6 00       		.byte	0
 3729 00c7 03       		.uleb128 0x3
ARM GAS  /tmp/ccayCWiC.s 			page 69


 3730 00c8 0E       		.uleb128 0xe
 3731 00c9 3A       		.uleb128 0x3a
 3732 00ca 0B       		.uleb128 0xb
 3733 00cb 3B       		.uleb128 0x3b
 3734 00cc 0B       		.uleb128 0xb
 3735 00cd 49       		.uleb128 0x49
 3736 00ce 13       		.uleb128 0x13
 3737 00cf 00       		.byte	0
 3738 00d0 00       		.byte	0
 3739 00d1 12       		.uleb128 0x12
 3740 00d2 26       		.uleb128 0x26
 3741 00d3 00       		.byte	0
 3742 00d4 49       		.uleb128 0x49
 3743 00d5 13       		.uleb128 0x13
 3744 00d6 00       		.byte	0
 3745 00d7 00       		.byte	0
 3746 00d8 13       		.uleb128 0x13
 3747 00d9 15       		.uleb128 0x15
 3748 00da 00       		.byte	0
 3749 00db 27       		.uleb128 0x27
 3750 00dc 0C       		.uleb128 0xc
 3751 00dd 00       		.byte	0
 3752 00de 00       		.byte	0
 3753 00df 14       		.uleb128 0x14
 3754 00e0 2E       		.uleb128 0x2e
 3755 00e1 01       		.byte	0x1
 3756 00e2 03       		.uleb128 0x3
 3757 00e3 0E       		.uleb128 0xe
 3758 00e4 3A       		.uleb128 0x3a
 3759 00e5 0B       		.uleb128 0xb
 3760 00e6 3B       		.uleb128 0x3b
 3761 00e7 0B       		.uleb128 0xb
 3762 00e8 27       		.uleb128 0x27
 3763 00e9 0C       		.uleb128 0xc
 3764 00ea 49       		.uleb128 0x49
 3765 00eb 13       		.uleb128 0x13
 3766 00ec 11       		.uleb128 0x11
 3767 00ed 01       		.uleb128 0x1
 3768 00ee 12       		.uleb128 0x12
 3769 00ef 01       		.uleb128 0x1
 3770 00f0 40       		.uleb128 0x40
 3771 00f1 0A       		.uleb128 0xa
 3772 00f2 01       		.uleb128 0x1
 3773 00f3 13       		.uleb128 0x13
 3774 00f4 00       		.byte	0
 3775 00f5 00       		.byte	0
 3776 00f6 15       		.uleb128 0x15
 3777 00f7 05       		.uleb128 0x5
 3778 00f8 00       		.byte	0
 3779 00f9 03       		.uleb128 0x3
 3780 00fa 08       		.uleb128 0x8
 3781 00fb 3A       		.uleb128 0x3a
 3782 00fc 0B       		.uleb128 0xb
 3783 00fd 3B       		.uleb128 0x3b
 3784 00fe 0B       		.uleb128 0xb
 3785 00ff 49       		.uleb128 0x49
 3786 0100 13       		.uleb128 0x13
ARM GAS  /tmp/ccayCWiC.s 			page 70


 3787 0101 02       		.uleb128 0x2
 3788 0102 0A       		.uleb128 0xa
 3789 0103 00       		.byte	0
 3790 0104 00       		.byte	0
 3791 0105 16       		.uleb128 0x16
 3792 0106 2E       		.uleb128 0x2e
 3793 0107 01       		.byte	0x1
 3794 0108 03       		.uleb128 0x3
 3795 0109 08       		.uleb128 0x8
 3796 010a 3A       		.uleb128 0x3a
 3797 010b 0B       		.uleb128 0xb
 3798 010c 3B       		.uleb128 0x3b
 3799 010d 05       		.uleb128 0x5
 3800 010e 27       		.uleb128 0x27
 3801 010f 0C       		.uleb128 0xc
 3802 0110 11       		.uleb128 0x11
 3803 0111 01       		.uleb128 0x1
 3804 0112 12       		.uleb128 0x12
 3805 0113 01       		.uleb128 0x1
 3806 0114 40       		.uleb128 0x40
 3807 0115 0A       		.uleb128 0xa
 3808 0116 01       		.uleb128 0x1
 3809 0117 13       		.uleb128 0x13
 3810 0118 00       		.byte	0
 3811 0119 00       		.byte	0
 3812 011a 17       		.uleb128 0x17
 3813 011b 05       		.uleb128 0x5
 3814 011c 00       		.byte	0
 3815 011d 03       		.uleb128 0x3
 3816 011e 0E       		.uleb128 0xe
 3817 011f 3A       		.uleb128 0x3a
 3818 0120 0B       		.uleb128 0xb
 3819 0121 3B       		.uleb128 0x3b
 3820 0122 05       		.uleb128 0x5
 3821 0123 49       		.uleb128 0x49
 3822 0124 13       		.uleb128 0x13
 3823 0125 02       		.uleb128 0x2
 3824 0126 0A       		.uleb128 0xa
 3825 0127 00       		.byte	0
 3826 0128 00       		.byte	0
 3827 0129 18       		.uleb128 0x18
 3828 012a 2E       		.uleb128 0x2e
 3829 012b 00       		.byte	0
 3830 012c 03       		.uleb128 0x3
 3831 012d 0E       		.uleb128 0xe
 3832 012e 3A       		.uleb128 0x3a
 3833 012f 0B       		.uleb128 0xb
 3834 0130 3B       		.uleb128 0x3b
 3835 0131 05       		.uleb128 0x5
 3836 0132 27       		.uleb128 0x27
 3837 0133 0C       		.uleb128 0xc
 3838 0134 11       		.uleb128 0x11
 3839 0135 01       		.uleb128 0x1
 3840 0136 12       		.uleb128 0x12
 3841 0137 01       		.uleb128 0x1
 3842 0138 40       		.uleb128 0x40
 3843 0139 06       		.uleb128 0x6
ARM GAS  /tmp/ccayCWiC.s 			page 71


 3844 013a 00       		.byte	0
 3845 013b 00       		.byte	0
 3846 013c 19       		.uleb128 0x19
 3847 013d 2E       		.uleb128 0x2e
 3848 013e 01       		.byte	0x1
 3849 013f 03       		.uleb128 0x3
 3850 0140 0E       		.uleb128 0xe
 3851 0141 3A       		.uleb128 0x3a
 3852 0142 0B       		.uleb128 0xb
 3853 0143 3B       		.uleb128 0x3b
 3854 0144 05       		.uleb128 0x5
 3855 0145 27       		.uleb128 0x27
 3856 0146 0C       		.uleb128 0xc
 3857 0147 11       		.uleb128 0x11
 3858 0148 01       		.uleb128 0x1
 3859 0149 12       		.uleb128 0x12
 3860 014a 01       		.uleb128 0x1
 3861 014b 40       		.uleb128 0x40
 3862 014c 06       		.uleb128 0x6
 3863 014d 01       		.uleb128 0x1
 3864 014e 13       		.uleb128 0x13
 3865 014f 00       		.byte	0
 3866 0150 00       		.byte	0
 3867 0151 1A       		.uleb128 0x1a
 3868 0152 34       		.uleb128 0x34
 3869 0153 00       		.byte	0
 3870 0154 03       		.uleb128 0x3
 3871 0155 08       		.uleb128 0x8
 3872 0156 3A       		.uleb128 0x3a
 3873 0157 0B       		.uleb128 0xb
 3874 0158 3B       		.uleb128 0x3b
 3875 0159 05       		.uleb128 0x5
 3876 015a 49       		.uleb128 0x49
 3877 015b 13       		.uleb128 0x13
 3878 015c 02       		.uleb128 0x2
 3879 015d 06       		.uleb128 0x6
 3880 015e 00       		.byte	0
 3881 015f 00       		.byte	0
 3882 0160 1B       		.uleb128 0x1b
 3883 0161 2E       		.uleb128 0x2e
 3884 0162 00       		.byte	0
 3885 0163 03       		.uleb128 0x3
 3886 0164 0E       		.uleb128 0xe
 3887 0165 3A       		.uleb128 0x3a
 3888 0166 0B       		.uleb128 0xb
 3889 0167 3B       		.uleb128 0x3b
 3890 0168 05       		.uleb128 0x5
 3891 0169 27       		.uleb128 0x27
 3892 016a 0C       		.uleb128 0xc
 3893 016b 11       		.uleb128 0x11
 3894 016c 01       		.uleb128 0x1
 3895 016d 12       		.uleb128 0x12
 3896 016e 01       		.uleb128 0x1
 3897 016f 40       		.uleb128 0x40
 3898 0170 0A       		.uleb128 0xa
 3899 0171 00       		.byte	0
 3900 0172 00       		.byte	0
ARM GAS  /tmp/ccayCWiC.s 			page 72


 3901 0173 1C       		.uleb128 0x1c
 3902 0174 2E       		.uleb128 0x2e
 3903 0175 01       		.byte	0x1
 3904 0176 03       		.uleb128 0x3
 3905 0177 0E       		.uleb128 0xe
 3906 0178 3A       		.uleb128 0x3a
 3907 0179 0B       		.uleb128 0xb
 3908 017a 3B       		.uleb128 0x3b
 3909 017b 05       		.uleb128 0x5
 3910 017c 27       		.uleb128 0x27
 3911 017d 0C       		.uleb128 0xc
 3912 017e 49       		.uleb128 0x49
 3913 017f 13       		.uleb128 0x13
 3914 0180 11       		.uleb128 0x11
 3915 0181 01       		.uleb128 0x1
 3916 0182 12       		.uleb128 0x12
 3917 0183 01       		.uleb128 0x1
 3918 0184 40       		.uleb128 0x40
 3919 0185 06       		.uleb128 0x6
 3920 0186 01       		.uleb128 0x1
 3921 0187 13       		.uleb128 0x13
 3922 0188 00       		.byte	0
 3923 0189 00       		.byte	0
 3924 018a 1D       		.uleb128 0x1d
 3925 018b 05       		.uleb128 0x5
 3926 018c 00       		.byte	0
 3927 018d 03       		.uleb128 0x3
 3928 018e 08       		.uleb128 0x8
 3929 018f 3A       		.uleb128 0x3a
 3930 0190 0B       		.uleb128 0xb
 3931 0191 3B       		.uleb128 0x3b
 3932 0192 05       		.uleb128 0x5
 3933 0193 49       		.uleb128 0x49
 3934 0194 13       		.uleb128 0x13
 3935 0195 02       		.uleb128 0x2
 3936 0196 06       		.uleb128 0x6
 3937 0197 00       		.byte	0
 3938 0198 00       		.byte	0
 3939 0199 1E       		.uleb128 0x1e
 3940 019a 34       		.uleb128 0x34
 3941 019b 00       		.byte	0
 3942 019c 03       		.uleb128 0x3
 3943 019d 08       		.uleb128 0x8
 3944 019e 3A       		.uleb128 0x3a
 3945 019f 0B       		.uleb128 0xb
 3946 01a0 3B       		.uleb128 0x3b
 3947 01a1 05       		.uleb128 0x5
 3948 01a2 49       		.uleb128 0x49
 3949 01a3 13       		.uleb128 0x13
 3950 01a4 02       		.uleb128 0x2
 3951 01a5 0A       		.uleb128 0xa
 3952 01a6 00       		.byte	0
 3953 01a7 00       		.byte	0
 3954 01a8 1F       		.uleb128 0x1f
 3955 01a9 01       		.uleb128 0x1
 3956 01aa 01       		.byte	0x1
 3957 01ab 49       		.uleb128 0x49
ARM GAS  /tmp/ccayCWiC.s 			page 73


 3958 01ac 13       		.uleb128 0x13
 3959 01ad 01       		.uleb128 0x1
 3960 01ae 13       		.uleb128 0x13
 3961 01af 00       		.byte	0
 3962 01b0 00       		.byte	0
 3963 01b1 20       		.uleb128 0x20
 3964 01b2 21       		.uleb128 0x21
 3965 01b3 00       		.byte	0
 3966 01b4 49       		.uleb128 0x49
 3967 01b5 13       		.uleb128 0x13
 3968 01b6 2F       		.uleb128 0x2f
 3969 01b7 0B       		.uleb128 0xb
 3970 01b8 00       		.byte	0
 3971 01b9 00       		.byte	0
 3972 01ba 21       		.uleb128 0x21
 3973 01bb 34       		.uleb128 0x34
 3974 01bc 00       		.byte	0
 3975 01bd 03       		.uleb128 0x3
 3976 01be 0E       		.uleb128 0xe
 3977 01bf 3A       		.uleb128 0x3a
 3978 01c0 0B       		.uleb128 0xb
 3979 01c1 3B       		.uleb128 0x3b
 3980 01c2 05       		.uleb128 0x5
 3981 01c3 49       		.uleb128 0x49
 3982 01c4 13       		.uleb128 0x13
 3983 01c5 02       		.uleb128 0x2
 3984 01c6 0A       		.uleb128 0xa
 3985 01c7 00       		.byte	0
 3986 01c8 00       		.byte	0
 3987 01c9 22       		.uleb128 0x22
 3988 01ca 2E       		.uleb128 0x2e
 3989 01cb 01       		.byte	0x1
 3990 01cc 03       		.uleb128 0x3
 3991 01cd 0E       		.uleb128 0xe
 3992 01ce 3A       		.uleb128 0x3a
 3993 01cf 0B       		.uleb128 0xb
 3994 01d0 3B       		.uleb128 0x3b
 3995 01d1 0B       		.uleb128 0xb
 3996 01d2 27       		.uleb128 0x27
 3997 01d3 0C       		.uleb128 0xc
 3998 01d4 11       		.uleb128 0x11
 3999 01d5 01       		.uleb128 0x1
 4000 01d6 12       		.uleb128 0x12
 4001 01d7 01       		.uleb128 0x1
 4002 01d8 40       		.uleb128 0x40
 4003 01d9 06       		.uleb128 0x6
 4004 01da 01       		.uleb128 0x1
 4005 01db 13       		.uleb128 0x13
 4006 01dc 00       		.byte	0
 4007 01dd 00       		.byte	0
 4008 01de 23       		.uleb128 0x23
 4009 01df 34       		.uleb128 0x34
 4010 01e0 00       		.byte	0
 4011 01e1 03       		.uleb128 0x3
 4012 01e2 08       		.uleb128 0x8
 4013 01e3 3A       		.uleb128 0x3a
 4014 01e4 0B       		.uleb128 0xb
ARM GAS  /tmp/ccayCWiC.s 			page 74


 4015 01e5 3B       		.uleb128 0x3b
 4016 01e6 0B       		.uleb128 0xb
 4017 01e7 49       		.uleb128 0x49
 4018 01e8 13       		.uleb128 0x13
 4019 01e9 02       		.uleb128 0x2
 4020 01ea 06       		.uleb128 0x6
 4021 01eb 00       		.byte	0
 4022 01ec 00       		.byte	0
 4023 01ed 24       		.uleb128 0x24
 4024 01ee 2E       		.uleb128 0x2e
 4025 01ef 01       		.byte	0x1
 4026 01f0 03       		.uleb128 0x3
 4027 01f1 0E       		.uleb128 0xe
 4028 01f2 3A       		.uleb128 0x3a
 4029 01f3 0B       		.uleb128 0xb
 4030 01f4 3B       		.uleb128 0x3b
 4031 01f5 0B       		.uleb128 0xb
 4032 01f6 27       		.uleb128 0x27
 4033 01f7 0C       		.uleb128 0xc
 4034 01f8 49       		.uleb128 0x49
 4035 01f9 13       		.uleb128 0x13
 4036 01fa 11       		.uleb128 0x11
 4037 01fb 01       		.uleb128 0x1
 4038 01fc 12       		.uleb128 0x12
 4039 01fd 01       		.uleb128 0x1
 4040 01fe 40       		.uleb128 0x40
 4041 01ff 06       		.uleb128 0x6
 4042 0200 01       		.uleb128 0x1
 4043 0201 13       		.uleb128 0x13
 4044 0202 00       		.byte	0
 4045 0203 00       		.byte	0
 4046 0204 25       		.uleb128 0x25
 4047 0205 05       		.uleb128 0x5
 4048 0206 00       		.byte	0
 4049 0207 03       		.uleb128 0x3
 4050 0208 08       		.uleb128 0x8
 4051 0209 3A       		.uleb128 0x3a
 4052 020a 0B       		.uleb128 0xb
 4053 020b 3B       		.uleb128 0x3b
 4054 020c 0B       		.uleb128 0xb
 4055 020d 49       		.uleb128 0x49
 4056 020e 13       		.uleb128 0x13
 4057 020f 02       		.uleb128 0x2
 4058 0210 06       		.uleb128 0x6
 4059 0211 00       		.byte	0
 4060 0212 00       		.byte	0
 4061 0213 26       		.uleb128 0x26
 4062 0214 2E       		.uleb128 0x2e
 4063 0215 01       		.byte	0x1
 4064 0216 3F       		.uleb128 0x3f
 4065 0217 0C       		.uleb128 0xc
 4066 0218 03       		.uleb128 0x3
 4067 0219 0E       		.uleb128 0xe
 4068 021a 3A       		.uleb128 0x3a
 4069 021b 0B       		.uleb128 0xb
 4070 021c 3B       		.uleb128 0x3b
 4071 021d 0B       		.uleb128 0xb
ARM GAS  /tmp/ccayCWiC.s 			page 75


 4072 021e 27       		.uleb128 0x27
 4073 021f 0C       		.uleb128 0xc
 4074 0220 49       		.uleb128 0x49
 4075 0221 13       		.uleb128 0x13
 4076 0222 11       		.uleb128 0x11
 4077 0223 01       		.uleb128 0x1
 4078 0224 12       		.uleb128 0x12
 4079 0225 01       		.uleb128 0x1
 4080 0226 40       		.uleb128 0x40
 4081 0227 06       		.uleb128 0x6
 4082 0228 01       		.uleb128 0x1
 4083 0229 13       		.uleb128 0x13
 4084 022a 00       		.byte	0
 4085 022b 00       		.byte	0
 4086 022c 27       		.uleb128 0x27
 4087 022d 34       		.uleb128 0x34
 4088 022e 00       		.byte	0
 4089 022f 03       		.uleb128 0x3
 4090 0230 0E       		.uleb128 0xe
 4091 0231 3A       		.uleb128 0x3a
 4092 0232 0B       		.uleb128 0xb
 4093 0233 3B       		.uleb128 0x3b
 4094 0234 0B       		.uleb128 0xb
 4095 0235 49       		.uleb128 0x49
 4096 0236 13       		.uleb128 0x13
 4097 0237 02       		.uleb128 0x2
 4098 0238 06       		.uleb128 0x6
 4099 0239 00       		.byte	0
 4100 023a 00       		.byte	0
 4101 023b 28       		.uleb128 0x28
 4102 023c 34       		.uleb128 0x34
 4103 023d 00       		.byte	0
 4104 023e 03       		.uleb128 0x3
 4105 023f 0E       		.uleb128 0xe
 4106 0240 3A       		.uleb128 0x3a
 4107 0241 0B       		.uleb128 0xb
 4108 0242 3B       		.uleb128 0x3b
 4109 0243 0B       		.uleb128 0xb
 4110 0244 49       		.uleb128 0x49
 4111 0245 13       		.uleb128 0x13
 4112 0246 02       		.uleb128 0x2
 4113 0247 0A       		.uleb128 0xa
 4114 0248 00       		.byte	0
 4115 0249 00       		.byte	0
 4116 024a 29       		.uleb128 0x29
 4117 024b 34       		.uleb128 0x34
 4118 024c 00       		.byte	0
 4119 024d 03       		.uleb128 0x3
 4120 024e 0E       		.uleb128 0xe
 4121 024f 3A       		.uleb128 0x3a
 4122 0250 0B       		.uleb128 0xb
 4123 0251 3B       		.uleb128 0x3b
 4124 0252 0B       		.uleb128 0xb
 4125 0253 49       		.uleb128 0x49
 4126 0254 13       		.uleb128 0x13
 4127 0255 3F       		.uleb128 0x3f
 4128 0256 0C       		.uleb128 0xc
ARM GAS  /tmp/ccayCWiC.s 			page 76


 4129 0257 3C       		.uleb128 0x3c
 4130 0258 0C       		.uleb128 0xc
 4131 0259 00       		.byte	0
 4132 025a 00       		.byte	0
 4133 025b 2A       		.uleb128 0x2a
 4134 025c 21       		.uleb128 0x21
 4135 025d 00       		.byte	0
 4136 025e 00       		.byte	0
 4137 025f 00       		.byte	0
 4138 0260 2B       		.uleb128 0x2b
 4139 0261 34       		.uleb128 0x34
 4140 0262 00       		.byte	0
 4141 0263 03       		.uleb128 0x3
 4142 0264 08       		.uleb128 0x8
 4143 0265 3A       		.uleb128 0x3a
 4144 0266 0B       		.uleb128 0xb
 4145 0267 3B       		.uleb128 0x3b
 4146 0268 0B       		.uleb128 0xb
 4147 0269 49       		.uleb128 0x49
 4148 026a 13       		.uleb128 0x13
 4149 026b 3F       		.uleb128 0x3f
 4150 026c 0C       		.uleb128 0xc
 4151 026d 3C       		.uleb128 0x3c
 4152 026e 0C       		.uleb128 0xc
 4153 026f 00       		.byte	0
 4154 0270 00       		.byte	0
 4155 0271 2C       		.uleb128 0x2c
 4156 0272 34       		.uleb128 0x34
 4157 0273 00       		.byte	0
 4158 0274 03       		.uleb128 0x3
 4159 0275 0E       		.uleb128 0xe
 4160 0276 3A       		.uleb128 0x3a
 4161 0277 0B       		.uleb128 0xb
 4162 0278 3B       		.uleb128 0x3b
 4163 0279 0B       		.uleb128 0xb
 4164 027a 49       		.uleb128 0x49
 4165 027b 13       		.uleb128 0x13
 4166 027c 3F       		.uleb128 0x3f
 4167 027d 0C       		.uleb128 0xc
 4168 027e 02       		.uleb128 0x2
 4169 027f 0A       		.uleb128 0xa
 4170 0280 00       		.byte	0
 4171 0281 00       		.byte	0
 4172 0282 2D       		.uleb128 0x2d
 4173 0283 34       		.uleb128 0x34
 4174 0284 00       		.byte	0
 4175 0285 03       		.uleb128 0x3
 4176 0286 0E       		.uleb128 0xe
 4177 0287 3A       		.uleb128 0x3a
 4178 0288 0B       		.uleb128 0xb
 4179 0289 3B       		.uleb128 0x3b
 4180 028a 05       		.uleb128 0x5
 4181 028b 49       		.uleb128 0x49
 4182 028c 13       		.uleb128 0x13
 4183 028d 3F       		.uleb128 0x3f
 4184 028e 0C       		.uleb128 0xc
 4185 028f 02       		.uleb128 0x2
ARM GAS  /tmp/ccayCWiC.s 			page 77


 4186 0290 0A       		.uleb128 0xa
 4187 0291 00       		.byte	0
 4188 0292 00       		.byte	0
 4189 0293 00       		.byte	0
 4190              		.section	.debug_loc,"",%progbits
 4191              	.Ldebug_loc0:
 4192              	.LLST0:
 4193 0000 00000000 		.4byte	.LFB22
 4194 0004 06000000 		.4byte	.LCFI0
 4195 0008 0200     		.2byte	0x2
 4196 000a 7D       		.byte	0x7d
 4197 000b 00       		.sleb128 0
 4198 000c 06000000 		.4byte	.LCFI0
 4199 0010 E8000000 		.4byte	.LFE22
 4200 0014 0200     		.2byte	0x2
 4201 0016 7D       		.byte	0x7d
 4202 0017 08       		.sleb128 8
 4203 0018 00000000 		.4byte	0
 4204 001c 00000000 		.4byte	0
 4205              	.LLST1:
 4206 0020 00000000 		.4byte	.LFB21
 4207 0024 02000000 		.4byte	.LCFI1
 4208 0028 0200     		.2byte	0x2
 4209 002a 7D       		.byte	0x7d
 4210 002b 00       		.sleb128 0
 4211 002c 02000000 		.4byte	.LCFI1
 4212 0030 82000000 		.4byte	.LFE21
 4213 0034 0200     		.2byte	0x2
 4214 0036 7D       		.byte	0x7d
 4215 0037 10       		.sleb128 16
 4216 0038 00000000 		.4byte	0
 4217 003c 00000000 		.4byte	0
 4218              	.LLST2:
 4219 0040 00000000 		.4byte	.LVL2
 4220 0044 18000000 		.4byte	.LVL3
 4221 0048 0200     		.2byte	0x2
 4222 004a 30       		.byte	0x30
 4223 004b 9F       		.byte	0x9f
 4224 004c 18000000 		.4byte	.LVL3
 4225 0050 82000000 		.4byte	.LFE21
 4226 0054 0100     		.2byte	0x1
 4227 0056 54       		.byte	0x54
 4228 0057 00000000 		.4byte	0
 4229 005b 00000000 		.4byte	0
 4230              	.LLST3:
 4231 005f 00000000 		.4byte	.LFB10
 4232 0063 02000000 		.4byte	.LCFI2
 4233 0067 0200     		.2byte	0x2
 4234 0069 7D       		.byte	0x7d
 4235 006a 00       		.sleb128 0
 4236 006b 02000000 		.4byte	.LCFI2
 4237 006f 2E000000 		.4byte	.LFE10
 4238 0073 0200     		.2byte	0x2
 4239 0075 7D       		.byte	0x7d
 4240 0076 08       		.sleb128 8
 4241 0077 00000000 		.4byte	0
 4242 007b 00000000 		.4byte	0
ARM GAS  /tmp/ccayCWiC.s 			page 78


 4243              	.LLST4:
 4244 007f 00000000 		.4byte	.LVL5
 4245 0083 0C000000 		.4byte	.LVL6
 4246 0087 0100     		.2byte	0x1
 4247 0089 50       		.byte	0x50
 4248 008a 00000000 		.4byte	0
 4249 008e 00000000 		.4byte	0
 4250              	.LLST5:
 4251 0092 00000000 		.4byte	.LFB19
 4252 0096 02000000 		.4byte	.LCFI3
 4253 009a 0200     		.2byte	0x2
 4254 009c 7D       		.byte	0x7d
 4255 009d 00       		.sleb128 0
 4256 009e 02000000 		.4byte	.LCFI3
 4257 00a2 A2000000 		.4byte	.LFE19
 4258 00a6 0200     		.2byte	0x2
 4259 00a8 7D       		.byte	0x7d
 4260 00a9 10       		.sleb128 16
 4261 00aa 00000000 		.4byte	0
 4262 00ae 00000000 		.4byte	0
 4263              	.LLST6:
 4264 00b2 00000000 		.4byte	.LVL7
 4265 00b6 18000000 		.4byte	.LVL8
 4266 00ba 0200     		.2byte	0x2
 4267 00bc 30       		.byte	0x30
 4268 00bd 9F       		.byte	0x9f
 4269 00be 18000000 		.4byte	.LVL8
 4270 00c2 A2000000 		.4byte	.LFE19
 4271 00c6 0100     		.2byte	0x1
 4272 00c8 54       		.byte	0x54
 4273 00c9 00000000 		.4byte	0
 4274 00cd 00000000 		.4byte	0
 4275              	.LLST7:
 4276 00d1 00000000 		.4byte	.LFB17
 4277 00d5 02000000 		.4byte	.LCFI4
 4278 00d9 0200     		.2byte	0x2
 4279 00db 7D       		.byte	0x7d
 4280 00dc 00       		.sleb128 0
 4281 00dd 02000000 		.4byte	.LCFI4
 4282 00e1 9C000000 		.4byte	.LFE17
 4283 00e5 0200     		.2byte	0x2
 4284 00e7 7D       		.byte	0x7d
 4285 00e8 10       		.sleb128 16
 4286 00e9 00000000 		.4byte	0
 4287 00ed 00000000 		.4byte	0
 4288              	.LLST8:
 4289 00f1 00000000 		.4byte	.LVL10
 4290 00f5 18000000 		.4byte	.LVL11
 4291 00f9 0200     		.2byte	0x2
 4292 00fb 30       		.byte	0x30
 4293 00fc 9F       		.byte	0x9f
 4294 00fd 18000000 		.4byte	.LVL11
 4295 0101 9C000000 		.4byte	.LFE17
 4296 0105 0100     		.2byte	0x1
 4297 0107 54       		.byte	0x54
 4298 0108 00000000 		.4byte	0
 4299 010c 00000000 		.4byte	0
ARM GAS  /tmp/ccayCWiC.s 			page 79


 4300              	.LLST9:
 4301 0110 00000000 		.4byte	.LFB15
 4302 0114 02000000 		.4byte	.LCFI5
 4303 0118 0200     		.2byte	0x2
 4304 011a 7D       		.byte	0x7d
 4305 011b 00       		.sleb128 0
 4306 011c 02000000 		.4byte	.LCFI5
 4307 0120 08000000 		.4byte	.LCFI6
 4308 0124 0200     		.2byte	0x2
 4309 0126 7D       		.byte	0x7d
 4310 0127 0C       		.sleb128 12
 4311 0128 08000000 		.4byte	.LCFI6
 4312 012c E8000000 		.4byte	.LFE15
 4313 0130 0200     		.2byte	0x2
 4314 0132 7D       		.byte	0x7d
 4315 0133 18       		.sleb128 24
 4316 0134 00000000 		.4byte	0
 4317 0138 00000000 		.4byte	0
 4318              	.LLST10:
 4319 013c 20000000 		.4byte	.LVL13
 4320 0140 34000000 		.4byte	.LVL14
 4321 0144 0200     		.2byte	0x2
 4322 0146 30       		.byte	0x30
 4323 0147 9F       		.byte	0x9f
 4324 0148 34000000 		.4byte	.LVL14
 4325 014c E8000000 		.4byte	.LFE15
 4326 0150 0100     		.2byte	0x1
 4327 0152 54       		.byte	0x54
 4328 0153 00000000 		.4byte	0
 4329 0157 00000000 		.4byte	0
 4330              	.LLST11:
 4331 015b 00000000 		.4byte	.LFB9
 4332 015f 04000000 		.4byte	.LCFI7
 4333 0163 0200     		.2byte	0x2
 4334 0165 7D       		.byte	0x7d
 4335 0166 00       		.sleb128 0
 4336 0167 04000000 		.4byte	.LCFI7
 4337 016b 18000000 		.4byte	.LCFI8
 4338 016f 0200     		.2byte	0x2
 4339 0171 7D       		.byte	0x7d
 4340 0172 18       		.sleb128 24
 4341 0173 18000000 		.4byte	.LCFI8
 4342 0177 7A000000 		.4byte	.LFE9
 4343 017b 0200     		.2byte	0x2
 4344 017d 7D       		.byte	0x7d
 4345 017e 20       		.sleb128 32
 4346 017f 00000000 		.4byte	0
 4347 0183 00000000 		.4byte	0
 4348              	.LLST12:
 4349 0187 00000000 		.4byte	.LVL16
 4350 018b 38000000 		.4byte	.LVL20
 4351 018f 0200     		.2byte	0x2
 4352 0191 30       		.byte	0x30
 4353 0192 9F       		.byte	0x9f
 4354 0193 38000000 		.4byte	.LVL20
 4355 0197 7A000000 		.4byte	.LFE9
 4356 019b 0100     		.2byte	0x1
ARM GAS  /tmp/ccayCWiC.s 			page 80


 4357 019d 54       		.byte	0x54
 4358 019e 00000000 		.4byte	0
 4359 01a2 00000000 		.4byte	0
 4360              	.LLST13:
 4361 01a6 1E000000 		.4byte	.LVL17
 4362 01aa 21000000 		.4byte	.LVL18-1
 4363 01ae 0200     		.2byte	0x2
 4364 01b0 73       		.byte	0x73
 4365 01b1 00       		.sleb128 0
 4366 01b2 00000000 		.4byte	0
 4367 01b6 00000000 		.4byte	0
 4368              	.LLST14:
 4369 01ba 00000000 		.4byte	.LFB14
 4370 01be 04000000 		.4byte	.LCFI9
 4371 01c2 0200     		.2byte	0x2
 4372 01c4 7D       		.byte	0x7d
 4373 01c5 00       		.sleb128 0
 4374 01c6 04000000 		.4byte	.LCFI9
 4375 01ca 0A000000 		.4byte	.LCFI10
 4376 01ce 0200     		.2byte	0x2
 4377 01d0 7D       		.byte	0x7d
 4378 01d1 18       		.sleb128 24
 4379 01d2 0A000000 		.4byte	.LCFI10
 4380 01d6 EC000000 		.4byte	.LFE14
 4381 01da 0200     		.2byte	0x2
 4382 01dc 7D       		.byte	0x7d
 4383 01dd 28       		.sleb128 40
 4384 01de 00000000 		.4byte	0
 4385 01e2 00000000 		.4byte	0
 4386              	.LLST15:
 4387 01e6 00000000 		.4byte	.LFB13
 4388 01ea 02000000 		.4byte	.LCFI11
 4389 01ee 0200     		.2byte	0x2
 4390 01f0 7D       		.byte	0x7d
 4391 01f1 00       		.sleb128 0
 4392 01f2 02000000 		.4byte	.LCFI11
 4393 01f6 30000000 		.4byte	.LFE13
 4394 01fa 0200     		.2byte	0x2
 4395 01fc 7D       		.byte	0x7d
 4396 01fd 10       		.sleb128 16
 4397 01fe 00000000 		.4byte	0
 4398 0202 00000000 		.4byte	0
 4399              	.LLST16:
 4400 0206 00000000 		.4byte	.LVL23
 4401 020a 0C000000 		.4byte	.LVL24
 4402 020e 0100     		.2byte	0x1
 4403 0210 50       		.byte	0x50
 4404 0211 0C000000 		.4byte	.LVL24
 4405 0215 30000000 		.4byte	.LFE13
 4406 0219 0100     		.2byte	0x1
 4407 021b 55       		.byte	0x55
 4408 021c 00000000 		.4byte	0
 4409 0220 00000000 		.4byte	0
 4410              	.LLST17:
 4411 0224 00000000 		.4byte	.LFB12
 4412 0228 02000000 		.4byte	.LCFI12
 4413 022c 0200     		.2byte	0x2
ARM GAS  /tmp/ccayCWiC.s 			page 81


 4414 022e 7D       		.byte	0x7d
 4415 022f 00       		.sleb128 0
 4416 0230 02000000 		.4byte	.LCFI12
 4417 0234 1A000000 		.4byte	.LCFI13
 4418 0238 0200     		.2byte	0x2
 4419 023a 7D       		.byte	0x7d
 4420 023b 14       		.sleb128 20
 4421 023c 1A000000 		.4byte	.LCFI13
 4422 0240 32010000 		.4byte	.LFE12
 4423 0244 0200     		.2byte	0x2
 4424 0246 7D       		.byte	0x7d
 4425 0247 20       		.sleb128 32
 4426 0248 00000000 		.4byte	0
 4427 024c 00000000 		.4byte	0
 4428              	.LLST18:
 4429 0250 B8000000 		.4byte	.LVL25
 4430 0254 CC000000 		.4byte	.LVL26
 4431 0258 0200     		.2byte	0x2
 4432 025a 30       		.byte	0x30
 4433 025b 9F       		.byte	0x9f
 4434 025c CC000000 		.4byte	.LVL26
 4435 0260 16010000 		.4byte	.LVL28
 4436 0264 0100     		.2byte	0x1
 4437 0266 57       		.byte	0x57
 4438 0267 00000000 		.4byte	0
 4439 026b 00000000 		.4byte	0
 4440              	.LLST19:
 4441 026f 00000000 		.4byte	.LFB8
 4442 0273 04000000 		.4byte	.LCFI14
 4443 0277 0200     		.2byte	0x2
 4444 0279 7D       		.byte	0x7d
 4445 027a 00       		.sleb128 0
 4446 027b 04000000 		.4byte	.LCFI14
 4447 027f 18000000 		.4byte	.LCFI15
 4448 0283 0200     		.2byte	0x2
 4449 0285 7D       		.byte	0x7d
 4450 0286 18       		.sleb128 24
 4451 0287 18000000 		.4byte	.LCFI15
 4452 028b 7E000000 		.4byte	.LFE8
 4453 028f 0200     		.2byte	0x2
 4454 0291 7D       		.byte	0x7d
 4455 0292 20       		.sleb128 32
 4456 0293 00000000 		.4byte	0
 4457 0297 00000000 		.4byte	0
 4458              	.LLST20:
 4459 029b 00000000 		.4byte	.LVL29
 4460 029f 38000000 		.4byte	.LVL33
 4461 02a3 0200     		.2byte	0x2
 4462 02a5 30       		.byte	0x30
 4463 02a6 9F       		.byte	0x9f
 4464 02a7 38000000 		.4byte	.LVL33
 4465 02ab 7E000000 		.4byte	.LFE8
 4466 02af 0100     		.2byte	0x1
 4467 02b1 54       		.byte	0x54
 4468 02b2 00000000 		.4byte	0
 4469 02b6 00000000 		.4byte	0
 4470              	.LLST21:
ARM GAS  /tmp/ccayCWiC.s 			page 82


 4471 02ba 1E000000 		.4byte	.LVL30
 4472 02be 21000000 		.4byte	.LVL31-1
 4473 02c2 0200     		.2byte	0x2
 4474 02c4 73       		.byte	0x73
 4475 02c5 00       		.sleb128 0
 4476 02c6 00000000 		.4byte	0
 4477 02ca 00000000 		.4byte	0
 4478              	.LLST22:
 4479 02ce 00000000 		.4byte	.LFB7
 4480 02d2 02000000 		.4byte	.LCFI16
 4481 02d6 0200     		.2byte	0x2
 4482 02d8 7D       		.byte	0x7d
 4483 02d9 00       		.sleb128 0
 4484 02da 02000000 		.4byte	.LCFI16
 4485 02de 1A000000 		.4byte	.LCFI17
 4486 02e2 0200     		.2byte	0x2
 4487 02e4 7D       		.byte	0x7d
 4488 02e5 10       		.sleb128 16
 4489 02e6 1A000000 		.4byte	.LCFI17
 4490 02ea CA000000 		.4byte	.LFE7
 4491 02ee 0200     		.2byte	0x2
 4492 02f0 7D       		.byte	0x7d
 4493 02f1 18       		.sleb128 24
 4494 02f2 00000000 		.4byte	0
 4495 02f6 00000000 		.4byte	0
 4496              	.LLST23:
 4497 02fa 3C000000 		.4byte	.LVL35
 4498 02fe 3F000000 		.4byte	.LVL36-1
 4499 0302 0100     		.2byte	0x1
 4500 0304 50       		.byte	0x50
 4501 0305 3F000000 		.4byte	.LVL36-1
 4502 0309 CA000000 		.4byte	.LFE7
 4503 030d 0100     		.2byte	0x1
 4504 030f 55       		.byte	0x55
 4505 0310 00000000 		.4byte	0
 4506 0314 00000000 		.4byte	0
 4507              	.LLST24:
 4508 0318 3C000000 		.4byte	.LVL35
 4509 031c 50000000 		.4byte	.LVL37
 4510 0320 0200     		.2byte	0x2
 4511 0322 30       		.byte	0x30
 4512 0323 9F       		.byte	0x9f
 4513 0324 50000000 		.4byte	.LVL37
 4514 0328 CA000000 		.4byte	.LFE7
 4515 032c 0100     		.2byte	0x1
 4516 032e 54       		.byte	0x54
 4517 032f 00000000 		.4byte	0
 4518 0333 00000000 		.4byte	0
 4519              	.LLST25:
 4520 0337 00000000 		.4byte	.LFB1
 4521 033b 02000000 		.4byte	.LCFI18
 4522 033f 0200     		.2byte	0x2
 4523 0341 7D       		.byte	0x7d
 4524 0342 00       		.sleb128 0
 4525 0343 02000000 		.4byte	.LCFI18
 4526 0347 36000000 		.4byte	.LFE1
 4527 034b 0200     		.2byte	0x2
ARM GAS  /tmp/ccayCWiC.s 			page 83


 4528 034d 7D       		.byte	0x7d
 4529 034e 10       		.sleb128 16
 4530 034f 00000000 		.4byte	0
 4531 0353 00000000 		.4byte	0
 4532              	.LLST26:
 4533 0357 00000000 		.4byte	.LVL39
 4534 035b 07000000 		.4byte	.LVL40-1
 4535 035f 0100     		.2byte	0x1
 4536 0361 50       		.byte	0x50
 4537 0362 07000000 		.4byte	.LVL40-1
 4538 0366 36000000 		.4byte	.LFE1
 4539 036a 0100     		.2byte	0x1
 4540 036c 56       		.byte	0x56
 4541 036d 00000000 		.4byte	0
 4542 0371 00000000 		.4byte	0
 4543              	.LLST27:
 4544 0375 00000000 		.4byte	.LVL39
 4545 0379 1A000000 		.4byte	.LVL41
 4546 037d 0200     		.2byte	0x2
 4547 037f 30       		.byte	0x30
 4548 0380 9F       		.byte	0x9f
 4549 0381 1A000000 		.4byte	.LVL41
 4550 0385 36000000 		.4byte	.LFE1
 4551 0389 0100     		.2byte	0x1
 4552 038b 54       		.byte	0x54
 4553 038c 00000000 		.4byte	0
 4554 0390 00000000 		.4byte	0
 4555              	.LLST28:
 4556 0394 00000000 		.4byte	.LFB5
 4557 0398 04000000 		.4byte	.LCFI19
 4558 039c 0200     		.2byte	0x2
 4559 039e 7D       		.byte	0x7d
 4560 039f 00       		.sleb128 0
 4561 03a0 04000000 		.4byte	.LCFI19
 4562 03a4 1C000000 		.4byte	.LCFI20
 4563 03a8 0200     		.2byte	0x2
 4564 03aa 7D       		.byte	0x7d
 4565 03ab 18       		.sleb128 24
 4566 03ac 1C000000 		.4byte	.LCFI20
 4567 03b0 F8000000 		.4byte	.LFE5
 4568 03b4 0200     		.2byte	0x2
 4569 03b6 7D       		.byte	0x7d
 4570 03b7 20       		.sleb128 32
 4571 03b8 00000000 		.4byte	0
 4572 03bc 00000000 		.4byte	0
 4573              	.LLST29:
 4574 03c0 BE000000 		.4byte	.LVL43
 4575 03c4 C1000000 		.4byte	.LVL44-1
 4576 03c8 0100     		.2byte	0x1
 4577 03ca 50       		.byte	0x50
 4578 03cb C1000000 		.4byte	.LVL44-1
 4579 03cf F8000000 		.4byte	.LFE5
 4580 03d3 0100     		.2byte	0x1
 4581 03d5 54       		.byte	0x54
 4582 03d6 00000000 		.4byte	0
 4583 03da 00000000 		.4byte	0
 4584              	.LLST30:
ARM GAS  /tmp/ccayCWiC.s 			page 84


 4585 03de 00000000 		.4byte	.LFB3
 4586 03e2 06000000 		.4byte	.LCFI21
 4587 03e6 0200     		.2byte	0x2
 4588 03e8 7D       		.byte	0x7d
 4589 03e9 00       		.sleb128 0
 4590 03ea 06000000 		.4byte	.LCFI21
 4591 03ee 1C000000 		.4byte	.LCFI22
 4592 03f2 0200     		.2byte	0x2
 4593 03f4 7D       		.byte	0x7d
 4594 03f5 08       		.sleb128 8
 4595 03f6 1C000000 		.4byte	.LCFI22
 4596 03fa 7C000000 		.4byte	.LFE3
 4597 03fe 0200     		.2byte	0x2
 4598 0400 7D       		.byte	0x7d
 4599 0401 10       		.sleb128 16
 4600 0402 00000000 		.4byte	0
 4601 0406 00000000 		.4byte	0
 4602              	.LLST31:
 4603 040a 42000000 		.4byte	.LVL45
 4604 040e 45000000 		.4byte	.LVL46-1
 4605 0412 0100     		.2byte	0x1
 4606 0414 50       		.byte	0x50
 4607 0415 45000000 		.4byte	.LVL46-1
 4608 0419 7C000000 		.4byte	.LFE3
 4609 041d 0100     		.2byte	0x1
 4610 041f 54       		.byte	0x54
 4611 0420 00000000 		.4byte	0
 4612 0424 00000000 		.4byte	0
 4613              	.LLST32:
 4614 0428 00000000 		.4byte	.LFB2
 4615 042c 06000000 		.4byte	.LCFI23
 4616 0430 0200     		.2byte	0x2
 4617 0432 7D       		.byte	0x7d
 4618 0433 00       		.sleb128 0
 4619 0434 06000000 		.4byte	.LCFI23
 4620 0438 1C000000 		.4byte	.LCFI24
 4621 043c 0200     		.2byte	0x2
 4622 043e 7D       		.byte	0x7d
 4623 043f 08       		.sleb128 8
 4624 0440 1C000000 		.4byte	.LCFI24
 4625 0444 7C000000 		.4byte	.LFE2
 4626 0448 0200     		.2byte	0x2
 4627 044a 7D       		.byte	0x7d
 4628 044b 10       		.sleb128 16
 4629 044c 00000000 		.4byte	0
 4630 0450 00000000 		.4byte	0
 4631              	.LLST33:
 4632 0454 42000000 		.4byte	.LVL47
 4633 0458 45000000 		.4byte	.LVL48-1
 4634 045c 0100     		.2byte	0x1
 4635 045e 50       		.byte	0x50
 4636 045f 45000000 		.4byte	.LVL48-1
 4637 0463 7C000000 		.4byte	.LFE2
 4638 0467 0100     		.2byte	0x1
 4639 0469 54       		.byte	0x54
 4640 046a 00000000 		.4byte	0
 4641 046e 00000000 		.4byte	0
ARM GAS  /tmp/ccayCWiC.s 			page 85


 4642              	.LLST34:
 4643 0472 00000000 		.4byte	.LFB0
 4644 0476 02000000 		.4byte	.LCFI25
 4645 047a 0200     		.2byte	0x2
 4646 047c 7D       		.byte	0x7d
 4647 047d 00       		.sleb128 0
 4648 047e 02000000 		.4byte	.LCFI25
 4649 0482 16000000 		.4byte	.LFE0
 4650 0486 0200     		.2byte	0x2
 4651 0488 7D       		.byte	0x7d
 4652 0489 08       		.sleb128 8
 4653 048a 00000000 		.4byte	0
 4654 048e 00000000 		.4byte	0
 4655              	.LLST35:
 4656 0492 00000000 		.4byte	.LVL49
 4657 0496 02000000 		.4byte	.LVL50
 4658 049a 0100     		.2byte	0x1
 4659 049c 50       		.byte	0x50
 4660 049d 00000000 		.4byte	0
 4661 04a1 00000000 		.4byte	0
 4662              	.LLST36:
 4663 04a5 06000000 		.4byte	.LVL51
 4664 04a9 0D000000 		.4byte	.LVL53-1
 4665 04ad 0100     		.2byte	0x1
 4666 04af 50       		.byte	0x50
 4667 04b0 00000000 		.4byte	0
 4668 04b4 00000000 		.4byte	0
 4669              	.LLST37:
 4670 04b8 08000000 		.4byte	.LVL52
 4671 04bc 0D000000 		.4byte	.LVL53-1
 4672 04c0 0200     		.2byte	0x2
 4673 04c2 70       		.byte	0x70
 4674 04c3 38       		.sleb128 56
 4675 04c4 0D000000 		.4byte	.LVL53-1
 4676 04c8 16000000 		.4byte	.LFE0
 4677 04cc 0100     		.2byte	0x1
 4678 04ce 54       		.byte	0x54
 4679 04cf 00000000 		.4byte	0
 4680 04d3 00000000 		.4byte	0
 4681              	.LLST38:
 4682 04d7 00000000 		.4byte	.LFB6
 4683 04db 0A000000 		.4byte	.LCFI26
 4684 04df 0200     		.2byte	0x2
 4685 04e1 7D       		.byte	0x7d
 4686 04e2 00       		.sleb128 0
 4687 04e3 0A000000 		.4byte	.LCFI26
 4688 04e7 2C000000 		.4byte	.LFE6
 4689 04eb 0200     		.2byte	0x2
 4690 04ed 7D       		.byte	0x7d
 4691 04ee 08       		.sleb128 8
 4692 04ef 00000000 		.4byte	0
 4693 04f3 00000000 		.4byte	0
 4694              	.LLST39:
 4695 04f7 00000000 		.4byte	.LVL54
 4696 04fb 13000000 		.4byte	.LVL57-1
 4697 04ff 0100     		.2byte	0x1
 4698 0501 50       		.byte	0x50
ARM GAS  /tmp/ccayCWiC.s 			page 86


 4699 0502 00000000 		.4byte	0
 4700 0506 00000000 		.4byte	0
 4701              	.LLST40:
 4702 050a 1A000000 		.4byte	.LVL58
 4703 050e 23000000 		.4byte	.LVL59-1
 4704 0512 0200     		.2byte	0x2
 4705 0514 74       		.byte	0x74
 4706 0515 28       		.sleb128 40
 4707 0516 00000000 		.4byte	0
 4708 051a 00000000 		.4byte	0
 4709              	.LLST41:
 4710 051e 0C000000 		.4byte	.LVL55
 4711 0522 10000000 		.4byte	.LVL56
 4712 0526 0200     		.2byte	0x2
 4713 0528 73       		.byte	0x73
 4714 0529 18       		.sleb128 24
 4715 052a 13000000 		.4byte	.LVL57-1
 4716 052e 2C000000 		.4byte	.LFE6
 4717 0532 0100     		.2byte	0x1
 4718 0534 54       		.byte	0x54
 4719 0535 00000000 		.4byte	0
 4720 0539 00000000 		.4byte	0
 4721              		.section	.debug_aranges,"",%progbits
 4722 0000 CC000000 		.4byte	0xcc
 4723 0004 0200     		.2byte	0x2
 4724 0006 00000000 		.4byte	.Ldebug_info0
 4725 000a 04       		.byte	0x4
 4726 000b 00       		.byte	0
 4727 000c 0000     		.2byte	0
 4728 000e 0000     		.2byte	0
 4729 0010 00000000 		.4byte	.LFB4
 4730 0014 02000000 		.4byte	.LFE4-.LFB4
 4731 0018 00000000 		.4byte	.LFB16
 4732 001c 02000000 		.4byte	.LFE16-.LFB16
 4733 0020 00000000 		.4byte	.LFB22
 4734 0024 E8000000 		.4byte	.LFE22-.LFB22
 4735 0028 00000000 		.4byte	.LFB21
 4736 002c 82000000 		.4byte	.LFE21-.LFB21
 4737 0030 00000000 		.4byte	.LFB20
 4738 0034 0C000000 		.4byte	.LFE20-.LFB20
 4739 0038 00000000 		.4byte	.LFB10
 4740 003c 2E000000 		.4byte	.LFE10-.LFB10
 4741 0040 00000000 		.4byte	.LFB19
 4742 0044 A2000000 		.4byte	.LFE19-.LFB19
 4743 0048 00000000 		.4byte	.LFB18
 4744 004c 0E000000 		.4byte	.LFE18-.LFB18
 4745 0050 00000000 		.4byte	.LFB11
 4746 0054 0E000000 		.4byte	.LFE11-.LFB11
 4747 0058 00000000 		.4byte	.LFB17
 4748 005c 9C000000 		.4byte	.LFE17-.LFB17
 4749 0060 00000000 		.4byte	.LFB15
 4750 0064 E8000000 		.4byte	.LFE15-.LFB15
 4751 0068 00000000 		.4byte	.LFB9
 4752 006c 7A000000 		.4byte	.LFE9-.LFB9
 4753 0070 00000000 		.4byte	.LFB14
 4754 0074 EC000000 		.4byte	.LFE14-.LFB14
 4755 0078 00000000 		.4byte	.LFB13
ARM GAS  /tmp/ccayCWiC.s 			page 87


 4756 007c 30000000 		.4byte	.LFE13-.LFB13
 4757 0080 00000000 		.4byte	.LFB12
 4758 0084 32010000 		.4byte	.LFE12-.LFB12
 4759 0088 00000000 		.4byte	.LFB8
 4760 008c 7E000000 		.4byte	.LFE8-.LFB8
 4761 0090 00000000 		.4byte	.LFB7
 4762 0094 CA000000 		.4byte	.LFE7-.LFB7
 4763 0098 00000000 		.4byte	.LFB1
 4764 009c 36000000 		.4byte	.LFE1-.LFB1
 4765 00a0 00000000 		.4byte	.LFB5
 4766 00a4 F8000000 		.4byte	.LFE5-.LFB5
 4767 00a8 00000000 		.4byte	.LFB3
 4768 00ac 7C000000 		.4byte	.LFE3-.LFB3
 4769 00b0 00000000 		.4byte	.LFB2
 4770 00b4 7C000000 		.4byte	.LFE2-.LFB2
 4771 00b8 00000000 		.4byte	.LFB0
 4772 00bc 16000000 		.4byte	.LFE0-.LFB0
 4773 00c0 00000000 		.4byte	.LFB6
 4774 00c4 2C000000 		.4byte	.LFE6-.LFB6
 4775 00c8 00000000 		.4byte	0
 4776 00cc 00000000 		.4byte	0
 4777              		.section	.debug_ranges,"",%progbits
 4778              	.Ldebug_ranges0:
 4779 0000 00000000 		.4byte	.LFB4
 4780 0004 02000000 		.4byte	.LFE4
 4781 0008 00000000 		.4byte	.LFB16
 4782 000c 02000000 		.4byte	.LFE16
 4783 0010 00000000 		.4byte	.LFB22
 4784 0014 E8000000 		.4byte	.LFE22
 4785 0018 00000000 		.4byte	.LFB21
 4786 001c 82000000 		.4byte	.LFE21
 4787 0020 00000000 		.4byte	.LFB20
 4788 0024 0C000000 		.4byte	.LFE20
 4789 0028 00000000 		.4byte	.LFB10
 4790 002c 2E000000 		.4byte	.LFE10
 4791 0030 00000000 		.4byte	.LFB19
 4792 0034 A2000000 		.4byte	.LFE19
 4793 0038 00000000 		.4byte	.LFB18
 4794 003c 0E000000 		.4byte	.LFE18
 4795 0040 00000000 		.4byte	.LFB11
 4796 0044 0E000000 		.4byte	.LFE11
 4797 0048 00000000 		.4byte	.LFB17
 4798 004c 9C000000 		.4byte	.LFE17
 4799 0050 00000000 		.4byte	.LFB15
 4800 0054 E8000000 		.4byte	.LFE15
 4801 0058 00000000 		.4byte	.LFB9
 4802 005c 7A000000 		.4byte	.LFE9
 4803 0060 00000000 		.4byte	.LFB14
 4804 0064 EC000000 		.4byte	.LFE14
 4805 0068 00000000 		.4byte	.LFB13
 4806 006c 30000000 		.4byte	.LFE13
 4807 0070 00000000 		.4byte	.LFB12
 4808 0074 32010000 		.4byte	.LFE12
 4809 0078 00000000 		.4byte	.LFB8
 4810 007c 7E000000 		.4byte	.LFE8
 4811 0080 00000000 		.4byte	.LFB7
 4812 0084 CA000000 		.4byte	.LFE7
ARM GAS  /tmp/ccayCWiC.s 			page 88


 4813 0088 00000000 		.4byte	.LFB1
 4814 008c 36000000 		.4byte	.LFE1
 4815 0090 00000000 		.4byte	.LFB5
 4816 0094 F8000000 		.4byte	.LFE5
 4817 0098 00000000 		.4byte	.LFB3
 4818 009c 7C000000 		.4byte	.LFE3
 4819 00a0 00000000 		.4byte	.LFB2
 4820 00a4 7C000000 		.4byte	.LFE2
 4821 00a8 00000000 		.4byte	.LFB0
 4822 00ac 16000000 		.4byte	.LFE0
 4823 00b0 00000000 		.4byte	.LFB6
 4824 00b4 2C000000 		.4byte	.LFE6
 4825 00b8 00000000 		.4byte	0
 4826 00bc 00000000 		.4byte	0
 4827              		.section	.debug_line,"",%progbits
 4828              	.Ldebug_line0:
 4829 0000 D0050000 		.section	.debug_str,"MS",%progbits,1
 4829      0200AF01 
 4829      00000201 
 4829      FB0E0D00 
 4829      01010101 
 4830              	.LASF36:
 4831 0000 705F6D73 		.ascii	"p_msg\000"
 4831      6700
 4832              	.LASF2:
 4833 0006 73697A65 		.ascii	"size_t\000"
 4833      5F7400
 4834              	.LASF100:
 4835 000d 7072696F 		.ascii	"prio\000"
 4835      00
 4836              	.LASF67:
 4837 0012 7264796D 		.ascii	"rdymsg\000"
 4837      736700
 4838              	.LASF12:
 4839 0019 75696E74 		.ascii	"uint64_t\000"
 4839      36345F74 
 4839      00
 4840              	.LASF13:
 4841 0022 6C6F6E67 		.ascii	"long long unsigned int\000"
 4841      206C6F6E 
 4841      6720756E 
 4841      7369676E 
 4841      65642069 
 4842              	.LASF68:
 4843 0039 65786974 		.ascii	"exitcode\000"
 4843      636F6465 
 4843      00
 4844              	.LASF103:
 4845 0042 626D6B37 		.ascii	"bmk7_execute\000"
 4845      5F657865 
 4845      63757465 
 4845      00
 4846              	.LASF25:
 4847 004f 705F7072 		.ascii	"p_prio\000"
 4847      696F00
 4848              	.LASF73:
 4849 0056 715F7761 		.ascii	"q_waiting\000"
ARM GAS  /tmp/ccayCWiC.s 			page 89


 4849      6974696E 
 4849      6700
 4850              	.LASF11:
 4851 0060 6C6F6E67 		.ascii	"long long int\000"
 4851      206C6F6E 
 4851      6720696E 
 4851      7400
 4852              	.LASF1:
 4853 006e 7369676E 		.ascii	"signed char\000"
 4853      65642063 
 4853      68617200 
 4854              	.LASF14:
 4855 007a 626F6F6C 		.ascii	"bool_t\000"
 4855      5F7400
 4856              	.LASF64:
 4857 0081 6D5F7175 		.ascii	"m_queue\000"
 4857      65756500 
 4858              	.LASF93:
 4859 0089 74687265 		.ascii	"thread3\000"
 4859      61643300 
 4860              	.LASF106:
 4861 0091 6D73675F 		.ascii	"msg_loop_test\000"
 4861      6C6F6F70 
 4861      5F746573 
 4861      7400
 4862              	.LASF8:
 4863 009f 6C6F6E67 		.ascii	"long int\000"
 4863      20696E74 
 4863      00
 4864              	.LASF16:
 4865 00a8 74737461 		.ascii	"tstate_t\000"
 4865      74655F74 
 4865      00
 4866              	.LASF109:
 4867 00b1 626D6B31 		.ascii	"bmk1_execute\000"
 4867      5F657865 
 4867      63757465 
 4867      00
 4868              	.LASF75:
 4869 00be 715F6275 		.ascii	"q_buffer\000"
 4869      66666572 
 4869      00
 4870              	.LASF77:
 4871 00c7 715F7772 		.ascii	"q_wrptr\000"
 4871      70747200 
 4872              	.LASF27:
 4873 00cf 705F6E65 		.ascii	"p_newer\000"
 4873      77657200 
 4874              	.LASF61:
 4875 00d7 735F7175 		.ascii	"s_queue\000"
 4875      65756500 
 4876              	.LASF101:
 4877 00df 626D6B38 		.ascii	"bmk8_execute\000"
 4877      5F657865 
 4877      63757465 
 4877      00
 4878              	.LASF56:
ARM GAS  /tmp/ccayCWiC.s 			page 90


 4879 00ec 725F6E65 		.ascii	"r_newer\000"
 4879      77657200 
 4880              	.LASF42:
 4881 00f4 72656761 		.ascii	"regarm_t\000"
 4881      726D5F74 
 4881      00
 4882              	.LASF49:
 4883 00fd 76745F70 		.ascii	"vt_prev\000"
 4883      72657600 
 4884              	.LASF128:
 4885 0105 74657374 		.ascii	"testbmk12\000"
 4885      626D6B31 
 4885      3200
 4886              	.LASF112:
 4887 010f 73656D31 		.ascii	"sem1\000"
 4887      00
 4888              	.LASF90:
 4889 0114 626D6B31 		.ascii	"bmk13_execute\000"
 4889      335F6578 
 4889      65637574 
 4889      6500
 4890              	.LASF123:
 4891 0122 74657374 		.ascii	"testbmk7\000"
 4891      626D6B37 
 4891      00
 4892              	.LASF21:
 4893 012b 636E745F 		.ascii	"cnt_t\000"
 4893      7400
 4894              	.LASF30:
 4895 0131 705F7374 		.ascii	"p_stklimit\000"
 4895      6B6C696D 
 4895      697400
 4896              	.LASF0:
 4897 013c 756E7369 		.ascii	"unsigned int\000"
 4897      676E6564 
 4897      20696E74 
 4897      00
 4898              	.LASF94:
 4899 0149 626D6B31 		.ascii	"bmk11_execute\000"
 4899      315F6578 
 4899      65637574 
 4899      6500
 4900              	.LASF48:
 4901 0157 76745F6E 		.ascii	"vt_next\000"
 4901      65787400 
 4902              	.LASF97:
 4903 015f 626D6B31 		.ascii	"bmk10_execute\000"
 4903      305F6578 
 4903      65637574 
 4903      6500
 4904              	.LASF10:
 4905 016d 6C6F6E67 		.ascii	"long unsigned int\000"
 4905      20756E73 
 4905      69676E65 
 4905      6420696E 
 4905      7400
 4906              	.LASF86:
ARM GAS  /tmp/ccayCWiC.s 			page 91


 4907 017f 74656172 		.ascii	"teardown\000"
 4907      646F776E 
 4907      00
 4908              	.LASF116:
 4909 0188 74657374 		.ascii	"test_timer_done\000"
 4909      5F74696D 
 4909      65725F64 
 4909      6F6E6500 
 4910              	.LASF122:
 4911 0198 74657374 		.ascii	"testbmk6\000"
 4911      626D6B36 
 4911      00
 4912              	.LASF84:
 4913 01a1 6E616D65 		.ascii	"name\000"
 4913      00
 4914              	.LASF62:
 4915 01a6 735F636E 		.ascii	"s_cnt\000"
 4915      7400
 4916              	.LASF45:
 4917 01ac 636F6E74 		.ascii	"context\000"
 4917      65787400 
 4918              	.LASF133:
 4919 01b4 2F686F6D 		.ascii	"/home/prana/workspace/eth/ch/testhal/STM32F4xx/RTC\000"
 4919      652F7072 
 4919      616E612F 
 4919      776F726B 
 4919      73706163 
 4920              	.LASF6:
 4921 01e7 73686F72 		.ascii	"short unsigned int\000"
 4921      7420756E 
 4921      7369676E 
 4921      65642069 
 4921      6E7400
 4922              	.LASF113:
 4923 01fa 6D747831 		.ascii	"mtx1\000"
 4923      00
 4924              	.LASF18:
 4925 01ff 6D73675F 		.ascii	"msg_t\000"
 4925      7400
 4926              	.LASF98:
 4927 0205 626D6B39 		.ascii	"bmk9_execute\000"
 4927      5F657865 
 4927      63757465 
 4927      00
 4928              	.LASF15:
 4929 0212 746D6F64 		.ascii	"tmode_t\000"
 4929      655F7400 
 4930              	.LASF41:
 4931 021a 54687265 		.ascii	"ThreadsList\000"
 4931      6164734C 
 4931      69737400 
 4932              	.LASF19:
 4933 0226 6576656E 		.ascii	"eventmask_t\000"
 4933      746D6173 
 4933      6B5F7400 
 4934              	.LASF82:
 4935 0232 496E7075 		.ascii	"InputQueue\000"
ARM GAS  /tmp/ccayCWiC.s 			page 92


 4935      74517565 
 4935      756500
 4936              	.LASF63:
 4937 023d 4D757465 		.ascii	"Mutex\000"
 4937      7800
 4938              	.LASF121:
 4939 0243 74657374 		.ascii	"testbmk5\000"
 4939      626D6B35 
 4939      00
 4940              	.LASF72:
 4941 024c 47656E65 		.ascii	"GenericQueue\000"
 4941      72696351 
 4941      75657565 
 4941      00
 4942              	.LASF43:
 4943 0259 73746B61 		.ascii	"stkalign_t\000"
 4943      6C69676E 
 4943      5F7400
 4944              	.LASF124:
 4945 0264 74657374 		.ascii	"testbmk8\000"
 4945      626D6B38 
 4945      00
 4946              	.LASF50:
 4947 026d 76745F74 		.ascii	"vt_time\000"
 4947      696D6500 
 4948              	.LASF95:
 4949 0275 626D6B31 		.ascii	"bmk11_setup\000"
 4949      315F7365 
 4949      74757000 
 4950              	.LASF117:
 4951 0281 74657374 		.ascii	"testbmk1\000"
 4951      626D6B31 
 4951      00
 4952              	.LASF118:
 4953 028a 74657374 		.ascii	"testbmk2\000"
 4953      626D6B32 
 4953      00
 4954              	.LASF119:
 4955 0293 74657374 		.ascii	"testbmk3\000"
 4955      626D6B33 
 4955      00
 4956              	.LASF120:
 4957 029c 74657374 		.ascii	"testbmk4\000"
 4957      626D6B34 
 4957      00
 4958              	.LASF74:
 4959 02a5 715F636F 		.ascii	"q_counter\000"
 4959      756E7465 
 4959      7200
 4960              	.LASF51:
 4961 02af 76745F66 		.ascii	"vt_func\000"
 4961      756E6300 
 4962              	.LASF107:
 4963 02b7 626D6B33 		.ascii	"bmk3_execute\000"
 4963      5F657865 
 4963      63757465 
 4963      00
ARM GAS  /tmp/ccayCWiC.s 			page 93


 4964              	.LASF125:
 4965 02c4 74657374 		.ascii	"testbmk9\000"
 4965      626D6B39 
 4965      00
 4966              	.LASF91:
 4967 02cd 626D6B31 		.ascii	"bmk12_setup\000"
 4967      325F7365 
 4967      74757000 
 4968              	.LASF88:
 4969 02d9 70617261 		.ascii	"param\000"
 4969      6D00
 4970              	.LASF108:
 4971 02df 626D6B32 		.ascii	"bmk2_execute\000"
 4971      5F657865 
 4971      63757465 
 4971      00
 4972              	.LASF28:
 4973 02ec 705F6F6C 		.ascii	"p_older\000"
 4973      64657200 
 4974              	.LASF110:
 4975 02f4 74687265 		.ascii	"thread1\000"
 4975      61643100 
 4976              	.LASF92:
 4977 02fc 74687265 		.ascii	"thread2\000"
 4977      61643200 
 4978              	.LASF55:
 4979 0304 725F6374 		.ascii	"r_ctx\000"
 4979      7800
 4980              	.LASF134:
 4981 030a 74687265 		.ascii	"thread4\000"
 4981      61643400 
 4982              	.LASF40:
 4983 0312 54687265 		.ascii	"ThreadsQueue\000"
 4983      61647351 
 4983      75657565 
 4983      00
 4984              	.LASF102:
 4985 031f 74687265 		.ascii	"thread8\000"
 4985      61643800 
 4986              	.LASF85:
 4987 0327 73657475 		.ascii	"setup\000"
 4987      7000
 4988              	.LASF58:
 4989 032d 725F6375 		.ascii	"r_current\000"
 4989      7272656E 
 4989      7400
 4990              	.LASF57:
 4991 0337 725F6F6C 		.ascii	"r_older\000"
 4991      64657200 
 4992              	.LASF132:
 4993 033f 2E2E2F2E 		.ascii	"../../../test/testbmk.c\000"
 4993      2E2F2E2E 
 4993      2F746573 
 4993      742F7465 
 4993      7374626D 
 4994              	.LASF81:
 4995 0357 716E6F74 		.ascii	"qnotify_t\000"
ARM GAS  /tmp/ccayCWiC.s 			page 94


 4995      6966795F 
 4995      7400
 4996              	.LASF24:
 4997 0361 705F7072 		.ascii	"p_prev\000"
 4997      657600
 4998              	.LASF87:
 4999 0368 65786563 		.ascii	"execute\000"
 4999      75746500 
 5000              	.LASF17:
 5001 0370 74707269 		.ascii	"tprio_t\000"
 5001      6F5F7400 
 5002              	.LASF78:
 5003 0378 715F7264 		.ascii	"q_rdptr\000"
 5003      70747200 
 5004              	.LASF89:
 5005 0380 626D6B31 		.ascii	"bmk12_execute\000"
 5005      325F6578 
 5005      65637574 
 5005      6500
 5006              	.LASF7:
 5007 038e 696E7433 		.ascii	"int32_t\000"
 5007      325F7400 
 5008              	.LASF4:
 5009 0396 756E7369 		.ascii	"unsigned char\000"
 5009      676E6564 
 5009      20636861 
 5009      7200
 5010              	.LASF38:
 5011 03a4 705F6D74 		.ascii	"p_mtxlist\000"
 5011      786C6973 
 5011      7400
 5012              	.LASF5:
 5013 03ae 73686F72 		.ascii	"short int\000"
 5013      7420696E 
 5013      7400
 5014              	.LASF31:
 5015 03b8 705F7374 		.ascii	"p_state\000"
 5015      61746500 
 5016              	.LASF115:
 5017 03c0 74687265 		.ascii	"threads\000"
 5017      61647300 
 5018              	.LASF54:
 5019 03c8 725F7072 		.ascii	"r_prio\000"
 5019      696F00
 5020              	.LASF70:
 5021 03cf 65776D61 		.ascii	"ewmask\000"
 5021      736B00
 5022              	.LASF23:
 5023 03d6 705F6E65 		.ascii	"p_next\000"
 5023      787400
 5024              	.LASF32:
 5025 03dd 705F666C 		.ascii	"p_flags\000"
 5025      61677300 
 5026              	.LASF130:
 5027 03e5 70617474 		.ascii	"patternbmk\000"
 5027      65726E62 
 5027      6D6B00
ARM GAS  /tmp/ccayCWiC.s 			page 95


 5028              	.LASF22:
 5029 03f0 54687265 		.ascii	"Thread\000"
 5029      616400
 5030              	.LASF126:
 5031 03f7 74657374 		.ascii	"testbmk10\000"
 5031      626D6B31 
 5031      3000
 5032              	.LASF127:
 5033 0401 74657374 		.ascii	"testbmk11\000"
 5033      626D6B31 
 5033      3100
 5034              	.LASF83:
 5035 040b 74657374 		.ascii	"testcase\000"
 5035      63617365 
 5035      00
 5036              	.LASF129:
 5037 0414 74657374 		.ascii	"testbmk13\000"
 5037      626D6B31 
 5037      3300
 5038              	.LASF37:
 5039 041e 705F6570 		.ascii	"p_epending\000"
 5039      656E6469 
 5039      6E6700
 5040              	.LASF9:
 5041 0429 75696E74 		.ascii	"uint32_t\000"
 5041      33325F74 
 5041      00
 5042              	.LASF53:
 5043 0432 725F7175 		.ascii	"r_queue\000"
 5043      65756500 
 5044              	.LASF47:
 5045 043a 56697274 		.ascii	"VirtualTimer\000"
 5045      75616C54 
 5045      696D6572 
 5045      00
 5046              	.LASF131:
 5047 0447 474E5520 		.ascii	"GNU C 4.6.3\000"
 5047      4320342E 
 5047      362E3300 
 5048              	.LASF71:
 5049 0453 63686172 		.ascii	"char\000"
 5049      00
 5050              	.LASF111:
 5051 0458 73656C66 		.ascii	"self\000"
 5051      00
 5052              	.LASF66:
 5053 045d 6D5F6E65 		.ascii	"m_next\000"
 5053      787400
 5054              	.LASF20:
 5055 0464 73797374 		.ascii	"systime_t\000"
 5055      696D655F 
 5055      7400
 5056              	.LASF39:
 5057 046e 705F7265 		.ascii	"p_realprio\000"
 5057      616C7072 
 5057      696F00
 5058              	.LASF46:
ARM GAS  /tmp/ccayCWiC.s 			page 96


 5059 0479 76746675 		.ascii	"vtfunc_t\000"
 5059      6E635F74 
 5059      00
 5060              	.LASF104:
 5061 0482 626D6B35 		.ascii	"bmk5_execute\000"
 5061      5F657865 
 5061      63757465 
 5061      00
 5062              	.LASF33:
 5063 048f 705F7469 		.ascii	"p_time\000"
 5063      6D6500
 5064              	.LASF44:
 5065 0496 696E7463 		.ascii	"intctx\000"
 5065      747800
 5066              	.LASF35:
 5067 049d 705F6D73 		.ascii	"p_msgqueue\000"
 5067      67717565 
 5067      756500
 5068              	.LASF52:
 5069 04a8 76745F70 		.ascii	"vt_par\000"
 5069      617200
 5070              	.LASF60:
 5071 04af 53656D61 		.ascii	"Semaphore\000"
 5071      70686F72 
 5071      6500
 5072              	.LASF76:
 5073 04b9 715F746F 		.ascii	"q_top\000"
 5073      7000
 5074              	.LASF59:
 5075 04bf 52656164 		.ascii	"ReadyList\000"
 5075      794C6973 
 5075      7400
 5076              	.LASF79:
 5077 04c9 715F6E6F 		.ascii	"q_notify\000"
 5077      74696679 
 5077      00
 5078              	.LASF114:
 5079 04d2 726C6973 		.ascii	"rlist\000"
 5079      7400
 5080              	.LASF3:
 5081 04d8 75696E74 		.ascii	"uint8_t\000"
 5081      385F7400 
 5082              	.LASF69:
 5083 04e0 77746F62 		.ascii	"wtobjp\000"
 5083      6A7000
 5084              	.LASF29:
 5085 04e7 705F6E61 		.ascii	"p_name\000"
 5085      6D6500
 5086              	.LASF96:
 5087 04ee 626D6B37 		.ascii	"bmk7_setup\000"
 5087      5F736574 
 5087      757000
 5088              	.LASF105:
 5089 04f9 626D6B34 		.ascii	"bmk4_execute\000"
 5089      5F657865 
 5089      63757465 
 5089      00
ARM GAS  /tmp/ccayCWiC.s 			page 97


 5090              	.LASF99:
 5091 0506 626D6B36 		.ascii	"bmk6_execute\000"
 5091      5F657865 
 5091      63757465 
 5091      00
 5092              	.LASF80:
 5093 0513 715F6C69 		.ascii	"q_link\000"
 5093      6E6B00
 5094              	.LASF65:
 5095 051a 6D5F6F77 		.ascii	"m_owner\000"
 5095      6E657200 
 5096              	.LASF26:
 5097 0522 705F6374 		.ascii	"p_ctx\000"
 5097      7800
 5098              	.LASF34:
 5099 0528 705F7761 		.ascii	"p_waiting\000"
 5099      6974696E 
 5099      6700
 5100              		.ident	"GCC: (Sourcery CodeBench Lite 2012.03-56) 4.6.3"
ARM GAS  /tmp/ccayCWiC.s 			page 98


DEFINED SYMBOLS
                            *ABS*:00000000 testbmk.c
     /tmp/ccayCWiC.s:19     .text.thread2:00000000 $t
     /tmp/ccayCWiC.s:24     .text.thread2:00000000 thread2
     /tmp/ccayCWiC.s:39     .text.tmo:00000000 $t
     /tmp/ccayCWiC.s:44     .text.tmo:00000000 tmo
     /tmp/ccayCWiC.s:58     .text.bmk13_execute:00000000 $t
     /tmp/ccayCWiC.s:63     .text.bmk13_execute:00000000 bmk13_execute
     /tmp/ccayCWiC.s:1856   .rodata.str1.4:00000000 .LC0
     /tmp/ccayCWiC.s:1859   .rodata.str1.4:00000010 .LC1
     /tmp/ccayCWiC.s:1862   .rodata.str1.4:00000018 .LC2
     /tmp/ccayCWiC.s:1865   .rodata.str1.4:00000028 .LC3
     /tmp/ccayCWiC.s:1868   .rodata.str1.4:00000038 .LC4
     /tmp/ccayCWiC.s:1871   .rodata.str1.4:00000048 .LC5
     /tmp/ccayCWiC.s:1874   .rodata.str1.4:00000058 .LC6
     /tmp/ccayCWiC.s:1877   .rodata.str1.4:00000068 .LC7
     /tmp/ccayCWiC.s:1880   .rodata.str1.4:00000078 .LC8
     /tmp/ccayCWiC.s:1883   .rodata.str1.4:00000088 .LC9
     /tmp/ccayCWiC.s:177    .text.bmk12_execute:00000000 $t
     /tmp/ccayCWiC.s:182    .text.bmk12_execute:00000000 bmk12_execute
     /tmp/ccayCWiC.s:1831   .bss.mtx1:00000000 .LANCHOR0
     /tmp/ccayCWiC.s:1886   .rodata.str1.4:00000098 .LC10
     /tmp/ccayCWiC.s:1889   .rodata.str1.4:000000a8 .LC11
     /tmp/ccayCWiC.s:257    .text.bmk12_setup:00000000 $t
     /tmp/ccayCWiC.s:262    .text.bmk12_setup:00000000 bmk12_setup
     /tmp/ccayCWiC.s:279    .text.thread3:00000000 $t
     /tmp/ccayCWiC.s:284    .text.thread3:00000000 thread3
     /tmp/ccayCWiC.s:1967   .bss.sem1:00000000 .LANCHOR1
     /tmp/ccayCWiC.s:322    .text.bmk11_execute:00000000 $t
     /tmp/ccayCWiC.s:327    .text.bmk11_execute:00000000 bmk11_execute
     /tmp/ccayCWiC.s:1892   .rodata.str1.4:000000b8 .LC12
     /tmp/ccayCWiC.s:410    .text.bmk11_setup:00000000 $t
     /tmp/ccayCWiC.s:415    .text.bmk11_setup:00000000 bmk11_setup
     /tmp/ccayCWiC.s:433    .text.bmk7_setup:00000000 $t
     /tmp/ccayCWiC.s:438    .text.bmk7_setup:00000000 bmk7_setup
     /tmp/ccayCWiC.s:456    .text.bmk10_execute:00000000 $t
     /tmp/ccayCWiC.s:461    .text.bmk10_execute:00000000 bmk10_execute
     /tmp/ccayCWiC.s:1974   .bss.vt1.4762:00000000 .LANCHOR2
     /tmp/ccayCWiC.s:1951   .bss.vt2.4763:00000000 .LANCHOR3
     /tmp/ccayCWiC.s:1895   .rodata.str1.4:000000c8 .LC13
     /tmp/ccayCWiC.s:548    .text.bmk9_execute:00000000 $t
     /tmp/ccayCWiC.s:553    .text.bmk9_execute:00000000 bmk9_execute
     /tmp/ccayCWiC.s:1797   .bss.iq.4752:00000000 .LANCHOR4
     /tmp/ccayCWiC.s:2008   .bss.ib.4751:00000000 .LANCHOR5
     /tmp/ccayCWiC.s:1898   .rodata.str1.4:000000d4 .LC14
     /tmp/ccayCWiC.s:669    .text.bmk6_execute:00000000 $t
     /tmp/ccayCWiC.s:674    .text.bmk6_execute:00000000 bmk6_execute
     /tmp/ccayCWiC.s:1901   .rodata.str1.4:000000e0 .LC15
     /tmp/ccayCWiC.s:760    .text.bmk8_execute:00000000 $t
     /tmp/ccayCWiC.s:765    .text.bmk8_execute:00000000 bmk8_execute
     /tmp/ccayCWiC.s:896    .text.thread8:00000000 thread8
     /tmp/ccayCWiC.s:1904   .rodata.str1.4:000000ec .LC16
     /tmp/ccayCWiC.s:891    .text.thread8:00000000 $t
     /tmp/ccayCWiC.s:942    .text.bmk7_execute:00000000 $t
     /tmp/ccayCWiC.s:947    .text.bmk7_execute:00000000 bmk7_execute
     /tmp/ccayCWiC.s:1907   .rodata.str1.4:000000f8 .LC17
     /tmp/ccayCWiC.s:1104   .text.bmk5_execute:00000000 $t
ARM GAS  /tmp/ccayCWiC.s 			page 99


     /tmp/ccayCWiC.s:1109   .text.bmk5_execute:00000000 bmk5_execute
     /tmp/ccayCWiC.s:1196   .text.bmk4_execute:00000000 $t
     /tmp/ccayCWiC.s:1201   .text.bmk4_execute:00000000 bmk4_execute
     /tmp/ccayCWiC.s:1704   .text.thread4:00000000 thread4
     /tmp/ccayCWiC.s:1322   .text.msg_loop_test:00000000 $t
     /tmp/ccayCWiC.s:1327   .text.msg_loop_test:00000000 msg_loop_test
     /tmp/ccayCWiC.s:1378   .text.bmk3_execute:00000000 $t
     /tmp/ccayCWiC.s:1383   .text.bmk3_execute:00000000 bmk3_execute
     /tmp/ccayCWiC.s:1664   .text.thread1:00000000 thread1
     /tmp/ccayCWiC.s:1910   .rodata.str1.4:0000010c .LC18
     /tmp/ccayCWiC.s:1511   .text.bmk2_execute:00000000 $t
     /tmp/ccayCWiC.s:1516   .text.bmk2_execute:00000000 bmk2_execute
     /tmp/ccayCWiC.s:1585   .text.bmk1_execute:00000000 $t
     /tmp/ccayCWiC.s:1590   .text.bmk1_execute:00000000 bmk1_execute
     /tmp/ccayCWiC.s:1659   .text.thread1:00000000 $t
     /tmp/ccayCWiC.s:1698   .text.thread4:00000000 $t
     /tmp/ccayCWiC.s:1780   .rodata.patternbmk:00000000 patternbmk
     /tmp/ccayCWiC.s:1849   .rodata.testbmk13:00000000 testbmk13
     /tmp/ccayCWiC.s:2001   .rodata.testbmk12:00000000 testbmk12
     /tmp/ccayCWiC.s:1992   .rodata.testbmk11:00000000 testbmk11
     /tmp/ccayCWiC.s:1815   .rodata.testbmk10:00000000 testbmk10
     /tmp/ccayCWiC.s:1960   .rodata.testbmk9:00000000 testbmk9
     /tmp/ccayCWiC.s:1771   .rodata.testbmk8:00000000 testbmk8
     /tmp/ccayCWiC.s:2035   .rodata.testbmk7:00000000 testbmk7
     /tmp/ccayCWiC.s:2026   .rodata.testbmk6:00000000 testbmk6
     /tmp/ccayCWiC.s:2017   .rodata.testbmk5:00000000 testbmk5
     /tmp/ccayCWiC.s:1824   .rodata.testbmk4:00000000 testbmk4
     /tmp/ccayCWiC.s:1840   .rodata.testbmk3:00000000 testbmk3
     /tmp/ccayCWiC.s:1806   .rodata.testbmk2:00000000 testbmk2
     /tmp/ccayCWiC.s:1983   .rodata.testbmk1:00000000 testbmk1
     /tmp/ccayCWiC.s:1768   .rodata.testbmk8:00000000 $d
     /tmp/ccayCWiC.s:1777   .rodata.patternbmk:00000000 $d
     /tmp/ccayCWiC.s:1796   .bss.iq.4752:00000000 $d
     /tmp/ccayCWiC.s:1800   .bss.iq.4752:00000000 iq.4752
     /tmp/ccayCWiC.s:1803   .rodata.testbmk2:00000000 $d
     /tmp/ccayCWiC.s:1812   .rodata.testbmk10:00000000 $d
     /tmp/ccayCWiC.s:1821   .rodata.testbmk4:00000000 $d
     /tmp/ccayCWiC.s:1830   .bss.mtx1:00000000 $d
     /tmp/ccayCWiC.s:1834   .bss.mtx1:00000000 mtx1
     /tmp/ccayCWiC.s:1837   .rodata.testbmk3:00000000 $d
     /tmp/ccayCWiC.s:1846   .rodata.testbmk13:00000000 $d
     /tmp/ccayCWiC.s:1855   .rodata.str1.4:00000000 $d
     /tmp/ccayCWiC.s:1950   .bss.vt2.4763:00000000 $d
     /tmp/ccayCWiC.s:1954   .bss.vt2.4763:00000000 vt2.4763
     /tmp/ccayCWiC.s:1957   .rodata.testbmk9:00000000 $d
     /tmp/ccayCWiC.s:1966   .bss.sem1:00000000 $d
     /tmp/ccayCWiC.s:1970   .bss.sem1:00000000 sem1
     /tmp/ccayCWiC.s:1973   .bss.vt1.4762:00000000 $d
     /tmp/ccayCWiC.s:1977   .bss.vt1.4762:00000000 vt1.4762
     /tmp/ccayCWiC.s:1980   .rodata.testbmk1:00000000 $d
     /tmp/ccayCWiC.s:1989   .rodata.testbmk11:00000000 $d
     /tmp/ccayCWiC.s:1998   .rodata.testbmk12:00000000 $d
     /tmp/ccayCWiC.s:2007   .bss.ib.4751:00000000 $d
     /tmp/ccayCWiC.s:2011   .bss.ib.4751:00000000 ib.4751
     /tmp/ccayCWiC.s:2014   .rodata.testbmk5:00000000 $d
     /tmp/ccayCWiC.s:2023   .rodata.testbmk6:00000000 $d
     /tmp/ccayCWiC.s:2032   .rodata.testbmk7:00000000 $d
ARM GAS  /tmp/ccayCWiC.s 			page 100


                     .debug_frame:00000010 $d

UNDEFINED SYMBOLS
test_print
test_printn
test_println
test_wait_tick
test_start_timer
test_timer_done
chMtxLock
chMtxUnlock
chMtxInit
rlist
chSemWait
chSemSignal
chSemInit
_port_lock
dbg_check_lock
chVTSetI
chVTResetI
dbg_check_unlock
_port_unlock
chIQInit
chIQPutI
chIQGetTimeout
wa
chThdCreateStatic
threads
chThdSleep
test_terminate_threads
test_wait_threads
chThdYield
chSemReset
chThdWait
chSchWakeupS
chMsgSend
chMsgWait
chMsgRelease
chSchGoSleepS
