ARM GAS  /tmp/ccaRLdGA.s 			page 1


   1              		.syntax unified
   2              		.cpu cortex-m4
   3              		.fpu softvfp
   4              		.eabi_attribute 20, 1
   5              		.eabi_attribute 21, 1
   6              		.eabi_attribute 23, 3
   7              		.eabi_attribute 24, 1
   8              		.eabi_attribute 25, 1
   9              		.eabi_attribute 26, 1
  10              		.eabi_attribute 30, 2
  11              		.eabi_attribute 34, 1
  12              		.eabi_attribute 18, 4
  13              		.thumb
  14              		.file	"testthd.c"
  15              		.text
  16              	.Ltext0:
  17              		.cfi_sections	.debug_frame
  18              		.section	.text.thd3_execute,"ax",%progbits
  19              		.align	2
  20              		.p2align 4,,15
  21              		.thumb
  22              		.thumb_func
  23              		.type	thd3_execute, %function
  24              	thd3_execute:
  25              	.LFB3:
  26              		.file 1 "../../../test/testthd.c"
  27              		.loc 1 130 0
  28              		.cfi_startproc
  29              		@ args = 0, pretend = 0, frame = 0
  30              		@ frame_needed = 0, uses_anonymous_args = 0
  31 0000 F8B5     		push	{r3, r4, r5, r6, r7, lr}
  32              	.LCFI0:
  33              		.cfi_def_cfa_offset 24
  34              		.cfi_offset 14, -4
  35              		.cfi_offset 7, -8
  36              		.cfi_offset 6, -12
  37              		.cfi_offset 5, -16
  38              		.cfi_offset 4, -20
  39              		.cfi_offset 3, -24
  40              		.loc 1 133 0
  41 0002 40F20004 		movw	r4, #:lower16:rlist
  42 0006 C0F20004 		movt	r4, #:upper16:rlist
  43 000a A369     		ldr	r3, [r4, #24]
  44 000c 9D68     		ldr	r5, [r3, #8]
  45              	.LVL0:
  46              		.loc 1 134 0
  47 000e 6E1C     		adds	r6, r5, #1
  48 0010 3046     		mov	r0, r6
  49 0012 FFF7FEFF 		bl	chThdSetPriority
  50              	.LVL1:
  51              		.loc 1 135 0
  52 0016 421B     		subs	r2, r0, r5
  53 0018 5142     		rsbs	r1, r2, #0
  54 001a 41EB0201 		adc	r1, r1, r2
  55              		.loc 1 134 0
  56 001e 0746     		mov	r7, r0
  57              	.LVL2:
ARM GAS  /tmp/ccaRLdGA.s 			page 2


  58              		.loc 1 135 0
  59 0020 0120     		movs	r0, #1
  60              	.LVL3:
  61 0022 FFF7FEFF 		bl	_test_assert
  62 0026 00B1     		cbz	r0, .L4
  63              	.LVL4:
  64              	.L1:
  65 0028 F8BD     		pop	{r3, r4, r5, r6, r7, pc}
  66              	.LVL5:
  67              	.L4:
  68              		.loc 1 137 0
  69 002a A069     		ldr	r0, [r4, #24]
  70 002c 8268     		ldr	r2, [r0, #8]
  71 002e B11A     		subs	r1, r6, r2
  72 0030 0220     		movs	r0, #2
  73 0032 D1F1000C 		rsbs	ip, r1, #0
  74 0036 4CEB0101 		adc	r1, ip, r1
  75 003a FFF7FEFF 		bl	_test_assert
  76 003e 0028     		cmp	r0, #0
  77 0040 F2D1     		bne	.L1
  78              		.loc 1 139 0
  79 0042 3846     		mov	r0, r7
  80 0044 FFF7FEFF 		bl	chThdSetPriority
  81              	.LVL6:
  82              		.loc 1 140 0
  83 0048 311A     		subs	r1, r6, r0
  84 004a 4B42     		rsbs	r3, r1, #0
  85 004c 43EB0101 		adc	r1, r3, r1
  86 0050 0320     		movs	r0, #3
  87              	.LVL7:
  88 0052 FFF7FEFF 		bl	_test_assert
  89 0056 0028     		cmp	r0, #0
  90 0058 E6D1     		bne	.L1
  91              		.loc 1 142 0
  92 005a A069     		ldr	r0, [r4, #24]
  93 005c 8168     		ldr	r1, [r0, #8]
  94 005e 4B1B     		subs	r3, r1, r5
  95 0060 0420     		movs	r0, #4
  96 0062 5A42     		rsbs	r2, r3, #0
  97 0064 42EB0301 		adc	r1, r2, r3
  98 0068 FFF7FEFF 		bl	_test_assert
  99 006c 0028     		cmp	r0, #0
 100 006e DBD1     		bne	.L1
 101              		.loc 1 147 0
 102              	@ 147 "../../../test/testthd.c" 1
 103 0070 FFF7FEFF 		bl      _port_lock
 104              	@ 0 "" 2
 105              		.thumb
 106 0074 FFF7FEFF 		bl	dbg_check_lock
 107              		.loc 1 148 0
 108 0078 A069     		ldr	r0, [r4, #24]
 109 007a 8368     		ldr	r3, [r0, #8]
 110 007c 991C     		adds	r1, r3, #2
 111 007e 8160     		str	r1, [r0, #8]
 112              		.loc 1 149 0
 113 0080 FFF7FEFF 		bl	dbg_check_unlock
 114              	@ 149 "../../../test/testthd.c" 1
ARM GAS  /tmp/ccaRLdGA.s 			page 3


 115 0084 FFF7FEFF 		bl      _port_unlock
 116              	@ 0 "" 2
 117              		.loc 1 150 0
 118              		.thumb
 119 0088 A769     		ldr	r7, [r4, #24]
 120 008a BA68     		ldr	r2, [r7, #8]
 121 008c AF1C     		adds	r7, r5, #2
 122 008e C7EB020E 		rsb	lr, r7, r2
 123 0092 0520     		movs	r0, #5
 124 0094 DEF10003 		rsbs	r3, lr, #0
 125 0098 43EB0E01 		adc	r1, r3, lr
 126 009c FFF7FEFF 		bl	_test_assert
 127 00a0 0028     		cmp	r0, #0
 128 00a2 C1D1     		bne	.L1
 129              		.loc 1 154 0
 130 00a4 3046     		mov	r0, r6
 131 00a6 FFF7FEFF 		bl	chThdSetPriority
 132              	.LVL8:
 133              		.loc 1 155 0
 134 00aa 411B     		subs	r1, r0, r5
 135 00ac 4A42     		rsbs	r2, r1, #0
 136 00ae 42EB0101 		adc	r1, r2, r1
 137 00b2 0620     		movs	r0, #6
 138              	.LVL9:
 139 00b4 FFF7FEFF 		bl	_test_assert
 140 00b8 0028     		cmp	r0, #0
 141 00ba B5D1     		bne	.L1
 142              		.loc 1 157 0
 143 00bc A069     		ldr	r0, [r4, #24]
 144 00be 8168     		ldr	r1, [r0, #8]
 145 00c0 7A1A     		subs	r2, r7, r1
 146 00c2 0720     		movs	r0, #7
 147 00c4 5342     		rsbs	r3, r2, #0
 148 00c6 43EB0201 		adc	r1, r3, r2
 149 00ca FFF7FEFF 		bl	_test_assert
 150 00ce 0028     		cmp	r0, #0
 151 00d0 AAD1     		bne	.L1
 152              		.loc 1 159 0
 153 00d2 A069     		ldr	r0, [r4, #24]
 154 00d4 416C     		ldr	r1, [r0, #68]
 155 00d6 721A     		subs	r2, r6, r1
 156 00d8 0820     		movs	r0, #8
 157 00da 5342     		rsbs	r3, r2, #0
 158 00dc 43EB0201 		adc	r1, r3, r2
 159 00e0 FFF7FEFF 		bl	_test_assert
 160 00e4 0028     		cmp	r0, #0
 161 00e6 9FD1     		bne	.L1
 162              		.loc 1 163 0
 163 00e8 EF1C     		adds	r7, r5, #3
 164 00ea 3846     		mov	r0, r7
 165 00ec FFF7FEFF 		bl	chThdSetPriority
 166              	.LVL10:
 167              		.loc 1 164 0
 168 00f0 321A     		subs	r2, r6, r0
 169 00f2 5342     		rsbs	r3, r2, #0
 170 00f4 43EB0201 		adc	r1, r3, r2
 171 00f8 0920     		movs	r0, #9
ARM GAS  /tmp/ccaRLdGA.s 			page 4


 172              	.LVL11:
 173 00fa FFF7FEFF 		bl	_test_assert
 174 00fe 0028     		cmp	r0, #0
 175 0100 92D1     		bne	.L1
 176              		.loc 1 166 0
 177 0102 A069     		ldr	r0, [r4, #24]
 178 0104 8368     		ldr	r3, [r0, #8]
 179 0106 F91A     		subs	r1, r7, r3
 180 0108 0A20     		movs	r0, #10
 181 010a D1F1000C 		rsbs	ip, r1, #0
 182 010e 4CEB0101 		adc	r1, ip, r1
 183 0112 FFF7FEFF 		bl	_test_assert
 184 0116 0028     		cmp	r0, #0
 185 0118 86D1     		bne	.L1
 186              		.loc 1 168 0
 187 011a A469     		ldr	r4, [r4, #24]
 188 011c 636C     		ldr	r3, [r4, #68]
 189 011e F91A     		subs	r1, r7, r3
 190 0120 0B20     		movs	r0, #11
 191 0122 4A42     		rsbs	r2, r1, #0
 192 0124 40F20004 		movw	r4, #:lower16:rlist
 193 0128 42EB0101 		adc	r1, r2, r1
 194 012c C0F20004 		movt	r4, #:upper16:rlist
 195 0130 FFF7FEFF 		bl	_test_assert
 196 0134 0028     		cmp	r0, #0
 197 0136 7FF477AF 		bne	.L1
 198              		.loc 1 171 0
 199              	@ 171 "../../../test/testthd.c" 1
 200 013a FFF7FEFF 		bl      _port_lock
 201              	@ 0 "" 2
 202              		.thumb
 203 013e FFF7FEFF 		bl	dbg_check_lock
 204              		.loc 1 172 0
 205 0142 A069     		ldr	r0, [r4, #24]
 206 0144 8560     		str	r5, [r0, #8]
 207              		.loc 1 173 0
 208 0146 4564     		str	r5, [r0, #68]
 209              		.loc 1 174 0
 210 0148 FFF7FEFF 		bl	dbg_check_unlock
 211              	@ 174 "../../../test/testthd.c" 1
 212 014c FFF7FEFF 		bl      _port_unlock
 213              	@ 0 "" 2
 214              		.thumb
 215 0150 6AE7     		b	.L1
 216              		.cfi_endproc
 217              	.LFE3:
 218              		.size	thd3_execute, .-thd3_execute
 219 0152 00BFAFF3 		.section	.text.thd2_execute,"ax",%progbits
 219      0080AFF3 
 219      0080AFF3 
 219      0080
 220              		.align	2
 221              		.p2align 4,,15
 222              		.thumb
 223              		.thumb_func
 224              		.type	thd2_execute, %function
 225              	thd2_execute:
ARM GAS  /tmp/ccaRLdGA.s 			page 5


 226              	.LFB2:
 227              		.loc 1 98 0
 228              		.cfi_startproc
 229              		@ args = 0, pretend = 0, frame = 0
 230              		@ frame_needed = 0, uses_anonymous_args = 0
 231 0000 F0B5     		push	{r4, r5, r6, r7, lr}
 232              	.LCFI1:
 233              		.cfi_def_cfa_offset 20
 234              		.cfi_offset 14, -4
 235              		.cfi_offset 7, -8
 236              		.cfi_offset 6, -12
 237              		.cfi_offset 5, -16
 238              		.cfi_offset 4, -20
 239              		.loc 1 100 0
 240 0002 40F20007 		movw	r7, #:lower16:rlist
 241 0006 C0F20007 		movt	r7, #:upper16:rlist
 242 000a 40F20006 		movw	r6, #:lower16:wa
 243 000e BD69     		ldr	r5, [r7, #24]
 244 0010 C0F20006 		movt	r6, #:upper16:wa
 245 0014 AB68     		ldr	r3, [r5, #8]
 246 0016 7068     		ldr	r0, [r6, #4]
 247 0018 40F20005 		movw	r5, #:lower16:thread
 248              		.loc 1 98 0
 249 001c 83B0     		sub	sp, sp, #12
 250              	.LCFI2:
 251              		.cfi_def_cfa_offset 32
 252              		.loc 1 100 0
 253 001e C0F20005 		movt	r5, #:upper16:thread
 254 0022 40F20004 		movw	r4, #:lower16:.LC0
 255 0026 1A1F     		subs	r2, r3, #4
 256 0028 C0F20004 		movt	r4, #:upper16:.LC0
 257 002c 2B46     		mov	r3, r5
 258 002e 4FF49871 		mov	r1, #304
 259 0032 0094     		str	r4, [sp, #0]
 260 0034 FFF7FEFF 		bl	chThdCreateStatic
 261              		.loc 1 101 0
 262 0038 BC69     		ldr	r4, [r7, #24]
 263 003a 3168     		ldr	r1, [r6, #0]
 264 003c A268     		ldr	r2, [r4, #8]
 265              		.loc 1 100 0
 266 003e 40F20004 		movw	r4, #:lower16:threads
 267 0042 C0F20004 		movt	r4, #:upper16:threads
 268              		.loc 1 101 0
 269 0046 40F2000E 		movw	lr, #:lower16:.LC1
 270              		.loc 1 100 0
 271 004a 6060     		str	r0, [r4, #4]
 272              		.loc 1 101 0
 273 004c C0F2000E 		movt	lr, #:upper16:.LC1
 274 0050 053A     		subs	r2, r2, #5
 275 0052 2B46     		mov	r3, r5
 276 0054 0846     		mov	r0, r1
 277 0056 4FF49871 		mov	r1, #304
 278 005a CDF800E0 		str	lr, [sp, #0]
 279 005e FFF7FEFF 		bl	chThdCreateStatic
 280              		.loc 1 102 0
 281 0062 BB69     		ldr	r3, [r7, #24]
 282 0064 3169     		ldr	r1, [r6, #16]
ARM GAS  /tmp/ccaRLdGA.s 			page 6


 283 0066 9A68     		ldr	r2, [r3, #8]
 284              		.loc 1 101 0
 285 0068 2060     		str	r0, [r4, #0]
 286              		.loc 1 102 0
 287 006a 40F2000C 		movw	ip, #:lower16:.LC2
 288 006e C0F2000C 		movt	ip, #:upper16:.LC2
 289 0072 013A     		subs	r2, r2, #1
 290 0074 2B46     		mov	r3, r5
 291 0076 0846     		mov	r0, r1
 292 0078 4FF49871 		mov	r1, #304
 293 007c CDF800C0 		str	ip, [sp, #0]
 294 0080 FFF7FEFF 		bl	chThdCreateStatic
 295              		.loc 1 103 0
 296 0084 BB69     		ldr	r3, [r7, #24]
 297 0086 F168     		ldr	r1, [r6, #12]
 298 0088 9A68     		ldr	r2, [r3, #8]
 299              		.loc 1 102 0
 300 008a 2061     		str	r0, [r4, #16]
 301              		.loc 1 103 0
 302 008c 40F2000E 		movw	lr, #:lower16:.LC3
 303 0090 C0F2000E 		movt	lr, #:upper16:.LC3
 304 0094 0846     		mov	r0, r1
 305 0096 023A     		subs	r2, r2, #2
 306 0098 4FF49871 		mov	r1, #304
 307 009c 2B46     		mov	r3, r5
 308 009e CDF800E0 		str	lr, [sp, #0]
 309 00a2 FFF7FEFF 		bl	chThdCreateStatic
 310 00a6 E060     		str	r0, [r4, #12]
 311              		.loc 1 105 0
 312              	@ 105 "../../../test/testthd.c" 1
 313 00a8 FFF7FEFF 		bl      _port_lock
 314              	@ 0 "" 2
 315              		.thumb
 316 00ac FFF7FEFF 		bl	dbg_check_lock
 317              		.loc 1 106 0
 318 00b0 BB69     		ldr	r3, [r7, #24]
 319 00b2 B068     		ldr	r0, [r6, #8]
 320 00b4 9A68     		ldr	r2, [r3, #8]
 321 00b6 40F20006 		movw	r6, #:lower16:.LC4
 322 00ba 4FF49871 		mov	r1, #304
 323 00be 033A     		subs	r2, r2, #3
 324 00c0 2B46     		mov	r3, r5
 325 00c2 C0F20006 		movt	r6, #:upper16:.LC4
 326 00c6 0096     		str	r6, [sp, #0]
 327 00c8 FFF7FEFF 		bl	chThdCreateI
 328 00cc A060     		str	r0, [r4, #8]
 329              		.loc 1 107 0
 330 00ce FFF7FEFF 		bl	dbg_check_unlock
 331              	@ 107 "../../../test/testthd.c" 1
 332 00d2 FFF7FEFF 		bl      _port_unlock
 333              	@ 0 "" 2
 334              		.loc 1 108 0
 335              		.thumb
 336 00d6 A068     		ldr	r0, [r4, #8]
 337 00d8 FFF7FEFF 		bl	chThdResume
 338              		.loc 1 109 0
 339 00dc FFF7FEFF 		bl	test_wait_threads
ARM GAS  /tmp/ccaRLdGA.s 			page 7


 340              		.loc 1 110 0
 341 00e0 40F20001 		movw	r1, #:lower16:.LC5
 342 00e4 0120     		movs	r0, #1
 343 00e6 C0F20001 		movt	r1, #:upper16:.LC5
 344              		.loc 1 111 0
 345 00ea 03B0     		add	sp, sp, #12
 346 00ec BDE8F040 		pop	{r4, r5, r6, r7, lr}
 347              		.loc 1 110 0
 348 00f0 FFF7FEBF 		b	_test_assert_sequence
 349              		.cfi_endproc
 350              	.LFE2:
 351              		.size	thd2_execute, .-thd2_execute
 352 00f4 AFF30080 		.section	.text.thd1_execute,"ax",%progbits
 352      AFF30080 
 352      AFF30080 
 353              		.align	2
 354              		.p2align 4,,15
 355              		.thumb
 356              		.thumb_func
 357              		.type	thd1_execute, %function
 358              	thd1_execute:
 359              	.LFB1:
 360              		.loc 1 70 0
 361              		.cfi_startproc
 362              		@ args = 0, pretend = 0, frame = 0
 363              		@ frame_needed = 0, uses_anonymous_args = 0
 364 0000 F0B5     		push	{r4, r5, r6, r7, lr}
 365              	.LCFI3:
 366              		.cfi_def_cfa_offset 20
 367              		.cfi_offset 14, -4
 368              		.cfi_offset 7, -8
 369              		.cfi_offset 6, -12
 370              		.cfi_offset 5, -16
 371              		.cfi_offset 4, -20
 372              		.loc 1 72 0
 373 0002 40F20007 		movw	r7, #:lower16:rlist
 374 0006 C0F20007 		movt	r7, #:upper16:rlist
 375 000a 40F20006 		movw	r6, #:lower16:wa
 376 000e BD69     		ldr	r5, [r7, #24]
 377 0010 C0F20006 		movt	r6, #:upper16:wa
 378 0014 AA68     		ldr	r2, [r5, #8]
 379 0016 3068     		ldr	r0, [r6, #0]
 380 0018 40F20005 		movw	r5, #:lower16:thread
 381              		.loc 1 70 0
 382 001c 83B0     		sub	sp, sp, #12
 383              	.LCFI4:
 384              		.cfi_def_cfa_offset 32
 385              		.loc 1 72 0
 386 001e C0F20005 		movt	r5, #:upper16:thread
 387 0022 40F20004 		movw	r4, #:lower16:.LC1
 388 0026 053A     		subs	r2, r2, #5
 389 0028 2B46     		mov	r3, r5
 390 002a C0F20004 		movt	r4, #:upper16:.LC1
 391 002e 4FF49871 		mov	r1, #304
 392 0032 0094     		str	r4, [sp, #0]
 393 0034 FFF7FEFF 		bl	chThdCreateStatic
 394              		.loc 1 73 0
ARM GAS  /tmp/ccaRLdGA.s 			page 8


 395 0038 BC69     		ldr	r4, [r7, #24]
 396 003a D6F804C0 		ldr	ip, [r6, #4]
 397 003e A368     		ldr	r3, [r4, #8]
 398              		.loc 1 72 0
 399 0040 40F20004 		movw	r4, #:lower16:threads
 400 0044 C0F20004 		movt	r4, #:upper16:threads
 401              		.loc 1 73 0
 402 0048 40F2000E 		movw	lr, #:lower16:.LC0
 403              		.loc 1 72 0
 404 004c 2060     		str	r0, [r4, #0]
 405              		.loc 1 73 0
 406 004e 1A1F     		subs	r2, r3, #4
 407 0050 C0F2000E 		movt	lr, #:upper16:.LC0
 408 0054 2B46     		mov	r3, r5
 409 0056 4FF49871 		mov	r1, #304
 410 005a 6046     		mov	r0, ip
 411 005c CDF800E0 		str	lr, [sp, #0]
 412 0060 FFF7FEFF 		bl	chThdCreateStatic
 413              		.loc 1 74 0
 414 0064 BA69     		ldr	r2, [r7, #24]
 415 0066 D6F808C0 		ldr	ip, [r6, #8]
 416 006a 9368     		ldr	r3, [r2, #8]
 417              		.loc 1 73 0
 418 006c 6060     		str	r0, [r4, #4]
 419              		.loc 1 74 0
 420 006e 40F2000E 		movw	lr, #:lower16:.LC4
 421 0072 DA1E     		subs	r2, r3, #3
 422 0074 C0F2000E 		movt	lr, #:upper16:.LC4
 423 0078 2B46     		mov	r3, r5
 424 007a 4FF49871 		mov	r1, #304
 425 007e 6046     		mov	r0, ip
 426 0080 CDF800E0 		str	lr, [sp, #0]
 427 0084 FFF7FEFF 		bl	chThdCreateStatic
 428              		.loc 1 75 0
 429 0088 B969     		ldr	r1, [r7, #24]
 430 008a D6F80CC0 		ldr	ip, [r6, #12]
 431 008e 8A68     		ldr	r2, [r1, #8]
 432              		.loc 1 74 0
 433 0090 A060     		str	r0, [r4, #8]
 434              		.loc 1 75 0
 435 0092 40F2000E 		movw	lr, #:lower16:.LC3
 436 0096 C0F2000E 		movt	lr, #:upper16:.LC3
 437 009a 6046     		mov	r0, ip
 438 009c 023A     		subs	r2, r2, #2
 439 009e 2B46     		mov	r3, r5
 440 00a0 4FF49871 		mov	r1, #304
 441 00a4 CDF800E0 		str	lr, [sp, #0]
 442 00a8 FFF7FEFF 		bl	chThdCreateStatic
 443              		.loc 1 76 0
 444 00ac BB69     		ldr	r3, [r7, #24]
 445 00ae 3769     		ldr	r7, [r6, #16]
 446 00b0 9A68     		ldr	r2, [r3, #8]
 447              		.loc 1 75 0
 448 00b2 E060     		str	r0, [r4, #12]
 449              		.loc 1 76 0
 450 00b4 40F20006 		movw	r6, #:lower16:.LC2
 451 00b8 4FF49871 		mov	r1, #304
ARM GAS  /tmp/ccaRLdGA.s 			page 9


 452 00bc 013A     		subs	r2, r2, #1
 453 00be 2B46     		mov	r3, r5
 454 00c0 C0F20006 		movt	r6, #:upper16:.LC2
 455 00c4 3846     		mov	r0, r7
 456 00c6 0096     		str	r6, [sp, #0]
 457 00c8 FFF7FEFF 		bl	chThdCreateStatic
 458 00cc 2061     		str	r0, [r4, #16]
 459              		.loc 1 77 0
 460 00ce FFF7FEFF 		bl	test_wait_threads
 461              		.loc 1 78 0
 462 00d2 40F20001 		movw	r1, #:lower16:.LC5
 463 00d6 0120     		movs	r0, #1
 464 00d8 C0F20001 		movt	r1, #:upper16:.LC5
 465              		.loc 1 79 0
 466 00dc 03B0     		add	sp, sp, #12
 467 00de BDE8F040 		pop	{r4, r5, r6, r7, lr}
 468              		.loc 1 78 0
 469 00e2 FFF7FEBF 		b	_test_assert_sequence
 470              		.cfi_endproc
 471              	.LFE1:
 472              		.size	thd1_execute, .-thd1_execute
 473 00e6 00BFAFF3 		.section	.text.thread,"ax",%progbits
 473      0080AFF3 
 473      0080
 474              		.align	2
 475              		.p2align 4,,15
 476              		.thumb
 477              		.thumb_func
 478              		.type	thread, %function
 479              	thread:
 480              	.LFB0:
 481              		.loc 1 64 0
 482              		.cfi_startproc
 483              		@ args = 0, pretend = 0, frame = 0
 484              		@ frame_needed = 0, uses_anonymous_args = 0
 485              	.LVL12:
 486 0000 08B5     		push	{r3, lr}
 487              	.LCFI5:
 488              		.cfi_def_cfa_offset 8
 489              		.cfi_offset 14, -4
 490              		.cfi_offset 3, -8
 491              		.loc 1 66 0
 492 0002 0078     		ldrb	r0, [r0, #0]	@ zero_extendqisi2
 493              	.LVL13:
 494 0004 FFF7FEFF 		bl	test_emit_token
 495              		.loc 1 68 0
 496 0008 0020     		movs	r0, #0
 497 000a 08BD     		pop	{r3, pc}
 498              		.cfi_endproc
 499              	.LFE0:
 500              		.size	thread, .-thread
 501 000c AFF30080 		.section	.text.thd4_execute,"ax",%progbits
 502              		.align	2
 503              		.p2align 4,,15
 504              		.thumb
 505              		.thumb_func
 506              		.type	thd4_execute, %function
ARM GAS  /tmp/ccaRLdGA.s 			page 10


 507              	thd4_execute:
 508              	.LFB4:
 509              		.loc 1 193 0
 510              		.cfi_startproc
 511              		@ args = 0, pretend = 0, frame = 0
 512              		@ frame_needed = 0, uses_anonymous_args = 0
 513 0000 38B5     		push	{r3, r4, r5, lr}
 514              	.LCFI6:
 515              		.cfi_def_cfa_offset 16
 516              		.cfi_offset 14, -4
 517              		.cfi_offset 5, -8
 518              		.cfi_offset 4, -12
 519              		.cfi_offset 3, -16
 520              		.loc 1 199 0
 521 0002 40F20004 		movw	r4, #:lower16:vtlist
 522 0006 C0F20004 		movt	r4, #:upper16:vtlist
 523              		.loc 1 196 0
 524 000a FFF7FEFF 		bl	test_wait_tick
 525              		.loc 1 199 0
 526 000e E568     		ldr	r5, [r4, #12]
 527              	.LVL14:
 528              		.loc 1 200 0
 529 0010 6420     		movs	r0, #100
 530 0012 FFF7FEFF 		bl	chThdSleep
 531              		.loc 1 201 0
 532 0016 0120     		movs	r0, #1
 533 0018 05F16401 		add	r1, r5, #100
 534 001c 05F16502 		add	r2, r5, #101
 535 0020 FFF7FEFF 		bl	_test_assert_time_window
 536 0024 00B1     		cbz	r0, .L10
 537              	.LVL15:
 538              	.L8:
 539 0026 38BD     		pop	{r3, r4, r5, pc}
 540              	.LVL16:
 541              	.L10:
 542              		.loc 1 204 0
 543 0028 E568     		ldr	r5, [r4, #12]
 544              	.LVL17:
 545              		.loc 1 205 0
 546 002a 6420     		movs	r0, #100
 547 002c FFF7FEFF 		bl	chThdSleep
 548              		.loc 1 206 0
 549 0030 0220     		movs	r0, #2
 550 0032 05F16401 		add	r1, r5, #100
 551 0036 05F16502 		add	r2, r5, #101
 552 003a FFF7FEFF 		bl	_test_assert_time_window
 553 003e 0028     		cmp	r0, #0
 554 0040 F1D1     		bne	.L8
 555              	.LBB4:
 556              	.LBB5:
 557              		.loc 1 209 0
 558 0042 E568     		ldr	r5, [r4, #12]
 559              	.LVL18:
 560              		.loc 1 210 0
 561 0044 4FF47A70 		mov	r0, #1000
 562 0048 FFF7FEFF 		bl	chThdSleep
 563              		.loc 1 211 0
ARM GAS  /tmp/ccaRLdGA.s 			page 11


 564 004c 05F57A71 		add	r1, r5, #1000
 565 0050 0320     		movs	r0, #3
 566 0052 4A1C     		adds	r2, r1, #1
 567 0054 FFF7FEFF 		bl	_test_assert_time_window
 568 0058 0028     		cmp	r0, #0
 569 005a E4D1     		bne	.L8
 570              		.loc 1 214 0
 571 005c E468     		ldr	r4, [r4, #12]
 572 005e 04F16405 		add	r5, r4, #100
 573              	.LVL19:
 574              		.loc 1 215 0
 575 0062 2846     		mov	r0, r5
 576 0064 FFF7FEFF 		bl	chThdSleepUntil
 577              		.loc 1 216 0
 578 0068 0420     		movs	r0, #4
 579 006a 2946     		mov	r1, r5
 580 006c 04F16502 		add	r2, r4, #101
 581              	.LBE5:
 582              	.LBE4:
 583              		.loc 1 217 0
 584 0070 BDE83840 		pop	{r3, r4, r5, lr}
 585              	.LBB7:
 586              	.LBB6:
 587              		.loc 1 216 0
 588 0074 FFF7FEBF 		b	_test_assert_time_window
 589              	.LBE6:
 590              	.LBE7:
 591              		.cfi_endproc
 592              	.LFE4:
 593              		.size	thd4_execute, .-thd4_execute
 594              		.global	patternthd
 595              		.global	testthd4
 596              		.global	testthd3
 597              		.global	testthd2
 598              		.global	testthd1
 599 0078 AFF30080 		.section	.rodata.testthd1,"a",%progbits
 599      AFF30080 
 600              		.align	2
 601              		.type	testthd1, %object
 602              		.size	testthd1, 16
 603              	testthd1:
 604 0000 64000000 		.word	.LC9
 605 0004 00000000 		.word	0
 606 0008 00000000 		.word	0
 607 000c 00000000 		.word	thd1_execute
 608              		.section	.rodata.testthd2,"a",%progbits
 609              		.align	2
 610              		.type	testthd2, %object
 611              		.size	testthd2, 16
 612              	testthd2:
 613 0000 48000000 		.word	.LC8
 614 0004 00000000 		.word	0
 615 0008 00000000 		.word	0
 616 000c 00000000 		.word	thd2_execute
 617              		.section	.rodata.testthd3,"a",%progbits
 618              		.align	2
 619              		.type	testthd3, %object
ARM GAS  /tmp/ccaRLdGA.s 			page 12


 620              		.size	testthd3, 16
 621              	testthd3:
 622 0000 2C000000 		.word	.LC7
 623 0004 00000000 		.word	0
 624 0008 00000000 		.word	0
 625 000c 00000000 		.word	thd3_execute
 626              		.section	.rodata.testthd4,"a",%progbits
 627              		.align	2
 628              		.type	testthd4, %object
 629              		.size	testthd4, 16
 630              	testthd4:
 631 0000 1C000000 		.word	.LC6
 632 0004 00000000 		.word	0
 633 0008 00000000 		.word	0
 634 000c 00000000 		.word	thd4_execute
 635              		.section	.rodata.patternthd,"a",%progbits
 636              		.align	2
 637              		.type	patternthd, %object
 638              		.size	patternthd, 20
 639              	patternthd:
 640 0000 00000000 		.word	testthd1
 641 0004 00000000 		.word	testthd2
 642 0008 00000000 		.word	testthd3
 643 000c 00000000 		.word	testthd4
 644 0010 00000000 		.word	0
 645              		.section	.rodata.str1.4,"aMS",%progbits,1
 646              		.align	2
 647              	.LC0:
 648 0000 4400     		.ascii	"D\000"
 649 0002 0000     		.space	2
 650              	.LC1:
 651 0004 4500     		.ascii	"E\000"
 652 0006 0000     		.space	2
 653              	.LC2:
 654 0008 4100     		.ascii	"A\000"
 655 000a 0000     		.space	2
 656              	.LC3:
 657 000c 4200     		.ascii	"B\000"
 658 000e 0000     		.space	2
 659              	.LC4:
 660 0010 4300     		.ascii	"C\000"
 661 0012 0000     		.space	2
 662              	.LC5:
 663 0014 41424344 		.ascii	"ABCDE\000"
 663      4500
 664 001a 0000     		.space	2
 665              	.LC6:
 666 001c 54687265 		.ascii	"Threads, delays\000"
 666      6164732C 
 666      2064656C 
 666      61797300 
 667              	.LC7:
 668 002c 54687265 		.ascii	"Threads, priority change\000"
 668      6164732C 
 668      20707269 
 668      6F726974 
 668      79206368 
ARM GAS  /tmp/ccaRLdGA.s 			page 13


 669 0045 000000   		.space	3
 670              	.LC8:
 671 0048 54687265 		.ascii	"Threads, enqueuing test #2\000"
 671      6164732C 
 671      20656E71 
 671      75657569 
 671      6E672074 
 672 0063 00       		.space	1
 673              	.LC9:
 674 0064 54687265 		.ascii	"Threads, enqueuing test #1\000"
 674      6164732C 
 674      20656E71 
 674      75657569 
 674      6E672074 
 675 007f 00       		.text
 676              	.Letext0:
 677              		.file 2 "/home/prana/CodeSourcery/ARM_EABI/bin/../lib/gcc/arm-none-eabi/4.6.3/../../../../arm-none
 678              		.file 3 "../../../os/ports/GCC/ARMCMx/chtypes.h"
 679              		.file 4 "../../../os/kernel/include/chlists.h"
 680              		.file 5 "../../../os/kernel/include/chthreads.h"
 681              		.file 6 "../../../os/ports/GCC/ARMCMx/chcore_v7m.h"
 682              		.file 7 "../../../os/kernel/include/chvt.h"
 683              		.file 8 "../../../os/kernel/include/chschd.h"
 684              		.file 9 "../../../os/kernel/include/chmtx.h"
 685              		.file 10 "../../../test/test.h"