ARM GAS  /tmp/ccBOv0DC.s 			page 1


   1              		.syntax unified
   2              		.cpu cortex-m4
   3              		.fpu softvfp
   4              		.eabi_attribute 20, 1
   5              		.eabi_attribute 21, 1
   6              		.eabi_attribute 23, 3
   7              		.eabi_attribute 24, 1
   8              		.eabi_attribute 25, 1
   9              		.eabi_attribute 26, 1
  10              		.eabi_attribute 30, 2
  11              		.eabi_attribute 34, 1
  12              		.eabi_attribute 18, 4
  13              		.thumb
  14              		.file	"testqueues.c"
  15              		.text
  16              	.Ltext0:
  17              		.cfi_sections	.debug_frame
  18              		.section	.text.notify,"ax",%progbits
  19              		.align	2
  20              		.p2align 4,,15
  21              		.thumb
  22              		.thumb_func
  23              		.type	notify, %function
  24              	notify:
  25              	.LFB0:
  26              		.file 1 "../../../test/testqueues.c"
  27              		.loc 1 61 0
  28              		.cfi_startproc
  29              		@ args = 0, pretend = 0, frame = 0
  30              		@ frame_needed = 0, uses_anonymous_args = 0
  31              		@ link register save eliminated.
  32              	.LVL0:
  33              		.loc 1 63 0
  34 0000 7047     		bx	lr
  35              		.cfi_endproc
  36              	.LFE0:
  37              		.size	notify, .-notify
  38 0002 00BFAFF3 		.section	.text.thread2,"ax",%progbits
  38      0080AFF3 
  38      0080AFF3 
  38      0080
  39              		.align	2
  40              		.p2align 4,,15
  41              		.thumb
  42              		.thumb_func
  43              		.type	thread2, %function
  44              	thread2:
  45              	.LFB5:
  46              		.loc 1 174 0
  47              		.cfi_startproc
  48              		@ args = 0, pretend = 0, frame = 0
  49              		@ frame_needed = 0, uses_anonymous_args = 0
  50              	.LVL1:
  51              		.loc 1 177 0
  52 0000 40F20000 		movw	r0, #:lower16:.LANCHOR0
  53              	.LVL2:
  54              		.loc 1 174 0
ARM GAS  /tmp/ccBOv0DC.s 			page 2


  55 0004 08B5     		push	{r3, lr}
  56              	.LCFI0:
  57              		.cfi_def_cfa_offset 8
  58              		.cfi_offset 14, -4
  59              		.cfi_offset 3, -8
  60              		.loc 1 177 0
  61 0006 0021     		movs	r1, #0
  62 0008 C822     		movs	r2, #200
  63 000a C0F20000 		movt	r0, #:upper16:.LANCHOR0
  64 000e FFF7FEFF 		bl	chOQPutTimeout
  65              		.loc 1 179 0
  66 0012 0020     		movs	r0, #0
  67 0014 08BD     		pop	{r3, pc}
  68              		.cfi_endproc
  69              	.LFE5:
  70              		.size	thread2, .-thread2
  71 0016 00BFAFF3 		.section	.text.queues2_setup,"ax",%progbits
  71      0080AFF3 
  71      0080
  72              		.align	2
  73              		.p2align 4,,15
  74              		.thumb
  75              		.thumb_func
  76              		.type	queues2_setup, %function
  77              	queues2_setup:
  78              	.LFB4:
  79              		.loc 1 169 0
  80              		.cfi_startproc
  81              		@ args = 0, pretend = 0, frame = 0
  82              		@ frame_needed = 0, uses_anonymous_args = 0
  83 0000 10B5     		push	{r4, lr}
  84              	.LCFI1:
  85              		.cfi_def_cfa_offset 8
  86              		.cfi_offset 14, -4
  87              		.cfi_offset 4, -8
  88              		.loc 1 171 0
  89 0002 40F20003 		movw	r3, #:lower16:wa
  90 0006 C0F20003 		movt	r3, #:upper16:wa
  91              		.loc 1 169 0
  92 000a 82B0     		sub	sp, sp, #8
  93              	.LCFI2:
  94              		.cfi_def_cfa_offset 16
  95              		.loc 1 171 0
  96 000c 1968     		ldr	r1, [r3, #0]
  97 000e 40F20000 		movw	r0, #:lower16:.LANCHOR0
  98 0012 40F20003 		movw	r3, #:lower16:notify
  99 0016 0024     		movs	r4, #0
 100 0018 C0F20000 		movt	r0, #:upper16:.LANCHOR0
 101 001c 0422     		movs	r2, #4
 102 001e C0F20003 		movt	r3, #:upper16:notify
 103 0022 0094     		str	r4, [sp, #0]
 104 0024 FFF7FEFF 		bl	chOQInit
 105              		.loc 1 172 0
 106 0028 02B0     		add	sp, sp, #8
 107 002a 10BD     		pop	{r4, pc}
 108              		.cfi_endproc
 109              	.LFE4:
ARM GAS  /tmp/ccBOv0DC.s 			page 3


 110              		.size	queues2_setup, .-queues2_setup
 111 002c AFF30080 		.section	.text.thread1,"ax",%progbits
 112              		.align	2
 113              		.p2align 4,,15
 114              		.thumb
 115              		.thumb_func
 116              		.type	thread1, %function
 117              	thread1:
 118              	.LFB2:
 119              		.loc 1 87 0
 120              		.cfi_startproc
 121              		@ args = 0, pretend = 0, frame = 0
 122              		@ frame_needed = 0, uses_anonymous_args = 0
 123              	.LVL3:
 124              		.loc 1 90 0
 125 0000 40F20000 		movw	r0, #:lower16:.LANCHOR1
 126              	.LVL4:
 127              		.loc 1 87 0
 128 0004 08B5     		push	{r3, lr}
 129              	.LCFI3:
 130              		.cfi_def_cfa_offset 8
 131              		.cfi_offset 14, -4
 132              		.cfi_offset 3, -8
 133              		.loc 1 90 0
 134 0006 C821     		movs	r1, #200
 135 0008 C0F20000 		movt	r0, #:upper16:.LANCHOR1
 136 000c FFF7FEFF 		bl	chIQGetTimeout
 137              		.loc 1 92 0
 138 0010 0020     		movs	r0, #0
 139 0012 08BD     		pop	{r3, pc}
 140              		.cfi_endproc
 141              	.LFE2:
 142              		.size	thread1, .-thread1
 143 0014 AFF30080 		.section	.text.queues1_setup,"ax",%progbits
 143      AFF30080 
 143      AFF30080 
 144              		.align	2
 145              		.p2align 4,,15
 146              		.thumb
 147              		.thumb_func
 148              		.type	queues1_setup, %function
 149              	queues1_setup:
 150              	.LFB1:
 151              		.loc 1 82 0
 152              		.cfi_startproc
 153              		@ args = 0, pretend = 0, frame = 0
 154              		@ frame_needed = 0, uses_anonymous_args = 0
 155 0000 10B5     		push	{r4, lr}
 156              	.LCFI4:
 157              		.cfi_def_cfa_offset 8
 158              		.cfi_offset 14, -4
 159              		.cfi_offset 4, -8
 160              		.loc 1 84 0
 161 0002 40F20003 		movw	r3, #:lower16:wa
 162 0006 C0F20003 		movt	r3, #:upper16:wa
 163              		.loc 1 82 0
 164 000a 82B0     		sub	sp, sp, #8
ARM GAS  /tmp/ccBOv0DC.s 			page 4


 165              	.LCFI5:
 166              		.cfi_def_cfa_offset 16
 167              		.loc 1 84 0
 168 000c 1968     		ldr	r1, [r3, #0]
 169 000e 40F20000 		movw	r0, #:lower16:.LANCHOR1
 170 0012 40F20003 		movw	r3, #:lower16:notify
 171 0016 0024     		movs	r4, #0
 172 0018 C0F20000 		movt	r0, #:upper16:.LANCHOR1
 173 001c 0422     		movs	r2, #4
 174 001e C0F20003 		movt	r3, #:upper16:notify
 175 0022 0094     		str	r4, [sp, #0]
 176 0024 FFF7FEFF 		bl	chIQInit
 177              		.loc 1 85 0
 178 0028 02B0     		add	sp, sp, #8
 179 002a 10BD     		pop	{r4, pc}
 180              		.cfi_endproc
 181              	.LFE1:
 182              		.size	queues1_setup, .-queues1_setup
 183 002c AFF30080 		.section	.text.queues2_execute,"ax",%progbits
 184              		.align	2
 185              		.p2align 4,,15
 186              		.thumb
 187              		.thumb_func
 188              		.type	queues2_execute, %function
 189              	queues2_execute:
 190              	.LFB6:
 191              		.loc 1 181 0
 192              		.cfi_startproc
 193              		@ args = 0, pretend = 0, frame = 0
 194              		@ frame_needed = 0, uses_anonymous_args = 0
 195 0000 F0B5     		push	{r4, r5, r6, r7, lr}
 196              	.LCFI6:
 197              		.cfi_def_cfa_offset 20
 198              		.cfi_offset 14, -4
 199              		.cfi_offset 7, -8
 200              		.cfi_offset 6, -12
 201              		.cfi_offset 5, -16
 202              		.cfi_offset 4, -20
 203 0002 83B0     		sub	sp, sp, #12
 204              	.LCFI7:
 205              		.cfi_def_cfa_offset 32
 206              		.loc 1 186 0
 207              	@ 186 "../../../test/testqueues.c" 1
 208 0004 FFF7FEFF 		bl      _port_lock
 209              	@ 0 "" 2
 210              		.thumb
 211 0008 40F20005 		movw	r5, #:lower16:.LANCHOR0
 212 000c C0F20005 		movt	r5, #:upper16:.LANCHOR0
 213 0010 FFF7FEFF 		bl	dbg_check_lock
 214 0014 6A69     		ldr	r2, [r5, #20]
 215 0016 AB69     		ldr	r3, [r5, #24]
 216 0018 0021     		movs	r1, #0
 217 001a 9A42     		cmp	r2, r3
 218 001c 00F07681 		beq	.L22
 219              	.L7:
 220              		.loc 1 186 0 is_stmt 0 discriminator 4
 221 0020 0120     		movs	r0, #1
ARM GAS  /tmp/ccBOv0DC.s 			page 5


 222 0022 FFF7FEFF 		bl	_test_assert
 223 0026 0028     		cmp	r0, #0
 224 0028 40F06A81 		bne	.L20
 225              	.LBB6:
 226              	.LBB7:
 227              		.loc 1 186 0
 228 002c FFF7FEFF 		bl	dbg_check_unlock
 229              	@ 186 "../../../test/testqueues.c" 1
 230 0030 FFF7FEFF 		bl      _port_unlock
 231              	@ 0 "" 2
 232              	.LVL5:
 233              		.loc 1 190 0 is_stmt 1
 234              		.thumb
 235 0034 40F20004 		movw	r4, #:lower16:.LANCHOR0
 236 0038 C0F20004 		movt	r4, #:upper16:.LANCHOR0
 237 003c 4121     		movs	r1, #65
 238 003e 2046     		mov	r0, r4
 239 0040 4FF0FF32 		mov	r2, #-1
 240 0044 FFF7FEFF 		bl	chOQPutTimeout
 241              	.LVL6:
 242 0048 4221     		movs	r1, #66
 243 004a 2046     		mov	r0, r4
 244 004c 4FF0FF32 		mov	r2, #-1
 245 0050 FFF7FEFF 		bl	chOQPutTimeout
 246              	.LVL7:
 247 0054 4321     		movs	r1, #67
 248 0056 2046     		mov	r0, r4
 249 0058 4FF0FF32 		mov	r2, #-1
 250 005c FFF7FEFF 		bl	chOQPutTimeout
 251              	.LVL8:
 252 0060 2046     		mov	r0, r4
 253 0062 4421     		movs	r1, #68
 254 0064 4FF0FF32 		mov	r2, #-1
 255 0068 FFF7FEFF 		bl	chOQPutTimeout
 256              	.LVL9:
 257              		.loc 1 191 0
 258              	@ 191 "../../../test/testqueues.c" 1
 259 006c FFF7FEFF 		bl      _port_lock
 260              	@ 0 "" 2
 261              		.thumb
 262 0070 FFF7FEFF 		bl	dbg_check_lock
 263 0074 AD68     		ldr	r5, [r5, #8]
 264 0076 0220     		movs	r0, #2
 265 0078 D5F10101 		rsbs	r1, r5, #1
 266 007c 38BF     		it	cc
 267 007e 0021     		movcc	r1, #0
 268 0080 FFF7FEFF 		bl	_test_assert
 269 0084 0546     		mov	r5, r0
 270 0086 0028     		cmp	r0, #0
 271 0088 40F03A81 		bne	.L20
 272 008c FFF7FEFF 		bl	dbg_check_unlock
 273              	@ 191 "../../../test/testqueues.c" 1
 274 0090 FFF7FEFF 		bl      _port_unlock
 275              	@ 0 "" 2
 276              	.LVL10:
 277              		.thumb
 278              	.LBB8:
ARM GAS  /tmp/ccBOv0DC.s 			page 6


 279              		.loc 1 197 0
 280              	@ 197 "../../../test/testqueues.c" 1
 281 0094 FFF7FEFF 		bl      _port_lock
 282              	@ 0 "" 2
 283              		.thumb
 284 0098 FFF7FEFF 		bl	dbg_check_lock
 285              		.loc 1 198 0
 286 009c 2046     		mov	r0, r4
 287 009e FFF7FEFF 		bl	chOQGetI
 288 00a2 0646     		mov	r6, r0
 289              	.LVL11:
 290              		.loc 1 199 0
 291 00a4 FFF7FEFF 		bl	dbg_check_unlock
 292              	.LVL12:
 293              	@ 199 "../../../test/testqueues.c" 1
 294 00a8 FFF7FEFF 		bl      _port_unlock
 295              	@ 0 "" 2
 296              		.loc 1 200 0
 297              		.thumb
 298 00ac F0B2     		uxtb	r0, r6
 299 00ae FFF7FEFF 		bl	test_emit_token
 300              	.LVL13:
 301              		.loc 1 197 0
 302              	@ 197 "../../../test/testqueues.c" 1
 303 00b2 FFF7FEFF 		bl      _port_lock
 304              	@ 0 "" 2
 305              		.thumb
 306 00b6 FFF7FEFF 		bl	dbg_check_lock
 307              		.loc 1 198 0
 308 00ba 2046     		mov	r0, r4
 309 00bc FFF7FEFF 		bl	chOQGetI
 310 00c0 0646     		mov	r6, r0
 311              	.LVL14:
 312              		.loc 1 199 0
 313 00c2 FFF7FEFF 		bl	dbg_check_unlock
 314              	.LVL15:
 315              	@ 199 "../../../test/testqueues.c" 1
 316 00c6 FFF7FEFF 		bl      _port_unlock
 317              	@ 0 "" 2
 318              		.loc 1 200 0
 319              		.thumb
 320 00ca F0B2     		uxtb	r0, r6
 321 00cc FFF7FEFF 		bl	test_emit_token
 322              	.LVL16:
 323              		.loc 1 197 0
 324              	@ 197 "../../../test/testqueues.c" 1
 325 00d0 FFF7FEFF 		bl      _port_lock
 326              	@ 0 "" 2
 327              		.thumb
 328 00d4 FFF7FEFF 		bl	dbg_check_lock
 329              		.loc 1 198 0
 330 00d8 2046     		mov	r0, r4
 331 00da FFF7FEFF 		bl	chOQGetI
 332 00de 0646     		mov	r6, r0
 333              	.LVL17:
 334              		.loc 1 199 0
 335 00e0 FFF7FEFF 		bl	dbg_check_unlock
ARM GAS  /tmp/ccBOv0DC.s 			page 7


 336              	.LVL18:
 337              	@ 199 "../../../test/testqueues.c" 1
 338 00e4 FFF7FEFF 		bl      _port_unlock
 339              	@ 0 "" 2
 340              		.loc 1 200 0
 341              		.thumb
 342 00e8 F0B2     		uxtb	r0, r6
 343 00ea FFF7FEFF 		bl	test_emit_token
 344              	.LVL19:
 345              		.loc 1 197 0
 346              	@ 197 "../../../test/testqueues.c" 1
 347 00ee FFF7FEFF 		bl      _port_lock
 348              	@ 0 "" 2
 349              		.thumb
 350 00f2 FFF7FEFF 		bl	dbg_check_lock
 351              		.loc 1 198 0
 352 00f6 2046     		mov	r0, r4
 353 00f8 FFF7FEFF 		bl	chOQGetI
 354 00fc 0646     		mov	r6, r0
 355              	.LVL20:
 356              		.loc 1 199 0
 357 00fe FFF7FEFF 		bl	dbg_check_unlock
 358              	.LVL21:
 359              	@ 199 "../../../test/testqueues.c" 1
 360 0102 FFF7FEFF 		bl      _port_unlock
 361              	@ 0 "" 2
 362              		.loc 1 200 0
 363              		.thumb
 364 0106 F0B2     		uxtb	r0, r6
 365 0108 FFF7FEFF 		bl	test_emit_token
 366              	.LVL22:
 367              	.LBE8:
 368              		.loc 1 202 0
 369              	@ 202 "../../../test/testqueues.c" 1
 370 010c FFF7FEFF 		bl      _port_lock
 371              	@ 0 "" 2
 372              		.thumb
 373 0110 FFF7FEFF 		bl	dbg_check_lock
 374 0114 6069     		ldr	r0, [r4, #20]
 375 0116 A269     		ldr	r2, [r4, #24]
 376 0118 9042     		cmp	r0, r2
 377 011a 18BF     		it	ne
 378 011c 2946     		movne	r1, r5
 379 011e 00F0FA80 		beq	.L23
 380              	.L11:
 381 0122 0320     		movs	r0, #3
 382 0124 FFF7FEFF 		bl	_test_assert
 383 0128 0028     		cmp	r0, #0
 384 012a 40F0E980 		bne	.L20
 385 012e FFF7FEFF 		bl	dbg_check_unlock
 386              	@ 202 "../../../test/testqueues.c" 1
 387 0132 FFF7FEFF 		bl      _port_unlock
 388              	@ 0 "" 2
 389              		.loc 1 203 0
 390              		.thumb
 391 0136 40F20001 		movw	r1, #:lower16:.LC0
 392 013a 0420     		movs	r0, #4
ARM GAS  /tmp/ccBOv0DC.s 			page 8


 393 013c C0F20001 		movt	r1, #:upper16:.LC0
 394 0140 FFF7FEFF 		bl	_test_assert_sequence
 395 0144 0028     		cmp	r0, #0
 396 0146 40F0DF80 		bne	.L6
 397              		.loc 1 204 0
 398              	@ 204 "../../../test/testqueues.c" 1
 399 014a FFF7FEFF 		bl      _port_lock
 400              	@ 0 "" 2
 401              		.thumb
 402 014e 40F20004 		movw	r4, #:lower16:.LANCHOR0
 403 0152 C0F20004 		movt	r4, #:upper16:.LANCHOR0
 404 0156 FFF7FEFF 		bl	dbg_check_lock
 405 015a 2046     		mov	r0, r4
 406 015c FFF7FEFF 		bl	chOQGetI
 407 0160 0330     		adds	r0, r0, #3
 408 0162 14BF     		ite	ne
 409 0164 0021     		movne	r1, #0
 410 0166 0121     		moveq	r1, #1
 411 0168 0520     		movs	r0, #5
 412 016a FFF7FEFF 		bl	_test_assert
 413 016e 0546     		mov	r5, r0
 414 0170 0028     		cmp	r0, #0
 415 0172 40F0C580 		bne	.L20
 416 0176 FFF7FEFF 		bl	dbg_check_unlock
 417              	@ 204 "../../../test/testqueues.c" 1
 418 017a FFF7FEFF 		bl      _port_unlock
 419              	@ 0 "" 2
 420              		.loc 1 207 0
 421              		.thumb
 422 017e 40F20006 		movw	r6, #:lower16:wa
 423              	.LVL23:
 424 0182 C0F20006 		movt	r6, #:upper16:wa
 425 0186 0822     		movs	r2, #8
 426 0188 7768     		ldr	r7, [r6, #4]
 427 018a 2046     		mov	r0, r4
 428 018c 3946     		mov	r1, r7
 429 018e 2B46     		mov	r3, r5
 430 0190 FFF7FEFF 		bl	chOQWriteTimeout
 431              	.LVL24:
 432              		.loc 1 208 0
 433 0194 A0F10400 		sub	r0, r0, #4
 434              	.LVL25:
 435 0198 4142     		rsbs	r1, r0, #0
 436 019a 41EB0001 		adc	r1, r1, r0
 437 019e 0620     		movs	r0, #6
 438              	.LVL26:
 439 01a0 FFF7FEFF 		bl	_test_assert
 440 01a4 0028     		cmp	r0, #0
 441 01a6 40F0AF80 		bne	.L6
 442              		.loc 1 209 0
 443              	@ 209 "../../../test/testqueues.c" 1
 444 01aa FFF7FEFF 		bl      _port_lock
 445              	@ 0 "" 2
 446              		.thumb
 447 01ae FFF7FEFF 		bl	dbg_check_lock
 448 01b2 A568     		ldr	r5, [r4, #8]
 449 01b4 0720     		movs	r0, #7
ARM GAS  /tmp/ccBOv0DC.s 			page 9


 450 01b6 D5F10101 		rsbs	r1, r5, #1
 451 01ba 38BF     		it	cc
 452 01bc 0021     		movcc	r1, #0
 453 01be FFF7FEFF 		bl	_test_assert
 454 01c2 0546     		mov	r5, r0
 455 01c4 0028     		cmp	r0, #0
 456 01c6 40F09B80 		bne	.L20
 457 01ca FFF7FEFF 		bl	dbg_check_unlock
 458              	@ 209 "../../../test/testqueues.c" 1
 459 01ce FFF7FEFF 		bl      _port_unlock
 460              	@ 0 "" 2
 461              		.loc 1 210 0
 462              		.thumb
 463 01d2 40F2000E 		movw	lr, #:lower16:rlist
 464 01d6 C0F2000E 		movt	lr, #:upper16:rlist
 465 01da 40F20003 		movw	r3, #:lower16:thread2
 466 01de DEF81810 		ldr	r1, [lr, #24]
 467 01e2 3068     		ldr	r0, [r6, #0]
 468 01e4 8A68     		ldr	r2, [r1, #8]
 469 01e6 0095     		str	r5, [sp, #0]
 470 01e8 4FF49871 		mov	r1, #304
 471 01ec 0132     		adds	r2, r2, #1
 472 01ee C0F20003 		movt	r3, #:upper16:thread2
 473 01f2 FFF7FEFF 		bl	chThdCreateStatic
 474 01f6 40F2000C 		movw	ip, #:lower16:threads
 475 01fa C0F2000C 		movt	ip, #:upper16:threads
 476 01fe CCF80000 		str	r0, [ip, #0]
 477              		.loc 1 211 0
 478              	@ 211 "../../../test/testqueues.c" 1
 479 0202 FFF7FEFF 		bl      _port_lock
 480              	@ 0 "" 2
 481              		.thumb
 482 0206 FFF7FEFF 		bl	dbg_check_lock
 483 020a 04F10800 		add	r0, r4, #8
 484 020e 0DC8     		ldmia	r0, {r0, r2, r3}
 485 0210 991A     		subs	r1, r3, r2
 486 0212 C0EB010C 		rsb	ip, r0, r1
 487 0216 ACF10403 		sub	r3, ip, #4
 488 021a 0820     		movs	r0, #8
 489 021c 5A42     		rsbs	r2, r3, #0
 490 021e 42EB0301 		adc	r1, r2, r3
 491 0222 FFF7FEFF 		bl	_test_assert
 492 0226 0028     		cmp	r0, #0
 493 0228 6AD1     		bne	.L20
 494 022a FFF7FEFF 		bl	dbg_check_unlock
 495              	@ 211 "../../../test/testqueues.c" 1
 496 022e FFF7FEFF 		bl      _port_unlock
 497              	@ 0 "" 2
 498              		.loc 1 212 0
 499              		.thumb
 500 0232 FFF7FEFF 		bl	test_wait_threads
 501              		.loc 1 215 0
 502              	@ 215 "../../../test/testqueues.c" 1
 503 0236 FFF7FEFF 		bl      _port_lock
 504              	@ 0 "" 2
 505              		.thumb
 506 023a FFF7FEFF 		bl	dbg_check_lock
ARM GAS  /tmp/ccBOv0DC.s 			page 10


 507              		.loc 1 216 0
 508 023e 2046     		mov	r0, r4
 509 0240 FFF7FEFF 		bl	chOQResetI
 510              		.loc 1 217 0
 511 0244 FFF7FEFF 		bl	dbg_check_unlock
 512              	@ 217 "../../../test/testqueues.c" 1
 513 0248 FFF7FEFF 		bl      _port_unlock
 514              	@ 0 "" 2
 515              		.loc 1 218 0
 516              	@ 218 "../../../test/testqueues.c" 1
 517 024c FFF7FEFF 		bl      _port_lock
 518              	@ 0 "" 2
 519              		.thumb
 520 0250 FFF7FEFF 		bl	dbg_check_lock
 521 0254 2069     		ldr	r0, [r4, #16]
 522 0256 E168     		ldr	r1, [r4, #12]
 523 0258 A368     		ldr	r3, [r4, #8]
 524 025a 421A     		subs	r2, r0, r1
 525 025c D51A     		subs	r5, r2, r3
 526 025e 0920     		movs	r0, #9
 527 0260 6B42     		rsbs	r3, r5, #0
 528 0262 43EB0501 		adc	r1, r3, r5
 529 0266 FFF7FEFF 		bl	_test_assert
 530 026a 0546     		mov	r5, r0
 531 026c 0028     		cmp	r0, #0
 532 026e 47D1     		bne	.L20
 533 0270 FFF7FEFF 		bl	dbg_check_unlock
 534              	@ 218 "../../../test/testqueues.c" 1
 535 0274 FFF7FEFF 		bl      _port_unlock
 536              	@ 0 "" 2
 537              		.loc 1 221 0
 538              		.thumb
 539 0278 0222     		movs	r2, #2
 540 027a 3946     		mov	r1, r7
 541 027c 2B46     		mov	r3, r5
 542 027e 2046     		mov	r0, r4
 543 0280 FFF7FEFF 		bl	chOQWriteTimeout
 544              	.LVL27:
 545              		.loc 1 222 0
 546 0284 A0F10203 		sub	r3, r0, #2
 547 0288 5A42     		rsbs	r2, r3, #0
 548 028a 42EB0301 		adc	r1, r2, r3
 549 028e 0A20     		movs	r0, #10
 550              	.LVL28:
 551 0290 FFF7FEFF 		bl	_test_assert
 552              	.LVL29:
 553 0294 0346     		mov	r3, r0
 554 0296 0028     		cmp	r0, #0
 555 0298 36D1     		bne	.L6
 556              		.loc 1 223 0
 557 029a 3946     		mov	r1, r7
 558 029c 0222     		movs	r2, #2
 559 029e 2046     		mov	r0, r4
 560 02a0 FFF7FEFF 		bl	chOQWriteTimeout
 561              	.LVL30:
 562              		.loc 1 224 0
 563 02a4 A0F10201 		sub	r1, r0, #2
ARM GAS  /tmp/ccBOv0DC.s 			page 11


 564 02a8 4842     		rsbs	r0, r1, #0
 565              	.LVL31:
 566 02aa 40EB0101 		adc	r1, r0, r1
 567              	.LVL32:
 568 02ae 0B20     		movs	r0, #11
 569 02b0 FFF7FEFF 		bl	_test_assert
 570 02b4 40BB     		cbnz	r0, .L6
 571              		.loc 1 225 0
 572              	@ 225 "../../../test/testqueues.c" 1
 573 02b6 FFF7FEFF 		bl      _port_lock
 574              	@ 0 "" 2
 575              		.thumb
 576 02ba FFF7FEFF 		bl	dbg_check_lock
 577 02be A268     		ldr	r2, [r4, #8]
 578 02c0 0C20     		movs	r0, #12
 579 02c2 D2F10101 		rsbs	r1, r2, #1
 580 02c6 38BF     		it	cc
 581 02c8 0021     		movcc	r1, #0
 582 02ca FFF7FEFF 		bl	_test_assert
 583 02ce B8B9     		cbnz	r0, .L20
 584 02d0 FFF7FEFF 		bl	dbg_check_unlock
 585              	@ 225 "../../../test/testqueues.c" 1
 586 02d4 FFF7FEFF 		bl      _port_unlock
 587              	@ 0 "" 2
 588              		.loc 1 228 0
 589              		.thumb
 590 02d8 40F20000 		movw	r0, #:lower16:.LANCHOR0
 591 02dc 0021     		movs	r1, #0
 592 02de 0A22     		movs	r2, #10
 593 02e0 C0F20000 		movt	r0, #:upper16:.LANCHOR0
 594 02e4 FFF7FEFF 		bl	chOQPutTimeout
 595 02e8 A0F1FF3C 		sub	ip, r0, #-1
 596 02ec DCF10000 		rsbs	r0, ip, #0
 597 02f0 40EB0C01 		adc	r1, r0, ip
 598 02f4 0D20     		movs	r0, #13
 599              	.LBE7:
 600              	.LBE6:
 601              		.loc 1 229 0
 602 02f6 03B0     		add	sp, sp, #12
 603 02f8 BDE8F040 		pop	{r4, r5, r6, r7, lr}
 604              	.LBB11:
 605              	.LBB9:
 606              		.loc 1 228 0
 607 02fc FFF7FEBF 		b	_test_assert
 608              	.LVL33:
 609              	.L20:
 610              		.loc 1 225 0
 611 0300 FFF7FEFF 		bl	dbg_check_unlock
 612              	@ 225 "../../../test/testqueues.c" 1
 613 0304 FFF7FEFF 		bl      _port_unlock
 614              	@ 0 "" 2
 615              		.thumb
 616              	.L6:
 617              	.LBE9:
 618              	.LBE11:
 619              		.loc 1 229 0
 620 0308 03B0     		add	sp, sp, #12
ARM GAS  /tmp/ccBOv0DC.s 			page 12


 621 030a F0BD     		pop	{r4, r5, r6, r7, pc}
 622              	.L22:
 623              		.loc 1 181 0 discriminator 1
 624 030c A968     		ldr	r1, [r5, #8]
 625 030e 0031     		adds	r1, r1, #0
 626 0310 18BF     		it	ne
 627 0312 0121     		movne	r1, #1
 628 0314 84E6     		b	.L7
 629              	.LVL34:
 630              	.L23:
 631              	.LBB12:
 632              	.LBB10:
 633              		.loc 1 181 0 is_stmt 0
 634 0316 A368     		ldr	r3, [r4, #8]
 635 0318 191C     		adds	r1, r3, #0
 636 031a 18BF     		it	ne
 637 031c 0121     		movne	r1, #1
 638 031e 00E7     		b	.L11
 639              	.LBE10:
 640              	.LBE12:
 641              		.cfi_endproc
 642              	.LFE6:
 643              		.size	queues2_execute, .-queues2_execute
 644              		.section	.text.queues1_execute,"ax",%progbits
 645              		.align	2
 646              		.p2align 4,,15
 647              		.thumb
 648              		.thumb_func
 649              		.type	queues1_execute, %function
 650              	queues1_execute:
 651              	.LFB3:
 652              		.loc 1 94 0 is_stmt 1
 653              		.cfi_startproc
 654              		@ args = 0, pretend = 0, frame = 0
 655              		@ frame_needed = 0, uses_anonymous_args = 0
 656 0000 2DE9F041 		push	{r4, r5, r6, r7, r8, lr}
 657              	.LCFI8:
 658              		.cfi_def_cfa_offset 24
 659              		.cfi_offset 14, -4
 660              		.cfi_offset 8, -8
 661              		.cfi_offset 7, -12
 662              		.cfi_offset 6, -16
 663              		.cfi_offset 5, -20
 664              		.cfi_offset 4, -24
 665 0004 82B0     		sub	sp, sp, #8
 666              	.LCFI9:
 667              		.cfi_def_cfa_offset 32
 668              		.loc 1 99 0
 669              	@ 99 "../../../test/testqueues.c" 1
 670 0006 FFF7FEFF 		bl      _port_lock
 671              	@ 0 "" 2
 672              		.thumb
 673 000a 40F20004 		movw	r4, #:lower16:.LANCHOR1
 674 000e C0F20004 		movt	r4, #:upper16:.LANCHOR1
 675 0012 FFF7FEFF 		bl	dbg_check_lock
 676 0016 A168     		ldr	r1, [r4, #8]
 677 0018 0120     		movs	r0, #1
ARM GAS  /tmp/ccBOv0DC.s 			page 13


 678 001a D1F10101 		rsbs	r1, r1, #1
 679 001e 38BF     		it	cc
 680 0020 0021     		movcc	r1, #0
 681 0022 FFF7FEFF 		bl	_test_assert
 682 0026 0546     		mov	r5, r0
 683 0028 0028     		cmp	r0, #0
 684 002a 40F07981 		bne	.L36
 685              	.LBB15:
 686              	.LBB16:
 687 002e FFF7FEFF 		bl	dbg_check_unlock
 688              	@ 99 "../../../test/testqueues.c" 1
 689 0032 FFF7FEFF 		bl      _port_unlock
 690              	@ 0 "" 2
 691              		.loc 1 102 0
 692              	@ 102 "../../../test/testqueues.c" 1
 693 0036 FFF7FEFF 		bl      _port_lock
 694              	@ 0 "" 2
 695              		.thumb
 696 003a FFF7FEFF 		bl	dbg_check_lock
 697              	.LVL35:
 698              		.loc 1 104 0
 699 003e 4121     		movs	r1, #65
 700 0040 2046     		mov	r0, r4
 701 0042 FFF7FEFF 		bl	chIQPutI
 702              	.LVL36:
 703 0046 4221     		movs	r1, #66
 704 0048 2046     		mov	r0, r4
 705 004a FFF7FEFF 		bl	chIQPutI
 706              	.LVL37:
 707 004e 4321     		movs	r1, #67
 708 0050 2046     		mov	r0, r4
 709 0052 FFF7FEFF 		bl	chIQPutI
 710              	.LVL38:
 711 0056 4421     		movs	r1, #68
 712 0058 2046     		mov	r0, r4
 713 005a FFF7FEFF 		bl	chIQPutI
 714              	.LVL39:
 715              		.loc 1 105 0
 716 005e FFF7FEFF 		bl	dbg_check_unlock
 717              	@ 105 "../../../test/testqueues.c" 1
 718 0062 FFF7FEFF 		bl      _port_unlock
 719              	@ 0 "" 2
 720              		.loc 1 106 0
 721              	@ 106 "../../../test/testqueues.c" 1
 722 0066 FFF7FEFF 		bl      _port_lock
 723              	@ 0 "" 2
 724              		.thumb
 725 006a FFF7FEFF 		bl	dbg_check_lock
 726 006e 6269     		ldr	r2, [r4, #20]
 727 0070 A369     		ldr	r3, [r4, #24]
 728 0072 9A42     		cmp	r2, r3
 729 0074 18BF     		it	ne
 730 0076 2946     		movne	r1, r5
 731 0078 00F05981 		beq	.L37
 732              	.L27:
 733 007c 0220     		movs	r0, #2
 734 007e FFF7FEFF 		bl	_test_assert
ARM GAS  /tmp/ccBOv0DC.s 			page 14


 735 0082 0646     		mov	r6, r0
 736 0084 0028     		cmp	r0, #0
 737 0086 40F04B81 		bne	.L36
 738 008a FFF7FEFF 		bl	dbg_check_unlock
 739              	@ 106 "../../../test/testqueues.c" 1
 740 008e FFF7FEFF 		bl      _port_unlock
 741              	@ 0 "" 2
 742              		.loc 1 107 0
 743              	@ 107 "../../../test/testqueues.c" 1
 744 0092 FFF7FEFF 		bl      _port_lock
 745              	@ 0 "" 2
 746              		.thumb
 747 0096 40F20005 		movw	r5, #:lower16:.LANCHOR1
 748 009a C0F20005 		movt	r5, #:upper16:.LANCHOR1
 749 009e FFF7FEFF 		bl	dbg_check_lock
 750 00a2 3146     		mov	r1, r6
 751 00a4 2846     		mov	r0, r5
 752 00a6 FFF7FEFF 		bl	chIQPutI
 753 00aa 0430     		adds	r0, r0, #4
 754 00ac 14BF     		ite	ne
 755 00ae 0021     		movne	r1, #0
 756 00b0 0121     		moveq	r1, #1
 757 00b2 0320     		movs	r0, #3
 758 00b4 FFF7FEFF 		bl	_test_assert
 759 00b8 0028     		cmp	r0, #0
 760 00ba 40F03181 		bne	.L36
 761 00be FFF7FEFF 		bl	dbg_check_unlock
 762              	@ 107 "../../../test/testqueues.c" 1
 763 00c2 FFF7FEFF 		bl      _port_unlock
 764              	@ 0 "" 2
 765              	.LVL40:
 766              		.loc 1 111 0
 767              		.thumb
 768 00c6 4FF0FF31 		mov	r1, #-1
 769 00ca 2846     		mov	r0, r5
 770 00cc FFF7FEFF 		bl	chIQGetTimeout
 771 00d0 C0B2     		uxtb	r0, r0
 772 00d2 FFF7FEFF 		bl	test_emit_token
 773              	.LVL41:
 774 00d6 4FF0FF31 		mov	r1, #-1
 775 00da 2846     		mov	r0, r5
 776 00dc FFF7FEFF 		bl	chIQGetTimeout
 777 00e0 C0B2     		uxtb	r0, r0
 778 00e2 FFF7FEFF 		bl	test_emit_token
 779              	.LVL42:
 780 00e6 4FF0FF31 		mov	r1, #-1
 781 00ea 2846     		mov	r0, r5
 782 00ec FFF7FEFF 		bl	chIQGetTimeout
 783 00f0 C0B2     		uxtb	r0, r0
 784 00f2 FFF7FEFF 		bl	test_emit_token
 785              	.LVL43:
 786 00f6 4FF0FF31 		mov	r1, #-1
 787 00fa 2846     		mov	r0, r5
 788 00fc FFF7FEFF 		bl	chIQGetTimeout
 789 0100 C0B2     		uxtb	r0, r0
 790 0102 FFF7FEFF 		bl	test_emit_token
 791              	.LVL44:
ARM GAS  /tmp/ccBOv0DC.s 			page 15


 792              		.loc 1 112 0
 793              	@ 112 "../../../test/testqueues.c" 1
 794 0106 FFF7FEFF 		bl      _port_lock
 795              	@ 0 "" 2
 796              		.thumb
 797 010a FFF7FEFF 		bl	dbg_check_lock
 798 010e A968     		ldr	r1, [r5, #8]
 799 0110 0420     		movs	r0, #4
 800 0112 D1F10101 		rsbs	r1, r1, #1
 801 0116 38BF     		it	cc
 802 0118 0021     		movcc	r1, #0
 803 011a FFF7FEFF 		bl	_test_assert
 804 011e 0028     		cmp	r0, #0
 805 0120 40F0FE80 		bne	.L36
 806 0124 FFF7FEFF 		bl	dbg_check_unlock
 807              	@ 112 "../../../test/testqueues.c" 1
 808 0128 FFF7FEFF 		bl      _port_unlock
 809              	@ 0 "" 2
 810              		.loc 1 113 0
 811              		.thumb
 812 012c 40F20001 		movw	r1, #:lower16:.LC0
 813 0130 0520     		movs	r0, #5
 814 0132 C0F20001 		movt	r1, #:upper16:.LC0
 815 0136 FFF7FEFF 		bl	_test_assert_sequence
 816 013a 0646     		mov	r6, r0
 817 013c 0028     		cmp	r0, #0
 818 013e 40F0F380 		bne	.L24
 819              		.loc 1 116 0
 820              	@ 116 "../../../test/testqueues.c" 1
 821 0142 FFF7FEFF 		bl      _port_lock
 822              	@ 0 "" 2
 823              		.thumb
 824 0146 FFF7FEFF 		bl	dbg_check_lock
 825              	.LVL45:
 826              		.loc 1 118 0
 827 014a 4121     		movs	r1, #65
 828 014c 2846     		mov	r0, r5
 829 014e FFF7FEFF 		bl	chIQPutI
 830              	.LVL46:
 831 0152 4221     		movs	r1, #66
 832 0154 2846     		mov	r0, r5
 833 0156 FFF7FEFF 		bl	chIQPutI
 834              	.LVL47:
 835 015a 4321     		movs	r1, #67
 836 015c 2846     		mov	r0, r5
 837 015e FFF7FEFF 		bl	chIQPutI
 838              	.LVL48:
 839 0162 4421     		movs	r1, #68
 840 0164 2846     		mov	r0, r5
 841 0166 FFF7FEFF 		bl	chIQPutI
 842              	.LVL49:
 843              		.loc 1 119 0
 844 016a FFF7FEFF 		bl	dbg_check_unlock
 845              	@ 119 "../../../test/testqueues.c" 1
 846 016e FFF7FEFF 		bl      _port_unlock
 847              	@ 0 "" 2
 848              		.loc 1 122 0
ARM GAS  /tmp/ccBOv0DC.s 			page 16


 849              		.thumb
 850 0172 40F20007 		movw	r7, #:lower16:wa
 851 0176 C0F20007 		movt	r7, #:upper16:wa
 852 017a 0822     		movs	r2, #8
 853 017c D7F80480 		ldr	r8, [r7, #4]
 854 0180 3346     		mov	r3, r6
 855 0182 4146     		mov	r1, r8
 856 0184 2846     		mov	r0, r5
 857 0186 FFF7FEFF 		bl	chIQReadTimeout
 858              	.LVL50:
 859              		.loc 1 123 0
 860 018a A0F10403 		sub	r3, r0, #4
 861 018e 5A42     		rsbs	r2, r3, #0
 862 0190 42EB0301 		adc	r1, r2, r3
 863 0194 0620     		movs	r0, #6
 864              	.LVL51:
 865 0196 FFF7FEFF 		bl	_test_assert
 866              	.LVL52:
 867 019a 0028     		cmp	r0, #0
 868 019c 40F0C480 		bne	.L24
 869              		.loc 1 124 0
 870              	@ 124 "../../../test/testqueues.c" 1
 871 01a0 FFF7FEFF 		bl      _port_lock
 872              	@ 0 "" 2
 873              		.thumb
 874 01a4 FFF7FEFF 		bl	dbg_check_lock
 875 01a8 AE68     		ldr	r6, [r5, #8]
 876 01aa 0720     		movs	r0, #7
 877 01ac D6F10101 		rsbs	r1, r6, #1
 878 01b0 38BF     		it	cc
 879 01b2 0021     		movcc	r1, #0
 880 01b4 FFF7FEFF 		bl	_test_assert
 881 01b8 0646     		mov	r6, r0
 882 01ba 0028     		cmp	r0, #0
 883 01bc 40F0B080 		bne	.L36
 884 01c0 FFF7FEFF 		bl	dbg_check_unlock
 885              	@ 124 "../../../test/testqueues.c" 1
 886 01c4 FFF7FEFF 		bl      _port_unlock
 887              	@ 0 "" 2
 888              		.loc 1 127 0
 889              	@ 127 "../../../test/testqueues.c" 1
 890 01c8 FFF7FEFF 		bl      _port_lock
 891              	@ 0 "" 2
 892              		.thumb
 893 01cc FFF7FEFF 		bl	dbg_check_lock
 894              	.LVL53:
 895              		.loc 1 129 0
 896 01d0 4121     		movs	r1, #65
 897 01d2 2846     		mov	r0, r5
 898 01d4 FFF7FEFF 		bl	chIQPutI
 899              	.LVL54:
 900 01d8 4221     		movs	r1, #66
 901 01da 2846     		mov	r0, r5
 902 01dc FFF7FEFF 		bl	chIQPutI
 903              	.LVL55:
 904 01e0 4321     		movs	r1, #67
 905 01e2 2846     		mov	r0, r5
ARM GAS  /tmp/ccBOv0DC.s 			page 17


 906 01e4 FFF7FEFF 		bl	chIQPutI
 907              	.LVL56:
 908 01e8 4421     		movs	r1, #68
 909 01ea 2846     		mov	r0, r5
 910 01ec FFF7FEFF 		bl	chIQPutI
 911              	.LVL57:
 912              		.loc 1 130 0
 913 01f0 FFF7FEFF 		bl	dbg_check_unlock
 914              	@ 130 "../../../test/testqueues.c" 1
 915 01f4 FFF7FEFF 		bl      _port_unlock
 916              	@ 0 "" 2
 917              		.loc 1 133 0
 918              		.thumb
 919 01f8 0222     		movs	r2, #2
 920 01fa 3346     		mov	r3, r6
 921 01fc 4146     		mov	r1, r8
 922 01fe 2846     		mov	r0, r5
 923 0200 FFF7FEFF 		bl	chIQReadTimeout
 924              	.LVL58:
 925              		.loc 1 134 0
 926 0204 A0F10201 		sub	r1, r0, #2
 927 0208 4842     		rsbs	r0, r1, #0
 928              	.LVL59:
 929 020a 40EB0101 		adc	r1, r0, r1
 930              	.LVL60:
 931 020e 0820     		movs	r0, #8
 932 0210 FFF7FEFF 		bl	_test_assert
 933 0214 0346     		mov	r3, r0
 934 0216 0028     		cmp	r0, #0
 935 0218 40F08680 		bne	.L24
 936              		.loc 1 135 0
 937 021c 4146     		mov	r1, r8
 938 021e 0222     		movs	r2, #2
 939 0220 2846     		mov	r0, r5
 940 0222 FFF7FEFF 		bl	chIQReadTimeout
 941              	.LVL61:
 942              		.loc 1 136 0
 943 0226 A0F10203 		sub	r3, r0, #2
 944 022a 5A42     		rsbs	r2, r3, #0
 945 022c 42EB0301 		adc	r1, r2, r3
 946 0230 0920     		movs	r0, #9
 947              	.LVL62:
 948 0232 FFF7FEFF 		bl	_test_assert
 949              	.LVL63:
 950 0236 0028     		cmp	r0, #0
 951 0238 76D1     		bne	.L24
 952              		.loc 1 137 0
 953              	@ 137 "../../../test/testqueues.c" 1
 954 023a FFF7FEFF 		bl      _port_lock
 955              	@ 0 "" 2
 956              		.thumb
 957 023e FFF7FEFF 		bl	dbg_check_lock
 958 0242 AE68     		ldr	r6, [r5, #8]
 959 0244 0A20     		movs	r0, #10
 960 0246 D6F10101 		rsbs	r1, r6, #1
 961 024a 38BF     		it	cc
 962 024c 0021     		movcc	r1, #0
ARM GAS  /tmp/ccBOv0DC.s 			page 18


 963 024e FFF7FEFF 		bl	_test_assert
 964 0252 0646     		mov	r6, r0
 965 0254 0028     		cmp	r0, #0
 966 0256 63D1     		bne	.L36
 967 0258 FFF7FEFF 		bl	dbg_check_unlock
 968              	@ 137 "../../../test/testqueues.c" 1
 969 025c FFF7FEFF 		bl      _port_unlock
 970              	@ 0 "" 2
 971              		.loc 1 140 0
 972              	@ 140 "../../../test/testqueues.c" 1
 973 0260 FFF7FEFF 		bl      _port_lock
 974              	@ 0 "" 2
 975              		.thumb
 976 0264 FFF7FEFF 		bl	dbg_check_lock
 977              		.loc 1 141 0
 978 0268 3146     		mov	r1, r6
 979 026a 2846     		mov	r0, r5
 980 026c FFF7FEFF 		bl	chIQPutI
 981              		.loc 1 142 0
 982 0270 2846     		mov	r0, r5
 983 0272 FFF7FEFF 		bl	chIQResetI
 984              		.loc 1 143 0
 985 0276 FFF7FEFF 		bl	dbg_check_unlock
 986              	@ 143 "../../../test/testqueues.c" 1
 987 027a FFF7FEFF 		bl      _port_unlock
 988              	@ 0 "" 2
 989              		.loc 1 144 0
 990              	@ 144 "../../../test/testqueues.c" 1
 991 027e FFF7FEFF 		bl      _port_lock
 992              	@ 0 "" 2
 993              		.thumb
 994 0282 FFF7FEFF 		bl	dbg_check_lock
 995 0286 A968     		ldr	r1, [r5, #8]
 996 0288 0B20     		movs	r0, #11
 997 028a D1F10101 		rsbs	r1, r1, #1
 998 028e 38BF     		it	cc
 999 0290 0021     		movcc	r1, #0
 1000 0292 FFF7FEFF 		bl	_test_assert
 1001 0296 0028     		cmp	r0, #0
 1002 0298 42D1     		bne	.L36
 1003 029a FFF7FEFF 		bl	dbg_check_unlock
 1004              	@ 144 "../../../test/testqueues.c" 1
 1005 029e FFF7FEFF 		bl      _port_unlock
 1006              	@ 0 "" 2
 1007              		.loc 1 145 0
 1008              		.thumb
 1009 02a2 40F2000E 		movw	lr, #:lower16:rlist
 1010 02a6 C0F2000E 		movt	lr, #:upper16:rlist
 1011 02aa 40F20003 		movw	r3, #:lower16:thread1
 1012 02ae DEF81820 		ldr	r2, [lr, #24]
 1013 02b2 3868     		ldr	r0, [r7, #0]
 1014 02b4 9568     		ldr	r5, [r2, #8]
 1015 02b6 4FF49871 		mov	r1, #304
 1016 02ba 6A1C     		adds	r2, r5, #1
 1017 02bc C0F20003 		movt	r3, #:upper16:thread1
 1018 02c0 0025     		movs	r5, #0
 1019 02c2 0095     		str	r5, [sp, #0]
ARM GAS  /tmp/ccBOv0DC.s 			page 19


 1020 02c4 FFF7FEFF 		bl	chThdCreateStatic
 1021 02c8 40F20001 		movw	r1, #:lower16:threads
 1022 02cc C0F20001 		movt	r1, #:upper16:threads
 1023 02d0 0860     		str	r0, [r1, #0]
 1024              		.loc 1 146 0
 1025              	@ 146 "../../../test/testqueues.c" 1
 1026 02d2 FFF7FEFF 		bl      _port_lock
 1027              	@ 0 "" 2
 1028              		.thumb
 1029 02d6 FFF7FEFF 		bl	dbg_check_lock
 1030 02da A268     		ldr	r2, [r4, #8]
 1031 02dc C5EB020C 		rsb	ip, r5, r2
 1032 02e0 0C20     		movs	r0, #12
 1033 02e2 DCF10003 		rsbs	r3, ip, #0
 1034 02e6 43EB0C01 		adc	r1, r3, ip
 1035 02ea FFF7FEFF 		bl	_test_assert
 1036 02ee B8B9     		cbnz	r0, .L36
 1037 02f0 FFF7FEFF 		bl	dbg_check_unlock
 1038              	@ 146 "../../../test/testqueues.c" 1
 1039 02f4 FFF7FEFF 		bl      _port_unlock
 1040              	@ 0 "" 2
 1041              		.loc 1 147 0
 1042              		.thumb
 1043 02f8 FFF7FEFF 		bl	test_wait_threads
 1044              		.loc 1 150 0
 1045 02fc 40F20000 		movw	r0, #:lower16:.LANCHOR1
 1046 0300 0A21     		movs	r1, #10
 1047 0302 C0F20000 		movt	r0, #:upper16:.LANCHOR1
 1048 0306 FFF7FEFF 		bl	chIQGetTimeout
 1049 030a A0F1FF33 		sub	r3, r0, #-1
 1050 030e 5842     		rsbs	r0, r3, #0
 1051 0310 40EB0301 		adc	r1, r0, r3
 1052 0314 0D20     		movs	r0, #13
 1053              	.LBE16:
 1054              	.LBE15:
 1055              		.loc 1 151 0
 1056 0316 02B0     		add	sp, sp, #8
 1057 0318 BDE8F041 		pop	{r4, r5, r6, r7, r8, lr}
 1058              	.LBB19:
 1059              	.LBB17:
 1060              		.loc 1 150 0
 1061 031c FFF7FEBF 		b	_test_assert
 1062              	.LVL64:
 1063              	.L36:
 1064              		.loc 1 146 0
 1065 0320 FFF7FEFF 		bl	dbg_check_unlock
 1066              	@ 146 "../../../test/testqueues.c" 1
 1067 0324 FFF7FEFF 		bl      _port_unlock
 1068              	@ 0 "" 2
 1069              		.thumb
 1070              	.L24:
 1071              	.LBE17:
 1072              	.LBE19:
 1073              		.loc 1 151 0
 1074 0328 02B0     		add	sp, sp, #8
 1075 032a BDE8F081 		pop	{r4, r5, r6, r7, r8, pc}
 1076              	.LVL65:
ARM GAS  /tmp/ccBOv0DC.s 			page 20


 1077              	.L37:
 1078              	.LBB20:
 1079              	.LBB18:
 1080              		.loc 1 94 0
 1081 032e A068     		ldr	r0, [r4, #8]
 1082 0330 011C     		adds	r1, r0, #0
 1083 0332 18BF     		it	ne
 1084 0334 0121     		movne	r1, #1
 1085 0336 A1E6     		b	.L27
 1086              	.LBE18:
 1087              	.LBE20:
 1088              		.cfi_endproc
 1089              	.LFE3:
 1090              		.size	queues1_execute, .-queues1_execute
 1091              		.global	patternqueues
 1092              		.global	testqueues2
 1093              		.global	testqueues1
 1094 0338 AFF30080 		.section	.rodata.testqueues1,"a",%progbits
 1094      AFF30080 
 1095              		.align	2
 1096              		.type	testqueues1, %object
 1097              		.size	testqueues1, 16
 1098              	testqueues1:
 1099 0000 20000000 		.word	.LC2
 1100 0004 00000000 		.word	queues1_setup
 1101 0008 00000000 		.word	0
 1102 000c 00000000 		.word	queues1_execute
 1103              		.section	.rodata.testqueues2,"a",%progbits
 1104              		.align	2
 1105              		.type	testqueues2, %object
 1106              		.size	testqueues2, 16
 1107              	testqueues2:
 1108 0000 08000000 		.word	.LC1
 1109 0004 00000000 		.word	queues2_setup
 1110 0008 00000000 		.word	0
 1111 000c 00000000 		.word	queues2_execute
 1112              		.section	.rodata.str1.4,"aMS",%progbits,1
 1113              		.align	2
 1114              	.LC0:
 1115 0000 41424344 		.ascii	"ABCD\000"
 1115      00
 1116 0005 000000   		.space	3
 1117              	.LC1:
 1118 0008 51756575 		.ascii	"Queues, output queues\000"
 1118      65732C20 
 1118      6F757470 
 1118      75742071 
 1118      75657565 
 1119 001e 0000     		.space	2
 1120              	.LC2:
 1121 0020 51756575 		.ascii	"Queues, input queues\000"
 1121      65732C20 
 1121      696E7075 
 1121      74207175 
 1121      65756573 
 1122 0035 000000   		.section	.rodata.patternqueues,"a",%progbits
 1123              		.align	2
ARM GAS  /tmp/ccBOv0DC.s 			page 21


 1124              		.type	patternqueues, %object
 1125              		.size	patternqueues, 12
 1126              	patternqueues:
 1127 0000 00000000 		.word	testqueues1
 1128 0004 00000000 		.word	testqueues2
 1129 0008 00000000 		.word	0
 1130              		.section	.data.oq,"aw",%progbits
 1131              		.align	2
 1132              		.set	.LANCHOR0,. + 0
 1133              		.type	oq, %object
 1134              		.size	oq, 36
 1135              	oq:
 1136 0000 00000000 		.word	oq
 1137 0004 00000000 		.word	oq
 1138 0008 04000000 		.word	4
 1139 000c 30010000 		.word	test+304
 1140 0010 34010000 		.word	test+308
 1141 0014 30010000 		.word	test+304
 1142 0018 30010000 		.word	test+304
 1143 001c 00000000 		.word	notify
 1144 0020 00000000 		.word	0
 1145              		.section	.data.iq,"aw",%progbits
 1146              		.align	2
 1147              		.set	.LANCHOR1,. + 0
 1148              		.type	iq, %object
 1149              		.size	iq, 36
 1150              	iq:
 1151 0000 00000000 		.word	iq
 1152 0004 00000000 		.word	iq
 1153 0008 00000000 		.word	0
 1154 000c 00000000 		.word	test
 1155 0010 04000000 		.word	test+4
 1156 0014 00000000 		.word	test
 1157 0018 00000000 		.word	test
 1158 001c 00000000 		.word	notify
 1159 0020 00000000 		.word	0
 1160              		.text
 1161              	.Letext0:
 1162              		.file 2 "/home/prana/CodeSourcery/ARM_EABI/bin/../lib/gcc/arm-none-eabi/4.6.3/include/stddef.h"
 1163              		.file 3 "/home/prana/CodeSourcery/ARM_EABI/bin/../lib/gcc/arm-none-eabi/4.6.3/../../../../arm-none
 1164              		.file 4 "../../../os/ports/GCC/ARMCMx/chtypes.h"
 1165              		.file 5 "../../../os/kernel/include/chlists.h"
 1166              		.file 6 "../../../os/kernel/include/chthreads.h"
 1167              		.file 7 "../../../os/ports/GCC/ARMCMx/chcore_v7m.h"
 1168              		.file 8 "../../../os/kernel/include/chschd.h"
 1169              		.file 9 "../../../os/kernel/include/chmtx.h"
 1170              		.file 10 "../../../os/kernel/include/chqueues.h"
 1171              		.file 11 "../../../test/test.h"