ARM GAS  /tmp/ccayCWiC.s 			page 1


   1              		.syntax unified
   2              		.cpu cortex-m4
   3              		.fpu softvfp
   4              		.eabi_attribute 20, 1
   5              		.eabi_attribute 21, 1
   6              		.eabi_attribute 23, 3
   7              		.eabi_attribute 24, 1
   8              		.eabi_attribute 25, 1
   9              		.eabi_attribute 26, 1
  10              		.eabi_attribute 30, 2
  11              		.eabi_attribute 34, 1
  12              		.eabi_attribute 18, 4
  13              		.thumb
  14              		.file	"testbmk.c"
  15              		.text
  16              	.Ltext0:
  17              		.cfi_sections	.debug_frame
  18              		.section	.text.thread2,"ax",%progbits
  19              		.align	2
  20              		.p2align 4,,15
  21              		.thumb
  22              		.thumb_func
  23              		.type	thread2, %function
  24              	thread2:
  25              	.LFB4:
  26              		.file 1 "../../../test/testbmk.c"
  27              		.loc 1 158 0
  28              		.cfi_startproc
  29              		@ args = 0, pretend = 0, frame = 0
  30              		@ frame_needed = 0, uses_anonymous_args = 0
  31              		@ link register save eliminated.
  32              	.LVL0:
  33              		.loc 1 161 0
  34 0000 7047     		bx	lr
  35              		.cfi_endproc
  36              	.LFE4:
  37              		.size	thread2, .-thread2
  38 0002 00BFAFF3 		.section	.text.tmo,"ax",%progbits
  38      0080AFF3 
  38      0080AFF3 
  38      0080
  39              		.align	2
  40              		.p2align 4,,15
  41              		.thumb
  42              		.thumb_func
  43              		.type	tmo, %function
  44              	tmo:
  45              	.LFB16:
  46              		.loc 1 504 0
  47              		.cfi_startproc
  48              		@ args = 0, pretend = 0, frame = 0
  49              		@ frame_needed = 0, uses_anonymous_args = 0
  50              		@ link register save eliminated.
  51              	.LVL1:
  52              		.loc 1 504 0
  53 0000 7047     		bx	lr
  54              		.cfi_endproc
ARM GAS  /tmp/ccayCWiC.s 			page 2


  55              	.LFE16:
  56              		.size	tmo, .-tmo
  57 0002 00BFAFF3 		.section	.text.bmk13_execute,"ax",%progbits
  57      0080AFF3 
  57      0080AFF3 
  57      0080
  58              		.align	2
  59              		.p2align 4,,15
  60              		.thumb
  61              		.thumb_func
  62              		.type	bmk13_execute, %function
  63              	bmk13_execute:
  64              	.LFB22:
  65              		.loc 1 637 0
  66              		.cfi_startproc
  67              		@ args = 0, pretend = 0, frame = 0
  68              		@ frame_needed = 0, uses_anonymous_args = 0
  69              		.loc 1 639 0
  70 0000 40F20000 		movw	r0, #:lower16:.LC0
  71              		.loc 1 637 0
  72 0004 10B5     		push	{r4, lr}
  73              	.LCFI0:
  74              		.cfi_def_cfa_offset 8
  75              		.cfi_offset 14, -4
  76              		.cfi_offset 4, -8
  77              		.loc 1 639 0
  78 0006 C0F20000 		movt	r0, #:upper16:.LC0
  79              		.loc 1 645 0
  80 000a 40F20004 		movw	r4, #:lower16:.LC1
  81 000e C0F20004 		movt	r4, #:upper16:.LC1
  82              		.loc 1 639 0
  83 0012 FFF7FEFF 		bl	test_print
  84              		.loc 1 640 0
  85 0016 4FF4D270 		mov	r0, #420
  86 001a FFF7FEFF 		bl	test_printn
  87              		.loc 1 645 0
  88 001e 2046     		mov	r0, r4
  89 0020 FFF7FEFF 		bl	test_println
  90              		.loc 1 646 0
  91 0024 40F20000 		movw	r0, #:lower16:.LC2
  92 0028 C0F20000 		movt	r0, #:upper16:.LC2
  93 002c FFF7FEFF 		bl	test_print
  94              		.loc 1 647 0
  95 0030 4820     		movs	r0, #72
  96 0032 FFF7FEFF 		bl	test_printn
  97              		.loc 1 648 0
  98 0036 2046     		mov	r0, r4
  99 0038 FFF7FEFF 		bl	test_println
 100              		.loc 1 649 0
 101 003c 40F20000 		movw	r0, #:lower16:.LC3
 102 0040 C0F20000 		movt	r0, #:upper16:.LC3
 103 0044 FFF7FEFF 		bl	test_print
 104              		.loc 1 650 0
 105 0048 1420     		movs	r0, #20
 106 004a FFF7FEFF 		bl	test_printn
 107              		.loc 1 651 0
 108 004e 2046     		mov	r0, r4
ARM GAS  /tmp/ccayCWiC.s 			page 3


 109 0050 FFF7FEFF 		bl	test_println
 110              		.loc 1 652 0
 111 0054 40F20000 		movw	r0, #:lower16:.LC4
 112 0058 C0F20000 		movt	r0, #:upper16:.LC4
 113 005c FFF7FEFF 		bl	test_print
 114              		.loc 1 653 0
 115 0060 0C20     		movs	r0, #12
 116 0062 FFF7FEFF 		bl	test_printn
 117              		.loc 1 654 0
 118 0066 2046     		mov	r0, r4
 119 0068 FFF7FEFF 		bl	test_println
 120              		.loc 1 656 0
 121 006c 40F20000 		movw	r0, #:lower16:.LC5
 122 0070 C0F20000 		movt	r0, #:upper16:.LC5
 123 0074 FFF7FEFF 		bl	test_print
 124              		.loc 1 657 0
 125 0078 0420     		movs	r0, #4
 126 007a FFF7FEFF 		bl	test_printn
 127              		.loc 1 658 0
 128 007e 2046     		mov	r0, r4
 129 0080 FFF7FEFF 		bl	test_println
 130              		.loc 1 659 0
 131 0084 40F20000 		movw	r0, #:lower16:.LC6
 132 0088 C0F20000 		movt	r0, #:upper16:.LC6
 133 008c FFF7FEFF 		bl	test_print
 134              		.loc 1 660 0
 135 0090 1020     		movs	r0, #16
 136 0092 FFF7FEFF 		bl	test_printn
 137              		.loc 1 661 0
 138 0096 2046     		mov	r0, r4
 139 0098 FFF7FEFF 		bl	test_println
 140              		.loc 1 664 0
 141 009c 40F20000 		movw	r0, #:lower16:.LC7
 142 00a0 C0F20000 		movt	r0, #:upper16:.LC7
 143 00a4 FFF7FEFF 		bl	test_print
 144              		.loc 1 665 0
 145 00a8 1020     		movs	r0, #16
 146 00aa FFF7FEFF 		bl	test_printn
 147              		.loc 1 666 0
 148 00ae 2046     		mov	r0, r4
 149 00b0 FFF7FEFF 		bl	test_println
 150              		.loc 1 674 0
 151 00b4 40F20000 		movw	r0, #:lower16:.LC8
 152 00b8 C0F20000 		movt	r0, #:upper16:.LC8
 153 00bc FFF7FEFF 		bl	test_print
 154              		.loc 1 675 0
 155 00c0 2420     		movs	r0, #36
 156 00c2 FFF7FEFF 		bl	test_printn
 157              		.loc 1 676 0
 158 00c6 2046     		mov	r0, r4
 159 00c8 FFF7FEFF 		bl	test_println
 160              		.loc 1 679 0
 161 00cc 40F20000 		movw	r0, #:lower16:.LC9
 162 00d0 C0F20000 		movt	r0, #:upper16:.LC9
 163 00d4 FFF7FEFF 		bl	test_print
 164              		.loc 1 680 0
 165 00d8 2820     		movs	r0, #40
ARM GAS  /tmp/ccayCWiC.s 			page 4


 166 00da FFF7FEFF 		bl	test_printn
 167              		.loc 1 681 0
 168 00de 2046     		mov	r0, r4
 169              		.loc 1 683 0
 170 00e0 BDE81040 		pop	{r4, lr}
 171              		.loc 1 681 0
 172 00e4 FFF7FEBF 		b	test_println
 173              		.cfi_endproc
 174              	.LFE22:
 175              		.size	bmk13_execute, .-bmk13_execute
 176 00e8 AFF30080 		.section	.text.bmk12_execute,"ax",%progbits
 176      AFF30080 
 177              		.align	2
 178              		.p2align 4,,15
 179              		.thumb
 180              		.thumb_func
 181              		.type	bmk12_execute, %function
 182              	bmk12_execute:
 183              	.LFB21:
 184              		.loc 1 598 0
 185              		.cfi_startproc
 186              		@ args = 0, pretend = 0, frame = 0
 187              		@ frame_needed = 0, uses_anonymous_args = 0
 188              	.LVL2:
 189 0000 38B5     		push	{r3, r4, r5, lr}
 190              	.LCFI1:
 191              		.cfi_def_cfa_offset 16
 192              		.cfi_offset 14, -4
 193              		.cfi_offset 5, -8
 194              		.cfi_offset 4, -12
 195              		.cfi_offset 3, -16
 196              		.loc 1 601 0
 197 0002 FFF7FEFF 		bl	test_wait_tick
 198              		.loc 1 602 0
 199 0006 4FF47A70 		mov	r0, #1000
 200 000a FFF7FEFF 		bl	test_start_timer
 201 000e 40F20005 		movw	r5, #:lower16:test_timer_done
 202              		.loc 1 599 0
 203 0012 0024     		movs	r4, #0
 204 0014 C0F20005 		movt	r5, #:upper16:test_timer_done
 205              	.LVL3:
 206              	.L5:
 207              		.loc 1 604 0 discriminator 1
 208 0018 40F20000 		movw	r0, #:lower16:.LANCHOR0
 209 001c C0F20000 		movt	r0, #:upper16:.LANCHOR0
 210 0020 FFF7FEFF 		bl	chMtxLock
 211              		.loc 1 605 0 discriminator 1
 212 0024 FFF7FEFF 		bl	chMtxUnlock
 213              		.loc 1 606 0 discriminator 1
 214 0028 40F20000 		movw	r0, #:lower16:.LANCHOR0
 215 002c C0F20000 		movt	r0, #:upper16:.LANCHOR0
 216 0030 FFF7FEFF 		bl	chMtxLock
 217              		.loc 1 607 0 discriminator 1
 218 0034 FFF7FEFF 		bl	chMtxUnlock
 219              		.loc 1 608 0 discriminator 1
 220 0038 40F20000 		movw	r0, #:lower16:.LANCHOR0
 221 003c C0F20000 		movt	r0, #:upper16:.LANCHOR0
ARM GAS  /tmp/ccayCWiC.s 			page 5


 222 0040 FFF7FEFF 		bl	chMtxLock
 223              		.loc 1 609 0 discriminator 1
 224 0044 FFF7FEFF 		bl	chMtxUnlock
 225              		.loc 1 610 0 discriminator 1
 226 0048 40F20000 		movw	r0, #:lower16:.LANCHOR0
 227 004c C0F20000 		movt	r0, #:upper16:.LANCHOR0
 228 0050 FFF7FEFF 		bl	chMtxLock
 229              		.loc 1 611 0 discriminator 1
 230 0054 FFF7FEFF 		bl	chMtxUnlock
 231              		.loc 1 616 0 discriminator 1
 232 0058 2B68     		ldr	r3, [r5, #0]
 233              		.loc 1 612 0 discriminator 1
 234 005a 0134     		adds	r4, r4, #1
 235              	.LVL4:
 236              		.loc 1 616 0 discriminator 1
 237 005c 002B     		cmp	r3, #0
 238 005e DBD0     		beq	.L5
 239              		.loc 1 617 0
 240 0060 40F20000 		movw	r0, #:lower16:.LC10
 241 0064 C0F20000 		movt	r0, #:upper16:.LC10
 242 0068 FFF7FEFF 		bl	test_print
 243              		.loc 1 618 0
 244 006c A000     		lsls	r0, r4, #2
 245 006e FFF7FEFF 		bl	test_printn
 246              		.loc 1 619 0
 247 0072 40F20000 		movw	r0, #:lower16:.LC11
 248 0076 C0F20000 		movt	r0, #:upper16:.LC11
 249              		.loc 1 620 0
 250 007a BDE83840 		pop	{r3, r4, r5, lr}
 251              		.loc 1 619 0
 252 007e FFF7FEBF 		b	test_println
 253              		.cfi_endproc
 254              	.LFE21:
 255              		.size	bmk12_execute, .-bmk12_execute
 256 0082 00BFAFF3 		.section	.text.bmk12_setup,"ax",%progbits
 256      0080AFF3 
 256      0080AFF3 
 256      0080
 257              		.align	2
 258              		.p2align 4,,15
 259              		.thumb
 260              		.thumb_func
 261              		.type	bmk12_setup, %function
 262              	bmk12_setup:
 263              	.LFB20:
 264              		.loc 1 593 0
 265              		.cfi_startproc
 266              		@ args = 0, pretend = 0, frame = 0
 267              		@ frame_needed = 0, uses_anonymous_args = 0
 268              		@ link register save eliminated.
 269              		.loc 1 595 0
 270 0000 40F20000 		movw	r0, #:lower16:.LANCHOR0
 271 0004 C0F20000 		movt	r0, #:upper16:.LANCHOR0
 272              		.loc 1 596 0
 273              		.loc 1 595 0
 274 0008 FFF7FEBF 		b	chMtxInit
 275              		.cfi_endproc
ARM GAS  /tmp/ccayCWiC.s 			page 6


 276              	.LFE20:
 277              		.size	bmk12_setup, .-bmk12_setup
 278 000c AFF30080 		.section	.text.thread3,"ax",%progbits
 279              		.align	2
 280              		.p2align 4,,15
 281              		.thumb
 282              		.thumb_func
 283              		.type	thread3, %function
 284              	thread3:
 285              	.LFB10:
 286              		.loc 1 345 0
 287              		.cfi_startproc
 288              		@ args = 0, pretend = 0, frame = 0
 289              		@ frame_needed = 0, uses_anonymous_args = 0
 290              	.LVL5:
 291 0000 10B5     		push	{r4, lr}
 292              	.LCFI2:
 293              		.cfi_def_cfa_offset 8
 294              		.cfi_offset 14, -4
 295              		.cfi_offset 4, -8
 296              		.loc 1 348 0
 297 0002 40F20004 		movw	r4, #:lower16:rlist
 298 0006 C0F20004 		movt	r4, #:upper16:rlist
 299 000a A069     		ldr	r0, [r4, #24]
 300              	.LVL6:
 301 000c 90F82130 		ldrb	r3, [r0, #33]	@ zero_extendqisi2
 302 0010 5A07     		lsls	r2, r3, #29
 303 0012 0AD4     		bmi	.L10
 304              	.L12:
 305              		.loc 1 349 0
 306 0014 40F20000 		movw	r0, #:lower16:.LANCHOR1
 307 0018 C0F20000 		movt	r0, #:upper16:.LANCHOR1
 308 001c FFF7FEFF 		bl	chSemWait
 309              		.loc 1 348 0
 310 0020 A269     		ldr	r2, [r4, #24]
 311 0022 92F82110 		ldrb	r1, [r2, #33]	@ zero_extendqisi2
 312 0026 4B07     		lsls	r3, r1, #29
 313 0028 F4D5     		bpl	.L12
 314              	.L10:
 315              		.loc 1 351 0
 316 002a 0020     		movs	r0, #0
 317 002c 10BD     		pop	{r4, pc}
 318              		.cfi_endproc
 319              	.LFE10:
 320              		.size	thread3, .-thread3
 321 002e 00BF     		.section	.text.bmk11_execute,"ax",%progbits
 322              		.align	2
 323              		.p2align 4,,15
 324              		.thumb
 325              		.thumb_func
 326              		.type	bmk11_execute, %function
 327              	bmk11_execute:
 328              	.LFB19:
 329              		.loc 1 551 0
 330              		.cfi_startproc
 331              		@ args = 0, pretend = 0, frame = 0
 332              		@ frame_needed = 0, uses_anonymous_args = 0
ARM GAS  /tmp/ccayCWiC.s 			page 7


 333              	.LVL7:
 334 0000 38B5     		push	{r3, r4, r5, lr}
 335              	.LCFI3:
 336              		.cfi_def_cfa_offset 16
 337              		.cfi_offset 14, -4
 338              		.cfi_offset 5, -8
 339              		.cfi_offset 4, -12
 340              		.cfi_offset 3, -16
 341              		.loc 1 554 0
 342 0002 FFF7FEFF 		bl	test_wait_tick
 343              		.loc 1 555 0
 344 0006 4FF47A70 		mov	r0, #1000
 345 000a FFF7FEFF 		bl	test_start_timer
 346 000e 40F20005 		movw	r5, #:lower16:test_timer_done
 347              		.loc 1 552 0
 348 0012 0024     		movs	r4, #0
 349 0014 C0F20005 		movt	r5, #:upper16:test_timer_done
 350              	.LVL8:
 351              	.L15:
 352              		.loc 1 557 0 discriminator 1
 353 0018 40F20000 		movw	r0, #:lower16:.LANCHOR1
 354 001c C0F20000 		movt	r0, #:upper16:.LANCHOR1
 355 0020 FFF7FEFF 		bl	chSemWait
 356              		.loc 1 558 0 discriminator 1
 357 0024 40F20000 		movw	r0, #:lower16:.LANCHOR1
 358 0028 C0F20000 		movt	r0, #:upper16:.LANCHOR1
 359 002c FFF7FEFF 		bl	chSemSignal
 360              		.loc 1 559 0 discriminator 1
 361 0030 40F20000 		movw	r0, #:lower16:.LANCHOR1
 362 0034 C0F20000 		movt	r0, #:upper16:.LANCHOR1
 363 0038 FFF7FEFF 		bl	chSemWait
 364              		.loc 1 560 0 discriminator 1
 365 003c 40F20000 		movw	r0, #:lower16:.LANCHOR1
 366 0040 C0F20000 		movt	r0, #:upper16:.LANCHOR1
 367 0044 FFF7FEFF 		bl	chSemSignal
 368              		.loc 1 561 0 discriminator 1
 369 0048 40F20000 		movw	r0, #:lower16:.LANCHOR1
 370 004c C0F20000 		movt	r0, #:upper16:.LANCHOR1
 371 0050 FFF7FEFF 		bl	chSemWait
 372              		.loc 1 562 0 discriminator 1
 373 0054 40F20000 		movw	r0, #:lower16:.LANCHOR1
 374 0058 C0F20000 		movt	r0, #:upper16:.LANCHOR1
 375 005c FFF7FEFF 		bl	chSemSignal
 376              		.loc 1 563 0 discriminator 1
 377 0060 40F20000 		movw	r0, #:lower16:.LANCHOR1
 378 0064 C0F20000 		movt	r0, #:upper16:.LANCHOR1
 379 0068 FFF7FEFF 		bl	chSemWait
 380              		.loc 1 564 0 discriminator 1
 381 006c 40F20000 		movw	r0, #:lower16:.LANCHOR1
 382 0070 C0F20000 		movt	r0, #:upper16:.LANCHOR1
 383 0074 FFF7FEFF 		bl	chSemSignal
 384              		.loc 1 569 0 discriminator 1
 385 0078 2B68     		ldr	r3, [r5, #0]
 386              		.loc 1 565 0 discriminator 1
 387 007a 0134     		adds	r4, r4, #1
 388              	.LVL9:
 389              		.loc 1 569 0 discriminator 1
ARM GAS  /tmp/ccayCWiC.s 			page 8


 390 007c 002B     		cmp	r3, #0
 391 007e CBD0     		beq	.L15
 392              		.loc 1 570 0
 393 0080 40F20000 		movw	r0, #:lower16:.LC10
 394 0084 C0F20000 		movt	r0, #:upper16:.LC10
 395 0088 FFF7FEFF 		bl	test_print
 396              		.loc 1 571 0
 397 008c A000     		lsls	r0, r4, #2
 398 008e FFF7FEFF 		bl	test_printn
 399              		.loc 1 572 0
 400 0092 40F20000 		movw	r0, #:lower16:.LC12
 401 0096 C0F20000 		movt	r0, #:upper16:.LC12
 402              		.loc 1 573 0
 403 009a BDE83840 		pop	{r3, r4, r5, lr}
 404              		.loc 1 572 0
 405 009e FFF7FEBF 		b	test_println
 406              		.cfi_endproc
 407              	.LFE19:
 408              		.size	bmk11_execute, .-bmk11_execute
 409 00a2 00BFAFF3 		.section	.text.bmk11_setup,"ax",%progbits
 409      0080AFF3 
 409      0080AFF3 
 409      0080
 410              		.align	2
 411              		.p2align 4,,15
 412              		.thumb
 413              		.thumb_func
 414              		.type	bmk11_setup, %function
 415              	bmk11_setup:
 416              	.LFB18:
 417              		.loc 1 546 0
 418              		.cfi_startproc
 419              		@ args = 0, pretend = 0, frame = 0
 420              		@ frame_needed = 0, uses_anonymous_args = 0
 421              		@ link register save eliminated.
 422              		.loc 1 548 0
 423 0000 40F20000 		movw	r0, #:lower16:.LANCHOR1
 424 0004 C0F20000 		movt	r0, #:upper16:.LANCHOR1
 425 0008 0121     		movs	r1, #1
 426              		.loc 1 549 0
 427              		.loc 1 548 0
 428 000a FFF7FEBF 		b	chSemInit
 429              		.cfi_endproc
 430              	.LFE18:
 431              		.size	bmk11_setup, .-bmk11_setup
 432 000e 00BF     		.section	.text.bmk7_setup,"ax",%progbits
 433              		.align	2
 434              		.p2align 4,,15
 435              		.thumb
 436              		.thumb_func
 437              		.type	bmk7_setup, %function
 438              	bmk7_setup:
 439              	.LFB11:
 440              		.loc 1 353 0
 441              		.cfi_startproc
 442              		@ args = 0, pretend = 0, frame = 0
 443              		@ frame_needed = 0, uses_anonymous_args = 0
ARM GAS  /tmp/ccayCWiC.s 			page 9


 444              		@ link register save eliminated.
 445              		.loc 1 355 0
 446 0000 40F20000 		movw	r0, #:lower16:.LANCHOR1
 447 0004 C0F20000 		movt	r0, #:upper16:.LANCHOR1
 448 0008 0021     		movs	r1, #0
 449              		.loc 1 356 0
 450              		.loc 1 355 0
 451 000a FFF7FEBF 		b	chSemInit
 452              		.cfi_endproc
 453              	.LFE11:
 454              		.size	bmk7_setup, .-bmk7_setup
 455 000e 00BF     		.section	.text.bmk10_execute,"ax",%progbits
 456              		.align	2
 457              		.p2align 4,,15
 458              		.thumb
 459              		.thumb_func
 460              		.type	bmk10_execute, %function
 461              	bmk10_execute:
 462              	.LFB17:
 463              		.loc 1 506 0
 464              		.cfi_startproc
 465              		@ args = 0, pretend = 0, frame = 0
 466              		@ frame_needed = 0, uses_anonymous_args = 0
 467              	.LVL10:
 468 0000 38B5     		push	{r3, r4, r5, lr}
 469              	.LCFI4:
 470              		.cfi_def_cfa_offset 16
 471              		.cfi_offset 14, -4
 472              		.cfi_offset 5, -8
 473              		.cfi_offset 4, -12
 474              		.cfi_offset 3, -16
 475              		.loc 1 510 0
 476 0002 FFF7FEFF 		bl	test_wait_tick
 477              		.loc 1 511 0
 478 0006 4FF47A70 		mov	r0, #1000
 479 000a FFF7FEFF 		bl	test_start_timer
 480 000e 40F20005 		movw	r5, #:lower16:test_timer_done
 481              		.loc 1 508 0
 482 0012 0024     		movs	r4, #0
 483 0014 C0F20005 		movt	r5, #:upper16:test_timer_done
 484              	.LVL11:
 485              	.L20:
 486              		.loc 1 513 0 discriminator 1
 487              	@ 513 "../../../test/testbmk.c" 1
 488 0018 FFF7FEFF 		bl      _port_lock
 489              	@ 0 "" 2
 490              		.thumb
 491 001c FFF7FEFF 		bl	dbg_check_lock
 492              		.loc 1 514 0 discriminator 1
 493 0020 40F20000 		movw	r0, #:lower16:.LANCHOR2
 494 0024 40F20002 		movw	r2, #:lower16:tmo
 495 0028 0121     		movs	r1, #1
 496 002a 0023     		movs	r3, #0
 497 002c C0F20000 		movt	r0, #:upper16:.LANCHOR2
 498 0030 C0F20002 		movt	r2, #:upper16:tmo
 499 0034 FFF7FEFF 		bl	chVTSetI
 500              		.loc 1 515 0 discriminator 1
ARM GAS  /tmp/ccayCWiC.s 			page 10


 501 0038 40F20000 		movw	r0, #:lower16:.LANCHOR3
 502 003c 40F20002 		movw	r2, #:lower16:tmo
 503 0040 42F21071 		movw	r1, #10000
 504 0044 C0F20002 		movt	r2, #:upper16:tmo
 505 0048 0023     		movs	r3, #0
 506 004a C0F20000 		movt	r0, #:upper16:.LANCHOR3
 507 004e FFF7FEFF 		bl	chVTSetI
 508              		.loc 1 516 0 discriminator 1
 509 0052 40F20000 		movw	r0, #:lower16:.LANCHOR2
 510 0056 C0F20000 		movt	r0, #:upper16:.LANCHOR2
 511 005a FFF7FEFF 		bl	chVTResetI
 512              		.loc 1 517 0 discriminator 1
 513 005e 40F20000 		movw	r0, #:lower16:.LANCHOR3
 514 0062 C0F20000 		movt	r0, #:upper16:.LANCHOR3
 515 0066 FFF7FEFF 		bl	chVTResetI
 516              		.loc 1 518 0 discriminator 1
 517 006a FFF7FEFF 		bl	dbg_check_unlock
 518              	@ 518 "../../../test/testbmk.c" 1
 519 006e FFF7FEFF 		bl      _port_unlock
 520              	@ 0 "" 2
 521              		.loc 1 523 0 discriminator 1
 522              		.thumb
 523 0072 2B68     		ldr	r3, [r5, #0]
 524              		.loc 1 519 0 discriminator 1
 525 0074 0134     		adds	r4, r4, #1
 526              	.LVL12:
 527              		.loc 1 523 0 discriminator 1
 528 0076 002B     		cmp	r3, #0
 529 0078 CED0     		beq	.L20
 530              		.loc 1 524 0
 531 007a 40F20000 		movw	r0, #:lower16:.LC10
 532 007e C0F20000 		movt	r0, #:upper16:.LC10
 533 0082 FFF7FEFF 		bl	test_print
 534              		.loc 1 525 0
 535 0086 6000     		lsls	r0, r4, #1
 536 0088 FFF7FEFF 		bl	test_printn
 537              		.loc 1 526 0
 538 008c 40F20000 		movw	r0, #:lower16:.LC13
 539 0090 C0F20000 		movt	r0, #:upper16:.LC13
 540              		.loc 1 527 0
 541 0094 BDE83840 		pop	{r3, r4, r5, lr}
 542              		.loc 1 526 0
 543 0098 FFF7FEBF 		b	test_println
 544              		.cfi_endproc
 545              	.LFE17:
 546              		.size	bmk10_execute, .-bmk10_execute
 547              		.section	.text.bmk9_execute,"ax",%progbits
 548              		.align	2
 549              		.p2align 4,,15
 550              		.thumb
 551              		.thumb_func
 552              		.type	bmk9_execute, %function
 553              	bmk9_execute:
 554              	.LFB15:
 555              		.loc 1 458 0
 556              		.cfi_startproc
 557              		@ args = 0, pretend = 0, frame = 0
ARM GAS  /tmp/ccayCWiC.s 			page 11


 558              		@ frame_needed = 0, uses_anonymous_args = 0
 559 0000 30B5     		push	{r4, r5, lr}
 560              	.LCFI5:
 561              		.cfi_def_cfa_offset 12
 562              		.cfi_offset 14, -4
 563              		.cfi_offset 5, -8
 564              		.cfi_offset 4, -12
 565              		.loc 1 463 0
 566 0002 40F20000 		movw	r0, #:lower16:.LANCHOR4
 567              		.loc 1 458 0
 568 0006 83B0     		sub	sp, sp, #12
 569              	.LCFI6:
 570              		.cfi_def_cfa_offset 24
 571              		.loc 1 463 0
 572 0008 0024     		movs	r4, #0
 573 000a 40F20001 		movw	r1, #:lower16:.LANCHOR5
 574 000e C0F20001 		movt	r1, #:upper16:.LANCHOR5
 575 0012 1022     		movs	r2, #16
 576 0014 2346     		mov	r3, r4
 577 0016 C0F20000 		movt	r0, #:upper16:.LANCHOR4
 578 001a 0094     		str	r4, [sp, #0]
 579 001c FFF7FEFF 		bl	chIQInit
 580              	.LVL13:
 581              		.loc 1 465 0
 582 0020 FFF7FEFF 		bl	test_wait_tick
 583              		.loc 1 466 0
 584 0024 4FF47A70 		mov	r0, #1000
 585 0028 FFF7FEFF 		bl	test_start_timer
 586 002c 40F20005 		movw	r5, #:lower16:test_timer_done
 587 0030 C0F20005 		movt	r5, #:upper16:test_timer_done
 588              	.LVL14:
 589              	.L23:
 590              		.loc 1 468 0 discriminator 1
 591              	@ 468 "../../../test/testbmk.c" 1
 592 0034 FFF7FEFF 		bl      _port_lock
 593              	@ 0 "" 2
 594              		.thumb
 595 0038 FFF7FEFF 		bl	dbg_check_lock
 596              		.loc 1 469 0 discriminator 1
 597 003c 40F20000 		movw	r0, #:lower16:.LANCHOR4
 598 0040 0021     		movs	r1, #0
 599 0042 C0F20000 		movt	r0, #:upper16:.LANCHOR4
 600 0046 FFF7FEFF 		bl	chIQPutI
 601              		.loc 1 470 0 discriminator 1
 602 004a 40F20000 		movw	r0, #:lower16:.LANCHOR4
 603 004e 0121     		movs	r1, #1
 604 0050 C0F20000 		movt	r0, #:upper16:.LANCHOR4
 605 0054 FFF7FEFF 		bl	chIQPutI
 606              		.loc 1 471 0 discriminator 1
 607 0058 40F20000 		movw	r0, #:lower16:.LANCHOR4
 608 005c 0221     		movs	r1, #2
 609 005e C0F20000 		movt	r0, #:upper16:.LANCHOR4
 610 0062 FFF7FEFF 		bl	chIQPutI
 611              		.loc 1 472 0 discriminator 1
 612 0066 40F20000 		movw	r0, #:lower16:.LANCHOR4
 613 006a 0321     		movs	r1, #3
 614 006c C0F20000 		movt	r0, #:upper16:.LANCHOR4
ARM GAS  /tmp/ccayCWiC.s 			page 12


 615 0070 FFF7FEFF 		bl	chIQPutI
 616              		.loc 1 473 0 discriminator 1
 617 0074 FFF7FEFF 		bl	dbg_check_unlock
 618              	@ 473 "../../../test/testbmk.c" 1
 619 0078 FFF7FEFF 		bl      _port_unlock
 620              	@ 0 "" 2
 621              		.loc 1 474 0 discriminator 1
 622              		.thumb
 623 007c 40F20000 		movw	r0, #:lower16:.LANCHOR4
 624 0080 4FF0FF31 		mov	r1, #-1
 625 0084 C0F20000 		movt	r0, #:upper16:.LANCHOR4
 626 0088 FFF7FEFF 		bl	chIQGetTimeout
 627              		.loc 1 475 0 discriminator 1
 628 008c 40F20000 		movw	r0, #:lower16:.LANCHOR4
 629 0090 4FF0FF31 		mov	r1, #-1
 630 0094 C0F20000 		movt	r0, #:upper16:.LANCHOR4
 631 0098 FFF7FEFF 		bl	chIQGetTimeout
 632              		.loc 1 476 0 discriminator 1
 633 009c 40F20000 		movw	r0, #:lower16:.LANCHOR4
 634 00a0 4FF0FF31 		mov	r1, #-1
 635 00a4 C0F20000 		movt	r0, #:upper16:.LANCHOR4
 636 00a8 FFF7FEFF 		bl	chIQGetTimeout
 637              		.loc 1 477 0 discriminator 1
 638 00ac 40F20000 		movw	r0, #:lower16:.LANCHOR4
 639 00b0 C0F20000 		movt	r0, #:upper16:.LANCHOR4
 640 00b4 4FF0FF31 		mov	r1, #-1
 641 00b8 FFF7FEFF 		bl	chIQGetTimeout
 642              		.loc 1 482 0 discriminator 1
 643 00bc 2B68     		ldr	r3, [r5, #0]
 644              		.loc 1 478 0 discriminator 1
 645 00be 0134     		adds	r4, r4, #1
 646              	.LVL15:
 647              		.loc 1 482 0 discriminator 1
 648 00c0 002B     		cmp	r3, #0
 649 00c2 B7D0     		beq	.L23
 650              		.loc 1 483 0
 651 00c4 40F20000 		movw	r0, #:lower16:.LC10
 652 00c8 C0F20000 		movt	r0, #:upper16:.LC10
 653 00cc FFF7FEFF 		bl	test_print
 654              		.loc 1 484 0
 655 00d0 A000     		lsls	r0, r4, #2
 656 00d2 FFF7FEFF 		bl	test_printn
 657              		.loc 1 485 0
 658 00d6 40F20000 		movw	r0, #:lower16:.LC14
 659 00da C0F20000 		movt	r0, #:upper16:.LC14
 660              		.loc 1 486 0
 661 00de 03B0     		add	sp, sp, #12
 662 00e0 BDE83040 		pop	{r4, r5, lr}
 663              		.loc 1 485 0
 664 00e4 FFF7FEBF 		b	test_println
 665              		.cfi_endproc
 666              	.LFE15:
 667              		.size	bmk9_execute, .-bmk9_execute
 668 00e8 AFF30080 		.section	.text.bmk6_execute,"ax",%progbits
 668      AFF30080 
 669              		.align	2
 670              		.p2align 4,,15
ARM GAS  /tmp/ccayCWiC.s 			page 13


 671              		.thumb
 672              		.thumb_func
 673              		.type	bmk6_execute, %function
 674              	bmk6_execute:
 675              	.LFB9:
 676              		.loc 1 308 0
 677              		.cfi_startproc
 678              		@ args = 0, pretend = 0, frame = 0
 679              		@ frame_needed = 0, uses_anonymous_args = 0
 680              	.LVL16:
 681 0000 2DE9F041 		push	{r4, r5, r6, r7, r8, lr}
 682              	.LCFI7:
 683              		.cfi_def_cfa_offset 24
 684              		.cfi_offset 14, -4
 685              		.cfi_offset 8, -8
 686              		.cfi_offset 7, -12
 687              		.cfi_offset 6, -16
 688              		.cfi_offset 5, -20
 689              		.cfi_offset 4, -24
 690              		.loc 1 312 0
 691 0004 40F20000 		movw	r0, #:lower16:rlist
 692 0008 C0F20000 		movt	r0, #:upper16:rlist
 693              		.loc 1 311 0
 694 000c 40F20003 		movw	r3, #:lower16:wa
 695              		.loc 1 312 0
 696 0010 8269     		ldr	r2, [r0, #24]
 697              		.loc 1 311 0
 698 0012 C0F20003 		movt	r3, #:upper16:wa
 699              		.loc 1 308 0
 700 0016 82B0     		sub	sp, sp, #8
 701              	.LCFI8:
 702              		.cfi_def_cfa_offset 32
 703              		.loc 1 312 0
 704 0018 9768     		ldr	r7, [r2, #8]
 705              		.loc 1 311 0
 706 001a D3F80080 		ldr	r8, [r3, #0]
 707              	.LVL17:
 708              		.loc 1 313 0
 709 001e FFF7FEFF 		bl	test_wait_tick
 710              	.LVL18:
 711              		.loc 1 314 0
 712 0022 4FF47A70 		mov	r0, #1000
 713 0026 FFF7FEFF 		bl	test_start_timer
 714              		.loc 1 310 0
 715 002a 0024     		movs	r4, #0
 716 002c 40F20005 		movw	r5, #:lower16:test_timer_done
 717              		.loc 1 312 0
 718 0030 0137     		adds	r7, r7, #1
 719              	.LVL19:
 720 0032 C0F20005 		movt	r5, #:upper16:test_timer_done
 721              		.loc 1 316 0
 722 0036 2646     		mov	r6, r4
 723              	.LVL20:
 724              	.L26:
 725              		.loc 1 316 0 is_stmt 0 discriminator 1
 726 0038 40F20003 		movw	r3, #:lower16:thread2
 727 003c 4FF49871 		mov	r1, #304
ARM GAS  /tmp/ccayCWiC.s 			page 14


 728 0040 4046     		mov	r0, r8
 729 0042 3A46     		mov	r2, r7
 730 0044 C0F20003 		movt	r3, #:upper16:thread2
 731 0048 0096     		str	r6, [sp, #0]
 732 004a FFF7FEFF 		bl	chThdCreateStatic
 733              		.loc 1 321 0 is_stmt 1 discriminator 1
 734 004e 2968     		ldr	r1, [r5, #0]
 735              		.loc 1 317 0 discriminator 1
 736 0050 0134     		adds	r4, r4, #1
 737              	.LVL21:
 738              		.loc 1 321 0 discriminator 1
 739 0052 0029     		cmp	r1, #0
 740 0054 F0D0     		beq	.L26
 741              		.loc 1 322 0
 742 0056 40F20000 		movw	r0, #:lower16:.LC10
 743 005a C0F20000 		movt	r0, #:upper16:.LC10
 744 005e FFF7FEFF 		bl	test_print
 745              		.loc 1 323 0
 746 0062 2046     		mov	r0, r4
 747 0064 FFF7FEFF 		bl	test_printn
 748              		.loc 1 324 0
 749 0068 40F20000 		movw	r0, #:lower16:.LC15
 750 006c C0F20000 		movt	r0, #:upper16:.LC15
 751              		.loc 1 325 0
 752 0070 02B0     		add	sp, sp, #8
 753 0072 BDE8F041 		pop	{r4, r5, r6, r7, r8, lr}
 754              		.loc 1 324 0
 755 0076 FFF7FEBF 		b	test_println
 756              		.cfi_endproc
 757              	.LFE9:
 758              		.size	bmk6_execute, .-bmk6_execute
 759 007a 00BFAFF3 		.section	.text.bmk8_execute,"ax",%progbits
 759      0080
 760              		.align	2
 761              		.p2align 4,,15
 762              		.thumb
 763              		.thumb_func
 764              		.type	bmk8_execute, %function
 765              	bmk8_execute:
 766              	.LFB14:
 767              		.loc 1 420 0
 768              		.cfi_startproc
 769              		@ args = 0, pretend = 0, frame = 8
 770              		@ frame_needed = 0, uses_anonymous_args = 0
 771 0000 2DE9F041 		push	{r4, r5, r6, r7, r8, lr}
 772              	.LCFI9:
 773              		.cfi_def_cfa_offset 24
 774              		.cfi_offset 14, -4
 775              		.cfi_offset 8, -8
 776              		.cfi_offset 7, -12
 777              		.cfi_offset 6, -16
 778              		.cfi_offset 5, -20
 779              		.cfi_offset 4, -24
 780              		.loc 1 426 0
 781 0004 40F20007 		movw	r7, #:lower16:rlist
 782              		.loc 1 420 0
 783 0008 84B0     		sub	sp, sp, #16
ARM GAS  /tmp/ccayCWiC.s 			page 15


 784              	.LCFI10:
 785              		.cfi_def_cfa_offset 40
 786              		.loc 1 423 0
 787 000a 04AC     		add	r4, sp, #16
 788              		.loc 1 426 0
 789 000c C0F20007 		movt	r7, #:upper16:rlist
 790              		.loc 1 423 0
 791 0010 0020     		movs	r0, #0
 792 0012 44F8040D 		str	r0, [r4, #-4]!
 793              	.LVL22:
 794              		.loc 1 424 0
 795 0016 FFF7FEFF 		bl	test_wait_tick
 796              		.loc 1 426 0
 797 001a BD69     		ldr	r5, [r7, #24]
 798 001c 40F20006 		movw	r6, #:lower16:wa
 799 0020 C0F20006 		movt	r6, #:upper16:wa
 800 0024 AA68     		ldr	r2, [r5, #8]
 801 0026 3068     		ldr	r0, [r6, #0]
 802 0028 0094     		str	r4, [sp, #0]
 803 002a 40F20005 		movw	r5, #:lower16:thread8
 804 002e C0F20005 		movt	r5, #:upper16:thread8
 805 0032 013A     		subs	r2, r2, #1
 806 0034 2B46     		mov	r3, r5
 807 0036 4FF49871 		mov	r1, #304
 808 003a FFF7FEFF 		bl	chThdCreateStatic
 809              		.loc 1 427 0
 810 003e B969     		ldr	r1, [r7, #24]
 811 0040 D6F804E0 		ldr	lr, [r6, #4]
 812 0044 8B68     		ldr	r3, [r1, #8]
 813 0046 0094     		str	r4, [sp, #0]
 814              		.loc 1 426 0
 815 0048 40F20008 		movw	r8, #:lower16:threads
 816 004c C0F20008 		movt	r8, #:upper16:threads
 817              		.loc 1 427 0
 818 0050 5A1E     		subs	r2, r3, #1
 819              		.loc 1 426 0
 820 0052 C8F80000 		str	r0, [r8, #0]
 821              		.loc 1 427 0
 822 0056 2B46     		mov	r3, r5
 823 0058 7046     		mov	r0, lr
 824 005a 4FF49871 		mov	r1, #304
 825 005e FFF7FEFF 		bl	chThdCreateStatic
 826              		.loc 1 428 0
 827 0062 BA69     		ldr	r2, [r7, #24]
 828 0064 D6F808C0 		ldr	ip, [r6, #8]
 829 0068 9368     		ldr	r3, [r2, #8]
 830              		.loc 1 427 0
 831 006a C8F80400 		str	r0, [r8, #4]
 832              		.loc 1 428 0
 833 006e 5A1E     		subs	r2, r3, #1
 834 0070 6046     		mov	r0, ip
 835 0072 2B46     		mov	r3, r5
 836 0074 4FF49871 		mov	r1, #304
 837 0078 0094     		str	r4, [sp, #0]
 838 007a FFF7FEFF 		bl	chThdCreateStatic
 839              		.loc 1 429 0
 840 007e B969     		ldr	r1, [r7, #24]
ARM GAS  /tmp/ccayCWiC.s 			page 16


 841 0080 D6F80CE0 		ldr	lr, [r6, #12]
 842 0084 8A68     		ldr	r2, [r1, #8]
 843              		.loc 1 428 0
 844 0086 C8F80800 		str	r0, [r8, #8]
 845              		.loc 1 429 0
 846 008a 013A     		subs	r2, r2, #1
 847 008c 7046     		mov	r0, lr
 848 008e 2B46     		mov	r3, r5
 849 0090 4FF49871 		mov	r1, #304
 850 0094 0094     		str	r4, [sp, #0]
 851 0096 FFF7FEFF 		bl	chThdCreateStatic
 852              		.loc 1 430 0
 853 009a BB69     		ldr	r3, [r7, #24]
 854 009c 3669     		ldr	r6, [r6, #16]
 855 009e 9A68     		ldr	r2, [r3, #8]
 856              		.loc 1 429 0
 857 00a0 C8F80C00 		str	r0, [r8, #12]
 858              		.loc 1 430 0
 859 00a4 4FF49871 		mov	r1, #304
 860 00a8 013A     		subs	r2, r2, #1
 861 00aa 2B46     		mov	r3, r5
 862 00ac 3046     		mov	r0, r6
 863 00ae 0094     		str	r4, [sp, #0]
 864 00b0 FFF7FEFF 		bl	chThdCreateStatic
 865 00b4 C8F81000 		str	r0, [r8, #16]
 866              		.loc 1 432 0
 867 00b8 4FF47A70 		mov	r0, #1000
 868 00bc FFF7FEFF 		bl	chThdSleep
 869              		.loc 1 433 0
 870 00c0 FFF7FEFF 		bl	test_terminate_threads
 871              		.loc 1 434 0
 872 00c4 FFF7FEFF 		bl	test_wait_threads
 873              		.loc 1 436 0
 874 00c8 40F20000 		movw	r0, #:lower16:.LC10
 875 00cc C0F20000 		movt	r0, #:upper16:.LC10
 876 00d0 FFF7FEFF 		bl	test_print
 877              		.loc 1 437 0
 878 00d4 0398     		ldr	r0, [sp, #12]
 879 00d6 FFF7FEFF 		bl	test_printn
 880              		.loc 1 438 0
 881 00da 40F20000 		movw	r0, #:lower16:.LC16
 882 00de C0F20000 		movt	r0, #:upper16:.LC16
 883 00e2 FFF7FEFF 		bl	test_println
 884              		.loc 1 439 0
 885 00e6 04B0     		add	sp, sp, #16
 886 00e8 BDE8F081 		pop	{r4, r5, r6, r7, r8, pc}
 887              		.cfi_endproc
 888              	.LFE14:
 889              		.size	bmk8_execute, .-bmk8_execute
 890 00ec AFF30080 		.section	.text.thread8,"ax",%progbits
 891              		.align	2
 892              		.p2align 4,,15
 893              		.thumb
 894              		.thumb_func
 895              		.type	thread8, %function
 896              	thread8:
 897              	.LFB13:
ARM GAS  /tmp/ccayCWiC.s 			page 17


 898              		.loc 1 405 0
 899              		.cfi_startproc
 900              		@ args = 0, pretend = 0, frame = 0
 901              		@ frame_needed = 0, uses_anonymous_args = 0
 902              	.LVL23:
 903 0000 38B5     		push	{r3, r4, r5, lr}
 904              	.LCFI11:
 905              		.cfi_def_cfa_offset 16
 906              		.cfi_offset 14, -4
 907              		.cfi_offset 5, -8
 908              		.cfi_offset 4, -12
 909              		.cfi_offset 3, -16
 910 0002 40F20004 		movw	r4, #:lower16:rlist
 911              		.loc 1 405 0
 912 0006 0546     		mov	r5, r0
 913 0008 C0F20004 		movt	r4, #:upper16:rlist
 914              	.LVL24:
 915              	.L30:
 916              		.loc 1 408 0 discriminator 1
 917 000c FFF7FEFF 		bl	chThdYield
 918              		.loc 1 409 0 discriminator 1
 919 0010 FFF7FEFF 		bl	chThdYield
 920              		.loc 1 410 0 discriminator 1
 921 0014 FFF7FEFF 		bl	chThdYield
 922              		.loc 1 411 0 discriminator 1
 923 0018 FFF7FEFF 		bl	chThdYield
 924              		.loc 1 412 0 discriminator 1
 925 001c 2968     		ldr	r1, [r5, #0]
 926              		.loc 1 416 0 discriminator 1
 927 001e A069     		ldr	r0, [r4, #24]
 928              		.loc 1 412 0 discriminator 1
 929 0020 0A1D     		adds	r2, r1, #4
 930 0022 2A60     		str	r2, [r5, #0]
 931              		.loc 1 416 0 discriminator 1
 932 0024 90F82130 		ldrb	r3, [r0, #33]	@ zero_extendqisi2
 933 0028 5907     		lsls	r1, r3, #29
 934 002a EFD5     		bpl	.L30
 935              		.loc 1 418 0
 936 002c 0020     		movs	r0, #0
 937 002e 38BD     		pop	{r3, r4, r5, pc}
 938              		.cfi_endproc
 939              	.LFE13:
 940              		.size	thread8, .-thread8
 941              		.section	.text.bmk7_execute,"ax",%progbits
 942              		.align	2
 943              		.p2align 4,,15
 944              		.thumb
 945              		.thumb_func
 946              		.type	bmk7_execute, %function
 947              	bmk7_execute:
 948              	.LFB12:
 949              		.loc 1 358 0
 950              		.cfi_startproc
 951              		@ args = 0, pretend = 0, frame = 0
 952              		@ frame_needed = 0, uses_anonymous_args = 0
 953 0000 F0B5     		push	{r4, r5, r6, r7, lr}
 954              	.LCFI12:
ARM GAS  /tmp/ccayCWiC.s 			page 18


 955              		.cfi_def_cfa_offset 20
 956              		.cfi_offset 14, -4
 957              		.cfi_offset 7, -8
 958              		.cfi_offset 6, -12
 959              		.cfi_offset 5, -16
 960              		.cfi_offset 4, -20
 961              		.loc 1 361 0
 962 0002 40F20006 		movw	r6, #:lower16:rlist
 963 0006 C0F20006 		movt	r6, #:upper16:rlist
 964 000a 40F20005 		movw	r5, #:lower16:wa
 965 000e B769     		ldr	r7, [r6, #24]
 966 0010 C0F20005 		movt	r5, #:upper16:wa
 967 0014 BA68     		ldr	r2, [r7, #8]
 968 0016 2868     		ldr	r0, [r5, #0]
 969              		.loc 1 358 0
 970 0018 83B0     		sub	sp, sp, #12
 971              	.LCFI13:
 972              		.cfi_def_cfa_offset 32
 973              		.loc 1 361 0
 974 001a 40F20003 		movw	r3, #:lower16:thread3
 975 001e 0027     		movs	r7, #0
 976 0020 4FF49871 		mov	r1, #304
 977 0024 0532     		adds	r2, r2, #5
 978 0026 C0F20003 		movt	r3, #:upper16:thread3
 979 002a 0097     		str	r7, [sp, #0]
 980 002c FFF7FEFF 		bl	chThdCreateStatic
 981              		.loc 1 362 0
 982 0030 B469     		ldr	r4, [r6, #24]
 983 0032 D5F804E0 		ldr	lr, [r5, #4]
 984 0036 A268     		ldr	r2, [r4, #8]
 985 0038 0097     		str	r7, [sp, #0]
 986              		.loc 1 361 0
 987 003a 40F20004 		movw	r4, #:lower16:threads
 988 003e C0F20004 		movt	r4, #:upper16:threads
 989              		.loc 1 362 0
 990 0042 40F20003 		movw	r3, #:lower16:thread3
 991              		.loc 1 361 0
 992 0046 2060     		str	r0, [r4, #0]
 993              		.loc 1 362 0
 994 0048 4FF49871 		mov	r1, #304
 995 004c 7046     		mov	r0, lr
 996 004e 0432     		adds	r2, r2, #4
 997 0050 C0F20003 		movt	r3, #:upper16:thread3
 998 0054 FFF7FEFF 		bl	chThdCreateStatic
 999              		.loc 1 363 0
 1000 0058 B369     		ldr	r3, [r6, #24]
 1001 005a D5F808C0 		ldr	ip, [r5, #8]
 1002 005e 9A68     		ldr	r2, [r3, #8]
 1003              		.loc 1 362 0
 1004 0060 6060     		str	r0, [r4, #4]
 1005              		.loc 1 363 0
 1006 0062 40F20003 		movw	r3, #:lower16:thread3
 1007 0066 6046     		mov	r0, ip
 1008 0068 4FF49871 		mov	r1, #304
 1009 006c 0332     		adds	r2, r2, #3
 1010 006e C0F20003 		movt	r3, #:upper16:thread3
 1011 0072 0097     		str	r7, [sp, #0]
ARM GAS  /tmp/ccayCWiC.s 			page 19


 1012 0074 FFF7FEFF 		bl	chThdCreateStatic
 1013              		.loc 1 364 0
 1014 0078 B169     		ldr	r1, [r6, #24]
 1015 007a D5F80CE0 		ldr	lr, [r5, #12]
 1016 007e 8A68     		ldr	r2, [r1, #8]
 1017              		.loc 1 363 0
 1018 0080 A060     		str	r0, [r4, #8]
 1019              		.loc 1 364 0
 1020 0082 40F20003 		movw	r3, #:lower16:thread3
 1021 0086 7046     		mov	r0, lr
 1022 0088 4FF49871 		mov	r1, #304
 1023 008c 0232     		adds	r2, r2, #2
 1024 008e C0F20003 		movt	r3, #:upper16:thread3
 1025 0092 0097     		str	r7, [sp, #0]
 1026 0094 FFF7FEFF 		bl	chThdCreateStatic
 1027              		.loc 1 365 0
 1028 0098 B369     		ldr	r3, [r6, #24]
 1029 009a 2D69     		ldr	r5, [r5, #16]
 1030 009c 9A68     		ldr	r2, [r3, #8]
 1031              		.loc 1 364 0
 1032 009e E060     		str	r0, [r4, #12]
 1033              		.loc 1 365 0
 1034 00a0 40F20003 		movw	r3, #:lower16:thread3
 1035 00a4 4FF49871 		mov	r1, #304
 1036 00a8 0132     		adds	r2, r2, #1
 1037 00aa C0F20003 		movt	r3, #:upper16:thread3
 1038 00ae 2846     		mov	r0, r5
 1039 00b0 0097     		str	r7, [sp, #0]
 1040 00b2 FFF7FEFF 		bl	chThdCreateStatic
 1041 00b6 2061     		str	r0, [r4, #16]
 1042              	.LVL25:
 1043              		.loc 1 368 0
 1044 00b8 FFF7FEFF 		bl	test_wait_tick
 1045              		.loc 1 369 0
 1046 00bc 4FF47A70 		mov	r0, #1000
 1047 00c0 FFF7FEFF 		bl	test_start_timer
 1048 00c4 40F20004 		movw	r4, #:lower16:test_timer_done
 1049 00c8 C0F20004 		movt	r4, #:upper16:test_timer_done
 1050              	.LVL26:
 1051              	.L33:
 1052              		.loc 1 371 0 discriminator 1
 1053 00cc 40F20000 		movw	r0, #:lower16:.LANCHOR1
 1054 00d0 C0F20000 		movt	r0, #:upper16:.LANCHOR1
 1055 00d4 0021     		movs	r1, #0
 1056 00d6 FFF7FEFF 		bl	chSemReset
 1057              		.loc 1 376 0 discriminator 1
 1058 00da 2068     		ldr	r0, [r4, #0]
 1059              		.loc 1 372 0 discriminator 1
 1060 00dc 0137     		adds	r7, r7, #1
 1061              	.LVL27:
 1062              		.loc 1 376 0 discriminator 1
 1063 00de 0028     		cmp	r0, #0
 1064 00e0 F4D0     		beq	.L33
 1065              		.loc 1 377 0
 1066 00e2 FFF7FEFF 		bl	test_terminate_threads
 1067              		.loc 1 378 0
 1068 00e6 40F20000 		movw	r0, #:lower16:.LANCHOR1
ARM GAS  /tmp/ccayCWiC.s 			page 20


 1069 00ea 0021     		movs	r1, #0
 1070 00ec C0F20000 		movt	r0, #:upper16:.LANCHOR1
 1071 00f0 FFF7FEFF 		bl	chSemReset
 1072              		.loc 1 379 0
 1073 00f4 FFF7FEFF 		bl	test_wait_threads
 1074              		.loc 1 381 0
 1075 00f8 40F20000 		movw	r0, #:lower16:.LC10
 1076 00fc C0F20000 		movt	r0, #:upper16:.LC10
 1077 0100 FFF7FEFF 		bl	test_print
 1078              		.loc 1 382 0
 1079 0104 3846     		mov	r0, r7
 1080 0106 FFF7FEFF 		bl	test_printn
 1081              		.loc 1 383 0
 1082 010a 40F20000 		movw	r0, #:lower16:.LC17
 1083 010e C0F20000 		movt	r0, #:upper16:.LC17
 1084              		.loc 1 384 0
 1085 0112 07EB4707 		add	r7, r7, r7, lsl #1
 1086              	.LVL28:
 1087              		.loc 1 383 0
 1088 0116 FFF7FEFF 		bl	test_print
 1089              		.loc 1 384 0
 1090 011a 7800     		lsls	r0, r7, #1
 1091 011c FFF7FEFF 		bl	test_printn
 1092              		.loc 1 385 0
 1093 0120 40F20000 		movw	r0, #:lower16:.LC16
 1094 0124 C0F20000 		movt	r0, #:upper16:.LC16
 1095              		.loc 1 386 0
 1096 0128 03B0     		add	sp, sp, #12
 1097 012a BDE8F040 		pop	{r4, r5, r6, r7, lr}
 1098              		.loc 1 385 0
 1099 012e FFF7FEBF 		b	test_println
 1100              		.cfi_endproc
 1101              	.LFE12:
 1102              		.size	bmk7_execute, .-bmk7_execute
 1103 0132 00BFAFF3 		.section	.text.bmk5_execute,"ax",%progbits
 1103      0080AFF3 
 1103      0080AFF3 
 1103      0080
 1104              		.align	2
 1105              		.p2align 4,,15
 1106              		.thumb
 1107              		.thumb_func
 1108              		.type	bmk5_execute, %function
 1109              	bmk5_execute:
 1110              	.LFB8:
 1111              		.loc 1 269 0
 1112              		.cfi_startproc
 1113              		@ args = 0, pretend = 0, frame = 0
 1114              		@ frame_needed = 0, uses_anonymous_args = 0
 1115              	.LVL29:
 1116 0000 2DE9F041 		push	{r4, r5, r6, r7, r8, lr}
 1117              	.LCFI14:
 1118              		.cfi_def_cfa_offset 24
 1119              		.cfi_offset 14, -4
 1120              		.cfi_offset 8, -8
 1121              		.cfi_offset 7, -12
 1122              		.cfi_offset 6, -16
ARM GAS  /tmp/ccayCWiC.s 			page 21


 1123              		.cfi_offset 5, -20
 1124              		.cfi_offset 4, -24
 1125              		.loc 1 273 0
 1126 0004 40F20000 		movw	r0, #:lower16:rlist
 1127 0008 C0F20000 		movt	r0, #:upper16:rlist
 1128              		.loc 1 272 0
 1129 000c 40F20003 		movw	r3, #:lower16:wa
 1130              		.loc 1 273 0
 1131 0010 8269     		ldr	r2, [r0, #24]
 1132              		.loc 1 272 0
 1133 0012 C0F20003 		movt	r3, #:upper16:wa
 1134              		.loc 1 269 0
 1135 0016 82B0     		sub	sp, sp, #8
 1136              	.LCFI15:
 1137              		.cfi_def_cfa_offset 32
 1138              		.loc 1 273 0
 1139 0018 9768     		ldr	r7, [r2, #8]
 1140              		.loc 1 272 0
 1141 001a D3F80080 		ldr	r8, [r3, #0]
 1142              	.LVL30:
 1143              		.loc 1 274 0
 1144 001e FFF7FEFF 		bl	test_wait_tick
 1145              	.LVL31:
 1146              		.loc 1 275 0
 1147 0022 4FF47A70 		mov	r0, #1000
 1148 0026 FFF7FEFF 		bl	test_start_timer
 1149              		.loc 1 271 0
 1150 002a 0024     		movs	r4, #0
 1151 002c 40F20005 		movw	r5, #:lower16:test_timer_done
 1152              		.loc 1 273 0
 1153 0030 013F     		subs	r7, r7, #1
 1154              	.LVL32:
 1155 0032 C0F20005 		movt	r5, #:upper16:test_timer_done
 1156              		.loc 1 277 0
 1157 0036 2646     		mov	r6, r4
 1158              	.LVL33:
 1159              	.L36:
 1160              		.loc 1 277 0 is_stmt 0 discriminator 1
 1161 0038 40F20003 		movw	r3, #:lower16:thread2
 1162 003c 4FF49871 		mov	r1, #304
 1163 0040 3A46     		mov	r2, r7
 1164 0042 C0F20003 		movt	r3, #:upper16:thread2
 1165 0046 4046     		mov	r0, r8
 1166 0048 0096     		str	r6, [sp, #0]
 1167 004a FFF7FEFF 		bl	chThdCreateStatic
 1168 004e FFF7FEFF 		bl	chThdWait
 1169              		.loc 1 282 0 is_stmt 1 discriminator 1
 1170 0052 2968     		ldr	r1, [r5, #0]
 1171              		.loc 1 278 0 discriminator 1
 1172 0054 0134     		adds	r4, r4, #1
 1173              	.LVL34:
 1174              		.loc 1 282 0 discriminator 1
 1175 0056 0029     		cmp	r1, #0
 1176 0058 EED0     		beq	.L36
 1177              		.loc 1 283 0
 1178 005a 40F20000 		movw	r0, #:lower16:.LC10
 1179 005e C0F20000 		movt	r0, #:upper16:.LC10
ARM GAS  /tmp/ccayCWiC.s 			page 22


 1180 0062 FFF7FEFF 		bl	test_print
 1181              		.loc 1 284 0
 1182 0066 2046     		mov	r0, r4
 1183 0068 FFF7FEFF 		bl	test_printn
 1184              		.loc 1 285 0
 1185 006c 40F20000 		movw	r0, #:lower16:.LC15
 1186 0070 C0F20000 		movt	r0, #:upper16:.LC15
 1187              		.loc 1 286 0
 1188 0074 02B0     		add	sp, sp, #8
 1189 0076 BDE8F041 		pop	{r4, r5, r6, r7, r8, lr}
 1190              		.loc 1 285 0
 1191 007a FFF7FEBF 		b	test_println
 1192              		.cfi_endproc
 1193              	.LFE8:
 1194              		.size	bmk5_execute, .-bmk5_execute
 1195 007e 00BF     		.section	.text.bmk4_execute,"ax",%progbits
 1196              		.align	2
 1197              		.p2align 4,,15
 1198              		.thumb
 1199              		.thumb_func
 1200              		.type	bmk4_execute, %function
 1201              	bmk4_execute:
 1202              	.LFB7:
 1203              		.loc 1 221 0
 1204              		.cfi_startproc
 1205              		@ args = 0, pretend = 0, frame = 0
 1206              		@ frame_needed = 0, uses_anonymous_args = 0
 1207 0000 70B5     		push	{r4, r5, r6, lr}
 1208              	.LCFI16:
 1209              		.cfi_def_cfa_offset 16
 1210              		.cfi_offset 14, -4
 1211              		.cfi_offset 6, -8
 1212              		.cfi_offset 5, -12
 1213              		.cfi_offset 4, -16
 1214              		.loc 1 225 0
 1215 0002 40F20004 		movw	r4, #:lower16:rlist
 1216 0006 C0F20004 		movt	r4, #:upper16:rlist
 1217 000a 40F20000 		movw	r0, #:lower16:wa
 1218 000e A169     		ldr	r1, [r4, #24]
 1219 0010 C0F20000 		movt	r0, #:upper16:wa
 1220 0014 8A68     		ldr	r2, [r1, #8]
 1221 0016 0068     		ldr	r0, [r0, #0]
 1222              		.loc 1 221 0
 1223 0018 82B0     		sub	sp, sp, #8
 1224              	.LCFI17:
 1225              		.cfi_def_cfa_offset 24
 1226              		.loc 1 225 0
 1227 001a 40F20003 		movw	r3, #:lower16:thread4
 1228 001e 4FF49871 		mov	r1, #304
 1229 0022 0132     		adds	r2, r2, #1
 1230 0024 C0F20003 		movt	r3, #:upper16:thread4
 1231 0028 0024     		movs	r4, #0
 1232 002a 0094     		str	r4, [sp, #0]
 1233 002c FFF7FEFF 		bl	chThdCreateStatic
 1234 0030 40F20003 		movw	r3, #:lower16:threads
 1235 0034 C0F20003 		movt	r3, #:upper16:threads
 1236 0038 0546     		mov	r5, r0
ARM GAS  /tmp/ccayCWiC.s 			page 23


 1237 003a 1860     		str	r0, [r3, #0]
 1238              	.LVL35:
 1239              		.loc 1 227 0
 1240 003c FFF7FEFF 		bl	test_wait_tick
 1241              	.LVL36:
 1242              		.loc 1 228 0
 1243 0040 4FF47A70 		mov	r0, #1000
 1244 0044 FFF7FEFF 		bl	test_start_timer
 1245 0048 40F20006 		movw	r6, #:lower16:test_timer_done
 1246 004c C0F20006 		movt	r6, #:upper16:test_timer_done
 1247              	.LVL37:
 1248              	.L39:
 1249              		.loc 1 230 0 discriminator 1
 1250              	@ 230 "../../../test/testbmk.c" 1
 1251 0050 FFF7FEFF 		bl      _port_lock
 1252              	@ 0 "" 2
 1253              		.thumb
 1254 0054 FFF7FEFF 		bl	dbg_check_lock
 1255              		.loc 1 231 0 discriminator 1
 1256 0058 2846     		mov	r0, r5
 1257 005a 0021     		movs	r1, #0
 1258 005c FFF7FEFF 		bl	chSchWakeupS
 1259              		.loc 1 232 0 discriminator 1
 1260 0060 2846     		mov	r0, r5
 1261 0062 0021     		movs	r1, #0
 1262 0064 FFF7FEFF 		bl	chSchWakeupS
 1263              		.loc 1 233 0 discriminator 1
 1264 0068 2846     		mov	r0, r5
 1265 006a 0021     		movs	r1, #0
 1266 006c FFF7FEFF 		bl	chSchWakeupS
 1267              		.loc 1 234 0 discriminator 1
 1268 0070 2846     		mov	r0, r5
 1269 0072 0021     		movs	r1, #0
 1270 0074 FFF7FEFF 		bl	chSchWakeupS
 1271              		.loc 1 235 0 discriminator 1
 1272 0078 FFF7FEFF 		bl	dbg_check_unlock
 1273              	@ 235 "../../../test/testbmk.c" 1
 1274 007c FFF7FEFF 		bl      _port_unlock
 1275              	@ 0 "" 2
 1276              		.loc 1 240 0 discriminator 1
 1277              		.thumb
 1278 0080 3368     		ldr	r3, [r6, #0]
 1279              		.loc 1 236 0 discriminator 1
 1280 0082 0434     		adds	r4, r4, #4
 1281              	.LVL38:
 1282              		.loc 1 240 0 discriminator 1
 1283 0084 002B     		cmp	r3, #0
 1284 0086 E3D0     		beq	.L39
 1285              		.loc 1 241 0
 1286              	@ 241 "../../../test/testbmk.c" 1
 1287 0088 FFF7FEFF 		bl      _port_lock
 1288              	@ 0 "" 2
 1289              		.thumb
 1290 008c FFF7FEFF 		bl	dbg_check_lock
 1291              		.loc 1 242 0
 1292 0090 2846     		mov	r0, r5
 1293 0092 4FF0FF31 		mov	r1, #-1
ARM GAS  /tmp/ccayCWiC.s 			page 24


 1294 0096 FFF7FEFF 		bl	chSchWakeupS
 1295              		.loc 1 243 0
 1296 009a FFF7FEFF 		bl	dbg_check_unlock
 1297              	@ 243 "../../../test/testbmk.c" 1
 1298 009e FFF7FEFF 		bl      _port_unlock
 1299              	@ 0 "" 2
 1300              		.loc 1 245 0
 1301              		.thumb
 1302 00a2 FFF7FEFF 		bl	test_wait_threads
 1303              		.loc 1 246 0
 1304 00a6 40F20000 		movw	r0, #:lower16:.LC10
 1305 00aa C0F20000 		movt	r0, #:upper16:.LC10
 1306 00ae FFF7FEFF 		bl	test_print
 1307              		.loc 1 247 0
 1308 00b2 6000     		lsls	r0, r4, #1
 1309 00b4 FFF7FEFF 		bl	test_printn
 1310              		.loc 1 248 0
 1311 00b8 40F20000 		movw	r0, #:lower16:.LC16
 1312 00bc C0F20000 		movt	r0, #:upper16:.LC16
 1313              		.loc 1 249 0
 1314 00c0 02B0     		add	sp, sp, #8
 1315 00c2 BDE87040 		pop	{r4, r5, r6, lr}
 1316              		.loc 1 248 0
 1317 00c6 FFF7FEBF 		b	test_println
 1318              		.cfi_endproc
 1319              	.LFE7:
 1320              		.size	bmk4_execute, .-bmk4_execute
 1321 00ca 00BFAFF3 		.section	.text.msg_loop_test,"ax",%progbits
 1321      0080
 1322              		.align	2
 1323              		.p2align 4,,15
 1324              		.thumb
 1325              		.thumb_func
 1326              		.type	msg_loop_test, %function
 1327              	msg_loop_test:
 1328              	.LFB1:
 1329              		.loc 1 84 0
 1330              		.cfi_startproc
 1331              		@ args = 0, pretend = 0, frame = 0
 1332              		@ frame_needed = 0, uses_anonymous_args = 0
 1333              	.LVL39:
 1334 0000 70B5     		push	{r4, r5, r6, lr}
 1335              	.LCFI18:
 1336              		.cfi_def_cfa_offset 16
 1337              		.cfi_offset 14, -4
 1338              		.cfi_offset 6, -8
 1339              		.cfi_offset 5, -12
 1340              		.cfi_offset 4, -16
 1341              		.loc 1 84 0
 1342 0002 0646     		mov	r6, r0
 1343              		.loc 1 87 0
 1344 0004 FFF7FEFF 		bl	test_wait_tick
 1345              	.LVL40:
 1346              		.loc 1 88 0
 1347 0008 4FF47A70 		mov	r0, #1000
 1348 000c FFF7FEFF 		bl	test_start_timer
 1349 0010 40F20005 		movw	r5, #:lower16:test_timer_done
ARM GAS  /tmp/ccayCWiC.s 			page 25


 1350              		.loc 1 86 0
 1351 0014 0024     		movs	r4, #0
 1352 0016 C0F20005 		movt	r5, #:upper16:test_timer_done
 1353              	.LVL41:
 1354              	.L42:
 1355              		.loc 1 90 0 discriminator 1
 1356 001a 3046     		mov	r0, r6
 1357 001c 0121     		movs	r1, #1
 1358 001e FFF7FEFF 		bl	chMsgSend
 1359              		.loc 1 95 0 discriminator 1
 1360 0022 2B68     		ldr	r3, [r5, #0]
 1361              		.loc 1 91 0 discriminator 1
 1362 0024 0134     		adds	r4, r4, #1
 1363              	.LVL42:
 1364              		.loc 1 95 0 discriminator 1
 1365 0026 002B     		cmp	r3, #0
 1366 0028 F7D0     		beq	.L42
 1367              		.loc 1 96 0
 1368 002a 3046     		mov	r0, r6
 1369 002c 0021     		movs	r1, #0
 1370 002e FFF7FEFF 		bl	chMsgSend
 1371              		.loc 1 98 0
 1372 0032 2046     		mov	r0, r4
 1373 0034 70BD     		pop	{r4, r5, r6, pc}
 1374              		.cfi_endproc
 1375              	.LFE1:
 1376              		.size	msg_loop_test, .-msg_loop_test
 1377 0036 00BFAFF3 		.section	.text.bmk3_execute,"ax",%progbits
 1377      0080AFF3 
 1377      0080
 1378              		.align	2
 1379              		.p2align 4,,15
 1380              		.thumb
 1381              		.thumb_func
 1382              		.type	bmk3_execute, %function
 1383              	bmk3_execute:
 1384              	.LFB5:
 1385              		.loc 1 173 0
 1386              		.cfi_startproc
 1387              		@ args = 0, pretend = 0, frame = 0
 1388              		@ frame_needed = 0, uses_anonymous_args = 0
 1389 0000 2DE9F041 		push	{r4, r5, r6, r7, r8, lr}
 1390              	.LCFI19:
 1391              		.cfi_def_cfa_offset 24
 1392              		.cfi_offset 14, -4
 1393              		.cfi_offset 8, -8
 1394              		.cfi_offset 7, -12
 1395              		.cfi_offset 6, -16
 1396              		.cfi_offset 5, -20
 1397              		.cfi_offset 4, -24
 1398              		.loc 1 176 0
 1399 0004 40F20006 		movw	r6, #:lower16:rlist
 1400 0008 C0F20006 		movt	r6, #:upper16:rlist
 1401 000c 40F20005 		movw	r5, #:lower16:wa
 1402 0010 B169     		ldr	r1, [r6, #24]
 1403 0012 C0F20005 		movt	r5, #:upper16:wa
 1404 0016 8C68     		ldr	r4, [r1, #8]
ARM GAS  /tmp/ccayCWiC.s 			page 26


 1405 0018 2868     		ldr	r0, [r5, #0]
 1406              		.loc 1 173 0
 1407 001a 82B0     		sub	sp, sp, #8
 1408              	.LCFI20:
 1409              		.cfi_def_cfa_offset 32
 1410              		.loc 1 176 0
 1411 001c 40F20003 		movw	r3, #:lower16:thread1
 1412 0020 4FF00008 		mov	r8, #0
 1413 0024 621C     		adds	r2, r4, #1
 1414 0026 4FF49871 		mov	r1, #304
 1415 002a C0F20003 		movt	r3, #:upper16:thread1
 1416 002e CDF80080 		str	r8, [sp, #0]
 1417 0032 FFF7FEFF 		bl	chThdCreateStatic
 1418              		.loc 1 177 0
 1419 0036 B769     		ldr	r7, [r6, #24]
 1420 0038 D5F804E0 		ldr	lr, [r5, #4]
 1421 003c BB68     		ldr	r3, [r7, #8]
 1422 003e CDF80080 		str	r8, [sp, #0]
 1423              		.loc 1 176 0
 1424 0042 40F20004 		movw	r4, #:lower16:threads
 1425 0046 C0F20004 		movt	r4, #:upper16:threads
 1426              		.loc 1 177 0
 1427 004a 40F20007 		movw	r7, #:lower16:thread2
 1428 004e C0F20007 		movt	r7, #:upper16:thread2
 1429 0052 9A1E     		subs	r2, r3, #2
 1430              		.loc 1 176 0
 1431 0054 2060     		str	r0, [r4, #0]
 1432              		.loc 1 177 0
 1433 0056 3B46     		mov	r3, r7
 1434 0058 7046     		mov	r0, lr
 1435 005a 4FF49871 		mov	r1, #304
 1436 005e FFF7FEFF 		bl	chThdCreateStatic
 1437              		.loc 1 178 0
 1438 0062 B269     		ldr	r2, [r6, #24]
 1439 0064 D5F808C0 		ldr	ip, [r5, #8]
 1440 0068 9368     		ldr	r3, [r2, #8]
 1441              		.loc 1 177 0
 1442 006a 6060     		str	r0, [r4, #4]
 1443              		.loc 1 178 0
 1444 006c DA1E     		subs	r2, r3, #3
 1445 006e 6046     		mov	r0, ip
 1446 0070 3B46     		mov	r3, r7
 1447 0072 4FF49871 		mov	r1, #304
 1448 0076 CDF80080 		str	r8, [sp, #0]
 1449 007a FFF7FEFF 		bl	chThdCreateStatic
 1450              		.loc 1 179 0
 1451 007e B169     		ldr	r1, [r6, #24]
 1452 0080 D5F80CE0 		ldr	lr, [r5, #12]
 1453 0084 8A68     		ldr	r2, [r1, #8]
 1454              		.loc 1 178 0
 1455 0086 A060     		str	r0, [r4, #8]
 1456              		.loc 1 179 0
 1457 0088 043A     		subs	r2, r2, #4
 1458 008a 7046     		mov	r0, lr
 1459 008c 3B46     		mov	r3, r7
 1460 008e 4FF49871 		mov	r1, #304
 1461 0092 CDF80080 		str	r8, [sp, #0]
ARM GAS  /tmp/ccayCWiC.s 			page 27


 1462 0096 FFF7FEFF 		bl	chThdCreateStatic
 1463              		.loc 1 180 0
 1464 009a B369     		ldr	r3, [r6, #24]
 1465 009c 2D69     		ldr	r5, [r5, #16]
 1466 009e 9A68     		ldr	r2, [r3, #8]
 1467              		.loc 1 179 0
 1468 00a0 E060     		str	r0, [r4, #12]
 1469              		.loc 1 180 0
 1470 00a2 4FF49871 		mov	r1, #304
 1471 00a6 053A     		subs	r2, r2, #5
 1472 00a8 3B46     		mov	r3, r7
 1473 00aa 2846     		mov	r0, r5
 1474 00ac CDF80080 		str	r8, [sp, #0]
 1475 00b0 FFF7FEFF 		bl	chThdCreateStatic
 1476 00b4 2061     		str	r0, [r4, #16]
 1477              		.loc 1 181 0
 1478 00b6 2068     		ldr	r0, [r4, #0]
 1479 00b8 FFF7FEFF 		bl	msg_loop_test
 1480 00bc 0446     		mov	r4, r0
 1481              	.LVL43:
 1482              		.loc 1 182 0
 1483 00be FFF7FEFF 		bl	test_wait_threads
 1484              	.LVL44:
 1485              		.loc 1 183 0
 1486 00c2 40F20000 		movw	r0, #:lower16:.LC10
 1487 00c6 C0F20000 		movt	r0, #:upper16:.LC10
 1488 00ca FFF7FEFF 		bl	test_print
 1489              		.loc 1 184 0
 1490 00ce 2046     		mov	r0, r4
 1491 00d0 FFF7FEFF 		bl	test_printn
 1492              		.loc 1 185 0
 1493 00d4 40F20000 		movw	r0, #:lower16:.LC18
 1494 00d8 C0F20000 		movt	r0, #:upper16:.LC18
 1495 00dc FFF7FEFF 		bl	test_print
 1496              		.loc 1 186 0
 1497 00e0 6000     		lsls	r0, r4, #1
 1498 00e2 FFF7FEFF 		bl	test_printn
 1499              		.loc 1 187 0
 1500 00e6 40F20000 		movw	r0, #:lower16:.LC16
 1501 00ea C0F20000 		movt	r0, #:upper16:.LC16
 1502              		.loc 1 188 0
 1503 00ee 02B0     		add	sp, sp, #8
 1504 00f0 BDE8F041 		pop	{r4, r5, r6, r7, r8, lr}
 1505              		.loc 1 187 0
 1506 00f4 FFF7FEBF 		b	test_println
 1507              		.cfi_endproc
 1508              	.LFE5:
 1509              		.size	bmk3_execute, .-bmk3_execute
 1510 00f8 AFF30080 		.section	.text.bmk2_execute,"ax",%progbits
 1510      AFF30080 
 1511              		.align	2
 1512              		.p2align 4,,15
 1513              		.thumb
 1514              		.thumb_func
 1515              		.type	bmk2_execute, %function
 1516              	bmk2_execute:
 1517              	.LFB3:
ARM GAS  /tmp/ccayCWiC.s 			page 28


 1518              		.loc 1 138 0
 1519              		.cfi_startproc
 1520              		@ args = 0, pretend = 0, frame = 0
 1521              		@ frame_needed = 0, uses_anonymous_args = 0
 1522              		.loc 1 141 0
 1523 0000 40F2000C 		movw	ip, #:lower16:rlist
 1524              		.loc 1 138 0
 1525 0004 10B5     		push	{r4, lr}
 1526              	.LCFI21:
 1527              		.cfi_def_cfa_offset 8
 1528              		.cfi_offset 14, -4
 1529              		.cfi_offset 4, -8
 1530              		.loc 1 141 0
 1531 0006 C0F2000C 		movt	ip, #:upper16:rlist
 1532 000a 40F20000 		movw	r0, #:lower16:wa
 1533 000e DCF81810 		ldr	r1, [ip, #24]
 1534 0012 C0F20000 		movt	r0, #:upper16:wa
 1535 0016 8A68     		ldr	r2, [r1, #8]
 1536 0018 0068     		ldr	r0, [r0, #0]
 1537              		.loc 1 138 0
 1538 001a 82B0     		sub	sp, sp, #8
 1539              	.LCFI22:
 1540              		.cfi_def_cfa_offset 16
 1541              		.loc 1 141 0
 1542 001c 40F20003 		movw	r3, #:lower16:thread1
 1543 0020 4FF49871 		mov	r1, #304
 1544 0024 0132     		adds	r2, r2, #1
 1545 0026 0024     		movs	r4, #0
 1546 0028 C0F20003 		movt	r3, #:upper16:thread1
 1547 002c 0094     		str	r4, [sp, #0]
 1548 002e FFF7FEFF 		bl	chThdCreateStatic
 1549 0032 40F20003 		movw	r3, #:lower16:threads
 1550 0036 C0F20003 		movt	r3, #:upper16:threads
 1551 003a 1860     		str	r0, [r3, #0]
 1552              		.loc 1 142 0
 1553 003c FFF7FEFF 		bl	msg_loop_test
 1554 0040 0446     		mov	r4, r0
 1555              	.LVL45:
 1556              		.loc 1 143 0
 1557 0042 FFF7FEFF 		bl	test_wait_threads
 1558              	.LVL46:
 1559              		.loc 1 144 0
 1560 0046 40F20000 		movw	r0, #:lower16:.LC10
 1561 004a C0F20000 		movt	r0, #:upper16:.LC10
 1562 004e FFF7FEFF 		bl	test_print
 1563              		.loc 1 145 0
 1564 0052 2046     		mov	r0, r4
 1565 0054 FFF7FEFF 		bl	test_printn
 1566              		.loc 1 146 0
 1567 0058 40F20000 		movw	r0, #:lower16:.LC18
 1568 005c C0F20000 		movt	r0, #:upper16:.LC18
 1569 0060 FFF7FEFF 		bl	test_print
 1570              		.loc 1 147 0
 1571 0064 6000     		lsls	r0, r4, #1
 1572 0066 FFF7FEFF 		bl	test_printn
 1573              		.loc 1 148 0
 1574 006a 40F20000 		movw	r0, #:lower16:.LC16
ARM GAS  /tmp/ccayCWiC.s 			page 29


 1575 006e C0F20000 		movt	r0, #:upper16:.LC16
 1576              		.loc 1 149 0
 1577 0072 02B0     		add	sp, sp, #8
 1578 0074 BDE81040 		pop	{r4, lr}
 1579              		.loc 1 148 0
 1580 0078 FFF7FEBF 		b	test_println
 1581              		.cfi_endproc
 1582              	.LFE3:
 1583              		.size	bmk2_execute, .-bmk2_execute
 1584 007c AFF30080 		.section	.text.bmk1_execute,"ax",%progbits
 1585              		.align	2
 1586              		.p2align 4,,15
 1587              		.thumb
 1588              		.thumb_func
 1589              		.type	bmk1_execute, %function
 1590              	bmk1_execute:
 1591              	.LFB2:
 1592              		.loc 1 109 0
 1593              		.cfi_startproc
 1594              		@ args = 0, pretend = 0, frame = 0
 1595              		@ frame_needed = 0, uses_anonymous_args = 0
 1596              		.loc 1 112 0
 1597 0000 40F2000C 		movw	ip, #:lower16:rlist
 1598              		.loc 1 109 0
 1599 0004 10B5     		push	{r4, lr}
 1600              	.LCFI23:
 1601              		.cfi_def_cfa_offset 8
 1602              		.cfi_offset 14, -4
 1603              		.cfi_offset 4, -8
 1604              		.loc 1 112 0
 1605 0006 C0F2000C 		movt	ip, #:upper16:rlist
 1606 000a 40F20000 		movw	r0, #:lower16:wa
 1607 000e DCF81810 		ldr	r1, [ip, #24]
 1608 0012 C0F20000 		movt	r0, #:upper16:wa
 1609 0016 8A68     		ldr	r2, [r1, #8]
 1610 0018 0068     		ldr	r0, [r0, #0]
 1611              		.loc 1 109 0
 1612 001a 82B0     		sub	sp, sp, #8
 1613              	.LCFI24:
 1614              		.cfi_def_cfa_offset 16
 1615              		.loc 1 112 0
 1616 001c 40F20003 		movw	r3, #:lower16:thread1
 1617 0020 4FF49871 		mov	r1, #304
 1618 0024 013A     		subs	r2, r2, #1
 1619 0026 0024     		movs	r4, #0
 1620 0028 C0F20003 		movt	r3, #:upper16:thread1
 1621 002c 0094     		str	r4, [sp, #0]
 1622 002e FFF7FEFF 		bl	chThdCreateStatic
 1623 0032 40F20003 		movw	r3, #:lower16:threads
 1624 0036 C0F20003 		movt	r3, #:upper16:threads
 1625 003a 1860     		str	r0, [r3, #0]
 1626              		.loc 1 113 0
 1627 003c FFF7FEFF 		bl	msg_loop_test
 1628 0040 0446     		mov	r4, r0
 1629              	.LVL47:
 1630              		.loc 1 114 0
 1631 0042 FFF7FEFF 		bl	test_wait_threads
ARM GAS  /tmp/ccayCWiC.s 			page 30


 1632              	.LVL48:
 1633              		.loc 1 115 0
 1634 0046 40F20000 		movw	r0, #:lower16:.LC10
 1635 004a C0F20000 		movt	r0, #:upper16:.LC10
 1636 004e FFF7FEFF 		bl	test_print
 1637              		.loc 1 116 0
 1638 0052 2046     		mov	r0, r4
 1639 0054 FFF7FEFF 		bl	test_printn
 1640              		.loc 1 117 0
 1641 0058 40F20000 		movw	r0, #:lower16:.LC18
 1642 005c C0F20000 		movt	r0, #:upper16:.LC18
 1643 0060 FFF7FEFF 		bl	test_print
 1644              		.loc 1 118 0
 1645 0064 6000     		lsls	r0, r4, #1
 1646 0066 FFF7FEFF 		bl	test_printn
 1647              		.loc 1 119 0
 1648 006a 40F20000 		movw	r0, #:lower16:.LC16
 1649 006e C0F20000 		movt	r0, #:upper16:.LC16
 1650              		.loc 1 120 0
 1651 0072 02B0     		add	sp, sp, #8
 1652 0074 BDE81040 		pop	{r4, lr}
 1653              		.loc 1 119 0
 1654 0078 FFF7FEBF 		b	test_println
 1655              		.cfi_endproc
 1656              	.LFE2:
 1657              		.size	bmk1_execute, .-bmk1_execute
 1658 007c AFF30080 		.section	.text.thread1,"ax",%progbits
 1659              		.align	2
 1660              		.p2align 4,,15
 1661              		.thumb
 1662              		.thumb_func
 1663              		.type	thread1, %function
 1664              	thread1:
 1665              	.LFB0:
 1666              		.loc 1 68 0
 1667              		.cfi_startproc
 1668              		@ args = 0, pretend = 0, frame = 0
 1669              		@ frame_needed = 0, uses_anonymous_args = 0
 1670              	.LVL49:
 1671 0000 10B5     		push	{r4, lr}
 1672              	.LCFI25:
 1673              		.cfi_def_cfa_offset 8
 1674              		.cfi_offset 14, -4
 1675              		.cfi_offset 4, -8
 1676              	.LVL50:
 1677              	.L48:
 1678              		.loc 1 74 0 discriminator 1
 1679 0002 FFF7FEFF 		bl	chMsgWait
 1680              	.LVL51:
 1681              		.loc 1 75 0 discriminator 1
 1682 0006 846B     		ldr	r4, [r0, #56]
 1683              	.LVL52:
 1684              		.loc 1 76 0 discriminator 1
 1685 0008 2146     		mov	r1, r4
 1686 000a FFF7FEFF 		bl	chMsgRelease
 1687              	.LVL53:
 1688              		.loc 1 77 0 discriminator 1
ARM GAS  /tmp/ccayCWiC.s 			page 31


 1689 000e 002C     		cmp	r4, #0
 1690 0010 F7D1     		bne	.L48
 1691              		.loc 1 79 0
 1692 0012 2046     		mov	r0, r4
 1693 0014 10BD     		pop	{r4, pc}
 1694              		.cfi_endproc
 1695              	.LFE0:
 1696              		.size	thread1, .-thread1
 1697 0016 00BFAFF3 		.section	.text.thread4,"ax",%progbits
 1697      0080AFF3 
 1697      0080
 1698              		.align	2
 1699              		.p2align 4,,15
 1700              		.global	thread4
 1701              		.thumb
 1702              		.thumb_func
 1703              		.type	thread4, %function
 1704              	thread4:
 1705              	.LFB6:
 1706              		.loc 1 207 0
 1707              		.cfi_startproc
 1708              		@ args = 0, pretend = 0, frame = 0
 1709              		@ frame_needed = 0, uses_anonymous_args = 0
 1710              	.LVL54:
 1711              		.loc 1 209 0
 1712 0000 40F20003 		movw	r3, #:lower16:rlist
 1713 0004 C0F20003 		movt	r3, #:upper16:rlist
 1714              		.loc 1 207 0
 1715 0008 10B5     		push	{r4, lr}
 1716              	.LCFI26:
 1717              		.cfi_def_cfa_offset 8
 1718              		.cfi_offset 14, -4
 1719              		.cfi_offset 4, -8
 1720              		.loc 1 209 0
 1721 000a 9C69     		ldr	r4, [r3, #24]
 1722              	.LVL55:
 1723              		.loc 1 212 0
 1724              	@ 212 "../../../test/testbmk.c" 1
 1725 000c FFF7FEFF 		bl      _port_lock
 1726              	@ 0 "" 2
 1727              	.LVL56:
 1728              		.thumb
 1729 0010 FFF7FEFF 		bl	dbg_check_lock
 1730              	.LVL57:
 1731              	.L51:
 1732              		.loc 1 214 0 discriminator 1
 1733 0014 0220     		movs	r0, #2
 1734 0016 FFF7FEFF 		bl	chSchGoSleepS
 1735              	.LVL58:
 1736              		.loc 1 216 0 discriminator 1
 1737 001a A06A     		ldr	r0, [r4, #40]
 1738 001c 0028     		cmp	r0, #0
 1739 001e F9D0     		beq	.L51
 1740              		.loc 1 217 0
 1741 0020 FFF7FEFF 		bl	dbg_check_unlock
 1742              	.LVL59:
 1743              	@ 217 "../../../test/testbmk.c" 1
ARM GAS  /tmp/ccayCWiC.s 			page 32


 1744 0024 FFF7FEFF 		bl      _port_unlock
 1745              	@ 0 "" 2
 1746              		.loc 1 219 0
 1747              		.thumb
 1748 0028 0020     		movs	r0, #0
 1749 002a 10BD     		pop	{r4, pc}
 1750              		.cfi_endproc
 1751              	.LFE6:
 1752              		.size	thread4, .-thread4
 1753              		.global	patternbmk
 1754              		.global	testbmk13
 1755              		.global	testbmk12
 1756              		.global	testbmk11
 1757              		.global	testbmk10
 1758              		.global	testbmk9
 1759              		.global	testbmk8
 1760              		.global	testbmk7
 1761              		.global	testbmk6
 1762              		.global	testbmk5
 1763              		.global	testbmk4
 1764              		.global	testbmk3
 1765              		.global	testbmk2
 1766              		.global	testbmk1
 1767 002c AFF30080 		.section	.rodata.testbmk8,"a",%progbits
 1768              		.align	2
 1769              		.type	testbmk8, %object
 1770              		.size	testbmk8, 16
 1771              	testbmk8:
 1772 0000 C0010000 		.word	.LC24
 1773 0004 00000000 		.word	0
 1774 0008 00000000 		.word	0
 1775 000c 00000000 		.word	bmk8_execute
 1776              		.section	.rodata.patternbmk,"a",%progbits
 1777              		.align	2
 1778              		.type	patternbmk, %object
 1779              		.size	patternbmk, 56
 1780              	patternbmk:
 1781 0000 00000000 		.word	testbmk1
 1782 0004 00000000 		.word	testbmk2
 1783 0008 00000000 		.word	testbmk3
 1784 000c 00000000 		.word	testbmk4
 1785 0010 00000000 		.word	testbmk5
 1786 0014 00000000 		.word	testbmk6
 1787 0018 00000000 		.word	testbmk7
 1788 001c 00000000 		.word	testbmk8
 1789 0020 00000000 		.word	testbmk9
 1790 0024 00000000 		.word	testbmk10
 1791 0028 00000000 		.word	testbmk11
 1792 002c 00000000 		.word	testbmk12
 1793 0030 00000000 		.word	testbmk13
 1794 0034 00000000 		.word	0
 1795              		.section	.bss.iq.4752,"aw",%nobits
 1796              		.align	2
 1797              		.set	.LANCHOR4,. + 0
 1798              		.type	iq.4752, %object
 1799              		.size	iq.4752, 36
 1800              	iq.4752:
ARM GAS  /tmp/ccayCWiC.s 			page 33


 1801 0000 00000000 		.space	36
 1801      00000000 
 1801      00000000 
 1801      00000000 
 1801      00000000 
 1802              		.section	.rodata.testbmk2,"a",%progbits
 1803              		.align	2
 1804              		.type	testbmk2, %object
 1805              		.size	testbmk2, 16
 1806              	testbmk2:
 1807 0000 88020000 		.word	.LC30
 1808 0004 00000000 		.word	0
 1809 0008 00000000 		.word	0
 1810 000c 00000000 		.word	bmk2_execute
 1811              		.section	.rodata.testbmk10,"a",%progbits
 1812              		.align	2
 1813              		.type	testbmk10, %object
 1814              		.size	testbmk10, 16
 1815              	testbmk10:
 1816 0000 78010000 		.word	.LC22
 1817 0004 00000000 		.word	0
 1818 0008 00000000 		.word	0
 1819 000c 00000000 		.word	bmk10_execute
 1820              		.section	.rodata.testbmk4,"a",%progbits
 1821              		.align	2
 1822              		.type	testbmk4, %object
 1823              		.size	testbmk4, 16
 1824              	testbmk4:
 1825 0000 54020000 		.word	.LC28
 1826 0004 00000000 		.word	0
 1827 0008 00000000 		.word	0
 1828 000c 00000000 		.word	bmk4_execute
 1829              		.section	.bss.mtx1,"aw",%nobits
 1830              		.align	2
 1831              		.set	.LANCHOR0,. + 0
 1832              		.type	mtx1, %object
 1833              		.size	mtx1, 16
 1834              	mtx1:
 1835 0000 00000000 		.space	16
 1835      00000000 
 1835      00000000 
 1835      00000000 
 1836              		.section	.rodata.testbmk3,"a",%progbits
 1837              		.align	2
 1838              		.type	testbmk3, %object
 1839              		.size	testbmk3, 16
 1840              	testbmk3:
 1841 0000 70020000 		.word	.LC29
 1842 0004 00000000 		.word	0
 1843 0008 00000000 		.word	0
 1844 000c 00000000 		.word	bmk3_execute
 1845              		.section	.rodata.testbmk13,"a",%progbits
 1846              		.align	2
 1847              		.type	testbmk13, %object
 1848              		.size	testbmk13, 16
 1849              	testbmk13:
 1850 0000 18010000 		.word	.LC19
ARM GAS  /tmp/ccayCWiC.s 			page 34


 1851 0004 00000000 		.word	0
 1852 0008 00000000 		.word	0
 1853 000c 00000000 		.word	bmk13_execute
 1854              		.section	.rodata.str1.4,"aMS",%progbits,1
 1855              		.align	2
 1856              	.LC0:
 1857 0000 2D2D2D20 		.ascii	"--- System: \000"
 1857      53797374 
 1857      656D3A20 
 1857      00
 1858 000d 000000   		.space	3
 1859              	.LC1:
 1860 0010 20627974 		.ascii	" bytes\000"
 1860      657300
 1861 0017 00       		.space	1
 1862              	.LC2:
 1863 0018 2D2D2D20 		.ascii	"--- Thread: \000"
 1863      54687265 
 1863      61643A20 
 1863      00
 1864 0025 000000   		.space	3
 1865              	.LC3:
 1866 0028 2D2D2D20 		.ascii	"--- Timer : \000"
 1866      54696D65 
 1866      72203A20 
 1866      00
 1867 0035 000000   		.space	3
 1868              	.LC4:
 1869 0038 2D2D2D20 		.ascii	"--- Semaph: \000"
 1869      53656D61 
 1869      70683A20 
 1869      00
 1870 0045 000000   		.space	3
 1871              	.LC5:
 1872 0048 2D2D2D20 		.ascii	"--- EventS: \000"
 1872      4576656E 
 1872      74533A20 
 1872      00
 1873 0055 000000   		.space	3
 1874              	.LC6:
 1875 0058 2D2D2D20 		.ascii	"--- EventL: \000"
 1875      4576656E 
 1875      744C3A20 
 1875      00
 1876 0065 000000   		.space	3
 1877              	.LC7:
 1878 0068 2D2D2D20 		.ascii	"--- Mutex : \000"
 1878      4D757465 
 1878      78203A20 
 1878      00
 1879 0075 000000   		.space	3
 1880              	.LC8:
 1881 0078 2D2D2D20 		.ascii	"--- Queue : \000"
 1881      51756575 
 1881      65203A20 
 1881      00
 1882 0085 000000   		.space	3
ARM GAS  /tmp/ccayCWiC.s 			page 35


 1883              	.LC9:
 1884 0088 2D2D2D20 		.ascii	"--- MailB.: \000"
 1884      4D61696C 
 1884      422E3A20 
 1884      00
 1885 0095 000000   		.space	3
 1886              	.LC10:
 1887 0098 2D2D2D20 		.ascii	"--- Score : \000"
 1887      53636F72 
 1887      65203A20 
 1887      00
 1888 00a5 000000   		.space	3
 1889              	.LC11:
 1890 00a8 206C6F63 		.ascii	" lock+unlock/S\000"
 1890      6B2B756E 
 1890      6C6F636B 
 1890      2F5300
 1891 00b7 00       		.space	1
 1892              	.LC12:
 1893 00b8 20776169 		.ascii	" wait+signal/S\000"
 1893      742B7369 
 1893      676E616C 
 1893      2F5300
 1894 00c7 00       		.space	1
 1895              	.LC13:
 1896 00c8 2074696D 		.ascii	" timers/S\000"
 1896      6572732F 
 1896      5300
 1897 00d2 0000     		.space	2
 1898              	.LC14:
 1899 00d4 20627974 		.ascii	" bytes/S\000"
 1899      65732F53 
 1899      00
 1900 00dd 000000   		.space	3
 1901              	.LC15:
 1902 00e0 20746872 		.ascii	" threads/S\000"
 1902      65616473 
 1902      2F5300
 1903 00eb 00       		.space	1
 1904              	.LC16:
 1905 00ec 20637478 		.ascii	" ctxswc/S\000"
 1905      7377632F 
 1905      5300
 1906 00f6 0000     		.space	2
 1907              	.LC17:
 1908 00f8 20726573 		.ascii	" reschedules/S, \000"
 1908      63686564 
 1908      756C6573 
 1908      2F532C20 
 1908      00
 1909 0109 000000   		.space	3
 1910              	.LC18:
 1911 010c 206D7367 		.ascii	" msgs/S, \000"
 1911      732F532C 
 1911      2000
 1912 0116 0000     		.space	2
 1913              	.LC19:
ARM GAS  /tmp/ccayCWiC.s 			page 36


 1914 0118 42656E63 		.ascii	"Benchmark, RAM footprint\000"
 1914      686D6172 
 1914      6B2C2052 
 1914      414D2066 
 1914      6F6F7470 
 1915 0131 000000   		.space	3
 1916              	.LC20:
 1917 0134 42656E63 		.ascii	"Benchmark, mutexes lock/unlock\000"
 1917      686D6172 
 1917      6B2C206D 
 1917      75746578 
 1917      6573206C 
 1918 0153 00       		.space	1
 1919              	.LC21:
 1920 0154 42656E63 		.ascii	"Benchmark, semaphores wait/signal\000"
 1920      686D6172 
 1920      6B2C2073 
 1920      656D6170 
 1920      686F7265 
 1921 0176 0000     		.space	2
 1922              	.LC22:
 1923 0178 42656E63 		.ascii	"Benchmark, virtual timers set/reset\000"
 1923      686D6172 
 1923      6B2C2076 
 1923      69727475 
 1923      616C2074 
 1924              	.LC23:
 1925 019c 42656E63 		.ascii	"Benchmark, I/O Queues throughput\000"
 1925      686D6172 
 1925      6B2C2049 
 1925      2F4F2051 
 1925      75657565 
 1926 01bd 000000   		.space	3
 1927              	.LC24:
 1928 01c0 42656E63 		.ascii	"Benchmark, round robin context switching\000"
 1928      686D6172 
 1928      6B2C2072 
 1928      6F756E64 
 1928      20726F62 
 1929 01e9 000000   		.space	3
 1930              	.LC25:
 1931 01ec 42656E63 		.ascii	"Benchmark, mass reschedule, 5 threads\000"
 1931      686D6172 
 1931      6B2C206D 
 1931      61737320 
 1931      72657363 
 1932 0212 0000     		.space	2
 1933              	.LC26:
 1934 0214 42656E63 		.ascii	"Benchmark, threads, create only\000"
 1934      686D6172 
 1934      6B2C2074 
 1934      68726561 
 1934      64732C20 
 1935              	.LC27:
 1936 0234 42656E63 		.ascii	"Benchmark, threads, full cycle\000"
 1936      686D6172 
 1936      6B2C2074 
ARM GAS  /tmp/ccayCWiC.s 			page 37


 1936      68726561 
 1936      64732C20 
 1937 0253 00       		.space	1
 1938              	.LC28:
 1939 0254 42656E63 		.ascii	"Benchmark, context switch\000"
 1939      686D6172 
 1939      6B2C2063 
 1939      6F6E7465 
 1939      78742073 
 1940 026e 0000     		.space	2
 1941              	.LC29:
 1942 0270 42656E63 		.ascii	"Benchmark, messages #3\000"
 1942      686D6172 
 1942      6B2C206D 
 1942      65737361 
 1942      67657320 
 1943 0287 00       		.space	1
 1944              	.LC30:
 1945 0288 42656E63 		.ascii	"Benchmark, messages #2\000"
 1945      686D6172 
 1945      6B2C206D 
 1945      65737361 
 1945      67657320 
 1946 029f 00       		.space	1
 1947              	.LC31:
 1948 02a0 42656E63 		.ascii	"Benchmark, messages #1\000"
 1948      686D6172 
 1948      6B2C206D 
 1948      65737361 
 1948      67657320 
 1949 02b7 00       		.section	.bss.vt2.4763,"aw",%nobits
 1950              		.align	2
 1951              		.set	.LANCHOR3,. + 0
 1952              		.type	vt2.4763, %object
 1953              		.size	vt2.4763, 20
 1954              	vt2.4763:
 1955 0000 00000000 		.space	20
 1955      00000000 
 1955      00000000 
 1955      00000000 
 1955      00000000 
 1956              		.section	.rodata.testbmk9,"a",%progbits
 1957              		.align	2
 1958              		.type	testbmk9, %object
 1959              		.size	testbmk9, 16
 1960              	testbmk9:
 1961 0000 9C010000 		.word	.LC23
 1962 0004 00000000 		.word	0
 1963 0008 00000000 		.word	0
 1964 000c 00000000 		.word	bmk9_execute
 1965              		.section	.bss.sem1,"aw",%nobits
 1966              		.align	2
 1967              		.set	.LANCHOR1,. + 0
 1968              		.type	sem1, %object
 1969              		.size	sem1, 12
 1970              	sem1:
 1971 0000 00000000 		.space	12
ARM GAS  /tmp/ccayCWiC.s 			page 38


 1971      00000000 
 1971      00000000 
 1972              		.section	.bss.vt1.4762,"aw",%nobits
 1973              		.align	2
 1974              		.set	.LANCHOR2,. + 0
 1975              		.type	vt1.4762, %object
 1976              		.size	vt1.4762, 20
 1977              	vt1.4762:
 1978 0000 00000000 		.space	20
 1978      00000000 
 1978      00000000 
 1978      00000000 
 1978      00000000 
 1979              		.section	.rodata.testbmk1,"a",%progbits
 1980              		.align	2
 1981              		.type	testbmk1, %object
 1982              		.size	testbmk1, 16
 1983              	testbmk1:
 1984 0000 A0020000 		.word	.LC31
 1985 0004 00000000 		.word	0
 1986 0008 00000000 		.word	0
 1987 000c 00000000 		.word	bmk1_execute
 1988              		.section	.rodata.testbmk11,"a",%progbits
 1989              		.align	2
 1990              		.type	testbmk11, %object
 1991              		.size	testbmk11, 16
 1992              	testbmk11:
 1993 0000 54010000 		.word	.LC21
 1994 0004 00000000 		.word	bmk11_setup
 1995 0008 00000000 		.word	0
 1996 000c 00000000 		.word	bmk11_execute
 1997              		.section	.rodata.testbmk12,"a",%progbits
 1998              		.align	2
 1999              		.type	testbmk12, %object
 2000              		.size	testbmk12, 16
 2001              	testbmk12:
 2002 0000 34010000 		.word	.LC20
 2003 0004 00000000 		.word	bmk12_setup
 2004 0008 00000000 		.word	0
 2005 000c 00000000 		.word	bmk12_execute
 2006              		.section	.bss.ib.4751,"aw",%nobits
 2007              		.align	2
 2008              		.set	.LANCHOR5,. + 0
 2009              		.type	ib.4751, %object
 2010              		.size	ib.4751, 16
 2011              	ib.4751:
 2012 0000 00000000 		.space	16
 2012      00000000 
 2012      00000000 
 2012      00000000 
 2013              		.section	.rodata.testbmk5,"a",%progbits
 2014              		.align	2
 2015              		.type	testbmk5, %object
 2016              		.size	testbmk5, 16
 2017              	testbmk5:
 2018 0000 34020000 		.word	.LC27
 2019 0004 00000000 		.word	0
ARM GAS  /tmp/ccayCWiC.s 			page 39


 2020 0008 00000000 		.word	0
 2021 000c 00000000 		.word	bmk5_execute
 2022              		.section	.rodata.testbmk6,"a",%progbits
 2023              		.align	2
 2024              		.type	testbmk6, %object
 2025              		.size	testbmk6, 16
 2026              	testbmk6:
 2027 0000 14020000 		.word	.LC26
 2028 0004 00000000 		.word	0
 2029 0008 00000000 		.word	0
 2030 000c 00000000 		.word	bmk6_execute
 2031              		.section	.rodata.testbmk7,"a",%progbits
 2032              		.align	2
 2033              		.type	testbmk7, %object
 2034              		.size	testbmk7, 16
 2035              	testbmk7:
 2036 0000 EC010000 		.word	.LC25
 2037 0004 00000000 		.word	bmk7_setup
 2038 0008 00000000 		.word	0
 2039 000c 00000000 		.word	bmk7_execute
 2040              		.text
 2041              	.Letext0:
 2042              		.file 2 "/home/prana/CodeSourcery/ARM_EABI/bin/../lib/gcc/arm-none-eabi/4.6.3/include/stddef.h"
 2043              		.file 3 "/home/prana/CodeSourcery/ARM_EABI/bin/../lib/gcc/arm-none-eabi/4.6.3/../../../../arm-none
 2044              		.file 4 "../../../os/ports/GCC/ARMCMx/chtypes.h"
 2045              		.file 5 "../../../os/kernel/include/chlists.h"
 2046              		.file 6 "../../../os/kernel/include/chthreads.h"
 2047              		.file 7 "../../../os/ports/GCC/ARMCMx/chcore_v7m.h"
 2048              		.file 8 "../../../os/kernel/include/chvt.h"
 2049              		.file 9 "../../../os/kernel/include/chschd.h"
 2050              		.file 10 "../../../os/kernel/include/chsem.h"
 2051              		.file 11 "../../../os/kernel/include/chmtx.h"
 2052              		.file 12 "../../../os/kernel/include/chqueues.h"
 2053              		.file 13 "../../../test/test.h"