ARM GAS  /tmp/ccWBsmnE.s 			page 1


   1              		.syntax unified
   2              		.cpu cortex-m4
   3              		.fpu softvfp
   4              		.eabi_attribute 20, 1
   5              		.eabi_attribute 21, 1
   6              		.eabi_attribute 23, 3
   7              		.eabi_attribute 24, 1
   8              		.eabi_attribute 25, 1
   9              		.eabi_attribute 26, 1
  10              		.eabi_attribute 30, 2
  11              		.eabi_attribute 34, 1
  12              		.eabi_attribute 18, 4
  13              		.thumb
  14              		.file	"testmbox.c"
  15              		.text
  16              	.Ltext0:
  17              		.cfi_sections	.debug_frame
  18              		.section	.text.mbox1_setup,"ax",%progbits
  19              		.align	2
  20              		.p2align 4,,15
  21              		.thumb
  22              		.thumb_func
  23              		.type	mbox1_setup, %function
  24              	mbox1_setup:
  25              	.LFB0:
  26              		.file 1 "../../../test/testmbox.c"
  27              		.loc 1 75 0
  28              		.cfi_startproc
  29              		@ args = 0, pretend = 0, frame = 0
  30              		@ frame_needed = 0, uses_anonymous_args = 0
  31              		@ link register save eliminated.
  32              		.loc 1 77 0
  33 0000 40F20000 		movw	r0, #:lower16:.LANCHOR0
  34 0004 40F20001 		movw	r1, #:lower16:test
  35 0008 C0F20000 		movt	r0, #:upper16:.LANCHOR0
  36 000c C0F20001 		movt	r1, #:upper16:test
  37 0010 0522     		movs	r2, #5
  38              		.loc 1 78 0
  39              		.loc 1 77 0
  40 0012 FFF7FEBF 		b	chMBInit
  41              		.cfi_endproc
  42              	.LFE0:
  43              		.size	mbox1_setup, .-mbox1_setup
  44 0016 00BFAFF3 		.section	.text.mbox1_execute,"ax",%progbits
  44      0080AFF3 
  44      0080
  45              		.align	2
  46              		.p2align 4,,15
  47              		.thumb
  48              		.thumb_func
  49              		.type	mbox1_execute, %function
  50              	mbox1_execute:
  51              	.LFB1:
  52              		.loc 1 80 0
  53              		.cfi_startproc
  54              		@ args = 0, pretend = 0, frame = 8
  55              		@ frame_needed = 0, uses_anonymous_args = 0
ARM GAS  /tmp/ccWBsmnE.s 			page 2


  56 0000 70B5     		push	{r4, r5, r6, lr}
  57              	.LCFI0:
  58              		.cfi_def_cfa_offset 16
  59              		.cfi_offset 14, -4
  60              		.cfi_offset 6, -8
  61              		.cfi_offset 5, -12
  62              		.cfi_offset 4, -16
  63              		.loc 1 87 0
  64 0002 40F20004 		movw	r4, #:lower16:.LANCHOR0
  65 0006 C0F20004 		movt	r4, #:upper16:.LANCHOR0
  66 000a 0120     		movs	r0, #1
  67 000c 626A     		ldr	r2, [r4, #36]
  68 000e A2F10503 		sub	r3, r2, #5
  69 0012 5942     		rsbs	r1, r3, #0
  70              		.loc 1 80 0
  71 0014 82B0     		sub	sp, sp, #8
  72              	.LCFI1:
  73              		.cfi_def_cfa_offset 24
  74              		.loc 1 87 0
  75 0016 41EB0301 		adc	r1, r1, r3
  76 001a FFF7FEFF 		bl	_test_assert
  77 001e 0028     		cmp	r0, #0
  78 0020 45D1     		bne	.L2
  79              		.loc 1 93 0
  80 0022 4221     		movs	r1, #66
  81 0024 2046     		mov	r0, r4
  82 0026 4FF0FF32 		mov	r2, #-1
  83 002a FFF7FEFF 		bl	chMBPost
  84              	.LVL0:
  85              		.loc 1 94 0
  86 002e D0F10101 		rsbs	r1, r0, #1
  87 0032 38BF     		it	cc
  88 0034 0021     		movcc	r1, #0
  89 0036 0220     		movs	r0, #2
  90              	.LVL1:
  91 0038 FFF7FEFF 		bl	_test_assert
  92 003c B8BB     		cbnz	r0, .L2
  93              	.LVL2:
  94              		.loc 1 93 0
  95 003e 4321     		movs	r1, #67
  96 0040 2046     		mov	r0, r4
  97 0042 4FF0FF32 		mov	r2, #-1
  98 0046 FFF7FEFF 		bl	chMBPost
  99              	.LVL3:
 100              		.loc 1 94 0
 101 004a D0F10101 		rsbs	r1, r0, #1
 102 004e 38BF     		it	cc
 103 0050 0021     		movcc	r1, #0
 104 0052 0220     		movs	r0, #2
 105              	.LVL4:
 106 0054 FFF7FEFF 		bl	_test_assert
 107 0058 48BB     		cbnz	r0, .L2
 108              	.LVL5:
 109              		.loc 1 93 0
 110 005a 4421     		movs	r1, #68
 111 005c 2046     		mov	r0, r4
 112 005e 4FF0FF32 		mov	r2, #-1
ARM GAS  /tmp/ccWBsmnE.s 			page 3


 113 0062 FFF7FEFF 		bl	chMBPost
 114              	.LVL6:
 115              		.loc 1 94 0
 116 0066 D0F10101 		rsbs	r1, r0, #1
 117 006a 38BF     		it	cc
 118 006c 0021     		movcc	r1, #0
 119 006e 0220     		movs	r0, #2
 120              	.LVL7:
 121 0070 FFF7FEFF 		bl	_test_assert
 122 0074 D8B9     		cbnz	r0, .L2
 123              	.LVL8:
 124              		.loc 1 93 0
 125 0076 4521     		movs	r1, #69
 126 0078 2046     		mov	r0, r4
 127 007a 4FF0FF32 		mov	r2, #-1
 128 007e FFF7FEFF 		bl	chMBPost
 129              	.LVL9:
 130              		.loc 1 94 0
 131 0082 D0F10101 		rsbs	r1, r0, #1
 132 0086 38BF     		it	cc
 133 0088 0021     		movcc	r1, #0
 134 008a 0220     		movs	r0, #2
 135              	.LVL10:
 136 008c FFF7FEFF 		bl	_test_assert
 137 0090 68B9     		cbnz	r0, .L2
 138              	.LVL11:
 139              		.loc 1 96 0
 140 0092 4121     		movs	r1, #65
 141 0094 2046     		mov	r0, r4
 142 0096 4FF0FF32 		mov	r2, #-1
 143 009a FFF7FEFF 		bl	chMBPostAhead
 144              	.LVL12:
 145              		.loc 1 97 0
 146 009e D0F10101 		rsbs	r1, r0, #1
 147 00a2 38BF     		it	cc
 148 00a4 0021     		movcc	r1, #0
 149 00a6 0320     		movs	r0, #3
 150              	.LVL13:
 151 00a8 FFF7FEFF 		bl	_test_assert
 152 00ac 08B1     		cbz	r0, .L23
 153              	.LVL14:
 154              	.L2:
 155              		.loc 1 224 0
 156 00ae 02B0     		add	sp, sp, #8
 157 00b0 70BD     		pop	{r4, r5, r6, pc}
 158              	.LVL15:
 159              	.L23:
 160              	.LBB4:
 161              	.LBB5:
 162              		.loc 1 102 0
 163 00b2 5821     		movs	r1, #88
 164 00b4 0122     		movs	r2, #1
 165 00b6 2046     		mov	r0, r4
 166 00b8 FFF7FEFF 		bl	chMBPost
 167              	.LVL16:
 168              		.loc 1 103 0
 169 00bc A0F1FF31 		sub	r1, r0, #-1
ARM GAS  /tmp/ccWBsmnE.s 			page 4


 170 00c0 4842     		rsbs	r0, r1, #0
 171              	.LVL17:
 172 00c2 40EB0101 		adc	r1, r0, r1
 173              	.LVL18:
 174 00c6 0420     		movs	r0, #4
 175 00c8 FFF7FEFF 		bl	_test_assert
 176 00cc 0028     		cmp	r0, #0
 177 00ce EED1     		bne	.L2
 178              		.loc 1 104 0
 179              	@ 104 "../../../test/testmbox.c" 1
 180 00d0 FFF7FEFF 		bl      _port_lock
 181              	@ 0 "" 2
 182              		.thumb
 183 00d4 FFF7FEFF 		bl	dbg_check_lock
 184              		.loc 1 105 0
 185 00d8 5821     		movs	r1, #88
 186 00da 2046     		mov	r0, r4
 187 00dc FFF7FEFF 		bl	chMBPostI
 188 00e0 0546     		mov	r5, r0
 189              	.LVL19:
 190              		.loc 1 106 0
 191 00e2 FFF7FEFF 		bl	dbg_check_unlock
 192              	.LVL20:
 193              	@ 106 "../../../test/testmbox.c" 1
 194 00e6 FFF7FEFF 		bl      _port_unlock
 195              	@ 0 "" 2
 196              		.loc 1 107 0
 197              		.thumb
 198 00ea A5F1FF32 		sub	r2, r5, #-1
 199 00ee 0520     		movs	r0, #5
 200 00f0 5342     		rsbs	r3, r2, #0
 201 00f2 43EB0201 		adc	r1, r3, r2
 202 00f6 FFF7FEFF 		bl	_test_assert
 203 00fa 0028     		cmp	r0, #0
 204 00fc D7D1     		bne	.L2
 205              		.loc 1 108 0
 206 00fe 5821     		movs	r1, #88
 207 0100 0122     		movs	r2, #1
 208 0102 2046     		mov	r0, r4
 209 0104 FFF7FEFF 		bl	chMBPostAhead
 210              	.LVL21:
 211              		.loc 1 109 0
 212 0108 A0F1FF30 		sub	r0, r0, #-1
 213              	.LVL22:
 214 010c D0F1000C 		rsbs	ip, r0, #0
 215 0110 4CEB0001 		adc	r1, ip, r0
 216 0114 0620     		movs	r0, #6
 217              	.LVL23:
 218 0116 FFF7FEFF 		bl	_test_assert
 219 011a 0028     		cmp	r0, #0
 220 011c C7D1     		bne	.L2
 221              		.loc 1 110 0
 222              	@ 110 "../../../test/testmbox.c" 1
 223 011e FFF7FEFF 		bl      _port_lock
 224              	@ 0 "" 2
 225              		.thumb
 226 0122 FFF7FEFF 		bl	dbg_check_lock
ARM GAS  /tmp/ccWBsmnE.s 			page 5


 227              		.loc 1 111 0
 228 0126 5821     		movs	r1, #88
 229 0128 2046     		mov	r0, r4
 230 012a FFF7FEFF 		bl	chMBPostAheadI
 231 012e 0546     		mov	r5, r0
 232              	.LVL24:
 233              		.loc 1 112 0
 234 0130 FFF7FEFF 		bl	dbg_check_unlock
 235              	.LVL25:
 236              	@ 112 "../../../test/testmbox.c" 1
 237 0134 FFF7FEFF 		bl      _port_unlock
 238              	@ 0 "" 2
 239              		.loc 1 113 0
 240              		.thumb
 241 0138 A5F1FF31 		sub	r1, r5, #-1
 242 013c 0720     		movs	r0, #7
 243 013e D1F1000E 		rsbs	lr, r1, #0
 244 0142 4EEB0101 		adc	r1, lr, r1
 245 0146 FFF7FEFF 		bl	_test_assert
 246 014a 0028     		cmp	r0, #0
 247 014c AFD1     		bne	.L2
 248              		.loc 1 118 0
 249              	@ 118 "../../../test/testmbox.c" 1
 250 014e FFF7FEFF 		bl      _port_lock
 251              	@ 0 "" 2
 252              		.thumb
 253 0152 FFF7FEFF 		bl	dbg_check_lock
 254 0156 636A     		ldr	r3, [r4, #36]
 255 0158 0820     		movs	r0, #8
 256 015a D3F10101 		rsbs	r1, r3, #1
 257 015e 40F20004 		movw	r4, #:lower16:.LANCHOR0
 258 0162 38BF     		it	cc
 259 0164 0021     		movcc	r1, #0
 260 0166 C0F20004 		movt	r4, #:upper16:.LANCHOR0
 261 016a FFF7FEFF 		bl	_test_assert
 262 016e 0028     		cmp	r0, #0
 263 0170 40F00283 		bne	.L19
 264 0174 FFF7FEFF 		bl	dbg_check_unlock
 265              	@ 118 "../../../test/testmbox.c" 1
 266 0178 FFF7FEFF 		bl      _port_unlock
 267              	@ 0 "" 2
 268              		.loc 1 119 0
 269              	@ 119 "../../../test/testmbox.c" 1
 270 017c FFF7FEFF 		bl      _port_lock
 271              	@ 0 "" 2
 272              		.thumb
 273 0180 FFF7FEFF 		bl	dbg_check_lock
 274 0184 A369     		ldr	r3, [r4, #24]
 275 0186 A3F10501 		sub	r1, r3, #5
 276 018a 0920     		movs	r0, #9
 277 018c 4A42     		rsbs	r2, r1, #0
 278 018e 42EB0101 		adc	r1, r2, r1
 279 0192 FFF7FEFF 		bl	_test_assert
 280 0196 0028     		cmp	r0, #0
 281 0198 40F0EE82 		bne	.L19
 282 019c FFF7FEFF 		bl	dbg_check_unlock
 283              	@ 119 "../../../test/testmbox.c" 1
ARM GAS  /tmp/ccWBsmnE.s 			page 6


 284 01a0 FFF7FEFF 		bl      _port_unlock
 285              	@ 0 "" 2
 286              		.loc 1 120 0
 287              	@ 120 "../../../test/testmbox.c" 1
 288 01a4 FFF7FEFF 		bl      _port_lock
 289              	@ 0 "" 2
 290              		.thumb
 291 01a8 FFF7FEFF 		bl	dbg_check_lock
 292 01ac E268     		ldr	r2, [r4, #12]
 293 01ae A368     		ldr	r3, [r4, #8]
 294 01b0 D11A     		subs	r1, r2, r3
 295 01b2 0A20     		movs	r0, #10
 296 01b4 4A42     		rsbs	r2, r1, #0
 297 01b6 42EB0101 		adc	r1, r2, r1
 298 01ba FFF7FEFF 		bl	_test_assert
 299 01be 0028     		cmp	r0, #0
 300 01c0 40F0DA82 		bne	.L19
 301 01c4 FFF7FEFF 		bl	dbg_check_unlock
 302              	@ 120 "../../../test/testmbox.c" 1
 303 01c8 FFF7FEFF 		bl      _port_unlock
 304              	@ 0 "" 2
 305              	.LVL26:
 306              		.loc 1 126 0
 307              		.thumb
 308 01cc 4FF0FF32 		mov	r2, #-1
 309 01d0 01A9     		add	r1, sp, #4
 310 01d2 2046     		mov	r0, r4
 311 01d4 FFF7FEFF 		bl	chMBFetch
 312              	.LVL27:
 313              		.loc 1 127 0
 314 01d8 D0F10101 		rsbs	r1, r0, #1
 315 01dc 38BF     		it	cc
 316 01de 0021     		movcc	r1, #0
 317 01e0 0B20     		movs	r0, #11
 318              	.LVL28:
 319 01e2 FFF7FEFF 		bl	_test_assert
 320 01e6 0028     		cmp	r0, #0
 321 01e8 7FF461AF 		bne	.L2
 322              		.loc 1 128 0
 323 01ec 9DF80400 		ldrb	r0, [sp, #4]	@ zero_extendqisi2
 324 01f0 FFF7FEFF 		bl	test_emit_token
 325              	.LVL29:
 326              		.loc 1 126 0
 327 01f4 01A9     		add	r1, sp, #4
 328 01f6 2046     		mov	r0, r4
 329 01f8 4FF0FF32 		mov	r2, #-1
 330 01fc FFF7FEFF 		bl	chMBFetch
 331              	.LVL30:
 332              		.loc 1 127 0
 333 0200 D0F10101 		rsbs	r1, r0, #1
 334 0204 38BF     		it	cc
 335 0206 0021     		movcc	r1, #0
 336 0208 0B20     		movs	r0, #11
 337              	.LVL31:
 338 020a FFF7FEFF 		bl	_test_assert
 339 020e 0028     		cmp	r0, #0
 340 0210 7FF44DAF 		bne	.L2
ARM GAS  /tmp/ccWBsmnE.s 			page 7


 341              		.loc 1 128 0
 342 0214 9DF80400 		ldrb	r0, [sp, #4]	@ zero_extendqisi2
 343 0218 FFF7FEFF 		bl	test_emit_token
 344              	.LVL32:
 345              		.loc 1 126 0
 346 021c 01A9     		add	r1, sp, #4
 347 021e 2046     		mov	r0, r4
 348 0220 4FF0FF32 		mov	r2, #-1
 349 0224 FFF7FEFF 		bl	chMBFetch
 350              	.LVL33:
 351              		.loc 1 127 0
 352 0228 D0F10101 		rsbs	r1, r0, #1
 353 022c 38BF     		it	cc
 354 022e 0021     		movcc	r1, #0
 355 0230 0B20     		movs	r0, #11
 356              	.LVL34:
 357 0232 FFF7FEFF 		bl	_test_assert
 358 0236 0028     		cmp	r0, #0
 359 0238 7FF439AF 		bne	.L2
 360              		.loc 1 128 0
 361 023c 9DF80400 		ldrb	r0, [sp, #4]	@ zero_extendqisi2
 362 0240 FFF7FEFF 		bl	test_emit_token
 363              	.LVL35:
 364              		.loc 1 126 0
 365 0244 01A9     		add	r1, sp, #4
 366 0246 2046     		mov	r0, r4
 367 0248 4FF0FF32 		mov	r2, #-1
 368 024c FFF7FEFF 		bl	chMBFetch
 369              	.LVL36:
 370              		.loc 1 127 0
 371 0250 D0F10101 		rsbs	r1, r0, #1
 372 0254 38BF     		it	cc
 373 0256 0021     		movcc	r1, #0
 374 0258 0B20     		movs	r0, #11
 375              	.LVL37:
 376 025a FFF7FEFF 		bl	_test_assert
 377 025e 0028     		cmp	r0, #0
 378 0260 7FF425AF 		bne	.L2
 379              		.loc 1 128 0
 380 0264 9DF80400 		ldrb	r0, [sp, #4]	@ zero_extendqisi2
 381 0268 FFF7FEFF 		bl	test_emit_token
 382              	.LVL38:
 383              		.loc 1 126 0
 384 026c 01A9     		add	r1, sp, #4
 385 026e 2046     		mov	r0, r4
 386 0270 4FF0FF32 		mov	r2, #-1
 387 0274 FFF7FEFF 		bl	chMBFetch
 388              	.LVL39:
 389              		.loc 1 127 0
 390 0278 D0F10101 		rsbs	r1, r0, #1
 391 027c 38BF     		it	cc
 392 027e 0021     		movcc	r1, #0
 393 0280 0B20     		movs	r0, #11
 394              	.LVL40:
 395 0282 FFF7FEFF 		bl	_test_assert
 396 0286 0028     		cmp	r0, #0
 397 0288 7FF411AF 		bne	.L2
ARM GAS  /tmp/ccWBsmnE.s 			page 8


 398              		.loc 1 128 0
 399 028c 9DF80400 		ldrb	r0, [sp, #4]	@ zero_extendqisi2
 400 0290 FFF7FEFF 		bl	test_emit_token
 401              	.LVL41:
 402              		.loc 1 130 0
 403 0294 40F20001 		movw	r1, #:lower16:.LC0
 404 0298 0C20     		movs	r0, #12
 405 029a C0F20001 		movt	r1, #:upper16:.LC0
 406 029e FFF7FEFF 		bl	_test_assert_sequence
 407 02a2 0028     		cmp	r0, #0
 408 02a4 7FF403AF 		bne	.L2
 409              		.loc 1 135 0
 410 02a8 4721     		movs	r1, #71
 411 02aa 2046     		mov	r0, r4
 412 02ac 4FF0FF32 		mov	r2, #-1
 413 02b0 FFF7FEFF 		bl	chMBPost
 414              	.LVL42:
 415              		.loc 1 136 0
 416 02b4 D0F10101 		rsbs	r1, r0, #1
 417 02b8 38BF     		it	cc
 418 02ba 0021     		movcc	r1, #0
 419 02bc 0D20     		movs	r0, #13
 420              	.LVL43:
 421 02be FFF7FEFF 		bl	_test_assert
 422 02c2 0028     		cmp	r0, #0
 423 02c4 7FF4F3AE 		bne	.L2
 424              		.loc 1 137 0
 425 02c8 40F20004 		movw	r4, #:lower16:.LANCHOR0
 426 02cc C0F20004 		movt	r4, #:upper16:.LANCHOR0
 427 02d0 01A9     		add	r1, sp, #4
 428 02d2 2046     		mov	r0, r4
 429 02d4 4FF0FF32 		mov	r2, #-1
 430 02d8 FFF7FEFF 		bl	chMBFetch
 431              	.LVL44:
 432              		.loc 1 138 0
 433 02dc D0F10101 		rsbs	r1, r0, #1
 434 02e0 38BF     		it	cc
 435 02e2 0021     		movcc	r1, #0
 436 02e4 0E20     		movs	r0, #14
 437              	.LVL45:
 438 02e6 FFF7FEFF 		bl	_test_assert
 439 02ea 0028     		cmp	r0, #0
 440 02ec 7FF4DFAE 		bne	.L2
 441              		.loc 1 139 0
 442 02f0 2268     		ldr	r2, [r4, #0]
 443 02f2 A368     		ldr	r3, [r4, #8]
 444 02f4 D11A     		subs	r1, r2, r3
 445 02f6 0F20     		movs	r0, #15
 446 02f8 D1F1000C 		rsbs	ip, r1, #0
 447 02fc 4CEB0101 		adc	r1, ip, r1
 448 0300 FFF7FEFF 		bl	_test_assert
 449 0304 0028     		cmp	r0, #0
 450 0306 7FF4D2AE 		bne	.L2
 451              		.loc 1 140 0
 452 030a 2268     		ldr	r2, [r4, #0]
 453 030c E368     		ldr	r3, [r4, #12]
 454 030e D11A     		subs	r1, r2, r3
ARM GAS  /tmp/ccWBsmnE.s 			page 9


 455 0310 1020     		movs	r0, #16
 456 0312 D1F1000E 		rsbs	lr, r1, #0
 457 0316 4EEB0101 		adc	r1, lr, r1
 458 031a FFF7FEFF 		bl	_test_assert
 459 031e 0028     		cmp	r0, #0
 460 0320 7FF4C5AE 		bne	.L2
 461              		.loc 1 145 0
 462 0324 01A9     		add	r1, sp, #4
 463 0326 0122     		movs	r2, #1
 464 0328 2046     		mov	r0, r4
 465 032a FFF7FEFF 		bl	chMBFetch
 466              	.LVL46:
 467              		.loc 1 146 0
 468 032e A0F1FF31 		sub	r1, r0, #-1
 469 0332 4842     		rsbs	r0, r1, #0
 470              	.LVL47:
 471 0334 40EB0101 		adc	r1, r0, r1
 472              	.LVL48:
 473 0338 1120     		movs	r0, #17
 474 033a FFF7FEFF 		bl	_test_assert
 475 033e 0028     		cmp	r0, #0
 476 0340 7FF4B5AE 		bne	.L2
 477              		.loc 1 147 0
 478              	@ 147 "../../../test/testmbox.c" 1
 479 0344 FFF7FEFF 		bl      _port_lock
 480              	@ 0 "" 2
 481              		.thumb
 482 0348 FFF7FEFF 		bl	dbg_check_lock
 483              		.loc 1 148 0
 484 034c 01A9     		add	r1, sp, #4
 485 034e 2046     		mov	r0, r4
 486 0350 FFF7FEFF 		bl	chMBFetchI
 487 0354 0546     		mov	r5, r0
 488              	.LVL49:
 489              		.loc 1 149 0
 490 0356 FFF7FEFF 		bl	dbg_check_unlock
 491              	.LVL50:
 492              	@ 149 "../../../test/testmbox.c" 1
 493 035a FFF7FEFF 		bl      _port_unlock
 494              	@ 0 "" 2
 495              		.loc 1 150 0
 496              		.thumb
 497 035e A5F1FF33 		sub	r3, r5, #-1
 498 0362 1220     		movs	r0, #18
 499 0364 5A42     		rsbs	r2, r3, #0
 500 0366 42EB0301 		adc	r1, r2, r3
 501 036a FFF7FEFF 		bl	_test_assert
 502 036e 0028     		cmp	r0, #0
 503 0370 7FF49DAE 		bne	.L2
 504              		.loc 1 155 0
 505              	@ 155 "../../../test/testmbox.c" 1
 506 0374 FFF7FEFF 		bl      _port_lock
 507              	@ 0 "" 2
 508              		.thumb
 509 0378 FFF7FEFF 		bl	dbg_check_lock
 510 037c 626A     		ldr	r2, [r4, #36]
 511 037e A2F10501 		sub	r1, r2, #5
ARM GAS  /tmp/ccWBsmnE.s 			page 10


 512 0382 1320     		movs	r0, #19
 513 0384 D1F1000C 		rsbs	ip, r1, #0
 514 0388 4CEB0101 		adc	r1, ip, r1
 515 038c FFF7FEFF 		bl	_test_assert
 516 0390 0028     		cmp	r0, #0
 517 0392 40F0F181 		bne	.L19
 518 0396 FFF7FEFF 		bl	dbg_check_unlock
 519              	@ 155 "../../../test/testmbox.c" 1
 520 039a FFF7FEFF 		bl      _port_unlock
 521              	@ 0 "" 2
 522              		.loc 1 156 0
 523              	@ 156 "../../../test/testmbox.c" 1
 524 039e FFF7FEFF 		bl      _port_lock
 525              	@ 0 "" 2
 526              		.thumb
 527 03a2 FFF7FEFF 		bl	dbg_check_lock
 528 03a6 A369     		ldr	r3, [r4, #24]
 529 03a8 1420     		movs	r0, #20
 530 03aa D3F10101 		rsbs	r1, r3, #1
 531 03ae 38BF     		it	cc
 532 03b0 0021     		movcc	r1, #0
 533 03b2 FFF7FEFF 		bl	_test_assert
 534 03b6 0028     		cmp	r0, #0
 535 03b8 40F0DE81 		bne	.L19
 536 03bc FFF7FEFF 		bl	dbg_check_unlock
 537              	@ 156 "../../../test/testmbox.c" 1
 538 03c0 FFF7FEFF 		bl      _port_unlock
 539              	@ 0 "" 2
 540              		.loc 1 157 0
 541              	@ 157 "../../../test/testmbox.c" 1
 542 03c4 FFF7FEFF 		bl      _port_lock
 543              	@ 0 "" 2
 544              		.thumb
 545 03c8 FFF7FEFF 		bl	dbg_check_lock
 546 03cc E268     		ldr	r2, [r4, #12]
 547 03ce A368     		ldr	r3, [r4, #8]
 548 03d0 D11A     		subs	r1, r2, r3
 549 03d2 1520     		movs	r0, #21
 550 03d4 D1F1000C 		rsbs	ip, r1, #0
 551 03d8 4CEB0101 		adc	r1, ip, r1
 552 03dc FFF7FEFF 		bl	_test_assert
 553 03e0 0028     		cmp	r0, #0
 554 03e2 40F0C981 		bne	.L19
 555 03e6 FFF7FEFF 		bl	dbg_check_unlock
 556              	@ 157 "../../../test/testmbox.c" 1
 557 03ea FFF7FEFF 		bl      _port_unlock
 558              	@ 0 "" 2
 559              		.loc 1 162 0
 560              	@ 162 "../../../test/testmbox.c" 1
 561 03ee FFF7FEFF 		bl      _port_lock
 562              	@ 0 "" 2
 563              		.thumb
 564 03f2 FFF7FEFF 		bl	dbg_check_lock
 565              		.loc 1 163 0
 566 03f6 4121     		movs	r1, #65
 567 03f8 2046     		mov	r0, r4
 568 03fa FFF7FEFF 		bl	chMBPostI
ARM GAS  /tmp/ccWBsmnE.s 			page 11


 569              	.LVL51:
 570              		.loc 1 164 0
 571 03fe D0F10101 		rsbs	r1, r0, #1
 572 0402 38BF     		it	cc
 573 0404 0021     		movcc	r1, #0
 574 0406 1620     		movs	r0, #22
 575              	.LVL52:
 576 0408 FFF7FEFF 		bl	_test_assert
 577 040c 0028     		cmp	r0, #0
 578 040e 7FF44EAE 		bne	.L2
 579              		.loc 1 165 0
 580 0412 4221     		movs	r1, #66
 581 0414 2046     		mov	r0, r4
 582 0416 FFF7FEFF 		bl	chMBPostI
 583              	.LVL53:
 584              		.loc 1 166 0
 585 041a D0F10101 		rsbs	r1, r0, #1
 586 041e 38BF     		it	cc
 587 0420 0021     		movcc	r1, #0
 588 0422 1720     		movs	r0, #23
 589              	.LVL54:
 590 0424 FFF7FEFF 		bl	_test_assert
 591 0428 0028     		cmp	r0, #0
 592 042a 7FF440AE 		bne	.L2
 593              		.loc 1 167 0
 594 042e 40F20004 		movw	r4, #:lower16:.LANCHOR0
 595 0432 C0F20004 		movt	r4, #:upper16:.LANCHOR0
 596 0436 4321     		movs	r1, #67
 597 0438 2046     		mov	r0, r4
 598 043a FFF7FEFF 		bl	chMBPostI
 599              	.LVL55:
 600              		.loc 1 168 0
 601 043e D0F10101 		rsbs	r1, r0, #1
 602 0442 38BF     		it	cc
 603 0444 0021     		movcc	r1, #0
 604 0446 1820     		movs	r0, #24
 605              	.LVL56:
 606 0448 FFF7FEFF 		bl	_test_assert
 607 044c 0028     		cmp	r0, #0
 608 044e 7FF42EAE 		bne	.L2
 609              		.loc 1 169 0
 610 0452 4421     		movs	r1, #68
 611 0454 2046     		mov	r0, r4
 612 0456 FFF7FEFF 		bl	chMBPostI
 613              	.LVL57:
 614              		.loc 1 170 0
 615 045a D0F10101 		rsbs	r1, r0, #1
 616 045e 38BF     		it	cc
 617 0460 0021     		movcc	r1, #0
 618 0462 1920     		movs	r0, #25
 619              	.LVL58:
 620 0464 FFF7FEFF 		bl	_test_assert
 621 0468 0028     		cmp	r0, #0
 622 046a 7FF420AE 		bne	.L2
 623              		.loc 1 171 0
 624 046e 4521     		movs	r1, #69
 625 0470 2046     		mov	r0, r4
ARM GAS  /tmp/ccWBsmnE.s 			page 12


 626 0472 FFF7FEFF 		bl	chMBPostI
 627 0476 0546     		mov	r5, r0
 628              	.LVL59:
 629              		.loc 1 172 0
 630 0478 FFF7FEFF 		bl	dbg_check_unlock
 631              	.LVL60:
 632              	@ 172 "../../../test/testmbox.c" 1
 633 047c FFF7FEFF 		bl      _port_unlock
 634              	@ 0 "" 2
 635              		.loc 1 173 0
 636              		.thumb
 637 0480 1A20     		movs	r0, #26
 638 0482 D5F10101 		rsbs	r1, r5, #1
 639 0486 38BF     		it	cc
 640 0488 0021     		movcc	r1, #0
 641 048a FFF7FEFF 		bl	_test_assert
 642 048e 0028     		cmp	r0, #0
 643 0490 7FF40DAE 		bne	.L2
 644              		.loc 1 174 0
 645 0494 E368     		ldr	r3, [r4, #12]
 646 0496 A268     		ldr	r2, [r4, #8]
 647 0498 991A     		subs	r1, r3, r2
 648 049a 1B20     		movs	r0, #27
 649 049c D1F1000E 		rsbs	lr, r1, #0
 650 04a0 4EEB0101 		adc	r1, lr, r1
 651 04a4 FFF7FEFF 		bl	_test_assert
 652 04a8 0028     		cmp	r0, #0
 653 04aa 7FF400AE 		bne	.L2
 654 04ae 0525     		movs	r5, #5
 655              	.LVL61:
 656              	.L10:
 657              		.loc 1 176 0
 658              	@ 176 "../../../test/testmbox.c" 1
 659 04b0 FFF7FEFF 		bl      _port_lock
 660              	@ 0 "" 2
 661              		.loc 1 177 0
 662              		.thumb
 663 04b4 40F20004 		movw	r4, #:lower16:.LANCHOR0
 664 04b8 C0F20004 		movt	r4, #:upper16:.LANCHOR0
 665              		.loc 1 176 0
 666 04bc FFF7FEFF 		bl	dbg_check_lock
 667              		.loc 1 177 0
 668 04c0 01A9     		add	r1, sp, #4
 669 04c2 2046     		mov	r0, r4
 670 04c4 FFF7FEFF 		bl	chMBFetchI
 671 04c8 0646     		mov	r6, r0
 672              	.LVL62:
 673              		.loc 1 178 0
 674 04ca FFF7FEFF 		bl	dbg_check_unlock
 675              	.LVL63:
 676              	@ 178 "../../../test/testmbox.c" 1
 677 04ce FFF7FEFF 		bl      _port_unlock
 678              	@ 0 "" 2
 679              		.loc 1 179 0
 680              		.thumb
 681 04d2 1C20     		movs	r0, #28
 682 04d4 D6F10101 		rsbs	r1, r6, #1
ARM GAS  /tmp/ccWBsmnE.s 			page 13


 683 04d8 38BF     		it	cc
 684 04da 0021     		movcc	r1, #0
 685 04dc FFF7FEFF 		bl	_test_assert
 686 04e0 0028     		cmp	r0, #0
 687 04e2 7FF4E4AD 		bne	.L2
 688              		.loc 1 180 0
 689 04e6 9DF80400 		ldrb	r0, [sp, #4]	@ zero_extendqisi2
 690 04ea FFF7FEFF 		bl	test_emit_token
 691              		.loc 1 175 0
 692 04ee 013D     		subs	r5, r5, #1
 693 04f0 DED1     		bne	.L10
 694              		.loc 1 182 0
 695 04f2 40F20001 		movw	r1, #:lower16:.LC0
 696 04f6 1D20     		movs	r0, #29
 697 04f8 C0F20001 		movt	r1, #:upper16:.LC0
 698 04fc FFF7FEFF 		bl	_test_assert_sequence
 699 0500 0028     		cmp	r0, #0
 700 0502 7FF4D4AD 		bne	.L2
 701              		.loc 1 183 0
 702              	@ 183 "../../../test/testmbox.c" 1
 703 0506 FFF7FEFF 		bl      _port_lock
 704              	@ 0 "" 2
 705              		.thumb
 706 050a FFF7FEFF 		bl	dbg_check_lock
 707 050e 636A     		ldr	r3, [r4, #36]
 708 0510 A3F10502 		sub	r2, r3, #5
 709 0514 1E20     		movs	r0, #30
 710 0516 5142     		rsbs	r1, r2, #0
 711 0518 41EB0201 		adc	r1, r1, r2
 712 051c FFF7FEFF 		bl	_test_assert
 713 0520 0028     		cmp	r0, #0
 714 0522 40F02981 		bne	.L19
 715 0526 FFF7FEFF 		bl	dbg_check_unlock
 716              	@ 183 "../../../test/testmbox.c" 1
 717 052a FFF7FEFF 		bl      _port_unlock
 718              	@ 0 "" 2
 719              		.loc 1 184 0
 720              	@ 184 "../../../test/testmbox.c" 1
 721 052e FFF7FEFF 		bl      _port_lock
 722              	@ 0 "" 2
 723              		.thumb
 724 0532 FFF7FEFF 		bl	dbg_check_lock
 725 0536 A169     		ldr	r1, [r4, #24]
 726 0538 1F20     		movs	r0, #31
 727 053a D1F10101 		rsbs	r1, r1, #1
 728 053e 38BF     		it	cc
 729 0540 0021     		movcc	r1, #0
 730 0542 FFF7FEFF 		bl	_test_assert
 731 0546 0028     		cmp	r0, #0
 732 0548 40F01681 		bne	.L19
 733 054c FFF7FEFF 		bl	dbg_check_unlock
 734              	@ 184 "../../../test/testmbox.c" 1
 735 0550 FFF7FEFF 		bl      _port_unlock
 736              	@ 0 "" 2
 737              		.loc 1 185 0
 738              		.thumb
 739 0554 E168     		ldr	r1, [r4, #12]
ARM GAS  /tmp/ccWBsmnE.s 			page 14


 740 0556 A268     		ldr	r2, [r4, #8]
 741 0558 8B1A     		subs	r3, r1, r2
 742 055a 2020     		movs	r0, #32
 743 055c 5A42     		rsbs	r2, r3, #0
 744 055e 42EB0301 		adc	r1, r2, r3
 745 0562 FFF7FEFF 		bl	_test_assert
 746 0566 0028     		cmp	r0, #0
 747 0568 7FF4A1AD 		bne	.L2
 748              		.loc 1 187 0
 749              	@ 187 "../../../test/testmbox.c" 1
 750 056c FFF7FEFF 		bl      _port_lock
 751              	@ 0 "" 2
 752              		.thumb
 753 0570 FFF7FEFF 		bl	dbg_check_lock
 754              		.loc 1 188 0
 755 0574 4521     		movs	r1, #69
 756 0576 2046     		mov	r0, r4
 757 0578 FFF7FEFF 		bl	chMBPostAheadI
 758              	.LVL64:
 759              		.loc 1 189 0
 760 057c D0F10101 		rsbs	r1, r0, #1
 761 0580 38BF     		it	cc
 762 0582 0021     		movcc	r1, #0
 763 0584 2120     		movs	r0, #33
 764              	.LVL65:
 765 0586 FFF7FEFF 		bl	_test_assert
 766 058a 0028     		cmp	r0, #0
 767 058c 7FF48FAD 		bne	.L2
 768              		.loc 1 190 0
 769 0590 4421     		movs	r1, #68
 770 0592 2046     		mov	r0, r4
 771 0594 FFF7FEFF 		bl	chMBPostAheadI
 772              	.LVL66:
 773              		.loc 1 191 0
 774 0598 D0F10101 		rsbs	r1, r0, #1
 775 059c 38BF     		it	cc
 776 059e 0021     		movcc	r1, #0
 777 05a0 2220     		movs	r0, #34
 778              	.LVL67:
 779 05a2 FFF7FEFF 		bl	_test_assert
 780 05a6 0028     		cmp	r0, #0
 781 05a8 7FF481AD 		bne	.L2
 782              		.loc 1 192 0
 783 05ac 4321     		movs	r1, #67
 784 05ae 2046     		mov	r0, r4
 785 05b0 FFF7FEFF 		bl	chMBPostAheadI
 786              	.LVL68:
 787              		.loc 1 193 0
 788 05b4 D0F10101 		rsbs	r1, r0, #1
 789 05b8 38BF     		it	cc
 790 05ba 0021     		movcc	r1, #0
 791 05bc 2320     		movs	r0, #35
 792              	.LVL69:
 793 05be FFF7FEFF 		bl	_test_assert
 794 05c2 0028     		cmp	r0, #0
 795 05c4 7FF473AD 		bne	.L2
 796              		.loc 1 194 0
ARM GAS  /tmp/ccWBsmnE.s 			page 15


 797 05c8 4221     		movs	r1, #66
 798 05ca 2046     		mov	r0, r4
 799 05cc FFF7FEFF 		bl	chMBPostAheadI
 800              	.LVL70:
 801              		.loc 1 195 0
 802 05d0 D0F10101 		rsbs	r1, r0, #1
 803 05d4 38BF     		it	cc
 804 05d6 0021     		movcc	r1, #0
 805 05d8 2420     		movs	r0, #36
 806              	.LVL71:
 807 05da FFF7FEFF 		bl	_test_assert
 808 05de 0028     		cmp	r0, #0
 809 05e0 7FF465AD 		bne	.L2
 810              		.loc 1 196 0
 811 05e4 40F20004 		movw	r4, #:lower16:.LANCHOR0
 812 05e8 C0F20004 		movt	r4, #:upper16:.LANCHOR0
 813 05ec 4121     		movs	r1, #65
 814 05ee 2046     		mov	r0, r4
 815 05f0 FFF7FEFF 		bl	chMBPostAheadI
 816 05f4 0546     		mov	r5, r0
 817              	.LVL72:
 818              		.loc 1 197 0
 819 05f6 FFF7FEFF 		bl	dbg_check_unlock
 820              	.LVL73:
 821              	@ 197 "../../../test/testmbox.c" 1
 822 05fa FFF7FEFF 		bl      _port_unlock
 823              	@ 0 "" 2
 824              		.loc 1 198 0
 825              		.thumb
 826 05fe 2520     		movs	r0, #37
 827 0600 D5F10101 		rsbs	r1, r5, #1
 828 0604 38BF     		it	cc
 829 0606 0021     		movcc	r1, #0
 830 0608 FFF7FEFF 		bl	_test_assert
 831 060c 0028     		cmp	r0, #0
 832 060e 7FF44EAD 		bne	.L2
 833              		.loc 1 199 0
 834 0612 A368     		ldr	r3, [r4, #8]
 835 0614 E268     		ldr	r2, [r4, #12]
 836 0616 D11A     		subs	r1, r2, r3
 837 0618 2620     		movs	r0, #38
 838 061a 4B42     		rsbs	r3, r1, #0
 839 061c 43EB0101 		adc	r1, r3, r1
 840 0620 FFF7FEFF 		bl	_test_assert
 841 0624 0028     		cmp	r0, #0
 842 0626 7FF442AD 		bne	.L2
 843 062a 0525     		movs	r5, #5
 844              	.LVL74:
 845              	.L13:
 846              		.loc 1 201 0
 847              	@ 201 "../../../test/testmbox.c" 1
 848 062c FFF7FEFF 		bl      _port_lock
 849              	@ 0 "" 2
 850              		.loc 1 202 0
 851              		.thumb
 852 0630 40F20004 		movw	r4, #:lower16:.LANCHOR0
 853 0634 C0F20004 		movt	r4, #:upper16:.LANCHOR0
ARM GAS  /tmp/ccWBsmnE.s 			page 16


 854              		.loc 1 201 0
 855 0638 FFF7FEFF 		bl	dbg_check_lock
 856              		.loc 1 202 0
 857 063c 01A9     		add	r1, sp, #4
 858 063e 2046     		mov	r0, r4
 859 0640 FFF7FEFF 		bl	chMBFetchI
 860 0644 0646     		mov	r6, r0
 861              	.LVL75:
 862              		.loc 1 203 0
 863 0646 FFF7FEFF 		bl	dbg_check_unlock
 864              	.LVL76:
 865              	@ 203 "../../../test/testmbox.c" 1
 866 064a FFF7FEFF 		bl      _port_unlock
 867              	@ 0 "" 2
 868              		.loc 1 204 0
 869              		.thumb
 870 064e 2720     		movs	r0, #39
 871 0650 D6F10101 		rsbs	r1, r6, #1
 872 0654 38BF     		it	cc
 873 0656 0021     		movcc	r1, #0
 874 0658 FFF7FEFF 		bl	_test_assert
 875 065c 0028     		cmp	r0, #0
 876 065e 7FF426AD 		bne	.L2
 877              		.loc 1 205 0
 878 0662 9DF80400 		ldrb	r0, [sp, #4]	@ zero_extendqisi2
 879 0666 FFF7FEFF 		bl	test_emit_token
 880              		.loc 1 200 0
 881 066a 013D     		subs	r5, r5, #1
 882 066c DED1     		bne	.L13
 883              		.loc 1 207 0
 884 066e 40F20001 		movw	r1, #:lower16:.LC0
 885 0672 2820     		movs	r0, #40
 886 0674 C0F20001 		movt	r1, #:upper16:.LC0
 887 0678 FFF7FEFF 		bl	_test_assert_sequence
 888 067c 0028     		cmp	r0, #0
 889 067e 7FF416AD 		bne	.L2
 890              		.loc 1 208 0
 891              	@ 208 "../../../test/testmbox.c" 1
 892 0682 FFF7FEFF 		bl      _port_lock
 893              	@ 0 "" 2
 894              		.thumb
 895 0686 FFF7FEFF 		bl	dbg_check_lock
 896 068a 626A     		ldr	r2, [r4, #36]
 897 068c A2F10501 		sub	r1, r2, #5
 898 0690 2920     		movs	r0, #41
 899 0692 D1F1000C 		rsbs	ip, r1, #0
 900 0696 4CEB0101 		adc	r1, ip, r1
 901 069a FFF7FEFF 		bl	_test_assert
 902 069e 0028     		cmp	r0, #0
 903 06a0 6AD1     		bne	.L19
 904 06a2 FFF7FEFF 		bl	dbg_check_unlock
 905              	@ 208 "../../../test/testmbox.c" 1
 906 06a6 FFF7FEFF 		bl      _port_unlock
 907              	@ 0 "" 2
 908              		.loc 1 209 0
 909              	@ 209 "../../../test/testmbox.c" 1
 910 06aa FFF7FEFF 		bl      _port_lock
ARM GAS  /tmp/ccWBsmnE.s 			page 17


 911              	@ 0 "" 2
 912              		.thumb
 913 06ae FFF7FEFF 		bl	dbg_check_lock
 914 06b2 A369     		ldr	r3, [r4, #24]
 915 06b4 2A20     		movs	r0, #42
 916 06b6 D3F10101 		rsbs	r1, r3, #1
 917 06ba 38BF     		it	cc
 918 06bc 0021     		movcc	r1, #0
 919 06be FFF7FEFF 		bl	_test_assert
 920 06c2 0028     		cmp	r0, #0
 921 06c4 58D1     		bne	.L19
 922 06c6 FFF7FEFF 		bl	dbg_check_unlock
 923              	@ 209 "../../../test/testmbox.c" 1
 924 06ca FFF7FEFF 		bl      _port_unlock
 925              	@ 0 "" 2
 926              		.loc 1 210 0
 927              		.thumb
 928 06ce E268     		ldr	r2, [r4, #12]
 929 06d0 A368     		ldr	r3, [r4, #8]
 930 06d2 D11A     		subs	r1, r2, r3
 931 06d4 2B20     		movs	r0, #43
 932 06d6 D1F1000E 		rsbs	lr, r1, #0
 933 06da 4EEB0101 		adc	r1, lr, r1
 934 06de FFF7FEFF 		bl	_test_assert
 935 06e2 0028     		cmp	r0, #0
 936 06e4 7FF4E3AC 		bne	.L2
 937              		.loc 1 215 0
 938 06e8 2046     		mov	r0, r4
 939 06ea FFF7FEFF 		bl	chMBReset
 940              		.loc 1 220 0
 941              	@ 220 "../../../test/testmbox.c" 1
 942 06ee FFF7FEFF 		bl      _port_lock
 943              	@ 0 "" 2
 944              		.thumb
 945 06f2 FFF7FEFF 		bl	dbg_check_lock
 946 06f6 626A     		ldr	r2, [r4, #36]
 947 06f8 A2F10501 		sub	r1, r2, #5
 948 06fc 2C20     		movs	r0, #44
 949 06fe D1F1000C 		rsbs	ip, r1, #0
 950 0702 4CEB0101 		adc	r1, ip, r1
 951 0706 FFF7FEFF 		bl	_test_assert
 952 070a A8BB     		cbnz	r0, .L19
 953 070c FFF7FEFF 		bl	dbg_check_unlock
 954              	@ 220 "../../../test/testmbox.c" 1
 955 0710 FFF7FEFF 		bl      _port_unlock
 956              	@ 0 "" 2
 957              		.loc 1 221 0
 958              	@ 221 "../../../test/testmbox.c" 1
 959 0714 FFF7FEFF 		bl      _port_lock
 960              	@ 0 "" 2
 961              		.thumb
 962 0718 FFF7FEFF 		bl	dbg_check_lock
 963 071c A369     		ldr	r3, [r4, #24]
 964 071e 2D20     		movs	r0, #45
 965 0720 D3F10101 		rsbs	r1, r3, #1
 966 0724 38BF     		it	cc
 967 0726 0021     		movcc	r1, #0
ARM GAS  /tmp/ccWBsmnE.s 			page 18


 968 0728 FFF7FEFF 		bl	_test_assert
 969 072c 20BB     		cbnz	r0, .L19
 970 072e FFF7FEFF 		bl	dbg_check_unlock
 971              	@ 221 "../../../test/testmbox.c" 1
 972 0732 FFF7FEFF 		bl      _port_unlock
 973              	@ 0 "" 2
 974              		.loc 1 222 0
 975              	@ 222 "../../../test/testmbox.c" 1
 976 0736 FFF7FEFF 		bl      _port_lock
 977              	@ 0 "" 2
 978              		.thumb
 979 073a FFF7FEFF 		bl	dbg_check_lock
 980 073e 2268     		ldr	r2, [r4, #0]
 981 0740 A368     		ldr	r3, [r4, #8]
 982 0742 D11A     		subs	r1, r2, r3
 983 0744 2E20     		movs	r0, #46
 984 0746 D1F1000C 		rsbs	ip, r1, #0
 985 074a 4CEB0101 		adc	r1, ip, r1
 986 074e FFF7FEFF 		bl	_test_assert
 987 0752 88B9     		cbnz	r0, .L19
 988 0754 FFF7FEFF 		bl	dbg_check_unlock
 989              	@ 222 "../../../test/testmbox.c" 1
 990 0758 FFF7FEFF 		bl      _port_unlock
 991              	@ 0 "" 2
 992              		.loc 1 223 0
 993              	@ 223 "../../../test/testmbox.c" 1
 994 075c FFF7FEFF 		bl      _port_lock
 995              	@ 0 "" 2
 996              		.thumb
 997 0760 FFF7FEFF 		bl	dbg_check_lock
 998 0764 2368     		ldr	r3, [r4, #0]
 999 0766 E268     		ldr	r2, [r4, #12]
 1000 0768 991A     		subs	r1, r3, r2
 1001 076a 2F20     		movs	r0, #47
 1002 076c D1F1000C 		rsbs	ip, r1, #0
 1003 0770 4CEB0101 		adc	r1, ip, r1
 1004 0774 FFF7FEFF 		bl	_test_assert
 1005              	.LVL77:
 1006              	.L19:
 1007 0778 FFF7FEFF 		bl	dbg_check_unlock
 1008              	@ 223 "../../../test/testmbox.c" 1
 1009 077c FFF7FEFF 		bl      _port_unlock
 1010              	@ 0 "" 2
 1011              		.thumb
 1012 0780 95E4     		b	.L2
 1013              	.LBE5:
 1014              	.LBE4:
 1015              		.cfi_endproc
 1016              	.LFE1:
 1017              		.size	mbox1_execute, .-mbox1_execute
 1018              		.global	patternmbox
 1019              		.global	testmbox1
 1020 0782 00BFAFF3 		.section	.data.mb1,"aw",%progbits
 1020      0080AFF3 
 1020      0080AFF3 
 1020      0080
 1021              		.align	2
ARM GAS  /tmp/ccWBsmnE.s 			page 19


 1022              		.set	.LANCHOR0,. + 0
 1023              		.type	mb1, %object
 1024              		.size	mb1, 40
 1025              	mb1:
 1026 0000 00000000 		.word	test
 1027 0004 14000000 		.word	test+20
 1028 0008 00000000 		.word	test
 1029 000c 00000000 		.word	test
 1030 0010 10000000 		.word	mb1+16
 1031 0014 10000000 		.word	mb1+16
 1032 0018 00000000 		.word	0
 1033 001c 1C000000 		.word	mb1+28
 1034 0020 1C000000 		.word	mb1+28
 1035 0024 05000000 		.word	5
 1036              		.section	.rodata.patternmbox,"a",%progbits
 1037              		.align	2
 1038              		.type	patternmbox, %object
 1039              		.size	patternmbox, 8
 1040              	patternmbox:
 1041 0000 00000000 		.word	testmbox1
 1042 0004 00000000 		.word	0
 1043              		.section	.rodata.str1.4,"aMS",%progbits,1
 1044              		.align	2
 1045              	.LC0:
 1046 0000 41424344 		.ascii	"ABCDE\000"
 1046      4500
 1047 0006 0000     		.space	2
 1048              	.LC1:
 1049 0008 4D61696C 		.ascii	"Mailboxes, queuing and timeouts\000"
 1049      626F7865 
 1049      732C2071 
 1049      75657569 
 1049      6E672061 
 1050              		.section	.rodata.testmbox1,"a",%progbits
 1051              		.align	2
 1052              		.type	testmbox1, %object
 1053              		.size	testmbox1, 16
 1054              	testmbox1:
 1055 0000 08000000 		.word	.LC1
 1056 0004 00000000 		.word	mbox1_setup
 1057 0008 00000000 		.word	0
 1058 000c 00000000 		.word	mbox1_execute
 1059              		.text
 1060              	.Letext0:
 1061              		.file 2 "/home/prana/CodeSourcery/ARM_EABI/bin/../lib/gcc/arm-none-eabi/4.6.3/../../../../arm-none
 1062              		.file 3 "../../../os/ports/GCC/ARMCMx/chtypes.h"
 1063              		.file 4 "../../../os/kernel/include/chlists.h"
 1064              		.file 5 "../../../os/kernel/include/chthreads.h"
 1065              		.file 6 "../../../os/ports/GCC/ARMCMx/chcore_v7m.h"
 1066              		.file 7 "../../../os/kernel/include/chsem.h"
 1067              		.file 8 "../../../os/kernel/include/chmtx.h"
 1068              		.file 9 "../../../os/kernel/include/chmboxes.h"
 1069              		.file 10 "../../../test/test.h"