ARM GAS  /tmp/cc3tBXIF.s 			page 1


   1              		.syntax unified
   2              		.cpu cortex-m4
   3              		.fpu softvfp
   4              		.eabi_attribute 20, 1
   5              		.eabi_attribute 21, 1
   6              		.eabi_attribute 23, 3
   7              		.eabi_attribute 24, 1
   8              		.eabi_attribute 25, 1
   9              		.eabi_attribute 26, 1
  10              		.eabi_attribute 30, 2
  11              		.eabi_attribute 34, 1
  12              		.eabi_attribute 18, 4
  13              		.thumb
  14              		.file	"tm.c"
  15              		.text
  16              	.Ltext0:
  17              		.cfi_sections	.debug_frame
  18              		.section	.text.tm_start,"ax",%progbits
  19              		.align	2
  20              		.p2align 4,,15
  21              		.thumb
  22              		.thumb_func
  23              		.type	tm_start, %function
  24              	tm_start:
  25              	.LFB111:
  26              		.file 1 "../../../os/hal/src/tm.c"
  27              		.loc 1 62 0
  28              		.cfi_startproc
  29              		@ args = 0, pretend = 0, frame = 0
  30              		@ frame_needed = 0, uses_anonymous_args = 0
  31              		@ link register save eliminated.
  32              	.LVL0:
  33              		.loc 1 64 0
  34 0000 4FF48051 		mov	r1, #4096
  35 0004 CEF20001 		movt	r1, 57344
  36 0008 4B68     		ldr	r3, [r1, #4]
  37 000a 8360     		str	r3, [r0, #8]
  38              		.loc 1 65 0
  39 000c 7047     		bx	lr
  40              		.cfi_endproc
  41              	.LFE111:
  42              		.size	tm_start, .-tm_start
  43 000e 00BF     		.section	.text.tm_stop,"ax",%progbits
  44              		.align	2
  45              		.p2align 4,,15
  46              		.thumb
  47              		.thumb_func
  48              		.type	tm_stop, %function
  49              	tm_stop:
  50              	.LFB112:
  51              		.loc 1 74 0
  52              		.cfi_startproc
  53              		@ args = 0, pretend = 0, frame = 0
  54              		@ frame_needed = 0, uses_anonymous_args = 0
  55              		@ link register save eliminated.
  56              	.LVL1:
  57 0000 10B4     		push	{r4}
ARM GAS  /tmp/cc3tBXIF.s 			page 2


  58              	.LCFI0:
  59              		.cfi_def_cfa_offset 4
  60              		.cfi_offset 4, -4
  61              		.loc 1 76 0
  62 0002 4FF48054 		mov	r4, #4096
  63 0006 CEF20004 		movt	r4, 57344
  64              		.loc 1 77 0
  65 000a 40F2000C 		movw	ip, #:lower16:.LANCHOR0
  66 000e C0F2000C 		movt	ip, #:upper16:.LANCHOR0
  67              		.loc 1 76 0
  68 0012 6468     		ldr	r4, [r4, #4]
  69              	.LVL2:
  70              		.loc 1 77 0
  71 0014 8368     		ldr	r3, [r0, #8]
  72 0016 DCF80010 		ldr	r1, [ip, #0]
  73              		.loc 1 78 0
  74 001a C268     		ldr	r2, [r0, #12]
  75              		.loc 1 77 0
  76 001c E31A     		subs	r3, r4, r3
  77 001e 5B1A     		subs	r3, r3, r1
  78              		.loc 1 78 0
  79 0020 9342     		cmp	r3, r2
  80              		.loc 1 77 0
  81 0022 8360     		str	r3, [r0, #8]
  82              		.loc 1 79 0
  83 0024 88BF     		it	hi
  84 0026 C360     		strhi	r3, [r0, #12]
  85              		.loc 1 78 0
  86 0028 03D8     		bhi	.L2
  87              	.LVL3:
  88              	.LBB6:
  89              	.LBB7:
  90              		.loc 1 80 0
  91 002a 0269     		ldr	r2, [r0, #16]
  92 002c 9342     		cmp	r3, r2
  93              		.loc 1 81 0
  94 002e 38BF     		it	cc
  95 0030 0361     		strcc	r3, [r0, #16]
  96              	.LVL4:
  97              	.L2:
  98              	.LBE7:
  99              	.LBE6:
 100              		.loc 1 82 0
 101 0032 10BC     		pop	{r4}
 102 0034 7047     		bx	lr
 103              		.cfi_endproc
 104              	.LFE112:
 105              		.size	tm_stop, .-tm_stop
 106 0036 00BFAFF3 		.section	.text.tmInit,"ax",%progbits
 106      0080AFF3 
 106      0080
 107              		.align	2
 108              		.p2align 4,,15
 109              		.global	tmInit
 110              		.thumb
 111              		.thumb_func
 112              		.type	tmInit, %function
ARM GAS  /tmp/cc3tBXIF.s 			page 3


 113              	tmInit:
 114              	.LFB113:
 115              		.loc 1 97 0
 116              		.cfi_startproc
 117              		@ args = 0, pretend = 0, frame = 24
 118              		@ frame_needed = 0, uses_anonymous_args = 0
 119 0000 10B5     		push	{r4, lr}
 120              	.LCFI1:
 121              		.cfi_def_cfa_offset 8
 122              		.cfi_offset 14, -4
 123              		.cfi_offset 4, -8
 124              	.LBB8:
 125              	.LBB9:
 126              		.loc 1 120 0
 127 0002 40F20002 		movw	r2, #:lower16:tm_stop
 128              	.LBE9:
 129              	.LBE8:
 130              		.loc 1 97 0
 131 0006 86B0     		sub	sp, sp, #24
 132              	.LCFI2:
 133              		.cfi_def_cfa_offset 32
 134              		.loc 1 103 0
 135 0008 40F20004 		movw	r4, #:lower16:.LANCHOR0
 136 000c C0F20004 		movt	r4, #:upper16:.LANCHOR0
 137              	.LBB14:
 138              	.LBB10:
 139              		.loc 1 120 0
 140 0010 C0F20002 		movt	r2, #:upper16:tm_stop
 141              		.loc 1 119 0
 142 0014 40F20001 		movw	r1, #:lower16:tm_start
 143              	.LBE10:
 144              	.LBE14:
 145              		.loc 1 103 0
 146 0018 0023     		movs	r3, #0
 147              	.LBB15:
 148              	.LBB11:
 149              		.loc 1 119 0
 150 001a C0F20001 		movt	r1, #:upper16:tm_start
 151              	.LBE11:
 152              	.LBE15:
 153              		.loc 1 105 0
 154 001e 01A8     		add	r0, sp, #4
 155              	.LBB16:
 156              	.LBB12:
 157              		.loc 1 120 0
 158 0020 0292     		str	r2, [sp, #8]
 159              		.loc 1 123 0
 160 0022 4FF0FF32 		mov	r2, #-1
 161              	.LBE12:
 162              	.LBE16:
 163              		.loc 1 103 0
 164 0026 2360     		str	r3, [r4, #0]
 165              	.LVL5:
 166              	.LBB17:
 167              	.LBB13:
 168              		.loc 1 121 0
 169 0028 0393     		str	r3, [sp, #12]
ARM GAS  /tmp/cc3tBXIF.s 			page 4


 170              		.loc 1 122 0
 171 002a 0493     		str	r3, [sp, #16]
 172              		.loc 1 119 0
 173 002c 0191     		str	r1, [sp, #4]
 174              		.loc 1 123 0
 175 002e 0592     		str	r2, [sp, #20]
 176              	.LBE13:
 177              	.LBE17:
 178              		.loc 1 105 0
 179 0030 FFF7FEFF 		bl	tm_start
 180              	.LVL6:
 181              		.loc 1 106 0
 182 0034 01A8     		add	r0, sp, #4
 183              	.LVL7:
 184 0036 0299     		ldr	r1, [sp, #8]
 185 0038 8847     		blx	r1
 186              	.LVL8:
 187              		.loc 1 107 0
 188 003a 039B     		ldr	r3, [sp, #12]
 189 003c 2360     		str	r3, [r4, #0]
 190              		.loc 1 108 0
 191 003e 06B0     		add	sp, sp, #24
 192 0040 10BD     		pop	{r4, pc}
 193              		.cfi_endproc
 194              	.LFE113:
 195              		.size	tmInit, .-tmInit
 196 0042 00BFAFF3 		.section	.text.tmObjectInit,"ax",%progbits
 196      0080AFF3 
 196      0080AFF3 
 196      0080
 197              		.align	2
 198              		.p2align 4,,15
 199              		.global	tmObjectInit
 200              		.thumb
 201              		.thumb_func
 202              		.type	tmObjectInit, %function
 203              	tmObjectInit:
 204              	.LFB114:
 205              		.loc 1 117 0
 206              		.cfi_startproc
 207              		@ args = 0, pretend = 0, frame = 0
 208              		@ frame_needed = 0, uses_anonymous_args = 0
 209              		@ link register save eliminated.
 210              	.LVL9:
 211              		.loc 1 119 0
 212 0000 40F20002 		movw	r2, #:lower16:tm_start
 213              		.loc 1 120 0
 214 0004 40F20003 		movw	r3, #:lower16:tm_stop
 215 0008 C0F20003 		movt	r3, #:upper16:tm_stop
 216              		.loc 1 119 0
 217 000c C0F20002 		movt	r2, #:upper16:tm_start
 218              		.loc 1 121 0
 219 0010 0021     		movs	r1, #0
 220              		.loc 1 120 0
 221 0012 80E80C00 		stmia	r0, {r2, r3}
 222              		.loc 1 123 0
 223 0016 4FF0FF33 		mov	r3, #-1
ARM GAS  /tmp/cc3tBXIF.s 			page 5


 224              		.loc 1 121 0
 225 001a 8160     		str	r1, [r0, #8]
 226              		.loc 1 122 0
 227 001c C160     		str	r1, [r0, #12]
 228              		.loc 1 123 0
 229 001e 0361     		str	r3, [r0, #16]
 230              		.loc 1 124 0
 231 0020 7047     		bx	lr
 232              		.cfi_endproc
 233              	.LFE114:
 234              		.size	tmObjectInit, .-tmObjectInit
 235 0022 00BFAFF3 		.section	.bss.measurement_offset,"aw",%nobits
 235      0080AFF3 
 235      0080AFF3 
 235      0080
 236              		.align	2
 237              		.set	.LANCHOR0,. + 0
 238              		.type	measurement_offset, %object
 239              		.size	measurement_offset, 4
 240              	measurement_offset:
 241 0000 00000000 		.space	4
 242              		.text
 243              	.Letext0:
 244              		.file 2 "/home/prana/CodeSourcery/ARM_EABI/bin/../lib/gcc/arm-none-eabi/4.6.3/../../../../arm-none
 245              		.file 3 "../../../os/ports/common/ARMCMx/nvic.h"
 246              		.file 4 "../../../os/hal/platforms/STM32F4xx/hal_lld.h"
 247              		.file 5 "../../../os/hal/include/tm.h"
 248              		.file 6 "../../../os/ports/common/ARMCMx/CMSIS/include/core_cm4.h"